ARM GAS  /tmp/ccuXX9QQ.s 			page 1


   1              		.cpu cortex-m4
   2              		.eabi_attribute 27, 1
   3              		.eabi_attribute 28, 1
   4              		.eabi_attribute 20, 1
   5              		.eabi_attribute 21, 1
   6              		.eabi_attribute 23, 3
   7              		.eabi_attribute 24, 1
   8              		.eabi_attribute 25, 1
   9              		.eabi_attribute 26, 1
  10              		.eabi_attribute 30, 1
  11              		.eabi_attribute 34, 1
  12              		.eabi_attribute 18, 4
  13              		.file	"bsp_usbd_template.c"
  14              		.text
  15              	.Ltext0:
  16              		.cfi_sections	.debug_frame
  17              		.section	.text.BSP_USBD_Template_Init,"ax",%progbits
  18              		.align	1
  19              		.arch armv7e-m
  20              		.syntax unified
  21              		.thumb
  22              		.thumb_func
  23              		.fpu fpv4-sp-d16
  25              	BSP_USBD_Template_Init:
  26              	.LVL0:
  27              	.LFB0:
  28              		.file 1 "bsp/STMicroelectronics/rtos/bsp_usbd_template.c"
   1:bsp/STMicroelectronics/rtos/bsp_usbd_template.c **** /*
   2:bsp/STMicroelectronics/rtos/bsp_usbd_template.c **** ***************************************************************************************************
   3:bsp/STMicroelectronics/rtos/bsp_usbd_template.c **** *                                            EXAMPLE CODE
   4:bsp/STMicroelectronics/rtos/bsp_usbd_template.c **** *
   5:bsp/STMicroelectronics/rtos/bsp_usbd_template.c **** *               This file is provided as an example on how to use Micrium products.
   6:bsp/STMicroelectronics/rtos/bsp_usbd_template.c **** *
   7:bsp/STMicroelectronics/rtos/bsp_usbd_template.c **** *               Please feel free to use any application code labeled as 'EXAMPLE CODE' in
   8:bsp/STMicroelectronics/rtos/bsp_usbd_template.c **** *               your application products.  Example code may be used as is, in whole or in
   9:bsp/STMicroelectronics/rtos/bsp_usbd_template.c **** *               part, or may be used as a reference only. This file can be modified as
  10:bsp/STMicroelectronics/rtos/bsp_usbd_template.c **** *               required to meet the end-product requirements.
  11:bsp/STMicroelectronics/rtos/bsp_usbd_template.c **** *
  12:bsp/STMicroelectronics/rtos/bsp_usbd_template.c **** *               Please help us continue to provide the Embedded community with the finest
  13:bsp/STMicroelectronics/rtos/bsp_usbd_template.c **** *               software available.  Your honesty is greatly appreciated.
  14:bsp/STMicroelectronics/rtos/bsp_usbd_template.c **** *
  15:bsp/STMicroelectronics/rtos/bsp_usbd_template.c **** *                    You can find our product's documentation at: doc.micrium.com
  16:bsp/STMicroelectronics/rtos/bsp_usbd_template.c **** *
  17:bsp/STMicroelectronics/rtos/bsp_usbd_template.c **** *                          For more information visit us at: www.micrium.com
  18:bsp/STMicroelectronics/rtos/bsp_usbd_template.c **** ***************************************************************************************************
  19:bsp/STMicroelectronics/rtos/bsp_usbd_template.c **** */
  20:bsp/STMicroelectronics/rtos/bsp_usbd_template.c **** 
  21:bsp/STMicroelectronics/rtos/bsp_usbd_template.c **** /*
  22:bsp/STMicroelectronics/rtos/bsp_usbd_template.c **** ***************************************************************************************************
  23:bsp/STMicroelectronics/rtos/bsp_usbd_template.c **** *
  24:bsp/STMicroelectronics/rtos/bsp_usbd_template.c **** *                       USB DEVICE DRIVER BOARD SUPPORT PACKAGE (BSP) FUNCTIONS
  25:bsp/STMicroelectronics/rtos/bsp_usbd_template.c **** *
  26:bsp/STMicroelectronics/rtos/bsp_usbd_template.c **** *                                              TEMPLATE
  27:bsp/STMicroelectronics/rtos/bsp_usbd_template.c **** *
  28:bsp/STMicroelectronics/rtos/bsp_usbd_template.c **** * Filename : bsp_usbd_template.c
  29:bsp/STMicroelectronics/rtos/bsp_usbd_template.c **** * Version  : V4.05.06
  30:bsp/STMicroelectronics/rtos/bsp_usbd_template.c **** ***************************************************************************************************
ARM GAS  /tmp/ccuXX9QQ.s 			page 2


  31:bsp/STMicroelectronics/rtos/bsp_usbd_template.c **** */
  32:bsp/STMicroelectronics/rtos/bsp_usbd_template.c **** 
  33:bsp/STMicroelectronics/rtos/bsp_usbd_template.c **** /*
  34:bsp/STMicroelectronics/rtos/bsp_usbd_template.c **** ***************************************************************************************************
  35:bsp/STMicroelectronics/rtos/bsp_usbd_template.c **** *                                            INCLUDE FILES
  36:bsp/STMicroelectronics/rtos/bsp_usbd_template.c **** ***************************************************************************************************
  37:bsp/STMicroelectronics/rtos/bsp_usbd_template.c **** */
  38:bsp/STMicroelectronics/rtos/bsp_usbd_template.c **** 
  39:bsp/STMicroelectronics/rtos/bsp_usbd_template.c **** #include  "../../Source/usbd_core.h"
  40:bsp/STMicroelectronics/rtos/bsp_usbd_template.c **** #include  "bsp_usbd_template.h"
  41:bsp/STMicroelectronics/rtos/bsp_usbd_template.c **** 
  42:bsp/STMicroelectronics/rtos/bsp_usbd_template.c **** 
  43:bsp/STMicroelectronics/rtos/bsp_usbd_template.c **** /*
  44:bsp/STMicroelectronics/rtos/bsp_usbd_template.c **** ***************************************************************************************************
  45:bsp/STMicroelectronics/rtos/bsp_usbd_template.c **** *                                            LOCAL DEFINES
  46:bsp/STMicroelectronics/rtos/bsp_usbd_template.c **** ***************************************************************************************************
  47:bsp/STMicroelectronics/rtos/bsp_usbd_template.c **** */
  48:bsp/STMicroelectronics/rtos/bsp_usbd_template.c **** 
  49:bsp/STMicroelectronics/rtos/bsp_usbd_template.c **** 
  50:bsp/STMicroelectronics/rtos/bsp_usbd_template.c **** /*
  51:bsp/STMicroelectronics/rtos/bsp_usbd_template.c **** ***************************************************************************************************
  52:bsp/STMicroelectronics/rtos/bsp_usbd_template.c **** *                                           LOCAL CONSTANTS
  53:bsp/STMicroelectronics/rtos/bsp_usbd_template.c **** ***************************************************************************************************
  54:bsp/STMicroelectronics/rtos/bsp_usbd_template.c **** */
  55:bsp/STMicroelectronics/rtos/bsp_usbd_template.c **** 
  56:bsp/STMicroelectronics/rtos/bsp_usbd_template.c **** 
  57:bsp/STMicroelectronics/rtos/bsp_usbd_template.c **** /*
  58:bsp/STMicroelectronics/rtos/bsp_usbd_template.c **** ***************************************************************************************************
  59:bsp/STMicroelectronics/rtos/bsp_usbd_template.c **** *                                            LOCAL TABLES
  60:bsp/STMicroelectronics/rtos/bsp_usbd_template.c **** ***************************************************************************************************
  61:bsp/STMicroelectronics/rtos/bsp_usbd_template.c **** */
  62:bsp/STMicroelectronics/rtos/bsp_usbd_template.c **** 
  63:bsp/STMicroelectronics/rtos/bsp_usbd_template.c **** 
  64:bsp/STMicroelectronics/rtos/bsp_usbd_template.c **** /*
  65:bsp/STMicroelectronics/rtos/bsp_usbd_template.c **** ***************************************************************************************************
  66:bsp/STMicroelectronics/rtos/bsp_usbd_template.c **** *                                USB DEVICE ENDPOINT INFORMATION TABLE
  67:bsp/STMicroelectronics/rtos/bsp_usbd_template.c **** ***************************************************************************************************
  68:bsp/STMicroelectronics/rtos/bsp_usbd_template.c **** */
  69:bsp/STMicroelectronics/rtos/bsp_usbd_template.c **** 
  70:bsp/STMicroelectronics/rtos/bsp_usbd_template.c **** USBD_DRV_EP_INFO  USBD_DrvEP_InfoTbl_Template[] = {
  71:bsp/STMicroelectronics/rtos/bsp_usbd_template.c ****     {USBD_EP_INFO_TYPE_CTRL                                                   | USBD_EP_INFO_DIR_OU
  72:bsp/STMicroelectronics/rtos/bsp_usbd_template.c ****     {USBD_EP_INFO_TYPE_CTRL                                                   | USBD_EP_INFO_DIR_IN
  73:bsp/STMicroelectronics/rtos/bsp_usbd_template.c ****     {USBD_EP_INFO_TYPE_ISOC | USBD_EP_INFO_TYPE_BULK | USBD_EP_INFO_TYPE_INTR | USBD_EP_INFO_DIR_OU
  74:bsp/STMicroelectronics/rtos/bsp_usbd_template.c ****     {USBD_EP_INFO_TYPE_ISOC | USBD_EP_INFO_TYPE_BULK | USBD_EP_INFO_TYPE_INTR | USBD_EP_INFO_DIR_IN
  75:bsp/STMicroelectronics/rtos/bsp_usbd_template.c ****     {USBD_EP_INFO_TYPE_ISOC | USBD_EP_INFO_TYPE_BULK | USBD_EP_INFO_TYPE_INTR | USBD_EP_INFO_DIR_OU
  76:bsp/STMicroelectronics/rtos/bsp_usbd_template.c ****     {USBD_EP_INFO_TYPE_ISOC | USBD_EP_INFO_TYPE_BULK | USBD_EP_INFO_TYPE_INTR | USBD_EP_INFO_DIR_IN
  77:bsp/STMicroelectronics/rtos/bsp_usbd_template.c ****     {USBD_EP_INFO_TYPE_ISOC | USBD_EP_INFO_TYPE_BULK | USBD_EP_INFO_TYPE_INTR | USBD_EP_INFO_DIR_OU
  78:bsp/STMicroelectronics/rtos/bsp_usbd_template.c ****     {USBD_EP_INFO_TYPE_ISOC | USBD_EP_INFO_TYPE_BULK | USBD_EP_INFO_TYPE_INTR | USBD_EP_INFO_DIR_IN
  79:bsp/STMicroelectronics/rtos/bsp_usbd_template.c ****     {DEF_BIT_NONE                                                                                 ,
  80:bsp/STMicroelectronics/rtos/bsp_usbd_template.c **** };
  81:bsp/STMicroelectronics/rtos/bsp_usbd_template.c **** 
  82:bsp/STMicroelectronics/rtos/bsp_usbd_template.c **** 
  83:bsp/STMicroelectronics/rtos/bsp_usbd_template.c **** /*
  84:bsp/STMicroelectronics/rtos/bsp_usbd_template.c **** ***************************************************************************************************
  85:bsp/STMicroelectronics/rtos/bsp_usbd_template.c **** *                                       LOCAL GLOBAL VARIABLES
  86:bsp/STMicroelectronics/rtos/bsp_usbd_template.c **** ***************************************************************************************************
  87:bsp/STMicroelectronics/rtos/bsp_usbd_template.c **** */
ARM GAS  /tmp/ccuXX9QQ.s 			page 3


  88:bsp/STMicroelectronics/rtos/bsp_usbd_template.c **** 
  89:bsp/STMicroelectronics/rtos/bsp_usbd_template.c **** static  USBD_DRV  *BSP_USBD_Controller_DrvPtr;
  90:bsp/STMicroelectronics/rtos/bsp_usbd_template.c **** 
  91:bsp/STMicroelectronics/rtos/bsp_usbd_template.c **** 
  92:bsp/STMicroelectronics/rtos/bsp_usbd_template.c **** /*
  93:bsp/STMicroelectronics/rtos/bsp_usbd_template.c **** ***************************************************************************************************
  94:bsp/STMicroelectronics/rtos/bsp_usbd_template.c **** *                                            LOCAL MACROS
  95:bsp/STMicroelectronics/rtos/bsp_usbd_template.c **** ***************************************************************************************************
  96:bsp/STMicroelectronics/rtos/bsp_usbd_template.c **** */
  97:bsp/STMicroelectronics/rtos/bsp_usbd_template.c **** 
  98:bsp/STMicroelectronics/rtos/bsp_usbd_template.c **** 
  99:bsp/STMicroelectronics/rtos/bsp_usbd_template.c **** /*
 100:bsp/STMicroelectronics/rtos/bsp_usbd_template.c **** ***************************************************************************************************
 101:bsp/STMicroelectronics/rtos/bsp_usbd_template.c **** *                                      LOCAL FUNCTION PROTOTYPES
 102:bsp/STMicroelectronics/rtos/bsp_usbd_template.c **** ***************************************************************************************************
 103:bsp/STMicroelectronics/rtos/bsp_usbd_template.c **** */
 104:bsp/STMicroelectronics/rtos/bsp_usbd_template.c **** 
 105:bsp/STMicroelectronics/rtos/bsp_usbd_template.c **** static  void  BSP_USBD_Template_Init        (USBD_DRV  *p_drv);
 106:bsp/STMicroelectronics/rtos/bsp_usbd_template.c **** static  void  BSP_USBD_Template_Connect     (void            );
 107:bsp/STMicroelectronics/rtos/bsp_usbd_template.c **** static  void  BSP_USBD_Template_Disconnect  (void            );
 108:bsp/STMicroelectronics/rtos/bsp_usbd_template.c **** static  void  BSP_USBD_Controller_IntHandler(void      *p_arg);
 109:bsp/STMicroelectronics/rtos/bsp_usbd_template.c **** 
 110:bsp/STMicroelectronics/rtos/bsp_usbd_template.c **** 
 111:bsp/STMicroelectronics/rtos/bsp_usbd_template.c **** /*
 112:bsp/STMicroelectronics/rtos/bsp_usbd_template.c **** ***************************************************************************************************
 113:bsp/STMicroelectronics/rtos/bsp_usbd_template.c **** *                                   USB DEVICE DRIVER BSP INTERFACE
 114:bsp/STMicroelectronics/rtos/bsp_usbd_template.c **** ***************************************************************************************************
 115:bsp/STMicroelectronics/rtos/bsp_usbd_template.c **** */
 116:bsp/STMicroelectronics/rtos/bsp_usbd_template.c **** 
 117:bsp/STMicroelectronics/rtos/bsp_usbd_template.c **** USBD_DRV_BSP_API  USBD_DrvBSP_Template = {
 118:bsp/STMicroelectronics/rtos/bsp_usbd_template.c ****     BSP_USBD_Template_Init,
 119:bsp/STMicroelectronics/rtos/bsp_usbd_template.c ****     BSP_USBD_Template_Connect,
 120:bsp/STMicroelectronics/rtos/bsp_usbd_template.c ****     BSP_USBD_Template_Disconnect
 121:bsp/STMicroelectronics/rtos/bsp_usbd_template.c **** };
 122:bsp/STMicroelectronics/rtos/bsp_usbd_template.c **** 
 123:bsp/STMicroelectronics/rtos/bsp_usbd_template.c **** 
 124:bsp/STMicroelectronics/rtos/bsp_usbd_template.c **** /*
 125:bsp/STMicroelectronics/rtos/bsp_usbd_template.c **** ***************************************************************************************************
 126:bsp/STMicroelectronics/rtos/bsp_usbd_template.c **** *                                     LOCAL CONFIGURATION ERRORS
 127:bsp/STMicroelectronics/rtos/bsp_usbd_template.c **** ***************************************************************************************************
 128:bsp/STMicroelectronics/rtos/bsp_usbd_template.c **** */
 129:bsp/STMicroelectronics/rtos/bsp_usbd_template.c **** 
 130:bsp/STMicroelectronics/rtos/bsp_usbd_template.c **** 
 131:bsp/STMicroelectronics/rtos/bsp_usbd_template.c **** /*
 132:bsp/STMicroelectronics/rtos/bsp_usbd_template.c **** ***************************************************************************************************
 133:bsp/STMicroelectronics/rtos/bsp_usbd_template.c **** ***************************************************************************************************
 134:bsp/STMicroelectronics/rtos/bsp_usbd_template.c **** *                                           LOCAL FUNCTIONS
 135:bsp/STMicroelectronics/rtos/bsp_usbd_template.c **** ***************************************************************************************************
 136:bsp/STMicroelectronics/rtos/bsp_usbd_template.c **** ***************************************************************************************************
 137:bsp/STMicroelectronics/rtos/bsp_usbd_template.c **** */
 138:bsp/STMicroelectronics/rtos/bsp_usbd_template.c **** 
 139:bsp/STMicroelectronics/rtos/bsp_usbd_template.c **** /*
 140:bsp/STMicroelectronics/rtos/bsp_usbd_template.c **** ***************************************************************************************************
 141:bsp/STMicroelectronics/rtos/bsp_usbd_template.c **** *                                      BSP_USBD_Template_Init()
 142:bsp/STMicroelectronics/rtos/bsp_usbd_template.c **** *
 143:bsp/STMicroelectronics/rtos/bsp_usbd_template.c **** * Description : USB device controller board-specific initialization.
 144:bsp/STMicroelectronics/rtos/bsp_usbd_template.c **** *
ARM GAS  /tmp/ccuXX9QQ.s 			page 4


 145:bsp/STMicroelectronics/rtos/bsp_usbd_template.c **** * Argument(s) : p_drv    Pointer to device driver structure.
 146:bsp/STMicroelectronics/rtos/bsp_usbd_template.c **** *
 147:bsp/STMicroelectronics/rtos/bsp_usbd_template.c **** * Return(s)   : none.
 148:bsp/STMicroelectronics/rtos/bsp_usbd_template.c **** *
 149:bsp/STMicroelectronics/rtos/bsp_usbd_template.c **** * Note(s)     : none.
 150:bsp/STMicroelectronics/rtos/bsp_usbd_template.c **** ***************************************************************************************************
 151:bsp/STMicroelectronics/rtos/bsp_usbd_template.c **** */
 152:bsp/STMicroelectronics/rtos/bsp_usbd_template.c **** 
 153:bsp/STMicroelectronics/rtos/bsp_usbd_template.c **** static  void  BSP_USBD_Template_Init (USBD_DRV  *p_drv)
 154:bsp/STMicroelectronics/rtos/bsp_usbd_template.c **** {
  29              		.loc 1 154 1 view -0
  30              		.cfi_startproc
  31              		@ args = 0, pretend = 0, frame = 0
  32              		@ frame_needed = 0, uses_anonymous_args = 0
  33              		@ link register save eliminated.
 155:bsp/STMicroelectronics/rtos/bsp_usbd_template.c ****     (void)p_drv;
  34              		.loc 1 155 5 view .LVU1
 156:bsp/STMicroelectronics/rtos/bsp_usbd_template.c **** 
 157:bsp/STMicroelectronics/rtos/bsp_usbd_template.c ****     /* $$$$ If ISR does not support argument passing, save reference to USBD_DRV in a local global 
 158:bsp/STMicroelectronics/rtos/bsp_usbd_template.c ****     BSP_USBD_Controller_DrvPtr = p_drv;
  35              		.loc 1 158 5 view .LVU2
 159:bsp/STMicroelectronics/rtos/bsp_usbd_template.c **** 
 160:bsp/STMicroelectronics/rtos/bsp_usbd_template.c ****     /* $$$$ This function performs all operations that the device controller cannot do. Typical ope
 161:bsp/STMicroelectronics/rtos/bsp_usbd_template.c **** 
 162:bsp/STMicroelectronics/rtos/bsp_usbd_template.c ****     /* $$$$ Enable device control registers and bus clock [mandatory]. */
 163:bsp/STMicroelectronics/rtos/bsp_usbd_template.c ****     /* $$$$ Configure main USB device interrupt in interrupt controller (e.g. registering BSP ISR) 
 164:bsp/STMicroelectronics/rtos/bsp_usbd_template.c ****     /* $$$$ Disable device transceiver clock [optional]. */
 165:bsp/STMicroelectronics/rtos/bsp_usbd_template.c ****     /* $$$$ Configure I/O pins [if necessary]. */
 166:bsp/STMicroelectronics/rtos/bsp_usbd_template.c **** }
  36              		.loc 1 166 1 is_stmt 0 view .LVU3
  37 0000 7047     		bx	lr
  38              		.cfi_endproc
  39              	.LFE0:
  41              		.section	.text.BSP_USBD_Template_Connect,"ax",%progbits
  42              		.align	1
  43              		.syntax unified
  44              		.thumb
  45              		.thumb_func
  46              		.fpu fpv4-sp-d16
  48              	BSP_USBD_Template_Connect:
  49              	.LFB1:
 167:bsp/STMicroelectronics/rtos/bsp_usbd_template.c **** 
 168:bsp/STMicroelectronics/rtos/bsp_usbd_template.c **** 
 169:bsp/STMicroelectronics/rtos/bsp_usbd_template.c **** /*
 170:bsp/STMicroelectronics/rtos/bsp_usbd_template.c **** ***************************************************************************************************
 171:bsp/STMicroelectronics/rtos/bsp_usbd_template.c **** *                                     BSP_USBD_Template_Connect()
 172:bsp/STMicroelectronics/rtos/bsp_usbd_template.c **** *
 173:bsp/STMicroelectronics/rtos/bsp_usbd_template.c **** * Description : Connect pull-up on DP.
 174:bsp/STMicroelectronics/rtos/bsp_usbd_template.c **** *
 175:bsp/STMicroelectronics/rtos/bsp_usbd_template.c **** * Argument(s) : none.
 176:bsp/STMicroelectronics/rtos/bsp_usbd_template.c **** *
 177:bsp/STMicroelectronics/rtos/bsp_usbd_template.c **** * Return(s)   : none.
 178:bsp/STMicroelectronics/rtos/bsp_usbd_template.c **** *
 179:bsp/STMicroelectronics/rtos/bsp_usbd_template.c **** * Note(s)     : none.
 180:bsp/STMicroelectronics/rtos/bsp_usbd_template.c **** ***************************************************************************************************
 181:bsp/STMicroelectronics/rtos/bsp_usbd_template.c **** */
 182:bsp/STMicroelectronics/rtos/bsp_usbd_template.c **** 
ARM GAS  /tmp/ccuXX9QQ.s 			page 5


 183:bsp/STMicroelectronics/rtos/bsp_usbd_template.c **** static  void  BSP_USBD_Template_Connect (void)
 184:bsp/STMicroelectronics/rtos/bsp_usbd_template.c **** {
  50              		.loc 1 184 1 is_stmt 1 view -0
  51              		.cfi_startproc
  52              		@ args = 0, pretend = 0, frame = 0
  53              		@ frame_needed = 0, uses_anonymous_args = 0
  54              		@ link register save eliminated.
 185:bsp/STMicroelectronics/rtos/bsp_usbd_template.c ****     /* $$$$ Enable device transceiver clock [optional]. */
 186:bsp/STMicroelectronics/rtos/bsp_usbd_template.c ****     /* $$$$ Enable pull-up resistor (this operation may be done in the driver) [mandatory]. */
 187:bsp/STMicroelectronics/rtos/bsp_usbd_template.c ****     /* $$$$ Enable main USB device interrupt [mandatory]. */
 188:bsp/STMicroelectronics/rtos/bsp_usbd_template.c **** }
  55              		.loc 1 188 1 view .LVU5
  56 0000 7047     		bx	lr
  57              		.cfi_endproc
  58              	.LFE1:
  60              		.section	.text.BSP_USBD_Template_Disconnect,"ax",%progbits
  61              		.align	1
  62              		.syntax unified
  63              		.thumb
  64              		.thumb_func
  65              		.fpu fpv4-sp-d16
  67              	BSP_USBD_Template_Disconnect:
  68              	.LFB2:
 189:bsp/STMicroelectronics/rtos/bsp_usbd_template.c **** 
 190:bsp/STMicroelectronics/rtos/bsp_usbd_template.c **** 
 191:bsp/STMicroelectronics/rtos/bsp_usbd_template.c **** /*
 192:bsp/STMicroelectronics/rtos/bsp_usbd_template.c **** ***************************************************************************************************
 193:bsp/STMicroelectronics/rtos/bsp_usbd_template.c **** *                                   BSP_USBD_Template_Disconnect()
 194:bsp/STMicroelectronics/rtos/bsp_usbd_template.c **** *
 195:bsp/STMicroelectronics/rtos/bsp_usbd_template.c **** * Description : Disconnect pull-up on DP.
 196:bsp/STMicroelectronics/rtos/bsp_usbd_template.c **** *
 197:bsp/STMicroelectronics/rtos/bsp_usbd_template.c **** * Argument(s) : none.
 198:bsp/STMicroelectronics/rtos/bsp_usbd_template.c **** *
 199:bsp/STMicroelectronics/rtos/bsp_usbd_template.c **** * Return(s)   : none.
 200:bsp/STMicroelectronics/rtos/bsp_usbd_template.c **** *
 201:bsp/STMicroelectronics/rtos/bsp_usbd_template.c **** * Note(s)     : none.
 202:bsp/STMicroelectronics/rtos/bsp_usbd_template.c **** ***************************************************************************************************
 203:bsp/STMicroelectronics/rtos/bsp_usbd_template.c **** */
 204:bsp/STMicroelectronics/rtos/bsp_usbd_template.c **** 
 205:bsp/STMicroelectronics/rtos/bsp_usbd_template.c **** static  void  BSP_USBD_Template_Disconnect (void)
 206:bsp/STMicroelectronics/rtos/bsp_usbd_template.c **** {
  69              		.loc 1 206 1 view -0
  70              		.cfi_startproc
  71              		@ args = 0, pretend = 0, frame = 0
  72              		@ frame_needed = 0, uses_anonymous_args = 0
  73              		@ link register save eliminated.
 207:bsp/STMicroelectronics/rtos/bsp_usbd_template.c ****     /* $$$$ Disable device transceiver clock [optional]. */
 208:bsp/STMicroelectronics/rtos/bsp_usbd_template.c ****     /* $$$$ Disable pull-up resistor (this operation may be done in the driver) [mandatory]. */
 209:bsp/STMicroelectronics/rtos/bsp_usbd_template.c ****     /* $$$$ Disable main USB device interrupt [mandatory]. */
 210:bsp/STMicroelectronics/rtos/bsp_usbd_template.c **** }
  74              		.loc 1 210 1 view .LVU7
  75 0000 7047     		bx	lr
  76              		.cfi_endproc
  77              	.LFE2:
  79              		.global	USBD_DrvBSP_Template
  80              		.global	USBD_DrvEP_InfoTbl_Template
  81              		.section	.rodata.USBD_DrvBSP_Template,"a"
ARM GAS  /tmp/ccuXX9QQ.s 			page 6


  82              		.align	2
  85              	USBD_DrvBSP_Template:
  86 0000 00000000 		.word	BSP_USBD_Template_Init
  87 0004 00000000 		.word	BSP_USBD_Template_Connect
  88 0008 00000000 		.word	BSP_USBD_Template_Disconnect
  89              		.section	.rodata.USBD_DrvEP_InfoTbl_Template,"a"
  90              		.align	2
  93              	USBD_DrvEP_InfoTbl_Template:
  94 0000 11       		.byte	17
  95 0001 00       		.byte	0
  96 0002 4000     		.short	64
  97 0004 21       		.byte	33
  98 0005 00       		.byte	0
  99 0006 4000     		.short	64
 100 0008 1E       		.byte	30
 101 0009 01       		.byte	1
 102 000a 0004     		.short	1024
 103 000c 2E       		.byte	46
 104 000d 01       		.byte	1
 105 000e 0004     		.short	1024
 106 0010 1E       		.byte	30
 107 0011 02       		.byte	2
 108 0012 0004     		.short	1024
 109 0014 2E       		.byte	46
 110 0015 02       		.byte	2
 111 0016 0004     		.short	1024
 112 0018 1E       		.byte	30
 113 0019 03       		.byte	3
 114 001a 0004     		.short	1024
 115 001c 2E       		.byte	46
 116 001d 03       		.byte	3
 117 001e 0004     		.short	1024
 118 0020 00       		.byte	0
 119 0021 00       		.byte	0
 120 0022 0000     		.short	0
 121              		.text
 122              	.Letext0:
 123              		.file 2 "rtos/uC-CPU/ARM-Cortex-M/ARMv7-M/GNU/cpu.h"
 124              		.file 3 "rtos/uC-USB-Device/Class/HID/../../Source/usbd_core.h"
 125              		.file 4 "bsp/inc/usbd_drv_template.h"
 126              		.file 5 "bsp/STMicroelectronics/rtos/bsp_usbd_template.h"
ARM GAS  /tmp/ccuXX9QQ.s 			page 7

