ARM GAS  /tmp/ccwUk5HR.s 			page 1


   1              		.cpu cortex-m4
   2              		.eabi_attribute 27, 1
   3              		.eabi_attribute 28, 1
   4              		.eabi_attribute 20, 1
   5              		.eabi_attribute 21, 1
   6              		.eabi_attribute 23, 3
   7              		.eabi_attribute 24, 1
   8              		.eabi_attribute 25, 1
   9              		.eabi_attribute 26, 1
  10              		.eabi_attribute 30, 1
  11              		.eabi_attribute 34, 1
  12              		.eabi_attribute 18, 4
  13              		.file	"clk_os.c"
  14              		.text
  15              	.Ltext0:
  16              		.cfi_sections	.debug_frame
  17              		.section	.text.Clk_OS_Task,"ax",%progbits
  18              		.align	1
  19              		.arch armv7e-m
  20              		.syntax unified
  21              		.thumb
  22              		.thumb_func
  23              		.fpu fpv4-sp-d16
  25              	Clk_OS_Task:
  26              	.LFB1:
  27              		.file 1 "rtos/uC-Clk/OS/uCOS-III/clk_os.c"
   1:rtos/uC-Clk/OS/uCOS-III/clk_os.c **** /*
   2:rtos/uC-Clk/OS/uCOS-III/clk_os.c **** ***************************************************************************************************
   3:rtos/uC-Clk/OS/uCOS-III/clk_os.c **** *                                               uC/Clk
   4:rtos/uC-Clk/OS/uCOS-III/clk_os.c **** *                                          Clock / Calendar
   5:rtos/uC-Clk/OS/uCOS-III/clk_os.c **** *
   6:rtos/uC-Clk/OS/uCOS-III/clk_os.c **** *                         (c) Copyright 2005-2019; Silicon Laboratories Inc.,
   7:rtos/uC-Clk/OS/uCOS-III/clk_os.c **** *                                400 W. Cesar Chavez, Austin, TX 78701
   8:rtos/uC-Clk/OS/uCOS-III/clk_os.c **** *
   9:rtos/uC-Clk/OS/uCOS-III/clk_os.c **** *                   All rights reserved. Protected by international copyright laws.
  10:rtos/uC-Clk/OS/uCOS-III/clk_os.c **** *
  11:rtos/uC-Clk/OS/uCOS-III/clk_os.c **** *                  Your use of this software is subject to your acceptance of the terms
  12:rtos/uC-Clk/OS/uCOS-III/clk_os.c **** *                  of a Silicon Labs Micrium software license, which can be obtained by
  13:rtos/uC-Clk/OS/uCOS-III/clk_os.c **** *                  contacting info@micrium.com. If you do not agree to the terms of this
  14:rtos/uC-Clk/OS/uCOS-III/clk_os.c **** *                  license, you may not use this software.
  15:rtos/uC-Clk/OS/uCOS-III/clk_os.c **** *
  16:rtos/uC-Clk/OS/uCOS-III/clk_os.c **** *                  Please help us continue to provide the Embedded community with the finest
  17:rtos/uC-Clk/OS/uCOS-III/clk_os.c **** *                  software available. Your honesty is greatly appreciated.
  18:rtos/uC-Clk/OS/uCOS-III/clk_os.c **** *
  19:rtos/uC-Clk/OS/uCOS-III/clk_os.c **** *                    You can find our product's documentation at: doc.micrium.com
  20:rtos/uC-Clk/OS/uCOS-III/clk_os.c **** *
  21:rtos/uC-Clk/OS/uCOS-III/clk_os.c **** *                          For more information visit us at: www.micrium.com
  22:rtos/uC-Clk/OS/uCOS-III/clk_os.c **** ***************************************************************************************************
  23:rtos/uC-Clk/OS/uCOS-III/clk_os.c **** */
  24:rtos/uC-Clk/OS/uCOS-III/clk_os.c **** 
  25:rtos/uC-Clk/OS/uCOS-III/clk_os.c **** /*
  26:rtos/uC-Clk/OS/uCOS-III/clk_os.c **** ***************************************************************************************************
  27:rtos/uC-Clk/OS/uCOS-III/clk_os.c **** *
  28:rtos/uC-Clk/OS/uCOS-III/clk_os.c **** *                               CLOCK / CALENDAR OPERATING SYSTEM LAYER
  29:rtos/uC-Clk/OS/uCOS-III/clk_os.c **** *
  30:rtos/uC-Clk/OS/uCOS-III/clk_os.c **** *                                          Micrium uC/OS-III
  31:rtos/uC-Clk/OS/uCOS-III/clk_os.c **** *
ARM GAS  /tmp/ccwUk5HR.s 			page 2


  32:rtos/uC-Clk/OS/uCOS-III/clk_os.c **** * Filename : clk.c
  33:rtos/uC-Clk/OS/uCOS-III/clk_os.c **** * Version  : V3.09.07
  34:rtos/uC-Clk/OS/uCOS-III/clk_os.c **** ***************************************************************************************************
  35:rtos/uC-Clk/OS/uCOS-III/clk_os.c **** * Note(s)  : (1) Assumes uC/OS-III V3.01.0 (or more recent version) is included in the project buil
  36:rtos/uC-Clk/OS/uCOS-III/clk_os.c **** *
  37:rtos/uC-Clk/OS/uCOS-III/clk_os.c **** *            (2) REQUIREs the following uC/OS-III feature to be ENABLED :
  38:rtos/uC-Clk/OS/uCOS-III/clk_os.c **** *
  39:rtos/uC-Clk/OS/uCOS-III/clk_os.c **** *                ------ FEATURE ------     ------ MINIMUM CONFIGURATION FOR Clock/OS PORT ------
  40:rtos/uC-Clk/OS/uCOS-III/clk_os.c **** *
  41:rtos/uC-Clk/OS/uCOS-III/clk_os.c **** *                    (a) Semaphores
  42:rtos/uC-Clk/OS/uCOS-III/clk_os.c **** *                        (1) OS_CFG_SEM_EN         Enabled
  43:rtos/uC-Clk/OS/uCOS-III/clk_os.c **** *                                                      required only if CLK_CFG_SIGNAL_EN is DEF_EN
  44:rtos/uC-Clk/OS/uCOS-III/clk_os.c **** ***************************************************************************************************
  45:rtos/uC-Clk/OS/uCOS-III/clk_os.c **** */
  46:rtos/uC-Clk/OS/uCOS-III/clk_os.c **** 
  47:rtos/uC-Clk/OS/uCOS-III/clk_os.c **** /*
  48:rtos/uC-Clk/OS/uCOS-III/clk_os.c **** ***************************************************************************************************
  49:rtos/uC-Clk/OS/uCOS-III/clk_os.c **** *                                            INCLUDE FILES
  50:rtos/uC-Clk/OS/uCOS-III/clk_os.c **** ***************************************************************************************************
  51:rtos/uC-Clk/OS/uCOS-III/clk_os.c **** */
  52:rtos/uC-Clk/OS/uCOS-III/clk_os.c **** 
  53:rtos/uC-Clk/OS/uCOS-III/clk_os.c **** #include  "../../Source/clk.h"
  54:rtos/uC-Clk/OS/uCOS-III/clk_os.c **** #include  <app_cfg.h>
  55:rtos/uC-Clk/OS/uCOS-III/clk_os.c **** #include  <os.h>                                                /* See this 'clk_os.c  Note #1'.   
  56:rtos/uC-Clk/OS/uCOS-III/clk_os.c **** 
  57:rtos/uC-Clk/OS/uCOS-III/clk_os.c **** 
  58:rtos/uC-Clk/OS/uCOS-III/clk_os.c **** /*
  59:rtos/uC-Clk/OS/uCOS-III/clk_os.c **** ***************************************************************************************************
  60:rtos/uC-Clk/OS/uCOS-III/clk_os.c **** *                                               MODULE
  61:rtos/uC-Clk/OS/uCOS-III/clk_os.c **** *
  62:rtos/uC-Clk/OS/uCOS-III/clk_os.c **** * Note(s) : (1) See 'clk.h  MODULE CONFIGURATION'.
  63:rtos/uC-Clk/OS/uCOS-III/clk_os.c **** ***************************************************************************************************
  64:rtos/uC-Clk/OS/uCOS-III/clk_os.c **** */
  65:rtos/uC-Clk/OS/uCOS-III/clk_os.c **** 
  66:rtos/uC-Clk/OS/uCOS-III/clk_os.c **** #define  MICRIUM_SOURCE
  67:rtos/uC-Clk/OS/uCOS-III/clk_os.c **** #ifdef   CLK_OS_MODULE_PRESENT
  68:rtos/uC-Clk/OS/uCOS-III/clk_os.c **** 
  69:rtos/uC-Clk/OS/uCOS-III/clk_os.c **** 
  70:rtos/uC-Clk/OS/uCOS-III/clk_os.c **** /*
  71:rtos/uC-Clk/OS/uCOS-III/clk_os.c **** ***************************************************************************************************
  72:rtos/uC-Clk/OS/uCOS-III/clk_os.c **** *                                            LOCAL DEFINES
  73:rtos/uC-Clk/OS/uCOS-III/clk_os.c **** ***************************************************************************************************
  74:rtos/uC-Clk/OS/uCOS-III/clk_os.c **** */
  75:rtos/uC-Clk/OS/uCOS-III/clk_os.c **** 
  76:rtos/uC-Clk/OS/uCOS-III/clk_os.c **** 
  77:rtos/uC-Clk/OS/uCOS-III/clk_os.c **** /*
  78:rtos/uC-Clk/OS/uCOS-III/clk_os.c **** ***************************************************************************************************
  79:rtos/uC-Clk/OS/uCOS-III/clk_os.c **** *                                     OS TASK/OBJECT NAME DEFINES
  80:rtos/uC-Clk/OS/uCOS-III/clk_os.c **** ***************************************************************************************************
  81:rtos/uC-Clk/OS/uCOS-III/clk_os.c **** */
  82:rtos/uC-Clk/OS/uCOS-III/clk_os.c **** 
  83:rtos/uC-Clk/OS/uCOS-III/clk_os.c ****                                                                 /* -------------------- TASK NAME -
  84:rtos/uC-Clk/OS/uCOS-III/clk_os.c ****                                           /*           1         2 */
  85:rtos/uC-Clk/OS/uCOS-III/clk_os.c ****                                           /* 012345678901234567890 */
  86:rtos/uC-Clk/OS/uCOS-III/clk_os.c **** #define  CLK_OS_TASK_NAME                   "RealTime Clk"
  87:rtos/uC-Clk/OS/uCOS-III/clk_os.c **** 
  88:rtos/uC-Clk/OS/uCOS-III/clk_os.c ****                                                                 /* --------------------- OBJ NAME -
ARM GAS  /tmp/ccwUk5HR.s 			page 3


  89:rtos/uC-Clk/OS/uCOS-III/clk_os.c ****                                           /*           1         2 */
  90:rtos/uC-Clk/OS/uCOS-III/clk_os.c ****                                           /* 012345678901234567890 */
  91:rtos/uC-Clk/OS/uCOS-III/clk_os.c **** #define  CLK_OS_SIGNAL_NAME                 "Clk Signal"
  92:rtos/uC-Clk/OS/uCOS-III/clk_os.c **** 
  93:rtos/uC-Clk/OS/uCOS-III/clk_os.c **** 
  94:rtos/uC-Clk/OS/uCOS-III/clk_os.c **** /*
  95:rtos/uC-Clk/OS/uCOS-III/clk_os.c **** ***************************************************************************************************
  96:rtos/uC-Clk/OS/uCOS-III/clk_os.c **** *                                          OS OBJECT DEFINES
  97:rtos/uC-Clk/OS/uCOS-III/clk_os.c **** ***************************************************************************************************
  98:rtos/uC-Clk/OS/uCOS-III/clk_os.c **** */
  99:rtos/uC-Clk/OS/uCOS-III/clk_os.c **** 
 100:rtos/uC-Clk/OS/uCOS-III/clk_os.c **** 
 101:rtos/uC-Clk/OS/uCOS-III/clk_os.c **** /*
 102:rtos/uC-Clk/OS/uCOS-III/clk_os.c **** ***************************************************************************************************
 103:rtos/uC-Clk/OS/uCOS-III/clk_os.c **** *                                           LOCAL CONSTANTS
 104:rtos/uC-Clk/OS/uCOS-III/clk_os.c **** ***************************************************************************************************
 105:rtos/uC-Clk/OS/uCOS-III/clk_os.c **** */
 106:rtos/uC-Clk/OS/uCOS-III/clk_os.c **** 
 107:rtos/uC-Clk/OS/uCOS-III/clk_os.c **** 
 108:rtos/uC-Clk/OS/uCOS-III/clk_os.c **** /*
 109:rtos/uC-Clk/OS/uCOS-III/clk_os.c **** ***************************************************************************************************
 110:rtos/uC-Clk/OS/uCOS-III/clk_os.c **** *                                          LOCAL DATA TYPES
 111:rtos/uC-Clk/OS/uCOS-III/clk_os.c **** ***************************************************************************************************
 112:rtos/uC-Clk/OS/uCOS-III/clk_os.c **** */
 113:rtos/uC-Clk/OS/uCOS-III/clk_os.c **** 
 114:rtos/uC-Clk/OS/uCOS-III/clk_os.c **** 
 115:rtos/uC-Clk/OS/uCOS-III/clk_os.c **** /*
 116:rtos/uC-Clk/OS/uCOS-III/clk_os.c **** ***************************************************************************************************
 117:rtos/uC-Clk/OS/uCOS-III/clk_os.c **** *                                            LOCAL TABLES
 118:rtos/uC-Clk/OS/uCOS-III/clk_os.c **** ***************************************************************************************************
 119:rtos/uC-Clk/OS/uCOS-III/clk_os.c **** */
 120:rtos/uC-Clk/OS/uCOS-III/clk_os.c **** 
 121:rtos/uC-Clk/OS/uCOS-III/clk_os.c **** 
 122:rtos/uC-Clk/OS/uCOS-III/clk_os.c **** /*
 123:rtos/uC-Clk/OS/uCOS-III/clk_os.c **** ***************************************************************************************************
 124:rtos/uC-Clk/OS/uCOS-III/clk_os.c **** *                                       LOCAL GLOBAL VARIABLES
 125:rtos/uC-Clk/OS/uCOS-III/clk_os.c **** ***************************************************************************************************
 126:rtos/uC-Clk/OS/uCOS-III/clk_os.c **** */
 127:rtos/uC-Clk/OS/uCOS-III/clk_os.c **** 
 128:rtos/uC-Clk/OS/uCOS-III/clk_os.c ****                                                                 /* --------------------- TASK TCB -
 129:rtos/uC-Clk/OS/uCOS-III/clk_os.c **** static  OS_TCB    Clk_OS_TaskTCB;
 130:rtos/uC-Clk/OS/uCOS-III/clk_os.c **** 
 131:rtos/uC-Clk/OS/uCOS-III/clk_os.c ****                                                                 /* -------------------- TASK STACK 
 132:rtos/uC-Clk/OS/uCOS-III/clk_os.c **** static  CPU_STK   Clk_OS_TaskStk[CLK_OS_CFG_TASK_STK_SIZE];
 133:rtos/uC-Clk/OS/uCOS-III/clk_os.c **** 
 134:rtos/uC-Clk/OS/uCOS-III/clk_os.c **** 
 135:rtos/uC-Clk/OS/uCOS-III/clk_os.c **** #if (CLK_CFG_SIGNAL_EN == DEF_ENABLED)                          /* ------------------- CLOCK SIGNAL
 136:rtos/uC-Clk/OS/uCOS-III/clk_os.c **** static  OS_SEM    Clk_OS_SignalObj;                             /* Counting semaphore signals each 
 137:rtos/uC-Clk/OS/uCOS-III/clk_os.c **** #endif
 138:rtos/uC-Clk/OS/uCOS-III/clk_os.c **** 
 139:rtos/uC-Clk/OS/uCOS-III/clk_os.c **** 
 140:rtos/uC-Clk/OS/uCOS-III/clk_os.c **** /*
 141:rtos/uC-Clk/OS/uCOS-III/clk_os.c **** ***************************************************************************************************
 142:rtos/uC-Clk/OS/uCOS-III/clk_os.c **** *                                      LOCAL FUNCTION PROTOTYPES
 143:rtos/uC-Clk/OS/uCOS-III/clk_os.c **** ***************************************************************************************************
 144:rtos/uC-Clk/OS/uCOS-III/clk_os.c **** */
 145:rtos/uC-Clk/OS/uCOS-III/clk_os.c **** 
ARM GAS  /tmp/ccwUk5HR.s 			page 4


 146:rtos/uC-Clk/OS/uCOS-III/clk_os.c **** static  void  Clk_OS_Task(void  *p_data);                       /* Clock task.                     
 147:rtos/uC-Clk/OS/uCOS-III/clk_os.c **** 
 148:rtos/uC-Clk/OS/uCOS-III/clk_os.c **** 
 149:rtos/uC-Clk/OS/uCOS-III/clk_os.c **** /*
 150:rtos/uC-Clk/OS/uCOS-III/clk_os.c **** ***************************************************************************************************
 151:rtos/uC-Clk/OS/uCOS-III/clk_os.c **** *                                        DEFAULT CONFIGURATION
 152:rtos/uC-Clk/OS/uCOS-III/clk_os.c **** ***************************************************************************************************
 153:rtos/uC-Clk/OS/uCOS-III/clk_os.c **** */
 154:rtos/uC-Clk/OS/uCOS-III/clk_os.c **** 
 155:rtos/uC-Clk/OS/uCOS-III/clk_os.c **** 
 156:rtos/uC-Clk/OS/uCOS-III/clk_os.c **** /*
 157:rtos/uC-Clk/OS/uCOS-III/clk_os.c **** ***************************************************************************************************
 158:rtos/uC-Clk/OS/uCOS-III/clk_os.c **** *                                     LOCAL CONFIGURATION ERRORS
 159:rtos/uC-Clk/OS/uCOS-III/clk_os.c **** ***************************************************************************************************
 160:rtos/uC-Clk/OS/uCOS-III/clk_os.c **** */
 161:rtos/uC-Clk/OS/uCOS-III/clk_os.c **** 
 162:rtos/uC-Clk/OS/uCOS-III/clk_os.c ****                                                                 /* See this 'clk_os.c  Note #1'.   
 163:rtos/uC-Clk/OS/uCOS-III/clk_os.c **** #if     (OS_VERSION < 3010u)
 164:rtos/uC-Clk/OS/uCOS-III/clk_os.c **** #error  "OS_VERSION                  [SHOULD be >= V3.01.0]"
 165:rtos/uC-Clk/OS/uCOS-III/clk_os.c **** #endif
 166:rtos/uC-Clk/OS/uCOS-III/clk_os.c **** 
 167:rtos/uC-Clk/OS/uCOS-III/clk_os.c **** 
 168:rtos/uC-Clk/OS/uCOS-III/clk_os.c **** 
 169:rtos/uC-Clk/OS/uCOS-III/clk_os.c **** #if     (CLK_CFG_SIGNAL_EN == DEF_ENABLED)
 170:rtos/uC-Clk/OS/uCOS-III/clk_os.c **** #if     (OS_CFG_SEM_EN < 1u)                                    /* See this 'clk_os.c  Note #2a1'. 
 171:rtos/uC-Clk/OS/uCOS-III/clk_os.c **** #error  "OS_CFG_SEM_EN               illegally #define'd in 'os_cfg.h'           "
 172:rtos/uC-Clk/OS/uCOS-III/clk_os.c **** #error  "                            [MUST be  > 0u, (see 'clk_os.c  Note #2a1')]"
 173:rtos/uC-Clk/OS/uCOS-III/clk_os.c **** #endif
 174:rtos/uC-Clk/OS/uCOS-III/clk_os.c **** #endif
 175:rtos/uC-Clk/OS/uCOS-III/clk_os.c **** 
 176:rtos/uC-Clk/OS/uCOS-III/clk_os.c **** 
 177:rtos/uC-Clk/OS/uCOS-III/clk_os.c **** 
 178:rtos/uC-Clk/OS/uCOS-III/clk_os.c **** #ifndef  CLK_OS_CFG_TASK_PRIO
 179:rtos/uC-Clk/OS/uCOS-III/clk_os.c **** #error  "CLK_OS_CFG_TASK_PRIO              not #define'd in 'app_cfg.h'"
 180:rtos/uC-Clk/OS/uCOS-III/clk_os.c **** #error  "                            [MUST be  >= 0u]                  "
 181:rtos/uC-Clk/OS/uCOS-III/clk_os.c **** 
 182:rtos/uC-Clk/OS/uCOS-III/clk_os.c **** #elif   (CLK_OS_CFG_TASK_PRIO < 0u)
 183:rtos/uC-Clk/OS/uCOS-III/clk_os.c **** #error  "CLK_OS_CFG_TASK_PRIO        illegally #define'd in 'app_cfg.h'"
 184:rtos/uC-Clk/OS/uCOS-III/clk_os.c **** #error  "                            [MUST be  >= 0u]                  "
 185:rtos/uC-Clk/OS/uCOS-III/clk_os.c **** #endif
 186:rtos/uC-Clk/OS/uCOS-III/clk_os.c **** 
 187:rtos/uC-Clk/OS/uCOS-III/clk_os.c **** 
 188:rtos/uC-Clk/OS/uCOS-III/clk_os.c **** #ifndef  CLK_OS_CFG_TASK_STK_SIZE
 189:rtos/uC-Clk/OS/uCOS-III/clk_os.c **** #error  "CLK_OS_CFG_TASK_STK_SIZE          not #define'd in 'app_cfg.h'"
 190:rtos/uC-Clk/OS/uCOS-III/clk_os.c **** #error  "                            [MUST be  > 0u]                   "
 191:rtos/uC-Clk/OS/uCOS-III/clk_os.c **** 
 192:rtos/uC-Clk/OS/uCOS-III/clk_os.c **** #elif   (CLK_OS_CFG_TASK_STK_SIZE < 1u)
 193:rtos/uC-Clk/OS/uCOS-III/clk_os.c **** #error  "CLK_OS_CFG_TASK_STK_SIZE    illegally #define'd in 'app_cfg.h'"
 194:rtos/uC-Clk/OS/uCOS-III/clk_os.c **** #error  "                            [MUST be  > 0u]                   "
 195:rtos/uC-Clk/OS/uCOS-III/clk_os.c **** #endif
 196:rtos/uC-Clk/OS/uCOS-III/clk_os.c **** 
 197:rtos/uC-Clk/OS/uCOS-III/clk_os.c **** 
 198:rtos/uC-Clk/OS/uCOS-III/clk_os.c **** /*
 199:rtos/uC-Clk/OS/uCOS-III/clk_os.c **** ***************************************************************************************************
 200:rtos/uC-Clk/OS/uCOS-III/clk_os.c **** ***************************************************************************************************
 201:rtos/uC-Clk/OS/uCOS-III/clk_os.c **** *                                           CLOCK FUNCTIONS
 202:rtos/uC-Clk/OS/uCOS-III/clk_os.c **** ***************************************************************************************************
ARM GAS  /tmp/ccwUk5HR.s 			page 5


 203:rtos/uC-Clk/OS/uCOS-III/clk_os.c **** ***************************************************************************************************
 204:rtos/uC-Clk/OS/uCOS-III/clk_os.c **** */
 205:rtos/uC-Clk/OS/uCOS-III/clk_os.c **** 
 206:rtos/uC-Clk/OS/uCOS-III/clk_os.c **** 
 207:rtos/uC-Clk/OS/uCOS-III/clk_os.c **** /*
 208:rtos/uC-Clk/OS/uCOS-III/clk_os.c **** ***************************************************************************************************
 209:rtos/uC-Clk/OS/uCOS-III/clk_os.c **** *                                            Clk_OS_Init()
 210:rtos/uC-Clk/OS/uCOS-III/clk_os.c **** *
 211:rtos/uC-Clk/OS/uCOS-III/clk_os.c **** * Description : (1) Perform Clock/OS initialization :
 212:rtos/uC-Clk/OS/uCOS-III/clk_os.c **** *
 213:rtos/uC-Clk/OS/uCOS-III/clk_os.c **** *                   (a) Implement Clock signal by creating a counting semaphore.
 214:rtos/uC-Clk/OS/uCOS-III/clk_os.c **** *
 215:rtos/uC-Clk/OS/uCOS-III/clk_os.c **** *                       (1) Initialize Clock signal to 0 tick by setting the semaphore count to 0.
 216:rtos/uC-Clk/OS/uCOS-III/clk_os.c **** *
 217:rtos/uC-Clk/OS/uCOS-III/clk_os.c **** *                   (b) Create Clock Task
 218:rtos/uC-Clk/OS/uCOS-III/clk_os.c **** *
 219:rtos/uC-Clk/OS/uCOS-III/clk_os.c **** *
 220:rtos/uC-Clk/OS/uCOS-III/clk_os.c **** * Argument(s) : p_err       Pointer to variable that will receive the return error code from this f
 221:rtos/uC-Clk/OS/uCOS-III/clk_os.c **** *
 222:rtos/uC-Clk/OS/uCOS-III/clk_os.c **** *                               CLK_OS_ERR_NONE                 Clock OS initialization successful.
 223:rtos/uC-Clk/OS/uCOS-III/clk_os.c **** *                               CLK_OS_ERR_INIT_SIGNAL          Clock OS signal NOT successfully in
 224:rtos/uC-Clk/OS/uCOS-III/clk_os.c **** *                               CLK_OS_ERR_INIT_TASK            Clock OS task   NOT successfully in
 225:rtos/uC-Clk/OS/uCOS-III/clk_os.c **** *
 226:rtos/uC-Clk/OS/uCOS-III/clk_os.c **** * Return(s)   : DEF_OK,   if NO error(s).
 227:rtos/uC-Clk/OS/uCOS-III/clk_os.c **** *
 228:rtos/uC-Clk/OS/uCOS-III/clk_os.c **** *               DEF_FAIL, otherwise.
 229:rtos/uC-Clk/OS/uCOS-III/clk_os.c **** *
 230:rtos/uC-Clk/OS/uCOS-III/clk_os.c **** * Note(s)     : none.
 231:rtos/uC-Clk/OS/uCOS-III/clk_os.c **** ***************************************************************************************************
 232:rtos/uC-Clk/OS/uCOS-III/clk_os.c **** */
 233:rtos/uC-Clk/OS/uCOS-III/clk_os.c **** 
 234:rtos/uC-Clk/OS/uCOS-III/clk_os.c **** void  Clk_OS_Init (CLK_ERR  *p_err)
 235:rtos/uC-Clk/OS/uCOS-III/clk_os.c **** {
 236:rtos/uC-Clk/OS/uCOS-III/clk_os.c ****     OS_ERR  os_err;
 237:rtos/uC-Clk/OS/uCOS-III/clk_os.c **** 
 238:rtos/uC-Clk/OS/uCOS-III/clk_os.c **** 
 239:rtos/uC-Clk/OS/uCOS-III/clk_os.c **** #if (CLK_CFG_SIGNAL_EN == DEF_ENABLED)                      /* ----------------- CREATE CLOCK SIGNA
 240:rtos/uC-Clk/OS/uCOS-III/clk_os.c ****     OSSemCreate((OS_SEM   *)&Clk_OS_SignalObj,              /* Create counting semaphore to signal 
 241:rtos/uC-Clk/OS/uCOS-III/clk_os.c ****                 (CPU_CHAR *) CLK_OS_SIGNAL_NAME,
 242:rtos/uC-Clk/OS/uCOS-III/clk_os.c ****                 (OS_SEM_CTR) 0u,
 243:rtos/uC-Clk/OS/uCOS-III/clk_os.c ****                 (OS_ERR   *)&os_err);
 244:rtos/uC-Clk/OS/uCOS-III/clk_os.c ****     if (os_err != OS_ERR_NONE) {
 245:rtos/uC-Clk/OS/uCOS-III/clk_os.c ****        *p_err   = CLK_OS_ERR_INIT_SIGNAL;
 246:rtos/uC-Clk/OS/uCOS-III/clk_os.c ****         return;
 247:rtos/uC-Clk/OS/uCOS-III/clk_os.c ****     }
 248:rtos/uC-Clk/OS/uCOS-III/clk_os.c **** #endif
 249:rtos/uC-Clk/OS/uCOS-III/clk_os.c **** 
 250:rtos/uC-Clk/OS/uCOS-III/clk_os.c **** 
 251:rtos/uC-Clk/OS/uCOS-III/clk_os.c ****                                                             /* ------------------ CREATE CLOCK TASK
 252:rtos/uC-Clk/OS/uCOS-III/clk_os.c ****     OSTaskCreate((OS_TCB     *)&Clk_OS_TaskTCB,
 253:rtos/uC-Clk/OS/uCOS-III/clk_os.c ****                  (CPU_CHAR   *) CLK_OS_TASK_NAME,
 254:rtos/uC-Clk/OS/uCOS-III/clk_os.c ****                  (OS_TASK_PTR ) Clk_OS_Task,
 255:rtos/uC-Clk/OS/uCOS-III/clk_os.c ****                  (void       *) 0,
 256:rtos/uC-Clk/OS/uCOS-III/clk_os.c ****                  (OS_PRIO     ) CLK_OS_CFG_TASK_PRIO,
 257:rtos/uC-Clk/OS/uCOS-III/clk_os.c ****                  (CPU_STK    *)&Clk_OS_TaskStk[0],
 258:rtos/uC-Clk/OS/uCOS-III/clk_os.c ****                  (CPU_STK_SIZE)(CLK_OS_CFG_TASK_STK_SIZE / 10u),
 259:rtos/uC-Clk/OS/uCOS-III/clk_os.c ****                  (CPU_STK_SIZE) CLK_OS_CFG_TASK_STK_SIZE,
ARM GAS  /tmp/ccwUk5HR.s 			page 6


 260:rtos/uC-Clk/OS/uCOS-III/clk_os.c ****                  (OS_MSG_QTY  ) 0u,
 261:rtos/uC-Clk/OS/uCOS-III/clk_os.c ****                  (OS_TICK     ) 0u,
 262:rtos/uC-Clk/OS/uCOS-III/clk_os.c ****                  (void       *) 0,
 263:rtos/uC-Clk/OS/uCOS-III/clk_os.c ****                  (OS_OPT      )(OS_OPT_TASK_STK_CHK | OS_OPT_TASK_STK_CLR),
 264:rtos/uC-Clk/OS/uCOS-III/clk_os.c ****                  (OS_ERR     *)&os_err);
 265:rtos/uC-Clk/OS/uCOS-III/clk_os.c ****     if (os_err != OS_ERR_NONE) {
 266:rtos/uC-Clk/OS/uCOS-III/clk_os.c ****        *p_err   = CLK_OS_ERR_INIT_TASK;
 267:rtos/uC-Clk/OS/uCOS-III/clk_os.c ****         return;
 268:rtos/uC-Clk/OS/uCOS-III/clk_os.c ****     }
 269:rtos/uC-Clk/OS/uCOS-III/clk_os.c **** 
 270:rtos/uC-Clk/OS/uCOS-III/clk_os.c **** 
 271:rtos/uC-Clk/OS/uCOS-III/clk_os.c ****    *p_err = CLK_OS_ERR_NONE;
 272:rtos/uC-Clk/OS/uCOS-III/clk_os.c **** }
 273:rtos/uC-Clk/OS/uCOS-III/clk_os.c **** 
 274:rtos/uC-Clk/OS/uCOS-III/clk_os.c **** 
 275:rtos/uC-Clk/OS/uCOS-III/clk_os.c **** /*
 276:rtos/uC-Clk/OS/uCOS-III/clk_os.c **** ***************************************************************************************************
 277:rtos/uC-Clk/OS/uCOS-III/clk_os.c **** *                                            Clk_OS_Task()
 278:rtos/uC-Clk/OS/uCOS-III/clk_os.c **** *
 279:rtos/uC-Clk/OS/uCOS-III/clk_os.c **** * Description : OS-dependent shell task to schedule & run Clock Task handler.
 280:rtos/uC-Clk/OS/uCOS-III/clk_os.c **** *
 281:rtos/uC-Clk/OS/uCOS-III/clk_os.c **** *               (1) Shell task's primary purpose is to schedule & run Clk_TaskHandler() forever;
 282:rtos/uC-Clk/OS/uCOS-III/clk_os.c **** *                   (i.e. shell task should NEVER exit).
 283:rtos/uC-Clk/OS/uCOS-III/clk_os.c **** *
 284:rtos/uC-Clk/OS/uCOS-III/clk_os.c **** *
 285:rtos/uC-Clk/OS/uCOS-III/clk_os.c **** * Argument(s) : p_data      Pointer to task initialization data (required by uC/OS-III).
 286:rtos/uC-Clk/OS/uCOS-III/clk_os.c **** *
 287:rtos/uC-Clk/OS/uCOS-III/clk_os.c **** * Return(s)   : none.
 288:rtos/uC-Clk/OS/uCOS-III/clk_os.c **** *
 289:rtos/uC-Clk/OS/uCOS-III/clk_os.c **** * Created by  : Clk_OS_Init().
 290:rtos/uC-Clk/OS/uCOS-III/clk_os.c **** *
 291:rtos/uC-Clk/OS/uCOS-III/clk_os.c **** *               This function is an INTERNAL Clock function & MUST NOT be called by application fun
 292:rtos/uC-Clk/OS/uCOS-III/clk_os.c **** *
 293:rtos/uC-Clk/OS/uCOS-III/clk_os.c **** * Note(s)     : (2) To prevent deadlocking any lower priority task(s), Clock Task SHOULD delay (for
 294:rtos/uC-Clk/OS/uCOS-III/clk_os.c **** *                   time after task handler exits.
 295:rtos/uC-Clk/OS/uCOS-III/clk_os.c **** ***************************************************************************************************
 296:rtos/uC-Clk/OS/uCOS-III/clk_os.c **** */
 297:rtos/uC-Clk/OS/uCOS-III/clk_os.c **** 
 298:rtos/uC-Clk/OS/uCOS-III/clk_os.c **** static  void  Clk_OS_Task (void  *p_data)
 299:rtos/uC-Clk/OS/uCOS-III/clk_os.c **** {
  28              		.loc 1 299 1 view -0
  29              		.cfi_startproc
  30              		@ Volatile: function does not return.
  31              		@ args = 0, pretend = 0, frame = 8
  32              		@ frame_needed = 0, uses_anonymous_args = 0
  33              	.LVL0:
  34              		.loc 1 299 1 is_stmt 0 view .LVU1
  35 0000 00B5     		push	{lr}
  36              	.LCFI0:
  37              		.cfi_def_cfa_offset 4
  38              		.cfi_offset 14, -4
  39 0002 83B0     		sub	sp, sp, #12
  40              	.LCFI1:
  41              		.cfi_def_cfa_offset 16
  42              	.LVL1:
  43              	.L2:
 300:rtos/uC-Clk/OS/uCOS-III/clk_os.c ****     OS_ERR  os_err;
ARM GAS  /tmp/ccwUk5HR.s 			page 7


  44              		.loc 1 300 5 is_stmt 1 discriminator 1 view .LVU2
 301:rtos/uC-Clk/OS/uCOS-III/clk_os.c **** 
 302:rtos/uC-Clk/OS/uCOS-III/clk_os.c **** 
 303:rtos/uC-Clk/OS/uCOS-III/clk_os.c ****    (void)p_data;                                               /* Prevent 'variable unused' compile
  45              		.loc 1 303 4 discriminator 1 view .LVU3
 304:rtos/uC-Clk/OS/uCOS-III/clk_os.c **** 
 305:rtos/uC-Clk/OS/uCOS-III/clk_os.c ****     while (DEF_ON) {
  46              		.loc 1 305 5 discriminator 1 view .LVU4
 306:rtos/uC-Clk/OS/uCOS-III/clk_os.c ****         Clk_TaskHandler();
  47              		.loc 1 306 9 discriminator 1 view .LVU5
  48 0004 FFF7FEFF 		bl	Clk_TaskHandler
  49              	.LVL2:
 307:rtos/uC-Clk/OS/uCOS-III/clk_os.c ****         OSTimeDly((OS_TICK ) 1u,                                /* Dly for lower prio task(s) [see 
  50              		.loc 1 307 9 discriminator 1 view .LVU6
  51 0008 0DF10602 		add	r2, sp, #6
  52 000c 0021     		movs	r1, #0
  53 000e 0120     		movs	r0, #1
  54 0010 FFF7FEFF 		bl	OSTimeDly
  55              	.LVL3:
 305:rtos/uC-Clk/OS/uCOS-III/clk_os.c ****         Clk_TaskHandler();
  56              		.loc 1 305 11 discriminator 1 view .LVU7
  57 0014 F6E7     		b	.L2
  58              		.cfi_endproc
  59              	.LFE1:
  61              		.section	.rodata.Clk_OS_Init.str1.4,"aMS",%progbits,1
  62              		.align	2
  63              	.LC0:
  64 0000 5265616C 		.ascii	"RealTime Clk\000"
  64      54696D65 
  64      20436C6B 
  64      00
  65              		.section	.text.Clk_OS_Init,"ax",%progbits
  66              		.align	1
  67              		.global	Clk_OS_Init
  68              		.syntax unified
  69              		.thumb
  70              		.thumb_func
  71              		.fpu fpv4-sp-d16
  73              	Clk_OS_Init:
  74              	.LVL4:
  75              	.LFB0:
 235:rtos/uC-Clk/OS/uCOS-III/clk_os.c ****     OS_ERR  os_err;
  76              		.loc 1 235 1 view -0
  77              		.cfi_startproc
  78              		@ args = 0, pretend = 0, frame = 8
  79              		@ frame_needed = 0, uses_anonymous_args = 0
 235:rtos/uC-Clk/OS/uCOS-III/clk_os.c ****     OS_ERR  os_err;
  80              		.loc 1 235 1 is_stmt 0 view .LVU9
  81 0000 10B5     		push	{r4, lr}
  82              	.LCFI2:
  83              		.cfi_def_cfa_offset 8
  84              		.cfi_offset 4, -8
  85              		.cfi_offset 14, -4
  86 0002 8CB0     		sub	sp, sp, #48
  87              	.LCFI3:
  88              		.cfi_def_cfa_offset 56
  89 0004 0446     		mov	r4, r0
ARM GAS  /tmp/ccwUk5HR.s 			page 8


 236:rtos/uC-Clk/OS/uCOS-III/clk_os.c **** 
  90              		.loc 1 236 5 is_stmt 1 view .LVU10
 252:rtos/uC-Clk/OS/uCOS-III/clk_os.c ****                  (CPU_CHAR   *) CLK_OS_TASK_NAME,
  91              		.loc 1 252 5 view .LVU11
  92 0006 0DF12E03 		add	r3, sp, #46
  93 000a 0893     		str	r3, [sp, #32]
  94 000c 0322     		movs	r2, #3
  95 000e 0792     		str	r2, [sp, #28]
  96 0010 0023     		movs	r3, #0
  97 0012 0693     		str	r3, [sp, #24]
  98 0014 0593     		str	r3, [sp, #20]
  99 0016 0493     		str	r3, [sp, #16]
 100 0018 4FF48071 		mov	r1, #256
 101 001c 0391     		str	r1, [sp, #12]
 102 001e 1921     		movs	r1, #25
 103 0020 0291     		str	r1, [sp, #8]
 104 0022 0949     		ldr	r1, .L9
 105 0024 0191     		str	r1, [sp, #4]
 106 0026 0092     		str	r2, [sp]
 107 0028 084A     		ldr	r2, .L9+4
 108 002a 0949     		ldr	r1, .L9+8
 109 002c 0948     		ldr	r0, .L9+12
 110              	.LVL5:
 252:rtos/uC-Clk/OS/uCOS-III/clk_os.c ****                  (CPU_CHAR   *) CLK_OS_TASK_NAME,
 111              		.loc 1 252 5 is_stmt 0 view .LVU12
 112 002e FFF7FEFF 		bl	OSTaskCreate
 113              	.LVL6:
 265:rtos/uC-Clk/OS/uCOS-III/clk_os.c ****        *p_err   = CLK_OS_ERR_INIT_TASK;
 114              		.loc 1 265 5 is_stmt 1 view .LVU13
 265:rtos/uC-Clk/OS/uCOS-III/clk_os.c ****        *p_err   = CLK_OS_ERR_INIT_TASK;
 115              		.loc 1 265 16 is_stmt 0 view .LVU14
 116 0032 BDF82E30 		ldrh	r3, [sp, #46]
 265:rtos/uC-Clk/OS/uCOS-III/clk_os.c ****        *p_err   = CLK_OS_ERR_INIT_TASK;
 117              		.loc 1 265 8 view .LVU15
 118 0036 1BB9     		cbnz	r3, .L8
 271:rtos/uC-Clk/OS/uCOS-III/clk_os.c **** }
 119              		.loc 1 271 4 is_stmt 1 view .LVU16
 271:rtos/uC-Clk/OS/uCOS-III/clk_os.c **** }
 120              		.loc 1 271 11 is_stmt 0 view .LVU17
 121 0038 6423     		movs	r3, #100
 122 003a 2370     		strb	r3, [r4]
 123              	.L4:
 272:rtos/uC-Clk/OS/uCOS-III/clk_os.c **** 
 124              		.loc 1 272 1 view .LVU18
 125 003c 0CB0     		add	sp, sp, #48
 126              	.LCFI4:
 127              		.cfi_remember_state
 128              		.cfi_def_cfa_offset 8
 129              		@ sp needed
 130 003e 10BD     		pop	{r4, pc}
 131              	.LVL7:
 132              	.L8:
 133              	.LCFI5:
 134              		.cfi_restore_state
 266:rtos/uC-Clk/OS/uCOS-III/clk_os.c ****         return;
 135              		.loc 1 266 8 is_stmt 1 view .LVU19
 266:rtos/uC-Clk/OS/uCOS-III/clk_os.c ****         return;
ARM GAS  /tmp/ccwUk5HR.s 			page 9


 136              		.loc 1 266 17 is_stmt 0 view .LVU20
 137 0040 6523     		movs	r3, #101
 138 0042 2370     		strb	r3, [r4]
 267:rtos/uC-Clk/OS/uCOS-III/clk_os.c ****     }
 139              		.loc 1 267 9 is_stmt 1 view .LVU21
 140 0044 FAE7     		b	.L4
 141              	.L10:
 142 0046 00BF     		.align	2
 143              	.L9:
 144 0048 00000000 		.word	.LANCHOR1
 145 004c 00000000 		.word	Clk_OS_Task
 146 0050 00000000 		.word	.LC0
 147 0054 00000000 		.word	.LANCHOR0
 148              		.cfi_endproc
 149              	.LFE0:
 151              		.section	.text.Clk_OS_Wait,"ax",%progbits
 152              		.align	1
 153              		.global	Clk_OS_Wait
 154              		.syntax unified
 155              		.thumb
 156              		.thumb_func
 157              		.fpu fpv4-sp-d16
 159              	Clk_OS_Wait:
 160              	.LVL8:
 161              	.LFB2:
 308:rtos/uC-Clk/OS/uCOS-III/clk_os.c ****                   (OS_OPT  ) OS_OPT_TIME_DLY,
 309:rtos/uC-Clk/OS/uCOS-III/clk_os.c ****                   (OS_ERR *)&os_err);
 310:rtos/uC-Clk/OS/uCOS-III/clk_os.c ****     }
 311:rtos/uC-Clk/OS/uCOS-III/clk_os.c **** }
 312:rtos/uC-Clk/OS/uCOS-III/clk_os.c **** 
 313:rtos/uC-Clk/OS/uCOS-III/clk_os.c **** 
 314:rtos/uC-Clk/OS/uCOS-III/clk_os.c **** /*
 315:rtos/uC-Clk/OS/uCOS-III/clk_os.c **** ***************************************************************************************************
 316:rtos/uC-Clk/OS/uCOS-III/clk_os.c **** *                                            Clk_OS_Wait()
 317:rtos/uC-Clk/OS/uCOS-III/clk_os.c **** *
 318:rtos/uC-Clk/OS/uCOS-III/clk_os.c **** * Description : Wait for Clock signal to increment Clock timestamp.
 319:rtos/uC-Clk/OS/uCOS-III/clk_os.c **** *
 320:rtos/uC-Clk/OS/uCOS-III/clk_os.c **** * Argument(s) : p_err       Pointer to variable that will receive the return error code from this f
 321:rtos/uC-Clk/OS/uCOS-III/clk_os.c **** *
 322:rtos/uC-Clk/OS/uCOS-III/clk_os.c **** *                               CLK_OS_ERR_NONE                 Signal     received.
 323:rtos/uC-Clk/OS/uCOS-III/clk_os.c **** *                               CLK_OS_ERR_WAIT                 Signal NOT received.
 324:rtos/uC-Clk/OS/uCOS-III/clk_os.c **** *
 325:rtos/uC-Clk/OS/uCOS-III/clk_os.c **** * Return(s)   : none.
 326:rtos/uC-Clk/OS/uCOS-III/clk_os.c **** *
 327:rtos/uC-Clk/OS/uCOS-III/clk_os.c **** * Note(s)     : none.
 328:rtos/uC-Clk/OS/uCOS-III/clk_os.c **** ***************************************************************************************************
 329:rtos/uC-Clk/OS/uCOS-III/clk_os.c **** */
 330:rtos/uC-Clk/OS/uCOS-III/clk_os.c **** 
 331:rtos/uC-Clk/OS/uCOS-III/clk_os.c **** void  Clk_OS_Wait (CLK_ERR  *p_err)
 332:rtos/uC-Clk/OS/uCOS-III/clk_os.c **** {
 162              		.loc 1 332 1 view -0
 163              		.cfi_startproc
 164              		@ args = 0, pretend = 0, frame = 8
 165              		@ frame_needed = 0, uses_anonymous_args = 0
 166              		.loc 1 332 1 is_stmt 0 view .LVU23
 167 0000 10B5     		push	{r4, lr}
 168              	.LCFI6:
ARM GAS  /tmp/ccwUk5HR.s 			page 10


 169              		.cfi_def_cfa_offset 8
 170              		.cfi_offset 4, -8
 171              		.cfi_offset 14, -4
 172 0002 84B0     		sub	sp, sp, #16
 173              	.LCFI7:
 174              		.cfi_def_cfa_offset 24
 175 0004 0446     		mov	r4, r0
 333:rtos/uC-Clk/OS/uCOS-III/clk_os.c ****     OS_ERR  os_err;
 176              		.loc 1 333 5 is_stmt 1 view .LVU24
 334:rtos/uC-Clk/OS/uCOS-III/clk_os.c **** 
 335:rtos/uC-Clk/OS/uCOS-III/clk_os.c **** 
 336:rtos/uC-Clk/OS/uCOS-III/clk_os.c **** #if (CLK_CFG_SIGNAL_EN == DEF_ENABLED)
 337:rtos/uC-Clk/OS/uCOS-III/clk_os.c ****     OSSemPend((OS_SEM *)&Clk_OS_SignalObj,                      /* Wait for one-sec signal ...     
 338:rtos/uC-Clk/OS/uCOS-III/clk_os.c ****               (OS_TICK ) 0u,                                    /* ... without timeout.            
 339:rtos/uC-Clk/OS/uCOS-III/clk_os.c ****               (OS_OPT  ) OS_OPT_PEND_BLOCKING,
 340:rtos/uC-Clk/OS/uCOS-III/clk_os.c ****               (CPU_TS *) 0,
 341:rtos/uC-Clk/OS/uCOS-III/clk_os.c ****               (OS_ERR *)&os_err);
 342:rtos/uC-Clk/OS/uCOS-III/clk_os.c **** #else
 343:rtos/uC-Clk/OS/uCOS-III/clk_os.c ****     OSTimeDlyHMSM(0u,
 177              		.loc 1 343 5 view .LVU25
 178 0006 0DF10E03 		add	r3, sp, #14
 179 000a 0193     		str	r3, [sp, #4]
 180 000c 0823     		movs	r3, #8
 181 000e 0093     		str	r3, [sp]
 182 0010 0023     		movs	r3, #0
 183 0012 0122     		movs	r2, #1
 184 0014 1946     		mov	r1, r3
 185 0016 1846     		mov	r0, r3
 186              	.LVL9:
 187              		.loc 1 343 5 is_stmt 0 view .LVU26
 188 0018 FFF7FEFF 		bl	OSTimeDlyHMSM
 189              	.LVL10:
 344:rtos/uC-Clk/OS/uCOS-III/clk_os.c ****                   0u,
 345:rtos/uC-Clk/OS/uCOS-III/clk_os.c ****                   1u,                                           /* Dly for one sec (see Note #1).  
 346:rtos/uC-Clk/OS/uCOS-III/clk_os.c ****                   0u,
 347:rtos/uC-Clk/OS/uCOS-III/clk_os.c ****                   OS_OPT_TIME_PERIODIC,
 348:rtos/uC-Clk/OS/uCOS-III/clk_os.c ****                  &os_err);
 349:rtos/uC-Clk/OS/uCOS-III/clk_os.c **** #endif
 350:rtos/uC-Clk/OS/uCOS-III/clk_os.c **** 
 351:rtos/uC-Clk/OS/uCOS-III/clk_os.c ****     if (os_err != OS_ERR_NONE) {
 190              		.loc 1 351 5 is_stmt 1 view .LVU27
 191              		.loc 1 351 16 is_stmt 0 view .LVU28
 192 001c BDF80E30 		ldrh	r3, [sp, #14]
 193              		.loc 1 351 8 view .LVU29
 194 0020 1BB9     		cbnz	r3, .L15
 352:rtos/uC-Clk/OS/uCOS-III/clk_os.c ****        *p_err   = CLK_OS_ERR_WAIT;
 353:rtos/uC-Clk/OS/uCOS-III/clk_os.c ****         return;
 354:rtos/uC-Clk/OS/uCOS-III/clk_os.c ****     }
 355:rtos/uC-Clk/OS/uCOS-III/clk_os.c **** 
 356:rtos/uC-Clk/OS/uCOS-III/clk_os.c ****    *p_err = CLK_OS_ERR_NONE;
 195              		.loc 1 356 4 is_stmt 1 view .LVU30
 196              		.loc 1 356 11 is_stmt 0 view .LVU31
 197 0022 6423     		movs	r3, #100
 198 0024 2370     		strb	r3, [r4]
 199              	.L11:
 357:rtos/uC-Clk/OS/uCOS-III/clk_os.c **** }
 200              		.loc 1 357 1 view .LVU32
ARM GAS  /tmp/ccwUk5HR.s 			page 11


 201 0026 04B0     		add	sp, sp, #16
 202              	.LCFI8:
 203              		.cfi_remember_state
 204              		.cfi_def_cfa_offset 8
 205              		@ sp needed
 206 0028 10BD     		pop	{r4, pc}
 207              	.LVL11:
 208              	.L15:
 209              	.LCFI9:
 210              		.cfi_restore_state
 352:rtos/uC-Clk/OS/uCOS-III/clk_os.c ****        *p_err   = CLK_OS_ERR_WAIT;
 211              		.loc 1 352 8 is_stmt 1 view .LVU33
 352:rtos/uC-Clk/OS/uCOS-III/clk_os.c ****        *p_err   = CLK_OS_ERR_WAIT;
 212              		.loc 1 352 17 is_stmt 0 view .LVU34
 213 002a 7823     		movs	r3, #120
 214 002c 2370     		strb	r3, [r4]
 353:rtos/uC-Clk/OS/uCOS-III/clk_os.c ****     }
 215              		.loc 1 353 9 is_stmt 1 view .LVU35
 216 002e FAE7     		b	.L11
 217              		.cfi_endproc
 218              	.LFE2:
 220              		.section	.bss.Clk_OS_TaskStk,"aw",%nobits
 221              		.align	2
 222              		.set	.LANCHOR1,. + 0
 225              	Clk_OS_TaskStk:
 226 0000 00000000 		.space	1024
 226      00000000 
 226      00000000 
 226      00000000 
 226      00000000 
 227              		.section	.bss.Clk_OS_TaskTCB,"aw",%nobits
 228              		.align	2
 229              		.set	.LANCHOR0,. + 0
 232              	Clk_OS_TaskTCB:
 233 0000 00000000 		.space	168
 233      00000000 
 233      00000000 
 233      00000000 
 233      00000000 
 234              		.text
 235              	.Letext0:
 236              		.file 2 "rtos/uC-CPU/ARM-Cortex-M/ARMv7-M/GNU/cpu.h"
 237              		.file 3 "rtos/uC-CPU/cpu_core.h"
 238              		.file 4 "rtos/uC-Clk/OS/uCOS-III/../../Source/clk.h"
 239              		.file 5 "rtos/uCOS-III/Source/os_type.h"
 240              		.file 6 "rtos/uCOS-III/Source/os.h"
 241              		.file 7 "rtos/uCOS-III/Ports/ARM-Cortex-M/ARMv7-M/GNU/os_cpu.h"
ARM GAS  /tmp/ccwUk5HR.s 			page 12

