ARM GAS  /tmp/ccl3XmhK.s 			page 1


   1              		.cpu cortex-m4
   2              		.eabi_attribute 27, 1
   3              		.eabi_attribute 28, 1
   4              		.eabi_attribute 20, 1
   5              		.eabi_attribute 21, 1
   6              		.eabi_attribute 23, 3
   7              		.eabi_attribute 24, 1
   8              		.eabi_attribute 25, 1
   9              		.eabi_attribute 26, 1
  10              		.eabi_attribute 30, 1
  11              		.eabi_attribute 34, 1
  12              		.eabi_attribute 18, 4
  13              		.file	"fs_fat_fat16.c"
  14              		.text
  15              	.Ltext0:
  16              		.cfi_sections	.debug_frame
  17              		.section	.text.FS_FAT_FAT16_ClusValRd,"ax",%progbits
  18              		.align	1
  19              		.arch armv7e-m
  20              		.syntax unified
  21              		.thumb
  22              		.thumb_func
  23              		.fpu fpv4-sp-d16
  25              	FS_FAT_FAT16_ClusValRd:
  26              	.LVL0:
  27              	.LFB1:
  28              		.file 1 "rtos/uC-FS/FAT/fs_fat_fat16.c"
   1:rtos/uC-FS/FAT/fs_fat_fat16.c **** /*
   2:rtos/uC-FS/FAT/fs_fat_fat16.c **** ***************************************************************************************************
   3:rtos/uC-FS/FAT/fs_fat_fat16.c **** *                                                uC/FS
   4:rtos/uC-FS/FAT/fs_fat_fat16.c **** *                                      The Embedded File System
   5:rtos/uC-FS/FAT/fs_fat_fat16.c **** *
   6:rtos/uC-FS/FAT/fs_fat_fat16.c **** *                         (c) Copyright 2008-2019; Silicon Laboratories Inc.,
   7:rtos/uC-FS/FAT/fs_fat_fat16.c **** *                                400 W. Cesar Chavez, Austin, TX 78701
   8:rtos/uC-FS/FAT/fs_fat_fat16.c **** *
   9:rtos/uC-FS/FAT/fs_fat_fat16.c **** *                   All rights reserved. Protected by international copyright laws.
  10:rtos/uC-FS/FAT/fs_fat_fat16.c **** *
  11:rtos/uC-FS/FAT/fs_fat_fat16.c **** *                  Your use of this software is subject to your acceptance of the terms
  12:rtos/uC-FS/FAT/fs_fat_fat16.c **** *                  of a Silicon Labs Micrium software license, which can be obtained by
  13:rtos/uC-FS/FAT/fs_fat_fat16.c **** *                  contacting info@micrium.com. If you do not agree to the terms of this
  14:rtos/uC-FS/FAT/fs_fat_fat16.c **** *                  license, you may not use this software.
  15:rtos/uC-FS/FAT/fs_fat_fat16.c **** *
  16:rtos/uC-FS/FAT/fs_fat_fat16.c **** *                  Please help us continue to provide the Embedded community with the finest
  17:rtos/uC-FS/FAT/fs_fat_fat16.c **** *                  software available. Your honesty is greatly appreciated.
  18:rtos/uC-FS/FAT/fs_fat_fat16.c **** *
  19:rtos/uC-FS/FAT/fs_fat_fat16.c **** *                    You can find our product's documentation at: doc.micrium.com
  20:rtos/uC-FS/FAT/fs_fat_fat16.c **** *
  21:rtos/uC-FS/FAT/fs_fat_fat16.c **** *                          For more information visit us at: www.micrium.com
  22:rtos/uC-FS/FAT/fs_fat_fat16.c **** ***************************************************************************************************
  23:rtos/uC-FS/FAT/fs_fat_fat16.c **** */
  24:rtos/uC-FS/FAT/fs_fat_fat16.c **** 
  25:rtos/uC-FS/FAT/fs_fat_fat16.c **** /*
  26:rtos/uC-FS/FAT/fs_fat_fat16.c **** ***************************************************************************************************
  27:rtos/uC-FS/FAT/fs_fat_fat16.c **** *
  28:rtos/uC-FS/FAT/fs_fat_fat16.c **** *                                     FILE SYSTEM FAT MANAGEMENT
  29:rtos/uC-FS/FAT/fs_fat_fat16.c **** *
  30:rtos/uC-FS/FAT/fs_fat_fat16.c **** *                                            FAT16 SUPPORT
ARM GAS  /tmp/ccl3XmhK.s 			page 2


  31:rtos/uC-FS/FAT/fs_fat_fat16.c **** *
  32:rtos/uC-FS/FAT/fs_fat_fat16.c **** * Filename : fs_fat_fat16.c
  33:rtos/uC-FS/FAT/fs_fat_fat16.c **** * Version  : v4.07.06
  34:rtos/uC-FS/FAT/fs_fat_fat16.c **** ***************************************************************************************************
  35:rtos/uC-FS/FAT/fs_fat_fat16.c **** */
  36:rtos/uC-FS/FAT/fs_fat_fat16.c **** 
  37:rtos/uC-FS/FAT/fs_fat_fat16.c **** /*
  38:rtos/uC-FS/FAT/fs_fat_fat16.c **** ***************************************************************************************************
  39:rtos/uC-FS/FAT/fs_fat_fat16.c **** *                                               MODULE
  40:rtos/uC-FS/FAT/fs_fat_fat16.c **** ***************************************************************************************************
  41:rtos/uC-FS/FAT/fs_fat_fat16.c **** */
  42:rtos/uC-FS/FAT/fs_fat_fat16.c **** 
  43:rtos/uC-FS/FAT/fs_fat_fat16.c **** #define  MICRIUM_SOURCE
  44:rtos/uC-FS/FAT/fs_fat_fat16.c **** #define  FS_FAT_FAT16_MODULE
  45:rtos/uC-FS/FAT/fs_fat_fat16.c **** 
  46:rtos/uC-FS/FAT/fs_fat_fat16.c **** 
  47:rtos/uC-FS/FAT/fs_fat_fat16.c **** /*
  48:rtos/uC-FS/FAT/fs_fat_fat16.c **** ***************************************************************************************************
  49:rtos/uC-FS/FAT/fs_fat_fat16.c **** *                                            INCLUDE FILES
  50:rtos/uC-FS/FAT/fs_fat_fat16.c **** ***************************************************************************************************
  51:rtos/uC-FS/FAT/fs_fat_fat16.c **** */
  52:rtos/uC-FS/FAT/fs_fat_fat16.c **** 
  53:rtos/uC-FS/FAT/fs_fat_fat16.c **** #include  <lib_mem.h>
  54:rtos/uC-FS/FAT/fs_fat_fat16.c **** #include  "../Source/fs.h"
  55:rtos/uC-FS/FAT/fs_fat_fat16.c **** #include  "../Source/fs_buf.h"
  56:rtos/uC-FS/FAT/fs_fat_fat16.c **** #include  "../Source/fs_sys.h"
  57:rtos/uC-FS/FAT/fs_fat_fat16.c **** #include  "../Source/fs_vol.h"
  58:rtos/uC-FS/FAT/fs_fat_fat16.c **** #include  "fs_fat_fat16.h"
  59:rtos/uC-FS/FAT/fs_fat_fat16.c **** #include  "fs_fat_type.h"
  60:rtos/uC-FS/FAT/fs_fat_fat16.c **** #include  "fs_fat_journal.h"
  61:rtos/uC-FS/FAT/fs_fat_fat16.c **** #include  "fs_fat.h"
  62:rtos/uC-FS/FAT/fs_fat_fat16.c **** 
  63:rtos/uC-FS/FAT/fs_fat_fat16.c **** 
  64:rtos/uC-FS/FAT/fs_fat_fat16.c **** /*
  65:rtos/uC-FS/FAT/fs_fat_fat16.c **** ***************************************************************************************************
  66:rtos/uC-FS/FAT/fs_fat_fat16.c **** *                                               MODULE
  67:rtos/uC-FS/FAT/fs_fat_fat16.c **** *
  68:rtos/uC-FS/FAT/fs_fat_fat16.c **** * Note(s) : (1) See 'fs_fat.h  MODULE'.
  69:rtos/uC-FS/FAT/fs_fat_fat16.c **** ***************************************************************************************************
  70:rtos/uC-FS/FAT/fs_fat_fat16.c **** */
  71:rtos/uC-FS/FAT/fs_fat_fat16.c **** 
  72:rtos/uC-FS/FAT/fs_fat_fat16.c **** #ifdef   FS_FAT_FAT16_MODULE_PRESENT                            /* See Note #1.                    
  73:rtos/uC-FS/FAT/fs_fat_fat16.c **** 
  74:rtos/uC-FS/FAT/fs_fat_fat16.c **** 
  75:rtos/uC-FS/FAT/fs_fat_fat16.c **** /*
  76:rtos/uC-FS/FAT/fs_fat_fat16.c **** ***************************************************************************************************
  77:rtos/uC-FS/FAT/fs_fat_fat16.c **** *                                            LOCAL DEFINES
  78:rtos/uC-FS/FAT/fs_fat_fat16.c **** ***************************************************************************************************
  79:rtos/uC-FS/FAT/fs_fat_fat16.c **** */
  80:rtos/uC-FS/FAT/fs_fat_fat16.c **** 
  81:rtos/uC-FS/FAT/fs_fat_fat16.c **** #define  FS_FAT_FAT16_CLUS_BAD                        0xFFF7u
  82:rtos/uC-FS/FAT/fs_fat_fat16.c **** #define  FS_FAT_FAT16_CLUS_EOF                        0xFFF8u
  83:rtos/uC-FS/FAT/fs_fat_fat16.c **** #define  FS_FAT_FAT16_CLUS_FREE                       0x0000u
  84:rtos/uC-FS/FAT/fs_fat_fat16.c **** 
  85:rtos/uC-FS/FAT/fs_fat_fat16.c **** 
  86:rtos/uC-FS/FAT/fs_fat_fat16.c **** /*
  87:rtos/uC-FS/FAT/fs_fat_fat16.c **** ***************************************************************************************************
ARM GAS  /tmp/ccl3XmhK.s 			page 3


  88:rtos/uC-FS/FAT/fs_fat_fat16.c **** *                                          LOCAL DATA TYPES
  89:rtos/uC-FS/FAT/fs_fat_fat16.c **** ***************************************************************************************************
  90:rtos/uC-FS/FAT/fs_fat_fat16.c **** */
  91:rtos/uC-FS/FAT/fs_fat_fat16.c **** 
  92:rtos/uC-FS/FAT/fs_fat_fat16.c **** 
  93:rtos/uC-FS/FAT/fs_fat_fat16.c **** /*
  94:rtos/uC-FS/FAT/fs_fat_fat16.c **** ***************************************************************************************************
  95:rtos/uC-FS/FAT/fs_fat_fat16.c **** *                                           LOCAL CONSTANTS
  96:rtos/uC-FS/FAT/fs_fat_fat16.c **** ***************************************************************************************************
  97:rtos/uC-FS/FAT/fs_fat_fat16.c **** */
  98:rtos/uC-FS/FAT/fs_fat_fat16.c **** 
  99:rtos/uC-FS/FAT/fs_fat_fat16.c **** 
 100:rtos/uC-FS/FAT/fs_fat_fat16.c **** /*
 101:rtos/uC-FS/FAT/fs_fat_fat16.c **** ***************************************************************************************************
 102:rtos/uC-FS/FAT/fs_fat_fat16.c **** *                                            LOCAL TABLES
 103:rtos/uC-FS/FAT/fs_fat_fat16.c **** ***************************************************************************************************
 104:rtos/uC-FS/FAT/fs_fat_fat16.c **** */
 105:rtos/uC-FS/FAT/fs_fat_fat16.c **** 
 106:rtos/uC-FS/FAT/fs_fat_fat16.c **** 
 107:rtos/uC-FS/FAT/fs_fat_fat16.c **** /*
 108:rtos/uC-FS/FAT/fs_fat_fat16.c **** ***************************************************************************************************
 109:rtos/uC-FS/FAT/fs_fat_fat16.c **** *                                       LOCAL GLOBAL VARIABLES
 110:rtos/uC-FS/FAT/fs_fat_fat16.c **** ***************************************************************************************************
 111:rtos/uC-FS/FAT/fs_fat_fat16.c **** */
 112:rtos/uC-FS/FAT/fs_fat_fat16.c **** 
 113:rtos/uC-FS/FAT/fs_fat_fat16.c **** 
 114:rtos/uC-FS/FAT/fs_fat_fat16.c **** /*
 115:rtos/uC-FS/FAT/fs_fat_fat16.c **** ***************************************************************************************************
 116:rtos/uC-FS/FAT/fs_fat_fat16.c **** *                                            LOCAL MACRO'S
 117:rtos/uC-FS/FAT/fs_fat_fat16.c **** ***************************************************************************************************
 118:rtos/uC-FS/FAT/fs_fat_fat16.c **** */
 119:rtos/uC-FS/FAT/fs_fat_fat16.c **** 
 120:rtos/uC-FS/FAT/fs_fat_fat16.c **** 
 121:rtos/uC-FS/FAT/fs_fat_fat16.c **** /*
 122:rtos/uC-FS/FAT/fs_fat_fat16.c **** ***************************************************************************************************
 123:rtos/uC-FS/FAT/fs_fat_fat16.c **** *                                      LOCAL FUNCTION PROTOTYPES
 124:rtos/uC-FS/FAT/fs_fat_fat16.c **** ***************************************************************************************************
 125:rtos/uC-FS/FAT/fs_fat_fat16.c **** */
 126:rtos/uC-FS/FAT/fs_fat_fat16.c **** 
 127:rtos/uC-FS/FAT/fs_fat_fat16.c **** #if (FS_CFG_RD_ONLY_EN == DEF_DISABLED)
 128:rtos/uC-FS/FAT/fs_fat_fat16.c **** static  void             FS_FAT_FAT16_ClusValWr       (FS_VOL           *p_vol,     /* Write value 
 129:rtos/uC-FS/FAT/fs_fat_fat16.c ****                                                        FS_BUF           *p_buf,
 130:rtos/uC-FS/FAT/fs_fat_fat16.c ****                                                        FS_FAT_CLUS_NBR   clus,
 131:rtos/uC-FS/FAT/fs_fat_fat16.c ****                                                        FS_FAT_CLUS_NBR   val,
 132:rtos/uC-FS/FAT/fs_fat_fat16.c ****                                                        FS_ERR           *p_err);
 133:rtos/uC-FS/FAT/fs_fat_fat16.c **** #endif
 134:rtos/uC-FS/FAT/fs_fat_fat16.c **** 
 135:rtos/uC-FS/FAT/fs_fat_fat16.c **** static  FS_FAT_CLUS_NBR  FS_FAT_FAT16_ClusValRd       (FS_VOL           *p_vol,     /* Read value f
 136:rtos/uC-FS/FAT/fs_fat_fat16.c ****                                                        FS_BUF           *p_buf,
 137:rtos/uC-FS/FAT/fs_fat_fat16.c ****                                                        FS_FAT_CLUS_NBR   clus,
 138:rtos/uC-FS/FAT/fs_fat_fat16.c ****                                                        FS_ERR           *p_err);
 139:rtos/uC-FS/FAT/fs_fat_fat16.c **** 
 140:rtos/uC-FS/FAT/fs_fat_fat16.c **** 
 141:rtos/uC-FS/FAT/fs_fat_fat16.c **** /*
 142:rtos/uC-FS/FAT/fs_fat_fat16.c **** ***************************************************************************************************
 143:rtos/uC-FS/FAT/fs_fat_fat16.c **** *                                         INTERFACE STRUCTURE
 144:rtos/uC-FS/FAT/fs_fat_fat16.c **** ***************************************************************************************************
ARM GAS  /tmp/ccl3XmhK.s 			page 4


 145:rtos/uC-FS/FAT/fs_fat_fat16.c **** */
 146:rtos/uC-FS/FAT/fs_fat_fat16.c **** 
 147:rtos/uC-FS/FAT/fs_fat_fat16.c **** const  FS_FAT_TYPE_API  FS_FAT_FAT16_API = {
 148:rtos/uC-FS/FAT/fs_fat_fat16.c **** #if (FS_CFG_RD_ONLY_EN      == DEF_DISABLED)
 149:rtos/uC-FS/FAT/fs_fat_fat16.c ****     FS_FAT_FAT16_ClusValWr,
 150:rtos/uC-FS/FAT/fs_fat_fat16.c **** #endif
 151:rtos/uC-FS/FAT/fs_fat_fat16.c ****     FS_FAT_FAT16_ClusValRd,
 152:rtos/uC-FS/FAT/fs_fat_fat16.c **** 
 153:rtos/uC-FS/FAT/fs_fat_fat16.c ****     FS_FAT_FAT16_CLUS_BAD,
 154:rtos/uC-FS/FAT/fs_fat_fat16.c ****     FS_FAT_FAT16_CLUS_EOF,
 155:rtos/uC-FS/FAT/fs_fat_fat16.c ****     FS_FAT_FAT16_CLUS_FREE,
 156:rtos/uC-FS/FAT/fs_fat_fat16.c ****     FS_FAT_BS_FAT16_FILESYSTYPE
 157:rtos/uC-FS/FAT/fs_fat_fat16.c **** };
 158:rtos/uC-FS/FAT/fs_fat_fat16.c **** 
 159:rtos/uC-FS/FAT/fs_fat_fat16.c **** 
 160:rtos/uC-FS/FAT/fs_fat_fat16.c **** /*
 161:rtos/uC-FS/FAT/fs_fat_fat16.c **** ***************************************************************************************************
 162:rtos/uC-FS/FAT/fs_fat_fat16.c **** *                                     LOCAL CONFIGURATION ERRORS
 163:rtos/uC-FS/FAT/fs_fat_fat16.c **** ***************************************************************************************************
 164:rtos/uC-FS/FAT/fs_fat_fat16.c **** */
 165:rtos/uC-FS/FAT/fs_fat_fat16.c **** 
 166:rtos/uC-FS/FAT/fs_fat_fat16.c **** /*
 167:rtos/uC-FS/FAT/fs_fat_fat16.c **** ***************************************************************************************************
 168:rtos/uC-FS/FAT/fs_fat_fat16.c **** ***************************************************************************************************
 169:rtos/uC-FS/FAT/fs_fat_fat16.c **** *                                           LOCAL FUNCTIONS
 170:rtos/uC-FS/FAT/fs_fat_fat16.c **** ***************************************************************************************************
 171:rtos/uC-FS/FAT/fs_fat_fat16.c **** ***************************************************************************************************
 172:rtos/uC-FS/FAT/fs_fat_fat16.c **** */
 173:rtos/uC-FS/FAT/fs_fat_fat16.c **** 
 174:rtos/uC-FS/FAT/fs_fat_fat16.c **** /*
 175:rtos/uC-FS/FAT/fs_fat_fat16.c **** ***************************************************************************************************
 176:rtos/uC-FS/FAT/fs_fat_fat16.c **** *                                        FS_FAT_FAT16_ClusValWr()
 177:rtos/uC-FS/FAT/fs_fat_fat16.c **** *
 178:rtos/uC-FS/FAT/fs_fat_fat16.c **** * Description : Write value into cluster.
 179:rtos/uC-FS/FAT/fs_fat_fat16.c **** *
 180:rtos/uC-FS/FAT/fs_fat_fat16.c **** * Argument(s) : p_vol       Pointer to volume.
 181:rtos/uC-FS/FAT/fs_fat_fat16.c **** *
 182:rtos/uC-FS/FAT/fs_fat_fat16.c **** *               p_buf       Pointer to temporary buffer.
 183:rtos/uC-FS/FAT/fs_fat_fat16.c **** *
 184:rtos/uC-FS/FAT/fs_fat_fat16.c **** *               clus        Cluster to modify.
 185:rtos/uC-FS/FAT/fs_fat_fat16.c **** *
 186:rtos/uC-FS/FAT/fs_fat_fat16.c **** *               val         Value to write into cluster.
 187:rtos/uC-FS/FAT/fs_fat_fat16.c **** *
 188:rtos/uC-FS/FAT/fs_fat_fat16.c **** *               p_err       Pointer to variable that will receive the return error code from this f
 189:rtos/uC-FS/FAT/fs_fat_fat16.c **** *
 190:rtos/uC-FS/FAT/fs_fat_fat16.c **** *                               FS_ERR_NONE    Cluster written.
 191:rtos/uC-FS/FAT/fs_fat_fat16.c **** *                               FS_ERR_DEV     Device error.
 192:rtos/uC-FS/FAT/fs_fat_fat16.c **** *
 193:rtos/uC-FS/FAT/fs_fat_fat16.c **** * Return(s)   : none.
 194:rtos/uC-FS/FAT/fs_fat_fat16.c **** *
 195:rtos/uC-FS/FAT/fs_fat_fat16.c **** * Note(s)     : none.
 196:rtos/uC-FS/FAT/fs_fat_fat16.c **** ***************************************************************************************************
 197:rtos/uC-FS/FAT/fs_fat_fat16.c **** */
 198:rtos/uC-FS/FAT/fs_fat_fat16.c **** 
 199:rtos/uC-FS/FAT/fs_fat_fat16.c **** #if (FS_CFG_RD_ONLY_EN == DEF_DISABLED)
 200:rtos/uC-FS/FAT/fs_fat_fat16.c **** static  void  FS_FAT_FAT16_ClusValWr (FS_VOL           *p_vol,
 201:rtos/uC-FS/FAT/fs_fat_fat16.c ****                                       FS_BUF           *p_buf,
ARM GAS  /tmp/ccl3XmhK.s 			page 5


 202:rtos/uC-FS/FAT/fs_fat_fat16.c ****                                       FS_FAT_CLUS_NBR   clus,
 203:rtos/uC-FS/FAT/fs_fat_fat16.c ****                                       FS_FAT_CLUS_NBR   val,
 204:rtos/uC-FS/FAT/fs_fat_fat16.c ****                                       FS_ERR           *p_err)
 205:rtos/uC-FS/FAT/fs_fat_fat16.c **** {
 206:rtos/uC-FS/FAT/fs_fat_fat16.c ****     FS_SEC_SIZE      fat_offset;
 207:rtos/uC-FS/FAT/fs_fat_fat16.c ****     FS_FAT_SEC_NBR   fat_sec;
 208:rtos/uC-FS/FAT/fs_fat_fat16.c ****     FS_SEC_SIZE      fat_sec_offset;
 209:rtos/uC-FS/FAT/fs_fat_fat16.c ****     FS_FAT_SEC_NBR   fat_start_sec;
 210:rtos/uC-FS/FAT/fs_fat_fat16.c ****     FS_FAT_DATA     *p_fat_data;
 211:rtos/uC-FS/FAT/fs_fat_fat16.c **** 
 212:rtos/uC-FS/FAT/fs_fat_fat16.c **** 
 213:rtos/uC-FS/FAT/fs_fat_fat16.c ****     p_fat_data     = (FS_FAT_DATA *)p_vol->DataPtr;
 214:rtos/uC-FS/FAT/fs_fat_fat16.c **** 
 215:rtos/uC-FS/FAT/fs_fat_fat16.c ****     fat_start_sec  =  p_fat_data->FAT1_Start;
 216:rtos/uC-FS/FAT/fs_fat_fat16.c ****     fat_offset     = (FS_SEC_SIZE)clus * FS_FAT_FAT16_ENTRY_NBR_OCTETS;
 217:rtos/uC-FS/FAT/fs_fat_fat16.c ****     fat_sec        =  fat_start_sec + (FS_FAT_SEC_NBR)FS_UTIL_DIV_PWR2(fat_offset, p_fat_data->SecS
 218:rtos/uC-FS/FAT/fs_fat_fat16.c ****     fat_sec_offset =  fat_offset & (p_fat_data->SecSize - 1u);
 219:rtos/uC-FS/FAT/fs_fat_fat16.c **** 
 220:rtos/uC-FS/FAT/fs_fat_fat16.c ****     FSBuf_Set(p_buf,                                            /* Rd FAT sec.                     
 221:rtos/uC-FS/FAT/fs_fat_fat16.c ****               fat_sec,
 222:rtos/uC-FS/FAT/fs_fat_fat16.c ****               FS_VOL_SEC_TYPE_MGMT,
 223:rtos/uC-FS/FAT/fs_fat_fat16.c ****               DEF_YES,
 224:rtos/uC-FS/FAT/fs_fat_fat16.c ****               p_err);
 225:rtos/uC-FS/FAT/fs_fat_fat16.c ****     if (*p_err != FS_ERR_NONE) {
 226:rtos/uC-FS/FAT/fs_fat_fat16.c ****         return;
 227:rtos/uC-FS/FAT/fs_fat_fat16.c ****     }
 228:rtos/uC-FS/FAT/fs_fat_fat16.c **** 
 229:rtos/uC-FS/FAT/fs_fat_fat16.c ****     MEM_VAL_SET_INT16U_LITTLE((void *)((CPU_INT08U *)p_buf->DataPtr + fat_sec_offset), val);
 230:rtos/uC-FS/FAT/fs_fat_fat16.c **** 
 231:rtos/uC-FS/FAT/fs_fat_fat16.c ****     FSBuf_MarkDirty(p_buf, p_err);                              /* Wr FAT sec.                     
 232:rtos/uC-FS/FAT/fs_fat_fat16.c **** }
 233:rtos/uC-FS/FAT/fs_fat_fat16.c **** #endif
 234:rtos/uC-FS/FAT/fs_fat_fat16.c **** 
 235:rtos/uC-FS/FAT/fs_fat_fat16.c **** 
 236:rtos/uC-FS/FAT/fs_fat_fat16.c **** /*
 237:rtos/uC-FS/FAT/fs_fat_fat16.c **** ***************************************************************************************************
 238:rtos/uC-FS/FAT/fs_fat_fat16.c **** *                                        FS_FAT_FAT16_ClusValRd()
 239:rtos/uC-FS/FAT/fs_fat_fat16.c **** *
 240:rtos/uC-FS/FAT/fs_fat_fat16.c **** * Description : Read value from cluster.
 241:rtos/uC-FS/FAT/fs_fat_fat16.c **** *
 242:rtos/uC-FS/FAT/fs_fat_fat16.c **** * Argument(s) : p_vol       Pointer to volume.
 243:rtos/uC-FS/FAT/fs_fat_fat16.c **** *
 244:rtos/uC-FS/FAT/fs_fat_fat16.c **** *               p_buf       Pointer to temporary buffer.
 245:rtos/uC-FS/FAT/fs_fat_fat16.c **** *
 246:rtos/uC-FS/FAT/fs_fat_fat16.c **** *               clus        Cluster to modify.
 247:rtos/uC-FS/FAT/fs_fat_fat16.c **** *
 248:rtos/uC-FS/FAT/fs_fat_fat16.c **** *               p_err       Pointer to variable that will receive the return error code from this f
 249:rtos/uC-FS/FAT/fs_fat_fat16.c **** *
 250:rtos/uC-FS/FAT/fs_fat_fat16.c **** *                               FS_ERR_NONE    Cluster read.
 251:rtos/uC-FS/FAT/fs_fat_fat16.c **** *                               FS_ERR_DEV     Device error.
 252:rtos/uC-FS/FAT/fs_fat_fat16.c **** *
 253:rtos/uC-FS/FAT/fs_fat_fat16.c **** * Return(s)   : Cluster value.
 254:rtos/uC-FS/FAT/fs_fat_fat16.c **** *
 255:rtos/uC-FS/FAT/fs_fat_fat16.c **** * Note(s)     : none.
 256:rtos/uC-FS/FAT/fs_fat_fat16.c **** ***************************************************************************************************
 257:rtos/uC-FS/FAT/fs_fat_fat16.c **** */
 258:rtos/uC-FS/FAT/fs_fat_fat16.c **** 
ARM GAS  /tmp/ccl3XmhK.s 			page 6


 259:rtos/uC-FS/FAT/fs_fat_fat16.c **** static  FS_FAT_CLUS_NBR  FS_FAT_FAT16_ClusValRd (FS_VOL           *p_vol,
 260:rtos/uC-FS/FAT/fs_fat_fat16.c ****                                                  FS_BUF           *p_buf,
 261:rtos/uC-FS/FAT/fs_fat_fat16.c ****                                                  FS_FAT_CLUS_NBR   clus,
 262:rtos/uC-FS/FAT/fs_fat_fat16.c ****                                                  FS_ERR           *p_err)
 263:rtos/uC-FS/FAT/fs_fat_fat16.c **** {
  29              		.loc 1 263 1 view -0
  30              		.cfi_startproc
  31              		@ args = 0, pretend = 0, frame = 0
  32              		@ frame_needed = 0, uses_anonymous_args = 0
  33              		.loc 1 263 1 is_stmt 0 view .LVU1
  34 0000 70B5     		push	{r4, r5, r6, lr}
  35              	.LCFI0:
  36              		.cfi_def_cfa_offset 16
  37              		.cfi_offset 4, -16
  38              		.cfi_offset 5, -12
  39              		.cfi_offset 6, -8
  40              		.cfi_offset 14, -4
  41 0002 82B0     		sub	sp, sp, #8
  42              	.LCFI1:
  43              		.cfi_def_cfa_offset 24
  44 0004 0E46     		mov	r6, r1
  45 0006 1D46     		mov	r5, r3
 264:rtos/uC-FS/FAT/fs_fat_fat16.c ****     FS_SEC_SIZE       fat_offset;
  46              		.loc 1 264 5 is_stmt 1 view .LVU2
 265:rtos/uC-FS/FAT/fs_fat_fat16.c ****     FS_FAT_SEC_NBR    fat_sec;
  47              		.loc 1 265 5 view .LVU3
 266:rtos/uC-FS/FAT/fs_fat_fat16.c ****     FS_SEC_SIZE       fat_sec_offset;
  48              		.loc 1 266 5 view .LVU4
 267:rtos/uC-FS/FAT/fs_fat_fat16.c ****     FS_FAT_SEC_NBR    fat_start_sec;
  49              		.loc 1 267 5 view .LVU5
 268:rtos/uC-FS/FAT/fs_fat_fat16.c ****     FS_FAT_DATA      *p_fat_data;
  50              		.loc 1 268 5 view .LVU6
 269:rtos/uC-FS/FAT/fs_fat_fat16.c ****     FS_FAT_CLUS_NBR   val;
  51              		.loc 1 269 5 view .LVU7
 270:rtos/uC-FS/FAT/fs_fat_fat16.c **** 
 271:rtos/uC-FS/FAT/fs_fat_fat16.c **** 
 272:rtos/uC-FS/FAT/fs_fat_fat16.c ****     p_fat_data     = (FS_FAT_DATA *)p_vol->DataPtr;
  52              		.loc 1 272 5 view .LVU8
  53              		.loc 1 272 20 is_stmt 0 view .LVU9
  54 0008 436B     		ldr	r3, [r0, #52]
  55              	.LVL1:
 273:rtos/uC-FS/FAT/fs_fat_fat16.c **** 
 274:rtos/uC-FS/FAT/fs_fat_fat16.c ****     fat_start_sec  =  p_fat_data->FAT1_Start;
  56              		.loc 1 274 5 is_stmt 1 view .LVU10
  57              		.loc 1 274 20 is_stmt 0 view .LVU11
  58 000a 186A     		ldr	r0, [r3, #32]
  59              	.LVL2:
 275:rtos/uC-FS/FAT/fs_fat_fat16.c ****     fat_offset     = (FS_SEC_SIZE)clus * FS_FAT_FAT16_ENTRY_NBR_OCTETS;
  60              		.loc 1 275 5 is_stmt 1 view .LVU12
  61              		.loc 1 275 20 is_stmt 0 view .LVU13
  62 000c 5200     		lsls	r2, r2, #1
  63              	.LVL3:
 276:rtos/uC-FS/FAT/fs_fat_fat16.c ****     fat_sec        =  fat_start_sec + (FS_FAT_SEC_NBR)FS_UTIL_DIV_PWR2(fat_offset, p_fat_data->SecS
  64              		.loc 1 276 5 is_stmt 1 view .LVU14
  65              		.loc 1 276 55 is_stmt 0 view .LVU15
  66 000e 93F83810 		ldrb	r1, [r3, #56]	@ zero_extendqisi2
  67              	.LVL4:
ARM GAS  /tmp/ccl3XmhK.s 			page 7


  68              		.loc 1 276 55 view .LVU16
  69 0012 22FA01F1 		lsr	r1, r2, r1
  70              	.LVL5:
 277:rtos/uC-FS/FAT/fs_fat_fat16.c ****     fat_sec_offset =  fat_offset & (p_fat_data->SecSize - 1u);
  71              		.loc 1 277 5 is_stmt 1 view .LVU17
  72              		.loc 1 277 47 is_stmt 0 view .LVU18
  73 0016 5C6B     		ldr	r4, [r3, #52]
  74              		.loc 1 277 57 view .LVU19
  75 0018 013C     		subs	r4, r4, #1
  76              		.loc 1 277 20 view .LVU20
  77 001a 1440     		ands	r4, r4, r2
  78              	.LVL6:
 278:rtos/uC-FS/FAT/fs_fat_fat16.c **** 
 279:rtos/uC-FS/FAT/fs_fat_fat16.c ****     FSBuf_Set(p_buf,
  79              		.loc 1 279 5 is_stmt 1 view .LVU21
  80 001c 0095     		str	r5, [sp]
  81 001e 0123     		movs	r3, #1
  82              	.LVL7:
  83              		.loc 1 279 5 is_stmt 0 view .LVU22
  84 0020 1A46     		mov	r2, r3
  85              	.LVL8:
  86              		.loc 1 279 5 view .LVU23
  87 0022 0144     		add	r1, r1, r0
  88              	.LVL9:
  89              		.loc 1 279 5 view .LVU24
  90 0024 3046     		mov	r0, r6
  91              	.LVL10:
  92              		.loc 1 279 5 view .LVU25
  93 0026 FFF7FEFF 		bl	FSBuf_Set
  94              	.LVL11:
 280:rtos/uC-FS/FAT/fs_fat_fat16.c ****               fat_sec,
 281:rtos/uC-FS/FAT/fs_fat_fat16.c ****               FS_VOL_SEC_TYPE_MGMT,
 282:rtos/uC-FS/FAT/fs_fat_fat16.c ****               DEF_YES,
 283:rtos/uC-FS/FAT/fs_fat_fat16.c ****               p_err);
 284:rtos/uC-FS/FAT/fs_fat_fat16.c ****     if (*p_err != FS_ERR_NONE) {
  95              		.loc 1 284 5 is_stmt 1 view .LVU26
  96              		.loc 1 284 9 is_stmt 0 view .LVU27
  97 002a 2B88     		ldrh	r3, [r5]
  98              		.loc 1 284 8 view .LVU28
  99 002c 43B9     		cbnz	r3, .L3
 285:rtos/uC-FS/FAT/fs_fat_fat16.c ****         return (0u);
 286:rtos/uC-FS/FAT/fs_fat_fat16.c ****     }
 287:rtos/uC-FS/FAT/fs_fat_fat16.c **** 
 288:rtos/uC-FS/FAT/fs_fat_fat16.c ****     val = MEM_VAL_GET_INT16U_LITTLE((void *)((CPU_INT08U *)p_buf->DataPtr + fat_sec_offset));
 100              		.loc 1 288 5 is_stmt 1 view .LVU29
 101              		.loc 1 288 11 is_stmt 0 view .LVU30
 102 002e 3369     		ldr	r3, [r6, #16]
 103 0030 1A19     		adds	r2, r3, r4
 104 0032 185D     		ldrb	r0, [r3, r4]	@ zero_extendqisi2
 105 0034 5378     		ldrb	r3, [r2, #1]	@ zero_extendqisi2
 106 0036 00EB0320 		add	r0, r0, r3, lsl #8
 107 003a 80B2     		uxth	r0, r0
 108              	.LVL12:
 289:rtos/uC-FS/FAT/fs_fat_fat16.c **** 
 290:rtos/uC-FS/FAT/fs_fat_fat16.c ****     return (val);
 109              		.loc 1 290 5 is_stmt 1 view .LVU31
 110              	.L1:
ARM GAS  /tmp/ccl3XmhK.s 			page 8


 291:rtos/uC-FS/FAT/fs_fat_fat16.c **** }
 111              		.loc 1 291 1 is_stmt 0 view .LVU32
 112 003c 02B0     		add	sp, sp, #8
 113              	.LCFI2:
 114              		.cfi_remember_state
 115              		.cfi_def_cfa_offset 16
 116              		@ sp needed
 117 003e 70BD     		pop	{r4, r5, r6, pc}
 118              	.LVL13:
 119              	.L3:
 120              	.LCFI3:
 121              		.cfi_restore_state
 285:rtos/uC-FS/FAT/fs_fat_fat16.c ****         return (0u);
 122              		.loc 1 285 16 view .LVU33
 123 0040 0020     		movs	r0, #0
 124 0042 FBE7     		b	.L1
 125              		.cfi_endproc
 126              	.LFE1:
 128              		.section	.text.FS_FAT_FAT16_ClusValWr,"ax",%progbits
 129              		.align	1
 130              		.syntax unified
 131              		.thumb
 132              		.thumb_func
 133              		.fpu fpv4-sp-d16
 135              	FS_FAT_FAT16_ClusValWr:
 136              	.LVL14:
 137              	.LFB0:
 205:rtos/uC-FS/FAT/fs_fat_fat16.c ****     FS_SEC_SIZE      fat_offset;
 138              		.loc 1 205 1 is_stmt 1 view -0
 139              		.cfi_startproc
 140              		@ args = 4, pretend = 0, frame = 0
 141              		@ frame_needed = 0, uses_anonymous_args = 0
 205:rtos/uC-FS/FAT/fs_fat_fat16.c ****     FS_SEC_SIZE      fat_offset;
 142              		.loc 1 205 1 is_stmt 0 view .LVU35
 143 0000 F0B5     		push	{r4, r5, r6, r7, lr}
 144              	.LCFI4:
 145              		.cfi_def_cfa_offset 20
 146              		.cfi_offset 4, -20
 147              		.cfi_offset 5, -16
 148              		.cfi_offset 6, -12
 149              		.cfi_offset 7, -8
 150              		.cfi_offset 14, -4
 151 0002 83B0     		sub	sp, sp, #12
 152              	.LCFI5:
 153              		.cfi_def_cfa_offset 32
 154 0004 0D46     		mov	r5, r1
 155 0006 1E46     		mov	r6, r3
 156 0008 089F     		ldr	r7, [sp, #32]
 206:rtos/uC-FS/FAT/fs_fat_fat16.c ****     FS_FAT_SEC_NBR   fat_sec;
 157              		.loc 1 206 5 is_stmt 1 view .LVU36
 207:rtos/uC-FS/FAT/fs_fat_fat16.c ****     FS_SEC_SIZE      fat_sec_offset;
 158              		.loc 1 207 5 view .LVU37
 208:rtos/uC-FS/FAT/fs_fat_fat16.c ****     FS_FAT_SEC_NBR   fat_start_sec;
 159              		.loc 1 208 5 view .LVU38
 209:rtos/uC-FS/FAT/fs_fat_fat16.c ****     FS_FAT_DATA     *p_fat_data;
 160              		.loc 1 209 5 view .LVU39
 210:rtos/uC-FS/FAT/fs_fat_fat16.c **** 
ARM GAS  /tmp/ccl3XmhK.s 			page 9


 161              		.loc 1 210 5 view .LVU40
 213:rtos/uC-FS/FAT/fs_fat_fat16.c **** 
 162              		.loc 1 213 5 view .LVU41
 213:rtos/uC-FS/FAT/fs_fat_fat16.c **** 
 163              		.loc 1 213 20 is_stmt 0 view .LVU42
 164 000a 436B     		ldr	r3, [r0, #52]
 165              	.LVL15:
 215:rtos/uC-FS/FAT/fs_fat_fat16.c ****     fat_offset     = (FS_SEC_SIZE)clus * FS_FAT_FAT16_ENTRY_NBR_OCTETS;
 166              		.loc 1 215 5 is_stmt 1 view .LVU43
 215:rtos/uC-FS/FAT/fs_fat_fat16.c ****     fat_offset     = (FS_SEC_SIZE)clus * FS_FAT_FAT16_ENTRY_NBR_OCTETS;
 167              		.loc 1 215 20 is_stmt 0 view .LVU44
 168 000c 196A     		ldr	r1, [r3, #32]
 169              	.LVL16:
 216:rtos/uC-FS/FAT/fs_fat_fat16.c ****     fat_sec        =  fat_start_sec + (FS_FAT_SEC_NBR)FS_UTIL_DIV_PWR2(fat_offset, p_fat_data->SecS
 170              		.loc 1 216 5 is_stmt 1 view .LVU45
 216:rtos/uC-FS/FAT/fs_fat_fat16.c ****     fat_sec        =  fat_start_sec + (FS_FAT_SEC_NBR)FS_UTIL_DIV_PWR2(fat_offset, p_fat_data->SecS
 171              		.loc 1 216 20 is_stmt 0 view .LVU46
 172 000e 5200     		lsls	r2, r2, #1
 173              	.LVL17:
 217:rtos/uC-FS/FAT/fs_fat_fat16.c ****     fat_sec_offset =  fat_offset & (p_fat_data->SecSize - 1u);
 174              		.loc 1 217 5 is_stmt 1 view .LVU47
 217:rtos/uC-FS/FAT/fs_fat_fat16.c ****     fat_sec_offset =  fat_offset & (p_fat_data->SecSize - 1u);
 175              		.loc 1 217 55 is_stmt 0 view .LVU48
 176 0010 93F83800 		ldrb	r0, [r3, #56]	@ zero_extendqisi2
 177              	.LVL18:
 217:rtos/uC-FS/FAT/fs_fat_fat16.c ****     fat_sec_offset =  fat_offset & (p_fat_data->SecSize - 1u);
 178              		.loc 1 217 55 view .LVU49
 179 0014 22FA00F0 		lsr	r0, r2, r0
 180              	.LVL19:
 218:rtos/uC-FS/FAT/fs_fat_fat16.c **** 
 181              		.loc 1 218 5 is_stmt 1 view .LVU50
 218:rtos/uC-FS/FAT/fs_fat_fat16.c **** 
 182              		.loc 1 218 47 is_stmt 0 view .LVU51
 183 0018 5C6B     		ldr	r4, [r3, #52]
 218:rtos/uC-FS/FAT/fs_fat_fat16.c **** 
 184              		.loc 1 218 57 view .LVU52
 185 001a 013C     		subs	r4, r4, #1
 218:rtos/uC-FS/FAT/fs_fat_fat16.c **** 
 186              		.loc 1 218 20 view .LVU53
 187 001c 1440     		ands	r4, r4, r2
 188              	.LVL20:
 220:rtos/uC-FS/FAT/fs_fat_fat16.c ****               fat_sec,
 189              		.loc 1 220 5 is_stmt 1 view .LVU54
 190 001e 0097     		str	r7, [sp]
 191 0020 0123     		movs	r3, #1
 192              	.LVL21:
 220:rtos/uC-FS/FAT/fs_fat_fat16.c ****               fat_sec,
 193              		.loc 1 220 5 is_stmt 0 view .LVU55
 194 0022 1A46     		mov	r2, r3
 195              	.LVL22:
 220:rtos/uC-FS/FAT/fs_fat_fat16.c ****               fat_sec,
 196              		.loc 1 220 5 view .LVU56
 197 0024 0144     		add	r1, r1, r0
 198              	.LVL23:
 220:rtos/uC-FS/FAT/fs_fat_fat16.c ****               fat_sec,
 199              		.loc 1 220 5 view .LVU57
 200 0026 2846     		mov	r0, r5
ARM GAS  /tmp/ccl3XmhK.s 			page 10


 201 0028 FFF7FEFF 		bl	FSBuf_Set
 202              	.LVL24:
 225:rtos/uC-FS/FAT/fs_fat_fat16.c ****         return;
 203              		.loc 1 225 5 is_stmt 1 view .LVU58
 225:rtos/uC-FS/FAT/fs_fat_fat16.c ****         return;
 204              		.loc 1 225 9 is_stmt 0 view .LVU59
 205 002c 3B88     		ldrh	r3, [r7]
 225:rtos/uC-FS/FAT/fs_fat_fat16.c ****         return;
 206              		.loc 1 225 8 view .LVU60
 207 002e 0BB1     		cbz	r3, .L8
 208              	.LVL25:
 209              	.L5:
 232:rtos/uC-FS/FAT/fs_fat_fat16.c **** #endif
 210              		.loc 1 232 1 view .LVU61
 211 0030 03B0     		add	sp, sp, #12
 212              	.LCFI6:
 213              		.cfi_remember_state
 214              		.cfi_def_cfa_offset 20
 215              		@ sp needed
 216 0032 F0BD     		pop	{r4, r5, r6, r7, pc}
 217              	.LVL26:
 218              	.L8:
 219              	.LCFI7:
 220              		.cfi_restore_state
 229:rtos/uC-FS/FAT/fs_fat_fat16.c **** 
 221              		.loc 1 229 5 is_stmt 1 view .LVU62
 229:rtos/uC-FS/FAT/fs_fat_fat16.c **** 
 222              		.loc 1 229 5 view .LVU63
 223 0034 2B69     		ldr	r3, [r5, #16]
 224 0036 1E55     		strb	r6, [r3, r4]
 229:rtos/uC-FS/FAT/fs_fat_fat16.c **** 
 225              		.loc 1 229 5 view .LVU64
 226 0038 2A69     		ldr	r2, [r5, #16]
 227 003a 1444     		add	r4, r4, r2
 228              	.LVL27:
 229:rtos/uC-FS/FAT/fs_fat_fat16.c **** 
 229              		.loc 1 229 5 is_stmt 0 view .LVU65
 230 003c C6F30726 		ubfx	r6, r6, #8, #8
 231              	.LVL28:
 229:rtos/uC-FS/FAT/fs_fat_fat16.c **** 
 232              		.loc 1 229 5 view .LVU66
 233 0040 6670     		strb	r6, [r4, #1]
 229:rtos/uC-FS/FAT/fs_fat_fat16.c **** 
 234              		.loc 1 229 5 is_stmt 1 view .LVU67
 231:rtos/uC-FS/FAT/fs_fat_fat16.c **** }
 235              		.loc 1 231 5 view .LVU68
 236 0042 3946     		mov	r1, r7
 237 0044 2846     		mov	r0, r5
 238 0046 FFF7FEFF 		bl	FSBuf_MarkDirty
 239              	.LVL29:
 240 004a F1E7     		b	.L5
 241              		.cfi_endproc
 242              	.LFE0:
 244              		.global	FS_FAT_FAT16_API
 245              		.section	.rodata.FS_FAT_FAT16_API,"a"
 246              		.align	2
 249              	FS_FAT_FAT16_API:
ARM GAS  /tmp/ccl3XmhK.s 			page 11


 250 0000 00000000 		.word	FS_FAT_FAT16_ClusValWr
 251 0004 00000000 		.word	FS_FAT_FAT16_ClusValRd
 252 0008 F7FF0000 		.word	65527
 253 000c F8FF0000 		.word	65528
 254 0010 00000000 		.word	0
 255 0014 46415431 		.ascii	"FAT16   \000"
 255      36202020 
 255      00
 256 001d 000000   		.space	3
 257              		.text
 258              	.Letext0:
 259              		.file 2 "rtos/uC-CPU/ARM-Cortex-M/ARMv7-M/GNU/cpu.h"
 260              		.file 3 "rtos/uC-FS/FAT/../Source/fs_type.h"
 261              		.file 4 "rtos/uC-FS/FAT/../Source/fs_buf.h"
 262              		.file 5 "rtos/uC-FS/FAT/../Source/fs_vol.h"
 263              		.file 6 "rtos/uC-FS/FAT/../Source/fs_err.h"
 264              		.file 7 "rtos/uC-FS/FAT/../Source/fs_ctr.h"
 265              		.file 8 "rtos/uC-FS/FAT/fs_fat_type.h"
 266              		.file 9 "rtos/uC-FS/FAT/fs_fat.h"
 267              		.file 10 "rtos/uC-FS/FAT/fs_fat_fat16.h"
ARM GAS  /tmp/ccl3XmhK.s 			page 12

