ARM GAS  /tmp/ccR6CaJM.s 			page 1


   1              		.cpu cortex-m4
   2              		.eabi_attribute 27, 1
   3              		.eabi_attribute 28, 1
   4              		.eabi_attribute 20, 1
   5              		.eabi_attribute 21, 1
   6              		.eabi_attribute 23, 3
   7              		.eabi_attribute 24, 1
   8              		.eabi_attribute 25, 1
   9              		.eabi_attribute 26, 1
  10              		.eabi_attribute 30, 1
  11              		.eabi_attribute 34, 1
  12              		.eabi_attribute 18, 4
  13              		.file	"os_app_hooks.c"
  14              		.text
  15              	.Ltext0:
  16              		.cfi_sections	.debug_frame
  17              		.section	.text.App_OS_IdleTaskHook,"ax",%progbits
  18              		.align	1
  19              		.global	App_OS_IdleTaskHook
  20              		.arch armv7e-m
  21              		.syntax unified
  22              		.thumb
  23              		.thumb_func
  24              		.fpu fpv4-sp-d16
  26              	App_OS_IdleTaskHook:
  27              	.LFB2:
  28              		.file 1 "cfg/src/os_app_hooks.c"
   1:cfg/src/os_app_hooks.c **** /*
   2:cfg/src/os_app_hooks.c **** ***************************************************************************************************
   3:cfg/src/os_app_hooks.c **** *                                               uC/OS-III
   4:cfg/src/os_app_hooks.c **** *                                          The Real-Time Kernel
   5:cfg/src/os_app_hooks.c **** *
   6:cfg/src/os_app_hooks.c **** *                         (c) Copyright 2009-2019; Silicon Laboratories Inc.,
   7:cfg/src/os_app_hooks.c **** *                                400 W. Cesar Chavez, Austin, TX 78701
   8:cfg/src/os_app_hooks.c **** *
   9:cfg/src/os_app_hooks.c **** *                   All rights reserved. Protected by international copyright laws.
  10:cfg/src/os_app_hooks.c **** *
  11:cfg/src/os_app_hooks.c **** *                  Your use of this software is subject to your acceptance of the terms
  12:cfg/src/os_app_hooks.c **** *                  of a Silicon Labs Micrium software license, which can be obtained by
  13:cfg/src/os_app_hooks.c **** *                  contacting info@micrium.com. If you do not agree to the terms of this
  14:cfg/src/os_app_hooks.c **** *                  license, you may not use this software.
  15:cfg/src/os_app_hooks.c **** *
  16:cfg/src/os_app_hooks.c **** *                  Please help us continue to provide the Embedded community with the finest
  17:cfg/src/os_app_hooks.c **** *                  software available. Your honesty is greatly appreciated.
  18:cfg/src/os_app_hooks.c **** *
  19:cfg/src/os_app_hooks.c **** *                    You can find our product's documentation at: doc.micrium.com
  20:cfg/src/os_app_hooks.c **** *
  21:cfg/src/os_app_hooks.c **** *                          For more information visit us at: www.micrium.com
  22:cfg/src/os_app_hooks.c **** ***************************************************************************************************
  23:cfg/src/os_app_hooks.c **** */
  24:cfg/src/os_app_hooks.c **** 
  25:cfg/src/os_app_hooks.c **** /*
  26:cfg/src/os_app_hooks.c **** ***************************************************************************************************
  27:cfg/src/os_app_hooks.c **** *
  28:cfg/src/os_app_hooks.c **** *                                           APPLICATION HOOKS
  29:cfg/src/os_app_hooks.c **** *
  30:cfg/src/os_app_hooks.c **** * Filename : os_app_hooks.c
ARM GAS  /tmp/ccR6CaJM.s 			page 2


  31:cfg/src/os_app_hooks.c **** * Version  : V3.07.04
  32:cfg/src/os_app_hooks.c **** ***************************************************************************************************
  33:cfg/src/os_app_hooks.c **** */
  34:cfg/src/os_app_hooks.c **** 
  35:cfg/src/os_app_hooks.c **** #define   MICRIUM_SOURCE
  36:cfg/src/os_app_hooks.c **** #include  <os.h>
  37:cfg/src/os_app_hooks.c **** #include  "os_app_hooks.h"
  38:cfg/src/os_app_hooks.c **** 
  39:cfg/src/os_app_hooks.c **** 
  40:cfg/src/os_app_hooks.c **** /*
  41:cfg/src/os_app_hooks.c **** ***************************************************************************************************
  42:cfg/src/os_app_hooks.c **** *                                              SET ALL APPLICATION HOOKS
  43:cfg/src/os_app_hooks.c **** *
  44:cfg/src/os_app_hooks.c **** * Description: Set ALL application hooks.
  45:cfg/src/os_app_hooks.c **** *
  46:cfg/src/os_app_hooks.c **** * Arguments  : none.
  47:cfg/src/os_app_hooks.c **** *
  48:cfg/src/os_app_hooks.c **** * Note(s)    : none
  49:cfg/src/os_app_hooks.c **** ***************************************************************************************************
  50:cfg/src/os_app_hooks.c **** */
  51:cfg/src/os_app_hooks.c **** 
  52:cfg/src/os_app_hooks.c **** void  App_OS_SetAllHooks (void)
  53:cfg/src/os_app_hooks.c **** {
  54:cfg/src/os_app_hooks.c **** #if OS_CFG_APP_HOOKS_EN > 0u
  55:cfg/src/os_app_hooks.c ****     CPU_SR_ALLOC();
  56:cfg/src/os_app_hooks.c **** 
  57:cfg/src/os_app_hooks.c **** 
  58:cfg/src/os_app_hooks.c ****     CPU_CRITICAL_ENTER();
  59:cfg/src/os_app_hooks.c ****     OS_AppIdleTaskHookPtr   = App_OS_IdleTaskHook;
  60:cfg/src/os_app_hooks.c **** 
  61:cfg/src/os_app_hooks.c **** #if (OS_CFG_TASK_STK_REDZONE_EN > 0u)
  62:cfg/src/os_app_hooks.c ****     OS_AppRedzoneHitHookPtr = App_OS_RedzoneHitHook;
  63:cfg/src/os_app_hooks.c **** #endif
  64:cfg/src/os_app_hooks.c **** 
  65:cfg/src/os_app_hooks.c ****     OS_AppStatTaskHookPtr   = App_OS_StatTaskHook;
  66:cfg/src/os_app_hooks.c **** 
  67:cfg/src/os_app_hooks.c ****     OS_AppTaskCreateHookPtr = App_OS_TaskCreateHook;
  68:cfg/src/os_app_hooks.c **** 
  69:cfg/src/os_app_hooks.c ****     OS_AppTaskDelHookPtr    = App_OS_TaskDelHook;
  70:cfg/src/os_app_hooks.c **** 
  71:cfg/src/os_app_hooks.c ****     OS_AppTaskReturnHookPtr = App_OS_TaskReturnHook;
  72:cfg/src/os_app_hooks.c **** 
  73:cfg/src/os_app_hooks.c ****     OS_AppTaskSwHookPtr     = App_OS_TaskSwHook;
  74:cfg/src/os_app_hooks.c **** 
  75:cfg/src/os_app_hooks.c ****     OS_AppTimeTickHookPtr   = App_OS_TimeTickHook;
  76:cfg/src/os_app_hooks.c ****     CPU_CRITICAL_EXIT();
  77:cfg/src/os_app_hooks.c **** #endif
  78:cfg/src/os_app_hooks.c **** }
  79:cfg/src/os_app_hooks.c **** 
  80:cfg/src/os_app_hooks.c **** 
  81:cfg/src/os_app_hooks.c **** /*
  82:cfg/src/os_app_hooks.c **** ***************************************************************************************************
  83:cfg/src/os_app_hooks.c **** *                                             CLEAR ALL APPLICATION HOOKS
  84:cfg/src/os_app_hooks.c **** *
  85:cfg/src/os_app_hooks.c **** * Description: Clear ALL application hooks.
  86:cfg/src/os_app_hooks.c **** *
  87:cfg/src/os_app_hooks.c **** * Arguments  : none.
ARM GAS  /tmp/ccR6CaJM.s 			page 3


  88:cfg/src/os_app_hooks.c **** *
  89:cfg/src/os_app_hooks.c **** * Note(s)    : none
  90:cfg/src/os_app_hooks.c **** ***************************************************************************************************
  91:cfg/src/os_app_hooks.c **** */
  92:cfg/src/os_app_hooks.c **** 
  93:cfg/src/os_app_hooks.c **** void  App_OS_ClrAllHooks (void)
  94:cfg/src/os_app_hooks.c **** {
  95:cfg/src/os_app_hooks.c **** #if OS_CFG_APP_HOOKS_EN > 0u
  96:cfg/src/os_app_hooks.c ****     CPU_SR_ALLOC();
  97:cfg/src/os_app_hooks.c **** 
  98:cfg/src/os_app_hooks.c **** 
  99:cfg/src/os_app_hooks.c ****     CPU_CRITICAL_ENTER();
 100:cfg/src/os_app_hooks.c ****     OS_AppIdleTaskHookPtr   = (OS_APP_HOOK_VOID)0;
 101:cfg/src/os_app_hooks.c **** 
 102:cfg/src/os_app_hooks.c **** #if (OS_CFG_TASK_STK_REDZONE_EN > 0u)
 103:cfg/src/os_app_hooks.c ****     OS_AppRedzoneHitHookPtr = (OS_APP_HOOK_TCB)0;
 104:cfg/src/os_app_hooks.c **** #endif
 105:cfg/src/os_app_hooks.c **** 
 106:cfg/src/os_app_hooks.c ****     OS_AppStatTaskHookPtr   = (OS_APP_HOOK_VOID)0;
 107:cfg/src/os_app_hooks.c **** 
 108:cfg/src/os_app_hooks.c ****     OS_AppTaskCreateHookPtr = (OS_APP_HOOK_TCB)0;
 109:cfg/src/os_app_hooks.c **** 
 110:cfg/src/os_app_hooks.c ****     OS_AppTaskDelHookPtr    = (OS_APP_HOOK_TCB)0;
 111:cfg/src/os_app_hooks.c **** 
 112:cfg/src/os_app_hooks.c ****     OS_AppTaskReturnHookPtr = (OS_APP_HOOK_TCB)0;
 113:cfg/src/os_app_hooks.c **** 
 114:cfg/src/os_app_hooks.c ****     OS_AppTaskSwHookPtr     = (OS_APP_HOOK_VOID)0;
 115:cfg/src/os_app_hooks.c **** 
 116:cfg/src/os_app_hooks.c ****     OS_AppTimeTickHookPtr   = (OS_APP_HOOK_VOID)0;
 117:cfg/src/os_app_hooks.c ****     CPU_CRITICAL_EXIT();
 118:cfg/src/os_app_hooks.c **** #endif
 119:cfg/src/os_app_hooks.c **** }
 120:cfg/src/os_app_hooks.c **** 
 121:cfg/src/os_app_hooks.c **** /*
 122:cfg/src/os_app_hooks.c **** ***************************************************************************************************
 123:cfg/src/os_app_hooks.c **** *                                              APPLICATION IDLE TASK HOOK
 124:cfg/src/os_app_hooks.c **** *
 125:cfg/src/os_app_hooks.c **** * Description: This function is called by the idle task.  This hook has been added to allow you to 
 126:cfg/src/os_app_hooks.c **** *              STOP the CPU to conserve power.
 127:cfg/src/os_app_hooks.c **** *
 128:cfg/src/os_app_hooks.c **** * Arguments  : none
 129:cfg/src/os_app_hooks.c **** *
 130:cfg/src/os_app_hooks.c **** * Note(s)    : none
 131:cfg/src/os_app_hooks.c **** ***************************************************************************************************
 132:cfg/src/os_app_hooks.c **** */
 133:cfg/src/os_app_hooks.c **** 
 134:cfg/src/os_app_hooks.c **** void  App_OS_IdleTaskHook (void)
 135:cfg/src/os_app_hooks.c **** {
  29              		.loc 1 135 1 view -0
  30              		.cfi_startproc
  31              		@ args = 0, pretend = 0, frame = 0
  32              		@ frame_needed = 0, uses_anonymous_args = 0
  33              		@ link register save eliminated.
 136:cfg/src/os_app_hooks.c **** 
 137:cfg/src/os_app_hooks.c **** }
  34              		.loc 1 137 1 view .LVU1
  35 0000 7047     		bx	lr
ARM GAS  /tmp/ccR6CaJM.s 			page 4


  36              		.cfi_endproc
  37              	.LFE2:
  39              		.section	.text.App_OS_StatTaskHook,"ax",%progbits
  40              		.align	1
  41              		.global	App_OS_StatTaskHook
  42              		.syntax unified
  43              		.thumb
  44              		.thumb_func
  45              		.fpu fpv4-sp-d16
  47              	App_OS_StatTaskHook:
  48              	.LFB3:
 138:cfg/src/os_app_hooks.c **** 
 139:cfg/src/os_app_hooks.c **** /*
 140:cfg/src/os_app_hooks.c **** ***************************************************************************************************
 141:cfg/src/os_app_hooks.c **** *                                             APPLICATION REDZONE HIT HOOK
 142:cfg/src/os_app_hooks.c **** *
 143:cfg/src/os_app_hooks.c **** * Description: This function is called when a task's stack overflowed.
 144:cfg/src/os_app_hooks.c **** *
 145:cfg/src/os_app_hooks.c **** * Arguments  : p_tcb   is a pointer to the task control block of the offending task. NULL if ISR.
 146:cfg/src/os_app_hooks.c **** *
 147:cfg/src/os_app_hooks.c **** * Note(s)    : None.
 148:cfg/src/os_app_hooks.c **** ***************************************************************************************************
 149:cfg/src/os_app_hooks.c **** */
 150:cfg/src/os_app_hooks.c **** #if (OS_CFG_TASK_STK_REDZONE_EN > 0u)
 151:cfg/src/os_app_hooks.c **** void  App_OS_RedzoneHitHook (OS_TCB  *p_tcb)
 152:cfg/src/os_app_hooks.c **** {
 153:cfg/src/os_app_hooks.c ****     (void)&p_tcb;
 154:cfg/src/os_app_hooks.c ****     CPU_SW_EXCEPTION(;);
 155:cfg/src/os_app_hooks.c **** }
 156:cfg/src/os_app_hooks.c **** #endif
 157:cfg/src/os_app_hooks.c **** 
 158:cfg/src/os_app_hooks.c **** 
 159:cfg/src/os_app_hooks.c **** /*
 160:cfg/src/os_app_hooks.c **** ***************************************************************************************************
 161:cfg/src/os_app_hooks.c **** *                                           APPLICATION STATISTIC TASK HOOK
 162:cfg/src/os_app_hooks.c **** *
 163:cfg/src/os_app_hooks.c **** * Description: This function is called every second by uC/OS-III's statistics task.  This allows yo
 164:cfg/src/os_app_hooks.c **** *              functionality to the statistics task.
 165:cfg/src/os_app_hooks.c **** *
 166:cfg/src/os_app_hooks.c **** * Arguments  : none
 167:cfg/src/os_app_hooks.c **** *
 168:cfg/src/os_app_hooks.c **** * Note(s)    : none
 169:cfg/src/os_app_hooks.c **** ***************************************************************************************************
 170:cfg/src/os_app_hooks.c **** */
 171:cfg/src/os_app_hooks.c **** 
 172:cfg/src/os_app_hooks.c **** void  App_OS_StatTaskHook (void)
 173:cfg/src/os_app_hooks.c **** {
  49              		.loc 1 173 1 view -0
  50              		.cfi_startproc
  51              		@ args = 0, pretend = 0, frame = 0
  52              		@ frame_needed = 0, uses_anonymous_args = 0
  53              		@ link register save eliminated.
 174:cfg/src/os_app_hooks.c **** 
 175:cfg/src/os_app_hooks.c **** }
  54              		.loc 1 175 1 view .LVU3
  55 0000 7047     		bx	lr
  56              		.cfi_endproc
ARM GAS  /tmp/ccR6CaJM.s 			page 5


  57              	.LFE3:
  59              		.section	.text.App_OS_TaskCreateHook,"ax",%progbits
  60              		.align	1
  61              		.global	App_OS_TaskCreateHook
  62              		.syntax unified
  63              		.thumb
  64              		.thumb_func
  65              		.fpu fpv4-sp-d16
  67              	App_OS_TaskCreateHook:
  68              	.LVL0:
  69              	.LFB4:
 176:cfg/src/os_app_hooks.c **** 
 177:cfg/src/os_app_hooks.c **** 
 178:cfg/src/os_app_hooks.c **** /*
 179:cfg/src/os_app_hooks.c **** ***************************************************************************************************
 180:cfg/src/os_app_hooks.c **** *                                            APPLICATION TASK CREATION HOOK
 181:cfg/src/os_app_hooks.c **** *
 182:cfg/src/os_app_hooks.c **** * Description: This function is called when a task is created.
 183:cfg/src/os_app_hooks.c **** *
 184:cfg/src/os_app_hooks.c **** * Arguments  : p_tcb   is a pointer to the task control block of the task being created.
 185:cfg/src/os_app_hooks.c **** *
 186:cfg/src/os_app_hooks.c **** * Note(s)    : none
 187:cfg/src/os_app_hooks.c **** ***************************************************************************************************
 188:cfg/src/os_app_hooks.c **** */
 189:cfg/src/os_app_hooks.c **** 
 190:cfg/src/os_app_hooks.c **** void  App_OS_TaskCreateHook (OS_TCB  *p_tcb)
 191:cfg/src/os_app_hooks.c **** {
  70              		.loc 1 191 1 view -0
  71              		.cfi_startproc
  72              		@ args = 0, pretend = 0, frame = 0
  73              		@ frame_needed = 0, uses_anonymous_args = 0
  74              		@ link register save eliminated.
 192:cfg/src/os_app_hooks.c ****     (void)p_tcb;
  75              		.loc 1 192 5 view .LVU5
 193:cfg/src/os_app_hooks.c **** }
  76              		.loc 1 193 1 is_stmt 0 view .LVU6
  77 0000 7047     		bx	lr
  78              		.cfi_endproc
  79              	.LFE4:
  81              		.section	.text.App_OS_TaskDelHook,"ax",%progbits
  82              		.align	1
  83              		.global	App_OS_TaskDelHook
  84              		.syntax unified
  85              		.thumb
  86              		.thumb_func
  87              		.fpu fpv4-sp-d16
  89              	App_OS_TaskDelHook:
  90              	.LVL1:
  91              	.LFB5:
 194:cfg/src/os_app_hooks.c **** 
 195:cfg/src/os_app_hooks.c **** 
 196:cfg/src/os_app_hooks.c **** /*
 197:cfg/src/os_app_hooks.c **** ***************************************************************************************************
 198:cfg/src/os_app_hooks.c **** *                                            APPLICATION TASK DELETION HOOK
 199:cfg/src/os_app_hooks.c **** *
 200:cfg/src/os_app_hooks.c **** * Description: This function is called when a task is deleted.
 201:cfg/src/os_app_hooks.c **** *
ARM GAS  /tmp/ccR6CaJM.s 			page 6


 202:cfg/src/os_app_hooks.c **** * Arguments  : p_tcb   is a pointer to the task control block of the task being deleted.
 203:cfg/src/os_app_hooks.c **** *
 204:cfg/src/os_app_hooks.c **** * Note(s)    : none
 205:cfg/src/os_app_hooks.c **** ***************************************************************************************************
 206:cfg/src/os_app_hooks.c **** */
 207:cfg/src/os_app_hooks.c **** 
 208:cfg/src/os_app_hooks.c **** void  App_OS_TaskDelHook (OS_TCB  *p_tcb)
 209:cfg/src/os_app_hooks.c **** {
  92              		.loc 1 209 1 is_stmt 1 view -0
  93              		.cfi_startproc
  94              		@ args = 0, pretend = 0, frame = 0
  95              		@ frame_needed = 0, uses_anonymous_args = 0
  96              		@ link register save eliminated.
 210:cfg/src/os_app_hooks.c ****     (void)p_tcb;
  97              		.loc 1 210 5 view .LVU8
 211:cfg/src/os_app_hooks.c **** }
  98              		.loc 1 211 1 is_stmt 0 view .LVU9
  99 0000 7047     		bx	lr
 100              		.cfi_endproc
 101              	.LFE5:
 103              		.section	.text.App_OS_TaskReturnHook,"ax",%progbits
 104              		.align	1
 105              		.global	App_OS_TaskReturnHook
 106              		.syntax unified
 107              		.thumb
 108              		.thumb_func
 109              		.fpu fpv4-sp-d16
 111              	App_OS_TaskReturnHook:
 112              	.LVL2:
 113              	.LFB6:
 212:cfg/src/os_app_hooks.c **** 
 213:cfg/src/os_app_hooks.c **** 
 214:cfg/src/os_app_hooks.c **** /*
 215:cfg/src/os_app_hooks.c **** ***************************************************************************************************
 216:cfg/src/os_app_hooks.c **** *                                             APPLICATION TASK RETURN HOOK
 217:cfg/src/os_app_hooks.c **** *
 218:cfg/src/os_app_hooks.c **** * Description: This function is called if a task accidentally returns.  In other words, a task shou
 219:cfg/src/os_app_hooks.c **** *              infinite loop or delete itself when done.
 220:cfg/src/os_app_hooks.c **** *
 221:cfg/src/os_app_hooks.c **** * Arguments  : p_tcb     is a pointer to the OS_TCB of the task that is returning.
 222:cfg/src/os_app_hooks.c **** *
 223:cfg/src/os_app_hooks.c **** * Note(s)    : none
 224:cfg/src/os_app_hooks.c **** ***************************************************************************************************
 225:cfg/src/os_app_hooks.c **** */
 226:cfg/src/os_app_hooks.c **** 
 227:cfg/src/os_app_hooks.c **** void  App_OS_TaskReturnHook (OS_TCB  *p_tcb)
 228:cfg/src/os_app_hooks.c **** {
 114              		.loc 1 228 1 is_stmt 1 view -0
 115              		.cfi_startproc
 116              		@ args = 0, pretend = 0, frame = 0
 117              		@ frame_needed = 0, uses_anonymous_args = 0
 118              		@ link register save eliminated.
 229:cfg/src/os_app_hooks.c ****     (void)p_tcb;
 119              		.loc 1 229 5 view .LVU11
 230:cfg/src/os_app_hooks.c **** }
 120              		.loc 1 230 1 is_stmt 0 view .LVU12
 121 0000 7047     		bx	lr
ARM GAS  /tmp/ccR6CaJM.s 			page 7


 122              		.cfi_endproc
 123              	.LFE6:
 125              		.section	.text.App_OS_TaskSwHook,"ax",%progbits
 126              		.align	1
 127              		.global	App_OS_TaskSwHook
 128              		.syntax unified
 129              		.thumb
 130              		.thumb_func
 131              		.fpu fpv4-sp-d16
 133              	App_OS_TaskSwHook:
 134              	.LFB7:
 231:cfg/src/os_app_hooks.c **** 
 232:cfg/src/os_app_hooks.c **** 
 233:cfg/src/os_app_hooks.c **** /*
 234:cfg/src/os_app_hooks.c **** ***************************************************************************************************
 235:cfg/src/os_app_hooks.c **** *                                             APPLICATION TASK SWITCH HOOK
 236:cfg/src/os_app_hooks.c **** *
 237:cfg/src/os_app_hooks.c **** * Description: This function is called when a task switch is performed.  This allows you to perform
 238:cfg/src/os_app_hooks.c **** *              during a context switch.
 239:cfg/src/os_app_hooks.c **** *
 240:cfg/src/os_app_hooks.c **** * Arguments  : none
 241:cfg/src/os_app_hooks.c **** *
 242:cfg/src/os_app_hooks.c **** * Note(s)    : 1) Interrupts are disabled during this call.
 243:cfg/src/os_app_hooks.c **** *              2) It is assumed that the global pointer 'OSTCBHighRdyPtr' points to the TCB of the 
 244:cfg/src/os_app_hooks.c **** *                 'switched in' (i.e. the highest priority task) and, 'OSTCBCurPtr' points to the t
 245:cfg/src/os_app_hooks.c **** *                 (i.e. the preempted task).
 246:cfg/src/os_app_hooks.c **** ***************************************************************************************************
 247:cfg/src/os_app_hooks.c **** */
 248:cfg/src/os_app_hooks.c **** 
 249:cfg/src/os_app_hooks.c **** void  App_OS_TaskSwHook (void)
 250:cfg/src/os_app_hooks.c **** {
 135              		.loc 1 250 1 is_stmt 1 view -0
 136              		.cfi_startproc
 137              		@ args = 0, pretend = 0, frame = 0
 138              		@ frame_needed = 0, uses_anonymous_args = 0
 139              		@ link register save eliminated.
 251:cfg/src/os_app_hooks.c **** 
 252:cfg/src/os_app_hooks.c **** }
 140              		.loc 1 252 1 view .LVU14
 141 0000 7047     		bx	lr
 142              		.cfi_endproc
 143              	.LFE7:
 145              		.section	.text.App_OS_TimeTickHook,"ax",%progbits
 146              		.align	1
 147              		.global	App_OS_TimeTickHook
 148              		.syntax unified
 149              		.thumb
 150              		.thumb_func
 151              		.fpu fpv4-sp-d16
 153              	App_OS_TimeTickHook:
 154              	.LFB8:
 253:cfg/src/os_app_hooks.c **** 
 254:cfg/src/os_app_hooks.c **** 
 255:cfg/src/os_app_hooks.c **** /*
 256:cfg/src/os_app_hooks.c **** ***************************************************************************************************
 257:cfg/src/os_app_hooks.c **** *                                                APPLICATION TICK HOOK
 258:cfg/src/os_app_hooks.c **** *
ARM GAS  /tmp/ccR6CaJM.s 			page 8


 259:cfg/src/os_app_hooks.c **** * Description: This function is called every tick.
 260:cfg/src/os_app_hooks.c **** *
 261:cfg/src/os_app_hooks.c **** * Arguments  : none
 262:cfg/src/os_app_hooks.c **** *
 263:cfg/src/os_app_hooks.c **** * Note(s)    : 1) This function is assumed to be called from the Tick ISR.
 264:cfg/src/os_app_hooks.c **** ***************************************************************************************************
 265:cfg/src/os_app_hooks.c **** */
 266:cfg/src/os_app_hooks.c **** 
 267:cfg/src/os_app_hooks.c **** void  App_OS_TimeTickHook (void)
 268:cfg/src/os_app_hooks.c **** {
 155              		.loc 1 268 1 view -0
 156              		.cfi_startproc
 157              		@ args = 0, pretend = 0, frame = 0
 158              		@ frame_needed = 0, uses_anonymous_args = 0
 159              		@ link register save eliminated.
 269:cfg/src/os_app_hooks.c **** 
 270:cfg/src/os_app_hooks.c **** }
 160              		.loc 1 270 1 view .LVU16
 161 0000 7047     		bx	lr
 162              		.cfi_endproc
 163              	.LFE8:
 165              		.section	.text.App_OS_SetAllHooks,"ax",%progbits
 166              		.align	1
 167              		.global	App_OS_SetAllHooks
 168              		.syntax unified
 169              		.thumb
 170              		.thumb_func
 171              		.fpu fpv4-sp-d16
 173              	App_OS_SetAllHooks:
 174              	.LFB0:
  53:cfg/src/os_app_hooks.c **** #if OS_CFG_APP_HOOKS_EN > 0u
 175              		.loc 1 53 1 view -0
 176              		.cfi_startproc
 177              		@ args = 0, pretend = 0, frame = 0
 178              		@ frame_needed = 0, uses_anonymous_args = 0
 179 0000 08B5     		push	{r3, lr}
 180              	.LCFI0:
 181              		.cfi_def_cfa_offset 8
 182              		.cfi_offset 3, -8
 183              		.cfi_offset 14, -4
  55:cfg/src/os_app_hooks.c **** 
 184              		.loc 1 55 5 view .LVU18
 185              	.LVL3:
  58:cfg/src/os_app_hooks.c ****     OS_AppIdleTaskHookPtr   = App_OS_IdleTaskHook;
 186              		.loc 1 58 5 view .LVU19
  58:cfg/src/os_app_hooks.c ****     OS_AppIdleTaskHookPtr   = App_OS_IdleTaskHook;
 187              		.loc 1 58 5 view .LVU20
  58:cfg/src/os_app_hooks.c ****     OS_AppIdleTaskHookPtr   = App_OS_IdleTaskHook;
 188              		.loc 1 58 5 view .LVU21
 189 0002 4020     		movs	r0, #64
 190 0004 FFF7FEFF 		bl	CPU_SR_Save
 191              	.LVL4:
  58:cfg/src/os_app_hooks.c ****     OS_AppIdleTaskHookPtr   = App_OS_IdleTaskHook;
 192              		.loc 1 58 5 view .LVU22
  58:cfg/src/os_app_hooks.c ****     OS_AppIdleTaskHookPtr   = App_OS_IdleTaskHook;
 193              		.loc 1 58 5 view .LVU23
  59:cfg/src/os_app_hooks.c **** 
ARM GAS  /tmp/ccR6CaJM.s 			page 9


 194              		.loc 1 59 5 view .LVU24
  59:cfg/src/os_app_hooks.c **** 
 195              		.loc 1 59 29 is_stmt 0 view .LVU25
 196 0008 0B4B     		ldr	r3, .L10
 197 000a 0C4A     		ldr	r2, .L10+4
 198 000c 1A60     		str	r2, [r3]
  65:cfg/src/os_app_hooks.c **** 
 199              		.loc 1 65 5 is_stmt 1 view .LVU26
  65:cfg/src/os_app_hooks.c **** 
 200              		.loc 1 65 29 is_stmt 0 view .LVU27
 201 000e 0C4B     		ldr	r3, .L10+8
 202 0010 0C4A     		ldr	r2, .L10+12
 203 0012 1A60     		str	r2, [r3]
  67:cfg/src/os_app_hooks.c **** 
 204              		.loc 1 67 5 is_stmt 1 view .LVU28
  67:cfg/src/os_app_hooks.c **** 
 205              		.loc 1 67 29 is_stmt 0 view .LVU29
 206 0014 0C4B     		ldr	r3, .L10+16
 207 0016 0D4A     		ldr	r2, .L10+20
 208 0018 1A60     		str	r2, [r3]
  69:cfg/src/os_app_hooks.c **** 
 209              		.loc 1 69 5 is_stmt 1 view .LVU30
  69:cfg/src/os_app_hooks.c **** 
 210              		.loc 1 69 29 is_stmt 0 view .LVU31
 211 001a 0D4B     		ldr	r3, .L10+24
 212 001c 0D4A     		ldr	r2, .L10+28
 213 001e 1A60     		str	r2, [r3]
  71:cfg/src/os_app_hooks.c **** 
 214              		.loc 1 71 5 is_stmt 1 view .LVU32
  71:cfg/src/os_app_hooks.c **** 
 215              		.loc 1 71 29 is_stmt 0 view .LVU33
 216 0020 0D4B     		ldr	r3, .L10+32
 217 0022 0E4A     		ldr	r2, .L10+36
 218 0024 1A60     		str	r2, [r3]
  73:cfg/src/os_app_hooks.c **** 
 219              		.loc 1 73 5 is_stmt 1 view .LVU34
  73:cfg/src/os_app_hooks.c **** 
 220              		.loc 1 73 29 is_stmt 0 view .LVU35
 221 0026 0E4B     		ldr	r3, .L10+40
 222 0028 0E4A     		ldr	r2, .L10+44
 223 002a 1A60     		str	r2, [r3]
  75:cfg/src/os_app_hooks.c ****     CPU_CRITICAL_EXIT();
 224              		.loc 1 75 5 is_stmt 1 view .LVU36
  75:cfg/src/os_app_hooks.c ****     CPU_CRITICAL_EXIT();
 225              		.loc 1 75 29 is_stmt 0 view .LVU37
 226 002c 0E4B     		ldr	r3, .L10+48
 227 002e 0F4A     		ldr	r2, .L10+52
 228 0030 1A60     		str	r2, [r3]
  76:cfg/src/os_app_hooks.c **** #endif
 229              		.loc 1 76 5 is_stmt 1 view .LVU38
  76:cfg/src/os_app_hooks.c **** #endif
 230              		.loc 1 76 5 view .LVU39
  76:cfg/src/os_app_hooks.c **** #endif
 231              		.loc 1 76 5 view .LVU40
 232 0032 FFF7FEFF 		bl	CPU_SR_Restore
 233              	.LVL5:
  76:cfg/src/os_app_hooks.c **** #endif
ARM GAS  /tmp/ccR6CaJM.s 			page 10


 234              		.loc 1 76 5 view .LVU41
  76:cfg/src/os_app_hooks.c **** #endif
 235              		.loc 1 76 5 view .LVU42
  78:cfg/src/os_app_hooks.c **** 
 236              		.loc 1 78 1 is_stmt 0 view .LVU43
 237 0036 08BD     		pop	{r3, pc}
 238              	.L11:
 239              		.align	2
 240              	.L10:
 241 0038 00000000 		.word	OS_AppIdleTaskHookPtr
 242 003c 00000000 		.word	App_OS_IdleTaskHook
 243 0040 00000000 		.word	OS_AppStatTaskHookPtr
 244 0044 00000000 		.word	App_OS_StatTaskHook
 245 0048 00000000 		.word	OS_AppTaskCreateHookPtr
 246 004c 00000000 		.word	App_OS_TaskCreateHook
 247 0050 00000000 		.word	OS_AppTaskDelHookPtr
 248 0054 00000000 		.word	App_OS_TaskDelHook
 249 0058 00000000 		.word	OS_AppTaskReturnHookPtr
 250 005c 00000000 		.word	App_OS_TaskReturnHook
 251 0060 00000000 		.word	OS_AppTaskSwHookPtr
 252 0064 00000000 		.word	App_OS_TaskSwHook
 253 0068 00000000 		.word	OS_AppTimeTickHookPtr
 254 006c 00000000 		.word	App_OS_TimeTickHook
 255              		.cfi_endproc
 256              	.LFE0:
 258              		.section	.text.App_OS_ClrAllHooks,"ax",%progbits
 259              		.align	1
 260              		.global	App_OS_ClrAllHooks
 261              		.syntax unified
 262              		.thumb
 263              		.thumb_func
 264              		.fpu fpv4-sp-d16
 266              	App_OS_ClrAllHooks:
 267              	.LFB1:
  94:cfg/src/os_app_hooks.c **** #if OS_CFG_APP_HOOKS_EN > 0u
 268              		.loc 1 94 1 is_stmt 1 view -0
 269              		.cfi_startproc
 270              		@ args = 0, pretend = 0, frame = 0
 271              		@ frame_needed = 0, uses_anonymous_args = 0
 272 0000 08B5     		push	{r3, lr}
 273              	.LCFI1:
 274              		.cfi_def_cfa_offset 8
 275              		.cfi_offset 3, -8
 276              		.cfi_offset 14, -4
  96:cfg/src/os_app_hooks.c **** 
 277              		.loc 1 96 5 view .LVU45
 278              	.LVL6:
  99:cfg/src/os_app_hooks.c ****     OS_AppIdleTaskHookPtr   = (OS_APP_HOOK_VOID)0;
 279              		.loc 1 99 5 view .LVU46
  99:cfg/src/os_app_hooks.c ****     OS_AppIdleTaskHookPtr   = (OS_APP_HOOK_VOID)0;
 280              		.loc 1 99 5 view .LVU47
  99:cfg/src/os_app_hooks.c ****     OS_AppIdleTaskHookPtr   = (OS_APP_HOOK_VOID)0;
 281              		.loc 1 99 5 view .LVU48
 282 0002 4020     		movs	r0, #64
 283 0004 FFF7FEFF 		bl	CPU_SR_Save
 284              	.LVL7:
  99:cfg/src/os_app_hooks.c ****     OS_AppIdleTaskHookPtr   = (OS_APP_HOOK_VOID)0;
ARM GAS  /tmp/ccR6CaJM.s 			page 11


 285              		.loc 1 99 5 view .LVU49
  99:cfg/src/os_app_hooks.c ****     OS_AppIdleTaskHookPtr   = (OS_APP_HOOK_VOID)0;
 286              		.loc 1 99 5 view .LVU50
 100:cfg/src/os_app_hooks.c **** 
 287              		.loc 1 100 5 view .LVU51
 100:cfg/src/os_app_hooks.c **** 
 288              		.loc 1 100 29 is_stmt 0 view .LVU52
 289 0008 0023     		movs	r3, #0
 290 000a 084A     		ldr	r2, .L14
 291 000c 1360     		str	r3, [r2]
 106:cfg/src/os_app_hooks.c **** 
 292              		.loc 1 106 5 is_stmt 1 view .LVU53
 106:cfg/src/os_app_hooks.c **** 
 293              		.loc 1 106 29 is_stmt 0 view .LVU54
 294 000e 084A     		ldr	r2, .L14+4
 295 0010 1360     		str	r3, [r2]
 108:cfg/src/os_app_hooks.c **** 
 296              		.loc 1 108 5 is_stmt 1 view .LVU55
 108:cfg/src/os_app_hooks.c **** 
 297              		.loc 1 108 29 is_stmt 0 view .LVU56
 298 0012 084A     		ldr	r2, .L14+8
 299 0014 1360     		str	r3, [r2]
 110:cfg/src/os_app_hooks.c **** 
 300              		.loc 1 110 5 is_stmt 1 view .LVU57
 110:cfg/src/os_app_hooks.c **** 
 301              		.loc 1 110 29 is_stmt 0 view .LVU58
 302 0016 084A     		ldr	r2, .L14+12
 303 0018 1360     		str	r3, [r2]
 112:cfg/src/os_app_hooks.c **** 
 304              		.loc 1 112 5 is_stmt 1 view .LVU59
 112:cfg/src/os_app_hooks.c **** 
 305              		.loc 1 112 29 is_stmt 0 view .LVU60
 306 001a 084A     		ldr	r2, .L14+16
 307 001c 1360     		str	r3, [r2]
 114:cfg/src/os_app_hooks.c **** 
 308              		.loc 1 114 5 is_stmt 1 view .LVU61
 114:cfg/src/os_app_hooks.c **** 
 309              		.loc 1 114 29 is_stmt 0 view .LVU62
 310 001e 084A     		ldr	r2, .L14+20
 311 0020 1360     		str	r3, [r2]
 116:cfg/src/os_app_hooks.c ****     CPU_CRITICAL_EXIT();
 312              		.loc 1 116 5 is_stmt 1 view .LVU63
 116:cfg/src/os_app_hooks.c ****     CPU_CRITICAL_EXIT();
 313              		.loc 1 116 29 is_stmt 0 view .LVU64
 314 0022 084A     		ldr	r2, .L14+24
 315 0024 1360     		str	r3, [r2]
 117:cfg/src/os_app_hooks.c **** #endif
 316              		.loc 1 117 5 is_stmt 1 view .LVU65
 117:cfg/src/os_app_hooks.c **** #endif
 317              		.loc 1 117 5 view .LVU66
 117:cfg/src/os_app_hooks.c **** #endif
 318              		.loc 1 117 5 view .LVU67
 319 0026 FFF7FEFF 		bl	CPU_SR_Restore
 320              	.LVL8:
 117:cfg/src/os_app_hooks.c **** #endif
 321              		.loc 1 117 5 view .LVU68
 117:cfg/src/os_app_hooks.c **** #endif
ARM GAS  /tmp/ccR6CaJM.s 			page 12


 322              		.loc 1 117 5 view .LVU69
 119:cfg/src/os_app_hooks.c **** 
 323              		.loc 1 119 1 is_stmt 0 view .LVU70
 324 002a 08BD     		pop	{r3, pc}
 325              	.L15:
 326              		.align	2
 327              	.L14:
 328 002c 00000000 		.word	OS_AppIdleTaskHookPtr
 329 0030 00000000 		.word	OS_AppStatTaskHookPtr
 330 0034 00000000 		.word	OS_AppTaskCreateHookPtr
 331 0038 00000000 		.word	OS_AppTaskDelHookPtr
 332 003c 00000000 		.word	OS_AppTaskReturnHookPtr
 333 0040 00000000 		.word	OS_AppTaskSwHookPtr
 334 0044 00000000 		.word	OS_AppTimeTickHookPtr
 335              		.cfi_endproc
 336              	.LFE1:
 338              		.text
 339              	.Letext0:
 340              		.file 2 "rtos/uC-CPU/ARM-Cortex-M/ARMv7-M/GNU/cpu.h"
 341              		.file 3 "rtos/uC-CPU/cpu_core.h"
 342              		.file 4 "rtos/uCOS-III/Source/os_type.h"
 343              		.file 5 "rtos/uCOS-III/Source/os.h"
 344              		.file 6 "rtos/uCOS-III/Ports/ARM-Cortex-M/ARMv7-M/GNU/os_cpu.h"
ARM GAS  /tmp/ccR6CaJM.s 			page 13


DEFINED SYMBOLS
                            *ABS*:0000000000000000 os_app_hooks.c
     /tmp/ccR6CaJM.s:18     .text.App_OS_IdleTaskHook:0000000000000000 $t
     /tmp/ccR6CaJM.s:26     .text.App_OS_IdleTaskHook:0000000000000000 App_OS_IdleTaskHook
     /tmp/ccR6CaJM.s:40     .text.App_OS_StatTaskHook:0000000000000000 $t
     /tmp/ccR6CaJM.s:47     .text.App_OS_StatTaskHook:0000000000000000 App_OS_StatTaskHook
     /tmp/ccR6CaJM.s:60     .text.App_OS_TaskCreateHook:0000000000000000 $t
     /tmp/ccR6CaJM.s:67     .text.App_OS_TaskCreateHook:0000000000000000 App_OS_TaskCreateHook
     /tmp/ccR6CaJM.s:82     .text.App_OS_TaskDelHook:0000000000000000 $t
     /tmp/ccR6CaJM.s:89     .text.App_OS_TaskDelHook:0000000000000000 App_OS_TaskDelHook
     /tmp/ccR6CaJM.s:104    .text.App_OS_TaskReturnHook:0000000000000000 $t
     /tmp/ccR6CaJM.s:111    .text.App_OS_TaskReturnHook:0000000000000000 App_OS_TaskReturnHook
     /tmp/ccR6CaJM.s:126    .text.App_OS_TaskSwHook:0000000000000000 $t
     /tmp/ccR6CaJM.s:133    .text.App_OS_TaskSwHook:0000000000000000 App_OS_TaskSwHook
     /tmp/ccR6CaJM.s:146    .text.App_OS_TimeTickHook:0000000000000000 $t
     /tmp/ccR6CaJM.s:153    .text.App_OS_TimeTickHook:0000000000000000 App_OS_TimeTickHook
     /tmp/ccR6CaJM.s:166    .text.App_OS_SetAllHooks:0000000000000000 $t
     /tmp/ccR6CaJM.s:173    .text.App_OS_SetAllHooks:0000000000000000 App_OS_SetAllHooks
     /tmp/ccR6CaJM.s:241    .text.App_OS_SetAllHooks:0000000000000038 $d
     /tmp/ccR6CaJM.s:259    .text.App_OS_ClrAllHooks:0000000000000000 $t
     /tmp/ccR6CaJM.s:266    .text.App_OS_ClrAllHooks:0000000000000000 App_OS_ClrAllHooks
     /tmp/ccR6CaJM.s:328    .text.App_OS_ClrAllHooks:000000000000002c $d
                           .group:0000000000000000 wm4.0.0f5aa60db9403f389c005f20ecce4286
                           .group:0000000000000000 wm4.os.h.38.05c7a360e844508f9424830362f7eef3
                           .group:0000000000000000 wm4.os_cfg.h.36.1682609214807c39119743015cd1b75b
                           .group:0000000000000000 wm4.os_cfg_app.h.36.9d01bed009cfc3a5184d9a87250e45bf
                           .group:0000000000000000 wm4.cpu_core.h.51.7b35a59c319673f88ae4a256248776ec
                           .group:0000000000000000 wm4.cpu_def.h.46.baa122a2898bdc40bb50d1f21ead1515
                           .group:0000000000000000 wm4.cpu_cfg.h.45.38a6a562da8b04490c382a226238c57e
                           .group:0000000000000000 wm4.cpu.h.171.3cb15ee3ccb812cbfdf76d1fbfb9eda0
                           .group:0000000000000000 wm4.lib_def.h.66.6ab2a012067a8e1f4289db5765835062
                           .group:0000000000000000 wm4.cpu_core.h.143.d3b700e12b3a14ed3bee14c822b49a7d
                           .group:0000000000000000 wm4.os_cpu.h.45.281d793567585e56a091270c28fc7efc
                           .group:0000000000000000 wm4.os_trace.h.37.a6badbf6e748c370e142a9584653748e
                           .group:0000000000000000 wm4.os.h.95.7b45e7e080367d299efd03f7510809bc
                           .group:0000000000000000 wm4.os_app_hooks.h.36.4937f71e9f79a543618ef3871bd2df7d

UNDEFINED SYMBOLS
CPU_SR_Save
CPU_SR_Restore
OS_AppIdleTaskHookPtr
OS_AppStatTaskHookPtr
OS_AppTaskCreateHookPtr
OS_AppTaskDelHookPtr
OS_AppTaskReturnHookPtr
OS_AppTaskSwHookPtr
OS_AppTimeTickHookPtr
