ARM GAS  /tmp/ccsuif9P.s 			page 1


   1              		.cpu cortex-m4
   2              		.eabi_attribute 27, 1
   3              		.eabi_attribute 28, 1
   4              		.eabi_attribute 20, 1
   5              		.eabi_attribute 21, 1
   6              		.eabi_attribute 23, 3
   7              		.eabi_attribute 24, 1
   8              		.eabi_attribute 25, 1
   9              		.eabi_attribute 26, 1
  10              		.eabi_attribute 30, 1
  11              		.eabi_attribute 34, 1
  12              		.eabi_attribute 18, 4
  13              		.file	"os_msg.c"
  14              		.text
  15              	.Ltext0:
  16              		.cfi_sections	.debug_frame
  17              		.section	.text.OS_MsgPoolInit,"ax",%progbits
  18              		.align	1
  19              		.global	OS_MsgPoolInit
  20              		.arch armv7e-m
  21              		.syntax unified
  22              		.thumb
  23              		.thumb_func
  24              		.fpu fpv4-sp-d16
  26              	OS_MsgPoolInit:
  27              	.LVL0:
  28              	.LFB0:
  29              		.file 1 "rtos/uCOS-III/Source/os_msg.c"
   1:rtos/uCOS-III/Source/os_msg.c **** /*
   2:rtos/uCOS-III/Source/os_msg.c **** ***************************************************************************************************
   3:rtos/uCOS-III/Source/os_msg.c **** *                                                uC/OS-III
   4:rtos/uCOS-III/Source/os_msg.c **** *                                          The Real-Time Kernel
   5:rtos/uCOS-III/Source/os_msg.c **** *
   6:rtos/uCOS-III/Source/os_msg.c **** *                         (c) Copyright 2009-2019; Silicon Laboratories Inc.,
   7:rtos/uCOS-III/Source/os_msg.c **** *                                400 W. Cesar Chavez, Austin, TX 78701
   8:rtos/uCOS-III/Source/os_msg.c **** *
   9:rtos/uCOS-III/Source/os_msg.c **** *                   All rights reserved. Protected by international copyright laws.
  10:rtos/uCOS-III/Source/os_msg.c **** *
  11:rtos/uCOS-III/Source/os_msg.c **** *                  Your use of this software is subject to your acceptance of the terms
  12:rtos/uCOS-III/Source/os_msg.c **** *                  of a Silicon Labs Micrium software license, which can be obtained by
  13:rtos/uCOS-III/Source/os_msg.c **** *                  contacting info@micrium.com. If you do not agree to the terms of this
  14:rtos/uCOS-III/Source/os_msg.c **** *                  license, you may not use this software.
  15:rtos/uCOS-III/Source/os_msg.c **** *
  16:rtos/uCOS-III/Source/os_msg.c **** *                  Please help us continue to provide the Embedded community with the finest
  17:rtos/uCOS-III/Source/os_msg.c **** *                  software available. Your honesty is greatly appreciated.
  18:rtos/uCOS-III/Source/os_msg.c **** *
  19:rtos/uCOS-III/Source/os_msg.c **** *                    You can find our product's documentation at: doc.micrium.com
  20:rtos/uCOS-III/Source/os_msg.c **** *
  21:rtos/uCOS-III/Source/os_msg.c **** *                          For more information visit us at: www.micrium.com
  22:rtos/uCOS-III/Source/os_msg.c **** ***************************************************************************************************
  23:rtos/uCOS-III/Source/os_msg.c **** */
  24:rtos/uCOS-III/Source/os_msg.c **** 
  25:rtos/uCOS-III/Source/os_msg.c **** /*
  26:rtos/uCOS-III/Source/os_msg.c **** ***************************************************************************************************
  27:rtos/uCOS-III/Source/os_msg.c **** *                                       MESSAGE HANDLING SERVICES
  28:rtos/uCOS-III/Source/os_msg.c **** *
  29:rtos/uCOS-III/Source/os_msg.c **** * File    : os_msg.c
ARM GAS  /tmp/ccsuif9P.s 			page 2


  30:rtos/uCOS-III/Source/os_msg.c **** * Version : V3.07.04
  31:rtos/uCOS-III/Source/os_msg.c **** ***************************************************************************************************
  32:rtos/uCOS-III/Source/os_msg.c **** */
  33:rtos/uCOS-III/Source/os_msg.c **** 
  34:rtos/uCOS-III/Source/os_msg.c **** #define  MICRIUM_SOURCE
  35:rtos/uCOS-III/Source/os_msg.c **** #include "os.h"
  36:rtos/uCOS-III/Source/os_msg.c **** 
  37:rtos/uCOS-III/Source/os_msg.c **** #ifdef VSC_INCLUDE_SOURCE_FILE_NAMES
  38:rtos/uCOS-III/Source/os_msg.c **** const  CPU_CHAR  *os_msg__c = "$Id: $";
  39:rtos/uCOS-III/Source/os_msg.c **** #endif
  40:rtos/uCOS-III/Source/os_msg.c **** 
  41:rtos/uCOS-III/Source/os_msg.c **** 
  42:rtos/uCOS-III/Source/os_msg.c **** #if (OS_MSG_EN > 0u)
  43:rtos/uCOS-III/Source/os_msg.c **** 
  44:rtos/uCOS-III/Source/os_msg.c **** /*
  45:rtos/uCOS-III/Source/os_msg.c **** ***************************************************************************************************
  46:rtos/uCOS-III/Source/os_msg.c **** *                                            INITIALIZE THE POOL OF 'OS_MSG'
  47:rtos/uCOS-III/Source/os_msg.c **** *
  48:rtos/uCOS-III/Source/os_msg.c **** * Description: This function is called by OSInit() to initialize the free list of OS_MSGs.
  49:rtos/uCOS-III/Source/os_msg.c **** *
  50:rtos/uCOS-III/Source/os_msg.c **** * Argument(s): p_err     is a pointer to a variable that will contain an error code returned by thi
  51:rtos/uCOS-III/Source/os_msg.c **** *
  52:rtos/uCOS-III/Source/os_msg.c **** *                            OS_ERR_MSG_POOL_NULL_PTR
  53:rtos/uCOS-III/Source/os_msg.c **** *                            OS_ERR_MSG_POOL_EMPTY
  54:rtos/uCOS-III/Source/os_msg.c **** *                            OS_ERR_NONE
  55:rtos/uCOS-III/Source/os_msg.c **** *
  56:rtos/uCOS-III/Source/os_msg.c **** * Returns    : none
  57:rtos/uCOS-III/Source/os_msg.c **** *
  58:rtos/uCOS-III/Source/os_msg.c **** * Note(s)    : 1) This function is INTERNAL to uC/OS-III and your application MUST NOT call it.
  59:rtos/uCOS-III/Source/os_msg.c **** ***************************************************************************************************
  60:rtos/uCOS-III/Source/os_msg.c **** */
  61:rtos/uCOS-III/Source/os_msg.c **** 
  62:rtos/uCOS-III/Source/os_msg.c **** void  OS_MsgPoolInit (OS_ERR  *p_err)
  63:rtos/uCOS-III/Source/os_msg.c **** {
  30              		.loc 1 63 1 view -0
  31              		.cfi_startproc
  32              		@ args = 0, pretend = 0, frame = 0
  33              		@ frame_needed = 0, uses_anonymous_args = 0
  34              		@ link register save eliminated.
  35              		.loc 1 63 1 is_stmt 0 view .LVU1
  36 0000 F0B4     		push	{r4, r5, r6, r7}
  37              	.LCFI0:
  38              		.cfi_def_cfa_offset 16
  39              		.cfi_offset 4, -16
  40              		.cfi_offset 5, -12
  41              		.cfi_offset 6, -8
  42              		.cfi_offset 7, -4
  64:rtos/uCOS-III/Source/os_msg.c ****     OS_MSG      *p_msg1;
  43              		.loc 1 64 5 is_stmt 1 view .LVU2
  65:rtos/uCOS-III/Source/os_msg.c ****     OS_MSG      *p_msg2;
  44              		.loc 1 65 5 view .LVU3
  66:rtos/uCOS-III/Source/os_msg.c ****     OS_MSG_QTY   i;
  45              		.loc 1 66 5 view .LVU4
  67:rtos/uCOS-III/Source/os_msg.c ****     OS_MSG_QTY   loops;
  46              		.loc 1 67 5 view .LVU5
  68:rtos/uCOS-III/Source/os_msg.c **** 
  69:rtos/uCOS-III/Source/os_msg.c **** 
ARM GAS  /tmp/ccsuif9P.s 			page 3


  70:rtos/uCOS-III/Source/os_msg.c **** #if (OS_CFG_ARG_CHK_EN > 0u)
  71:rtos/uCOS-III/Source/os_msg.c ****     if (OSCfg_MsgPoolBasePtr == (OS_MSG *)0) {
  47              		.loc 1 71 5 view .LVU6
  48              		.loc 1 71 30 is_stmt 0 view .LVU7
  49 0002 154B     		ldr	r3, .L11
  50 0004 1E68     		ldr	r6, [r3]
  51              		.loc 1 71 8 view .LVU8
  52 0006 9EB1     		cbz	r6, .L8
  72:rtos/uCOS-III/Source/os_msg.c ****        *p_err = OS_ERR_MSG_POOL_NULL_PTR;
  73:rtos/uCOS-III/Source/os_msg.c ****         return;
  74:rtos/uCOS-III/Source/os_msg.c ****     }
  75:rtos/uCOS-III/Source/os_msg.c ****     if (OSCfg_MsgPoolSize == 0u) {
  53              		.loc 1 75 5 is_stmt 1 view .LVU9
  54              		.loc 1 75 27 is_stmt 0 view .LVU10
  55 0008 144B     		ldr	r3, .L11+4
  56 000a 1F88     		ldrh	r7, [r3]
  57              		.loc 1 75 8 view .LVU11
  58 000c A7B1     		cbz	r7, .L9
  76:rtos/uCOS-III/Source/os_msg.c ****        *p_err = OS_ERR_MSG_POOL_EMPTY;
  77:rtos/uCOS-III/Source/os_msg.c ****         return;
  78:rtos/uCOS-III/Source/os_msg.c ****     }
  79:rtos/uCOS-III/Source/os_msg.c **** #endif
  80:rtos/uCOS-III/Source/os_msg.c **** 
  81:rtos/uCOS-III/Source/os_msg.c ****     p_msg1 = OSCfg_MsgPoolBasePtr;
  59              		.loc 1 81 5 is_stmt 1 view .LVU12
  60              	.LVL1:
  82:rtos/uCOS-III/Source/os_msg.c ****     p_msg2 = OSCfg_MsgPoolBasePtr;
  61              		.loc 1 82 5 view .LVU13
  83:rtos/uCOS-III/Source/os_msg.c ****     p_msg2++;
  62              		.loc 1 83 5 view .LVU14
  63              		.loc 1 83 11 is_stmt 0 view .LVU15
  64 000e 06F10C01 		add	r1, r6, #12
  65              	.LVL2:
  84:rtos/uCOS-III/Source/os_msg.c ****     loops  = OSCfg_MsgPoolSize - 1u;
  66              		.loc 1 84 5 is_stmt 1 view .LVU16
  67              		.loc 1 84 12 is_stmt 0 view .LVU17
  68 0012 7D1E     		subs	r5, r7, #1
  69 0014 ADB2     		uxth	r5, r5
  70              	.LVL3:
  85:rtos/uCOS-III/Source/os_msg.c ****     for (i = 0u; i < loops; i++) {                              /* Init. list of free OS_MSGs      
  71              		.loc 1 85 5 is_stmt 1 view .LVU18
  81:rtos/uCOS-III/Source/os_msg.c ****     p_msg2 = OSCfg_MsgPoolBasePtr;
  72              		.loc 1 81 12 is_stmt 0 view .LVU19
  73 0016 3346     		mov	r3, r6
  74              		.loc 1 85 12 view .LVU20
  75 0018 0022     		movs	r2, #0
  76              	.LVL4:
  77              	.L5:
  78              		.loc 1 85 18 is_stmt 1 discriminator 1 view .LVU21
  79              		.loc 1 85 5 is_stmt 0 discriminator 1 view .LVU22
  80 001a AA42     		cmp	r2, r5
  81 001c 10D2     		bcs	.L10
  86:rtos/uCOS-III/Source/os_msg.c ****         p_msg1->NextPtr = p_msg2;
  82              		.loc 1 86 9 is_stmt 1 discriminator 3 view .LVU23
  83              		.loc 1 86 25 is_stmt 0 discriminator 3 view .LVU24
  84 001e 1960     		str	r1, [r3]
  87:rtos/uCOS-III/Source/os_msg.c ****         p_msg1->MsgPtr  = (void *)0;
ARM GAS  /tmp/ccsuif9P.s 			page 4


  85              		.loc 1 87 9 is_stmt 1 discriminator 3 view .LVU25
  86              		.loc 1 87 25 is_stmt 0 discriminator 3 view .LVU26
  87 0020 0024     		movs	r4, #0
  88 0022 5C60     		str	r4, [r3, #4]
  88:rtos/uCOS-III/Source/os_msg.c ****         p_msg1->MsgSize =         0u;
  89              		.loc 1 88 9 is_stmt 1 discriminator 3 view .LVU27
  90              		.loc 1 88 25 is_stmt 0 discriminator 3 view .LVU28
  91 0024 1C81     		strh	r4, [r3, #8]	@ movhi
  89:rtos/uCOS-III/Source/os_msg.c **** #if (OS_CFG_TS_EN > 0u)
  90:rtos/uCOS-III/Source/os_msg.c ****         p_msg1->MsgTS   =         0u;
  91:rtos/uCOS-III/Source/os_msg.c **** #endif
  92:rtos/uCOS-III/Source/os_msg.c ****         p_msg1++;
  92              		.loc 1 92 9 is_stmt 1 discriminator 3 view .LVU29
  93              		.loc 1 92 15 is_stmt 0 discriminator 3 view .LVU30
  94 0026 0C33     		adds	r3, r3, #12
  95              	.LVL5:
  93:rtos/uCOS-III/Source/os_msg.c ****         p_msg2++;
  96              		.loc 1 93 9 is_stmt 1 discriminator 3 view .LVU31
  97              		.loc 1 93 15 is_stmt 0 discriminator 3 view .LVU32
  98 0028 0C31     		adds	r1, r1, #12
  99              	.LVL6:
  85:rtos/uCOS-III/Source/os_msg.c ****         p_msg1->NextPtr = p_msg2;
 100              		.loc 1 85 29 is_stmt 1 discriminator 3 view .LVU33
  85:rtos/uCOS-III/Source/os_msg.c ****         p_msg1->NextPtr = p_msg2;
 101              		.loc 1 85 30 is_stmt 0 discriminator 3 view .LVU34
 102 002a 0132     		adds	r2, r2, #1
 103              	.LVL7:
  85:rtos/uCOS-III/Source/os_msg.c ****         p_msg1->NextPtr = p_msg2;
 104              		.loc 1 85 30 discriminator 3 view .LVU35
 105 002c 92B2     		uxth	r2, r2
 106              	.LVL8:
  85:rtos/uCOS-III/Source/os_msg.c ****         p_msg1->NextPtr = p_msg2;
 107              		.loc 1 85 30 discriminator 3 view .LVU36
 108 002e F4E7     		b	.L5
 109              	.LVL9:
 110              	.L8:
  72:rtos/uCOS-III/Source/os_msg.c ****         return;
 111              		.loc 1 72 8 is_stmt 1 view .LVU37
  72:rtos/uCOS-III/Source/os_msg.c ****         return;
 112              		.loc 1 72 15 is_stmt 0 view .LVU38
 113 0030 45F21E73 		movw	r3, #22302
 114 0034 0380     		strh	r3, [r0]	@ movhi
  73:rtos/uCOS-III/Source/os_msg.c ****     }
 115              		.loc 1 73 9 is_stmt 1 view .LVU39
 116 0036 0CE0     		b	.L1
 117              	.L9:
  76:rtos/uCOS-III/Source/os_msg.c ****         return;
 118              		.loc 1 76 8 view .LVU40
  76:rtos/uCOS-III/Source/os_msg.c ****         return;
 119              		.loc 1 76 15 is_stmt 0 view .LVU41
 120 0038 45F21D73 		movw	r3, #22301
 121 003c 0380     		strh	r3, [r0]	@ movhi
  77:rtos/uCOS-III/Source/os_msg.c ****     }
 122              		.loc 1 77 9 is_stmt 1 view .LVU42
 123 003e 08E0     		b	.L1
 124              	.LVL10:
 125              	.L10:
ARM GAS  /tmp/ccsuif9P.s 			page 5


  94:rtos/uCOS-III/Source/os_msg.c ****     }
  95:rtos/uCOS-III/Source/os_msg.c ****     p_msg1->NextPtr = (OS_MSG *)0;                              /* Last OS_MSG                     
 126              		.loc 1 95 5 view .LVU43
 127              		.loc 1 95 21 is_stmt 0 view .LVU44
 128 0040 0022     		movs	r2, #0
 129              	.LVL11:
 130              		.loc 1 95 21 view .LVU45
 131 0042 1A60     		str	r2, [r3]
  96:rtos/uCOS-III/Source/os_msg.c ****     p_msg1->MsgPtr  = (void   *)0;
 132              		.loc 1 96 5 is_stmt 1 view .LVU46
 133              		.loc 1 96 21 is_stmt 0 view .LVU47
 134 0044 5A60     		str	r2, [r3, #4]
  97:rtos/uCOS-III/Source/os_msg.c ****     p_msg1->MsgSize =           0u;
 135              		.loc 1 97 5 is_stmt 1 view .LVU48
 136              		.loc 1 97 21 is_stmt 0 view .LVU49
 137 0046 1A81     		strh	r2, [r3, #8]	@ movhi
  98:rtos/uCOS-III/Source/os_msg.c **** #if (OS_CFG_TS_EN > 0u)
  99:rtos/uCOS-III/Source/os_msg.c ****     p_msg1->MsgTS   =           0u;
 100:rtos/uCOS-III/Source/os_msg.c **** #endif
 101:rtos/uCOS-III/Source/os_msg.c **** 
 102:rtos/uCOS-III/Source/os_msg.c ****     OSMsgPool.NextPtr    = OSCfg_MsgPoolBasePtr;
 138              		.loc 1 102 5 is_stmt 1 view .LVU50
 139              		.loc 1 102 26 is_stmt 0 view .LVU51
 140 0048 054B     		ldr	r3, .L11+8
 141              	.LVL12:
 142              		.loc 1 102 26 view .LVU52
 143 004a 1E60     		str	r6, [r3]
 103:rtos/uCOS-III/Source/os_msg.c ****     OSMsgPool.NbrFree    = OSCfg_MsgPoolSize;
 144              		.loc 1 103 5 is_stmt 1 view .LVU53
 145              		.loc 1 103 26 is_stmt 0 view .LVU54
 146 004c 9F80     		strh	r7, [r3, #4]	@ movhi
 104:rtos/uCOS-III/Source/os_msg.c ****     OSMsgPool.NbrUsed    = 0u;
 147              		.loc 1 104 5 is_stmt 1 view .LVU55
 148              		.loc 1 104 26 is_stmt 0 view .LVU56
 149 004e DA80     		strh	r2, [r3, #6]	@ movhi
 105:rtos/uCOS-III/Source/os_msg.c **** #if (OS_CFG_DBG_EN > 0u)
 106:rtos/uCOS-III/Source/os_msg.c ****     OSMsgPool.NbrUsedMax = 0u;
 107:rtos/uCOS-III/Source/os_msg.c **** #endif
 108:rtos/uCOS-III/Source/os_msg.c ****    *p_err                = OS_ERR_NONE;
 150              		.loc 1 108 4 is_stmt 1 view .LVU57
 151              		.loc 1 108 26 is_stmt 0 view .LVU58
 152 0050 0280     		strh	r2, [r0]	@ movhi
 153              	.LVL13:
 154              	.L1:
 109:rtos/uCOS-III/Source/os_msg.c **** }
 155              		.loc 1 109 1 view .LVU59
 156 0052 F0BC     		pop	{r4, r5, r6, r7}
 157              	.LCFI1:
 158              		.cfi_restore 7
 159              		.cfi_restore 6
 160              		.cfi_restore 5
 161              		.cfi_restore 4
 162              		.cfi_def_cfa_offset 0
 163 0054 7047     		bx	lr
 164              	.L12:
 165 0056 00BF     		.align	2
 166              	.L11:
ARM GAS  /tmp/ccsuif9P.s 			page 6


 167 0058 00000000 		.word	OSCfg_MsgPoolBasePtr
 168 005c 00000000 		.word	OSCfg_MsgPoolSize
 169 0060 00000000 		.word	OSMsgPool
 170              		.cfi_endproc
 171              	.LFE0:
 173              		.section	.text.OS_MsgQFreeAll,"ax",%progbits
 174              		.align	1
 175              		.global	OS_MsgQFreeAll
 176              		.syntax unified
 177              		.thumb
 178              		.thumb_func
 179              		.fpu fpv4-sp-d16
 181              	OS_MsgQFreeAll:
 182              	.LVL14:
 183              	.LFB1:
 110:rtos/uCOS-III/Source/os_msg.c **** 
 111:rtos/uCOS-III/Source/os_msg.c **** 
 112:rtos/uCOS-III/Source/os_msg.c **** /*
 113:rtos/uCOS-III/Source/os_msg.c **** ***************************************************************************************************
 114:rtos/uCOS-III/Source/os_msg.c **** *                                        RELEASE ALL MESSAGE IN MESSAGE QUEUE
 115:rtos/uCOS-III/Source/os_msg.c **** *
 116:rtos/uCOS-III/Source/os_msg.c **** * Description: This function returns all the messages in a message queue to the free list.
 117:rtos/uCOS-III/Source/os_msg.c **** *
 118:rtos/uCOS-III/Source/os_msg.c **** * Arguments  : p_msg_q       is a pointer to the OS_MSG_Q structure containing messages to free.
 119:rtos/uCOS-III/Source/os_msg.c **** *              -------
 120:rtos/uCOS-III/Source/os_msg.c **** *
 121:rtos/uCOS-III/Source/os_msg.c **** * Returns    : the number of OS_MSGs returned to the free list
 122:rtos/uCOS-III/Source/os_msg.c **** *
 123:rtos/uCOS-III/Source/os_msg.c **** * Note(s)    : 1) This function is INTERNAL to uC/OS-III and your application MUST NOT call it.
 124:rtos/uCOS-III/Source/os_msg.c **** ***************************************************************************************************
 125:rtos/uCOS-III/Source/os_msg.c **** */
 126:rtos/uCOS-III/Source/os_msg.c **** 
 127:rtos/uCOS-III/Source/os_msg.c **** OS_MSG_QTY  OS_MsgQFreeAll (OS_MSG_Q  *p_msg_q)
 128:rtos/uCOS-III/Source/os_msg.c **** {
 184              		.loc 1 128 1 is_stmt 1 view -0
 185              		.cfi_startproc
 186              		@ args = 0, pretend = 0, frame = 0
 187              		@ frame_needed = 0, uses_anonymous_args = 0
 188              		@ link register save eliminated.
 189              		.loc 1 128 1 is_stmt 0 view .LVU61
 190 0000 0346     		mov	r3, r0
 129:rtos/uCOS-III/Source/os_msg.c ****     OS_MSG      *p_msg;
 191              		.loc 1 129 5 is_stmt 1 view .LVU62
 130:rtos/uCOS-III/Source/os_msg.c ****     OS_MSG_QTY   qty;
 192              		.loc 1 130 5 view .LVU63
 131:rtos/uCOS-III/Source/os_msg.c **** 
 132:rtos/uCOS-III/Source/os_msg.c **** 
 133:rtos/uCOS-III/Source/os_msg.c **** 
 134:rtos/uCOS-III/Source/os_msg.c ****     qty = p_msg_q->NbrEntries;                                  /* Get the number of OS_MSGs being 
 193              		.loc 1 134 5 view .LVU64
 194              		.loc 1 134 9 is_stmt 0 view .LVU65
 195 0002 4089     		ldrh	r0, [r0, #10]
 196              	.LVL15:
 135:rtos/uCOS-III/Source/os_msg.c ****     if (p_msg_q->NbrEntries > 0u) {
 197              		.loc 1 135 5 is_stmt 1 view .LVU66
 198              		.loc 1 135 8 is_stmt 0 view .LVU67
 199 0004 A0B1     		cbz	r0, .L16
ARM GAS  /tmp/ccsuif9P.s 			page 7


 128:rtos/uCOS-III/Source/os_msg.c ****     OS_MSG      *p_msg;
 200              		.loc 1 128 1 view .LVU68
 201 0006 10B4     		push	{r4}
 202              	.LCFI2:
 203              		.cfi_def_cfa_offset 4
 204              		.cfi_offset 4, -4
 136:rtos/uCOS-III/Source/os_msg.c ****         p_msg                   = p_msg_q->InPtr;               /* Point to end of message chain   
 205              		.loc 1 136 9 is_stmt 1 view .LVU69
 206              		.loc 1 136 33 is_stmt 0 view .LVU70
 207 0008 1968     		ldr	r1, [r3]
 208              	.LVL16:
 137:rtos/uCOS-III/Source/os_msg.c ****         p_msg->NextPtr          = OSMsgPool.NextPtr;
 209              		.loc 1 137 9 is_stmt 1 view .LVU71
 210              		.loc 1 137 44 is_stmt 0 view .LVU72
 211 000a 0A4A     		ldr	r2, .L19
 212 000c 1468     		ldr	r4, [r2]
 213              		.loc 1 137 33 view .LVU73
 214 000e 0C60     		str	r4, [r1]
 138:rtos/uCOS-III/Source/os_msg.c ****         OSMsgPool.NextPtr       = p_msg_q->OutPtr;              /* Point to beginning of message ch
 215              		.loc 1 138 9 is_stmt 1 view .LVU74
 216              		.loc 1 138 42 is_stmt 0 view .LVU75
 217 0010 5968     		ldr	r1, [r3, #4]
 218              	.LVL17:
 219              		.loc 1 138 33 view .LVU76
 220 0012 1160     		str	r1, [r2]
 139:rtos/uCOS-III/Source/os_msg.c ****         OSMsgPool.NbrUsed      -= p_msg_q->NbrEntries;          /* Update statistics for free list 
 221              		.loc 1 139 9 is_stmt 1 view .LVU77
 222              		.loc 1 139 42 is_stmt 0 view .LVU78
 223 0014 5989     		ldrh	r1, [r3, #10]
 224              		.loc 1 139 32 view .LVU79
 225 0016 D488     		ldrh	r4, [r2, #6]
 226 0018 641A     		subs	r4, r4, r1
 227 001a D480     		strh	r4, [r2, #6]	@ movhi
 140:rtos/uCOS-III/Source/os_msg.c ****         OSMsgPool.NbrFree      += p_msg_q->NbrEntries;
 228              		.loc 1 140 9 is_stmt 1 view .LVU80
 229              		.loc 1 140 32 is_stmt 0 view .LVU81
 230 001c 9488     		ldrh	r4, [r2, #4]
 231 001e 2144     		add	r1, r1, r4
 232 0020 9180     		strh	r1, [r2, #4]	@ movhi
 141:rtos/uCOS-III/Source/os_msg.c ****         p_msg_q->NbrEntries     =           0u;                 /* Flush the message queue         
 233              		.loc 1 141 9 is_stmt 1 view .LVU82
 234              		.loc 1 141 33 is_stmt 0 view .LVU83
 235 0022 0022     		movs	r2, #0
 236 0024 5A81     		strh	r2, [r3, #10]	@ movhi
 142:rtos/uCOS-III/Source/os_msg.c **** #if (OS_CFG_DBG_EN > 0u)
 143:rtos/uCOS-III/Source/os_msg.c ****         p_msg_q->NbrEntriesMax  =           0u;
 144:rtos/uCOS-III/Source/os_msg.c **** #endif
 145:rtos/uCOS-III/Source/os_msg.c ****         p_msg_q->InPtr          = (OS_MSG *)0;
 237              		.loc 1 145 9 is_stmt 1 view .LVU84
 238              		.loc 1 145 33 is_stmt 0 view .LVU85
 239 0026 1A60     		str	r2, [r3]
 146:rtos/uCOS-III/Source/os_msg.c ****         p_msg_q->OutPtr         = (OS_MSG *)0;
 240              		.loc 1 146 9 is_stmt 1 view .LVU86
 241              		.loc 1 146 33 is_stmt 0 view .LVU87
 242 0028 5A60     		str	r2, [r3, #4]
 147:rtos/uCOS-III/Source/os_msg.c ****     }
 148:rtos/uCOS-III/Source/os_msg.c ****     return (qty);
ARM GAS  /tmp/ccsuif9P.s 			page 8


 243              		.loc 1 148 5 is_stmt 1 view .LVU88
 149:rtos/uCOS-III/Source/os_msg.c **** }
 244              		.loc 1 149 1 is_stmt 0 view .LVU89
 245 002a 5DF8044B 		ldr	r4, [sp], #4
 246              	.LCFI3:
 247              		.cfi_restore 4
 248              		.cfi_def_cfa_offset 0
 249 002e 7047     		bx	lr
 250              	.L16:
 148:rtos/uCOS-III/Source/os_msg.c **** }
 251              		.loc 1 148 5 is_stmt 1 view .LVU90
 252              		.loc 1 149 1 is_stmt 0 view .LVU91
 253 0030 7047     		bx	lr
 254              	.L20:
 255 0032 00BF     		.align	2
 256              	.L19:
 257 0034 00000000 		.word	OSMsgPool
 258              		.cfi_endproc
 259              	.LFE1:
 261              		.section	.text.OS_MsgQInit,"ax",%progbits
 262              		.align	1
 263              		.global	OS_MsgQInit
 264              		.syntax unified
 265              		.thumb
 266              		.thumb_func
 267              		.fpu fpv4-sp-d16
 269              	OS_MsgQInit:
 270              	.LVL18:
 271              	.LFB2:
 150:rtos/uCOS-III/Source/os_msg.c **** 
 151:rtos/uCOS-III/Source/os_msg.c **** 
 152:rtos/uCOS-III/Source/os_msg.c **** /*
 153:rtos/uCOS-III/Source/os_msg.c **** ***************************************************************************************************
 154:rtos/uCOS-III/Source/os_msg.c **** *                                               INITIALIZE A MESSAGE QUEUE
 155:rtos/uCOS-III/Source/os_msg.c **** *
 156:rtos/uCOS-III/Source/os_msg.c **** * Description: This function is called to initialize a message queue
 157:rtos/uCOS-III/Source/os_msg.c **** *
 158:rtos/uCOS-III/Source/os_msg.c **** * Arguments  : p_msg_q      is a pointer to the message queue to initialize
 159:rtos/uCOS-III/Source/os_msg.c **** *              -------
 160:rtos/uCOS-III/Source/os_msg.c **** *
 161:rtos/uCOS-III/Source/os_msg.c **** *              size          is the maximum number of entries that a message queue can have.
 162:rtos/uCOS-III/Source/os_msg.c **** *
 163:rtos/uCOS-III/Source/os_msg.c **** * Returns    : none
 164:rtos/uCOS-III/Source/os_msg.c **** *
 165:rtos/uCOS-III/Source/os_msg.c **** * Note(s)    : 1) This function is INTERNAL to uC/OS-III and your application MUST NOT call it.
 166:rtos/uCOS-III/Source/os_msg.c **** ***************************************************************************************************
 167:rtos/uCOS-III/Source/os_msg.c **** */
 168:rtos/uCOS-III/Source/os_msg.c **** 
 169:rtos/uCOS-III/Source/os_msg.c **** void  OS_MsgQInit (OS_MSG_Q    *p_msg_q,
 170:rtos/uCOS-III/Source/os_msg.c ****                    OS_MSG_QTY   size)
 171:rtos/uCOS-III/Source/os_msg.c **** {
 272              		.loc 1 171 1 is_stmt 1 view -0
 273              		.cfi_startproc
 274              		@ args = 0, pretend = 0, frame = 0
 275              		@ frame_needed = 0, uses_anonymous_args = 0
 276              		@ link register save eliminated.
 172:rtos/uCOS-III/Source/os_msg.c ****     p_msg_q->NbrEntriesSize = size;
ARM GAS  /tmp/ccsuif9P.s 			page 9


 277              		.loc 1 172 5 view .LVU93
 278              		.loc 1 172 29 is_stmt 0 view .LVU94
 279 0000 0181     		strh	r1, [r0, #8]	@ movhi
 173:rtos/uCOS-III/Source/os_msg.c ****     p_msg_q->NbrEntries     =           0u;
 280              		.loc 1 173 5 is_stmt 1 view .LVU95
 281              		.loc 1 173 29 is_stmt 0 view .LVU96
 282 0002 0023     		movs	r3, #0
 283 0004 4381     		strh	r3, [r0, #10]	@ movhi
 174:rtos/uCOS-III/Source/os_msg.c **** #if (OS_CFG_DBG_EN > 0u)
 175:rtos/uCOS-III/Source/os_msg.c ****     p_msg_q->NbrEntriesMax  =           0u;
 176:rtos/uCOS-III/Source/os_msg.c **** #endif
 177:rtos/uCOS-III/Source/os_msg.c ****     p_msg_q->InPtr          = (OS_MSG *)0;
 284              		.loc 1 177 5 is_stmt 1 view .LVU97
 285              		.loc 1 177 29 is_stmt 0 view .LVU98
 286 0006 0360     		str	r3, [r0]
 178:rtos/uCOS-III/Source/os_msg.c ****     p_msg_q->OutPtr         = (OS_MSG *)0;
 287              		.loc 1 178 5 is_stmt 1 view .LVU99
 288              		.loc 1 178 29 is_stmt 0 view .LVU100
 289 0008 4360     		str	r3, [r0, #4]
 179:rtos/uCOS-III/Source/os_msg.c **** }
 290              		.loc 1 179 1 view .LVU101
 291 000a 7047     		bx	lr
 292              		.cfi_endproc
 293              	.LFE2:
 295              		.section	.text.OS_MsgQGet,"ax",%progbits
 296              		.align	1
 297              		.global	OS_MsgQGet
 298              		.syntax unified
 299              		.thumb
 300              		.thumb_func
 301              		.fpu fpv4-sp-d16
 303              	OS_MsgQGet:
 304              	.LVL19:
 305              	.LFB3:
 180:rtos/uCOS-III/Source/os_msg.c **** 
 181:rtos/uCOS-III/Source/os_msg.c **** 
 182:rtos/uCOS-III/Source/os_msg.c **** /*
 183:rtos/uCOS-III/Source/os_msg.c **** ***************************************************************************************************
 184:rtos/uCOS-III/Source/os_msg.c **** *                                           RETRIEVE MESSAGE FROM MESSAGE QUEUE
 185:rtos/uCOS-III/Source/os_msg.c **** *
 186:rtos/uCOS-III/Source/os_msg.c **** * Description: This function retrieves a message from a message queue
 187:rtos/uCOS-III/Source/os_msg.c **** *
 188:rtos/uCOS-III/Source/os_msg.c **** * Arguments  : p_msg_q     is a pointer to the message queue where we want to extract the message f
 189:rtos/uCOS-III/Source/os_msg.c **** *              -------
 190:rtos/uCOS-III/Source/os_msg.c **** *
 191:rtos/uCOS-III/Source/os_msg.c **** *              p_msg_size  is a pointer to where the size (in bytes) of the message will be placed
 192:rtos/uCOS-III/Source/os_msg.c **** *
 193:rtos/uCOS-III/Source/os_msg.c **** *              p_ts        is a pointer to where the time stamp will be placed
 194:rtos/uCOS-III/Source/os_msg.c **** *
 195:rtos/uCOS-III/Source/os_msg.c **** *              p_err       is a pointer to an error code that will be returned from this call.
 196:rtos/uCOS-III/Source/os_msg.c **** *
 197:rtos/uCOS-III/Source/os_msg.c **** *                              OS_ERR_Q_EMPTY
 198:rtos/uCOS-III/Source/os_msg.c **** *                              OS_ERR_NONE
 199:rtos/uCOS-III/Source/os_msg.c **** *
 200:rtos/uCOS-III/Source/os_msg.c **** * Returns    : The message (a pointer)
 201:rtos/uCOS-III/Source/os_msg.c **** *
 202:rtos/uCOS-III/Source/os_msg.c **** * Note(s)    : 1) This function is INTERNAL to uC/OS-III and your application MUST NOT call it.
ARM GAS  /tmp/ccsuif9P.s 			page 10


 203:rtos/uCOS-III/Source/os_msg.c **** ***************************************************************************************************
 204:rtos/uCOS-III/Source/os_msg.c **** */
 205:rtos/uCOS-III/Source/os_msg.c **** 
 206:rtos/uCOS-III/Source/os_msg.c **** void  *OS_MsgQGet (OS_MSG_Q     *p_msg_q,
 207:rtos/uCOS-III/Source/os_msg.c ****                    OS_MSG_SIZE  *p_msg_size,
 208:rtos/uCOS-III/Source/os_msg.c ****                    CPU_TS       *p_ts,
 209:rtos/uCOS-III/Source/os_msg.c ****                    OS_ERR       *p_err)
 210:rtos/uCOS-III/Source/os_msg.c **** {
 306              		.loc 1 210 1 is_stmt 1 view -0
 307              		.cfi_startproc
 308              		@ args = 0, pretend = 0, frame = 0
 309              		@ frame_needed = 0, uses_anonymous_args = 0
 310              		@ link register save eliminated.
 311              		.loc 1 210 1 is_stmt 0 view .LVU103
 312 0000 0246     		mov	r2, r0
 313              	.LVL20:
 211:rtos/uCOS-III/Source/os_msg.c ****     OS_MSG  *p_msg;
 314              		.loc 1 211 5 is_stmt 1 view .LVU104
 212:rtos/uCOS-III/Source/os_msg.c ****     void    *p_void;
 315              		.loc 1 212 5 view .LVU105
 213:rtos/uCOS-III/Source/os_msg.c **** 
 214:rtos/uCOS-III/Source/os_msg.c **** 
 215:rtos/uCOS-III/Source/os_msg.c **** #if (OS_CFG_TS_EN == 0u)
 216:rtos/uCOS-III/Source/os_msg.c ****     (void)p_ts;                                                 /* Prevent compiler warning for not
 316              		.loc 1 216 5 view .LVU106
 217:rtos/uCOS-III/Source/os_msg.c **** #endif
 218:rtos/uCOS-III/Source/os_msg.c **** 
 219:rtos/uCOS-III/Source/os_msg.c ****     if (p_msg_q->NbrEntries == 0u) {                            /* Is the queue empty?             
 317              		.loc 1 219 5 view .LVU107
 318              		.loc 1 219 16 is_stmt 0 view .LVU108
 319 0002 4089     		ldrh	r0, [r0, #10]
 320              	.LVL21:
 321              		.loc 1 219 8 view .LVU109
 322 0004 C0B1     		cbz	r0, .L30
 210:rtos/uCOS-III/Source/os_msg.c ****     OS_MSG  *p_msg;
 323              		.loc 1 210 1 view .LVU110
 324 0006 30B4     		push	{r4, r5}
 325              	.LCFI4:
 326              		.cfi_def_cfa_offset 8
 327              		.cfi_offset 4, -8
 328              		.cfi_offset 5, -4
 220:rtos/uCOS-III/Source/os_msg.c ****        *p_msg_size = 0u;                                        /* Yes                             
 221:rtos/uCOS-III/Source/os_msg.c **** #if (OS_CFG_TS_EN > 0u)
 222:rtos/uCOS-III/Source/os_msg.c ****         if (p_ts != (CPU_TS *)0) {
 223:rtos/uCOS-III/Source/os_msg.c ****            *p_ts = 0u;
 224:rtos/uCOS-III/Source/os_msg.c ****         }
 225:rtos/uCOS-III/Source/os_msg.c **** #endif
 226:rtos/uCOS-III/Source/os_msg.c ****        *p_err = OS_ERR_Q_EMPTY;
 227:rtos/uCOS-III/Source/os_msg.c ****         return ((void *)0);
 228:rtos/uCOS-III/Source/os_msg.c ****     }
 229:rtos/uCOS-III/Source/os_msg.c **** 
 230:rtos/uCOS-III/Source/os_msg.c ****     p_msg           = p_msg_q->OutPtr;                          /* No, get the next message to extr
 329              		.loc 1 230 5 is_stmt 1 view .LVU111
 330              		.loc 1 230 21 is_stmt 0 view .LVU112
 331 0008 5468     		ldr	r4, [r2, #4]
 332              	.LVL22:
 231:rtos/uCOS-III/Source/os_msg.c ****     p_void          = p_msg->MsgPtr;
ARM GAS  /tmp/ccsuif9P.s 			page 11


 333              		.loc 1 231 5 is_stmt 1 view .LVU113
 334              		.loc 1 231 21 is_stmt 0 view .LVU114
 335 000a 6068     		ldr	r0, [r4, #4]
 336              	.LVL23:
 232:rtos/uCOS-III/Source/os_msg.c ****    *p_msg_size      = p_msg->MsgSize;
 337              		.loc 1 232 4 is_stmt 1 view .LVU115
 338              		.loc 1 232 28 is_stmt 0 view .LVU116
 339 000c 2589     		ldrh	r5, [r4, #8]
 340              		.loc 1 232 21 view .LVU117
 341 000e 0D80     		strh	r5, [r1]	@ movhi
 233:rtos/uCOS-III/Source/os_msg.c **** #if (OS_CFG_TS_EN > 0u)
 234:rtos/uCOS-III/Source/os_msg.c ****     if (p_ts != (CPU_TS *)0) {
 235:rtos/uCOS-III/Source/os_msg.c ****        *p_ts = p_msg->MsgTS;
 236:rtos/uCOS-III/Source/os_msg.c ****     }
 237:rtos/uCOS-III/Source/os_msg.c **** #endif
 238:rtos/uCOS-III/Source/os_msg.c **** 
 239:rtos/uCOS-III/Source/os_msg.c ****     p_msg_q->OutPtr = p_msg->NextPtr;                           /* Point to next message to extract
 342              		.loc 1 239 5 is_stmt 1 view .LVU118
 343              		.loc 1 239 28 is_stmt 0 view .LVU119
 344 0010 2168     		ldr	r1, [r4]
 345              	.LVL24:
 346              		.loc 1 239 21 view .LVU120
 347 0012 5160     		str	r1, [r2, #4]
 240:rtos/uCOS-III/Source/os_msg.c **** 
 241:rtos/uCOS-III/Source/os_msg.c ****     if (p_msg_q->OutPtr == (OS_MSG *)0) {                       /* Are there any more messages in t
 348              		.loc 1 241 5 is_stmt 1 view .LVU121
 349              		.loc 1 241 8 is_stmt 0 view .LVU122
 350 0014 A9B1     		cbz	r1, .L31
 242:rtos/uCOS-III/Source/os_msg.c ****         p_msg_q->InPtr      = (OS_MSG *)0;                      /* No                              
 243:rtos/uCOS-III/Source/os_msg.c ****         p_msg_q->NbrEntries =           0u;
 244:rtos/uCOS-III/Source/os_msg.c ****     } else {
 245:rtos/uCOS-III/Source/os_msg.c ****         p_msg_q->NbrEntries--;                                  /* Yes, One less message in the que
 351              		.loc 1 245 9 is_stmt 1 view .LVU123
 352              		.loc 1 245 16 is_stmt 0 view .LVU124
 353 0016 5189     		ldrh	r1, [r2, #10]
 354              		.loc 1 245 28 view .LVU125
 355 0018 0139     		subs	r1, r1, #1
 356 001a 5181     		strh	r1, [r2, #10]	@ movhi
 357              	.L26:
 246:rtos/uCOS-III/Source/os_msg.c ****     }
 247:rtos/uCOS-III/Source/os_msg.c **** 
 248:rtos/uCOS-III/Source/os_msg.c ****     p_msg->NextPtr    = OSMsgPool.NextPtr;                      /* Return message control block to 
 358              		.loc 1 248 5 is_stmt 1 view .LVU126
 359              		.loc 1 248 34 is_stmt 0 view .LVU127
 360 001c 0A4A     		ldr	r2, .L32
 361              	.LVL25:
 362              		.loc 1 248 34 view .LVU128
 363 001e 1168     		ldr	r1, [r2]
 364              		.loc 1 248 23 view .LVU129
 365 0020 2160     		str	r1, [r4]
 249:rtos/uCOS-III/Source/os_msg.c ****     OSMsgPool.NextPtr = p_msg;
 366              		.loc 1 249 5 is_stmt 1 view .LVU130
 367              		.loc 1 249 23 is_stmt 0 view .LVU131
 368 0022 1460     		str	r4, [r2]
 250:rtos/uCOS-III/Source/os_msg.c ****     OSMsgPool.NbrFree++;
 369              		.loc 1 250 5 is_stmt 1 view .LVU132
 370              		.loc 1 250 14 is_stmt 0 view .LVU133
ARM GAS  /tmp/ccsuif9P.s 			page 12


 371 0024 9188     		ldrh	r1, [r2, #4]
 372              		.loc 1 250 22 view .LVU134
 373 0026 0131     		adds	r1, r1, #1
 374 0028 9180     		strh	r1, [r2, #4]	@ movhi
 251:rtos/uCOS-III/Source/os_msg.c ****     OSMsgPool.NbrUsed--;
 375              		.loc 1 251 5 is_stmt 1 view .LVU135
 376              		.loc 1 251 14 is_stmt 0 view .LVU136
 377 002a D188     		ldrh	r1, [r2, #6]
 378              		.loc 1 251 22 view .LVU137
 379 002c 0139     		subs	r1, r1, #1
 380 002e D180     		strh	r1, [r2, #6]	@ movhi
 252:rtos/uCOS-III/Source/os_msg.c **** 
 253:rtos/uCOS-III/Source/os_msg.c ****    *p_err             = OS_ERR_NONE;
 381              		.loc 1 253 4 is_stmt 1 view .LVU138
 382              		.loc 1 253 23 is_stmt 0 view .LVU139
 383 0030 0022     		movs	r2, #0
 384 0032 1A80     		strh	r2, [r3]	@ movhi
 254:rtos/uCOS-III/Source/os_msg.c ****     return (p_void);
 385              		.loc 1 254 5 is_stmt 1 view .LVU140
 255:rtos/uCOS-III/Source/os_msg.c **** }
 386              		.loc 1 255 1 is_stmt 0 view .LVU141
 387 0034 30BC     		pop	{r4, r5}
 388              	.LCFI5:
 389              		.cfi_restore 5
 390              		.cfi_restore 4
 391              		.cfi_def_cfa_offset 0
 392              	.LVL26:
 393              		.loc 1 255 1 view .LVU142
 394 0036 7047     		bx	lr
 395              	.LVL27:
 396              	.L30:
 220:rtos/uCOS-III/Source/os_msg.c **** #if (OS_CFG_TS_EN > 0u)
 397              		.loc 1 220 8 is_stmt 1 view .LVU143
 220:rtos/uCOS-III/Source/os_msg.c **** #if (OS_CFG_TS_EN > 0u)
 398              		.loc 1 220 20 is_stmt 0 view .LVU144
 399 0038 0880     		strh	r0, [r1]	@ movhi
 226:rtos/uCOS-III/Source/os_msg.c ****         return ((void *)0);
 400              		.loc 1 226 8 is_stmt 1 view .LVU145
 226:rtos/uCOS-III/Source/os_msg.c ****         return ((void *)0);
 401              		.loc 1 226 15 is_stmt 0 view .LVU146
 402 003a 46F29252 		movw	r2, #26002
 403              	.LVL28:
 226:rtos/uCOS-III/Source/os_msg.c ****         return ((void *)0);
 404              		.loc 1 226 15 view .LVU147
 405 003e 1A80     		strh	r2, [r3]	@ movhi
 227:rtos/uCOS-III/Source/os_msg.c ****     }
 406              		.loc 1 227 9 is_stmt 1 view .LVU148
 407              		.loc 1 255 1 is_stmt 0 view .LVU149
 408 0040 7047     		bx	lr
 409              	.LVL29:
 410              	.L31:
 411              	.LCFI6:
 412              		.cfi_def_cfa_offset 8
 413              		.cfi_offset 4, -8
 414              		.cfi_offset 5, -4
 242:rtos/uCOS-III/Source/os_msg.c ****         p_msg_q->NbrEntries =           0u;
 415              		.loc 1 242 9 is_stmt 1 view .LVU150
ARM GAS  /tmp/ccsuif9P.s 			page 13


 242:rtos/uCOS-III/Source/os_msg.c ****         p_msg_q->NbrEntries =           0u;
 416              		.loc 1 242 29 is_stmt 0 view .LVU151
 417 0042 1160     		str	r1, [r2]
 243:rtos/uCOS-III/Source/os_msg.c ****     } else {
 418              		.loc 1 243 9 is_stmt 1 view .LVU152
 243:rtos/uCOS-III/Source/os_msg.c ****     } else {
 419              		.loc 1 243 29 is_stmt 0 view .LVU153
 420 0044 5181     		strh	r1, [r2, #10]	@ movhi
 421 0046 E9E7     		b	.L26
 422              	.L33:
 423              		.align	2
 424              	.L32:
 425 0048 00000000 		.word	OSMsgPool
 426              		.cfi_endproc
 427              	.LFE3:
 429              		.section	.text.OS_MsgQPut,"ax",%progbits
 430              		.align	1
 431              		.global	OS_MsgQPut
 432              		.syntax unified
 433              		.thumb
 434              		.thumb_func
 435              		.fpu fpv4-sp-d16
 437              	OS_MsgQPut:
 438              	.LVL30:
 439              	.LFB4:
 256:rtos/uCOS-III/Source/os_msg.c **** 
 257:rtos/uCOS-III/Source/os_msg.c **** 
 258:rtos/uCOS-III/Source/os_msg.c **** /*
 259:rtos/uCOS-III/Source/os_msg.c **** ***************************************************************************************************
 260:rtos/uCOS-III/Source/os_msg.c **** *                                           DEPOSIT MESSAGE IN MESSAGE QUEUE
 261:rtos/uCOS-III/Source/os_msg.c **** *
 262:rtos/uCOS-III/Source/os_msg.c **** * Description: This function places a message in a message queue
 263:rtos/uCOS-III/Source/os_msg.c **** *
 264:rtos/uCOS-III/Source/os_msg.c **** * Arguments  : p_msg_q     is a pointer to the OS_TCB of the task to post the message to
 265:rtos/uCOS-III/Source/os_msg.c **** *              -------
 266:rtos/uCOS-III/Source/os_msg.c **** *
 267:rtos/uCOS-III/Source/os_msg.c **** *              p_void      is a pointer to the message to send.
 268:rtos/uCOS-III/Source/os_msg.c **** *
 269:rtos/uCOS-III/Source/os_msg.c **** *              msg_size    is the size of the message (in bytes)
 270:rtos/uCOS-III/Source/os_msg.c **** *
 271:rtos/uCOS-III/Source/os_msg.c **** *              opt         specifies whether the message will be posted in FIFO or LIFO order
 272:rtos/uCOS-III/Source/os_msg.c **** *
 273:rtos/uCOS-III/Source/os_msg.c **** *                              OS_OPT_POST_FIFO
 274:rtos/uCOS-III/Source/os_msg.c **** *                              OS_OPT_POST_LIFO
 275:rtos/uCOS-III/Source/os_msg.c **** *
 276:rtos/uCOS-III/Source/os_msg.c **** *              ts          is a timestamp as to when the message was posted
 277:rtos/uCOS-III/Source/os_msg.c **** *
 278:rtos/uCOS-III/Source/os_msg.c **** *              p_err       is a pointer to a variable that will contain an error code returned by t
 279:rtos/uCOS-III/Source/os_msg.c **** *
 280:rtos/uCOS-III/Source/os_msg.c **** *                              OS_ERR_Q_MAX           if the queue is full
 281:rtos/uCOS-III/Source/os_msg.c **** *                              OS_ERR_MSG_POOL_EMPTY  if we no longer have any OS_MSG to use
 282:rtos/uCOS-III/Source/os_msg.c **** *                              OS_ERR_NONE            the message was deposited in the queue
 283:rtos/uCOS-III/Source/os_msg.c **** *
 284:rtos/uCOS-III/Source/os_msg.c **** * Returns    : none
 285:rtos/uCOS-III/Source/os_msg.c **** *
 286:rtos/uCOS-III/Source/os_msg.c **** * Note(s)    : 1) This function is INTERNAL to uC/OS-III and your application MUST NOT call it.
 287:rtos/uCOS-III/Source/os_msg.c **** ***************************************************************************************************
ARM GAS  /tmp/ccsuif9P.s 			page 14


 288:rtos/uCOS-III/Source/os_msg.c **** */
 289:rtos/uCOS-III/Source/os_msg.c **** 
 290:rtos/uCOS-III/Source/os_msg.c **** void  OS_MsgQPut (OS_MSG_Q     *p_msg_q,
 291:rtos/uCOS-III/Source/os_msg.c ****                   void         *p_void,
 292:rtos/uCOS-III/Source/os_msg.c ****                   OS_MSG_SIZE   msg_size,
 293:rtos/uCOS-III/Source/os_msg.c ****                   OS_OPT        opt,
 294:rtos/uCOS-III/Source/os_msg.c ****                   CPU_TS        ts,
 295:rtos/uCOS-III/Source/os_msg.c ****                   OS_ERR       *p_err)
 296:rtos/uCOS-III/Source/os_msg.c **** {
 440              		.loc 1 296 1 is_stmt 1 view -0
 441              		.cfi_startproc
 442              		@ args = 8, pretend = 0, frame = 0
 443              		@ frame_needed = 0, uses_anonymous_args = 0
 444              		@ link register save eliminated.
 445              		.loc 1 296 1 is_stmt 0 view .LVU155
 446 0000 F0B4     		push	{r4, r5, r6, r7}
 447              	.LCFI7:
 448              		.cfi_def_cfa_offset 16
 449              		.cfi_offset 4, -16
 450              		.cfi_offset 5, -12
 451              		.cfi_offset 6, -8
 452              		.cfi_offset 7, -4
 297:rtos/uCOS-III/Source/os_msg.c ****     OS_MSG  *p_msg;
 453              		.loc 1 297 5 is_stmt 1 view .LVU156
 298:rtos/uCOS-III/Source/os_msg.c ****     OS_MSG  *p_msg_in;
 454              		.loc 1 298 5 view .LVU157
 299:rtos/uCOS-III/Source/os_msg.c **** 
 300:rtos/uCOS-III/Source/os_msg.c **** 
 301:rtos/uCOS-III/Source/os_msg.c **** #if (OS_CFG_TS_EN == 0u)
 302:rtos/uCOS-III/Source/os_msg.c ****     (void)ts;                                                   /* Prevent compiler warning for not
 455              		.loc 1 302 5 view .LVU158
 303:rtos/uCOS-III/Source/os_msg.c **** #endif
 304:rtos/uCOS-III/Source/os_msg.c **** 
 305:rtos/uCOS-III/Source/os_msg.c ****     if (p_msg_q->NbrEntries >= p_msg_q->NbrEntriesSize) {
 456              		.loc 1 305 5 view .LVU159
 457              		.loc 1 305 16 is_stmt 0 view .LVU160
 458 0002 4789     		ldrh	r7, [r0, #10]
 459              		.loc 1 305 39 view .LVU161
 460 0004 0489     		ldrh	r4, [r0, #8]
 461              		.loc 1 305 8 view .LVU162
 462 0006 A742     		cmp	r7, r4
 463 0008 1AD2     		bcs	.L43
 464 000a 9C46     		mov	ip, r3
 306:rtos/uCOS-III/Source/os_msg.c ****        *p_err = OS_ERR_Q_MAX;                                   /* Message queue cannot accept any 
 307:rtos/uCOS-III/Source/os_msg.c ****         return;
 308:rtos/uCOS-III/Source/os_msg.c ****     }
 309:rtos/uCOS-III/Source/os_msg.c **** 
 310:rtos/uCOS-III/Source/os_msg.c ****     if (OSMsgPool.NbrFree == 0u) {
 465              		.loc 1 310 5 is_stmt 1 view .LVU163
 466              		.loc 1 310 18 is_stmt 0 view .LVU164
 467 000c 194C     		ldr	r4, .L45
 468 000e A588     		ldrh	r5, [r4, #4]
 469              		.loc 1 310 8 view .LVU165
 470 0010 DDB1     		cbz	r5, .L44
 311:rtos/uCOS-III/Source/os_msg.c ****        *p_err = OS_ERR_MSG_POOL_EMPTY;                          /* No more OS_MSG to use           
 312:rtos/uCOS-III/Source/os_msg.c ****         return;
 313:rtos/uCOS-III/Source/os_msg.c ****     }
ARM GAS  /tmp/ccsuif9P.s 			page 15


 314:rtos/uCOS-III/Source/os_msg.c **** 
 315:rtos/uCOS-III/Source/os_msg.c ****     p_msg = OSMsgPool.NextPtr;                                  /* Remove message control block fro
 471              		.loc 1 315 5 is_stmt 1 view .LVU166
 472              		.loc 1 315 11 is_stmt 0 view .LVU167
 473 0012 184E     		ldr	r6, .L45
 474 0014 3468     		ldr	r4, [r6]
 475              	.LVL31:
 316:rtos/uCOS-III/Source/os_msg.c ****     OSMsgPool.NextPtr = p_msg->NextPtr;
 476              		.loc 1 316 5 is_stmt 1 view .LVU168
 477              		.loc 1 316 23 is_stmt 0 view .LVU169
 478 0016 2368     		ldr	r3, [r4]
 479              	.LVL32:
 480              		.loc 1 316 23 view .LVU170
 481 0018 3360     		str	r3, [r6]
 317:rtos/uCOS-III/Source/os_msg.c ****     OSMsgPool.NbrFree--;
 482              		.loc 1 317 5 is_stmt 1 view .LVU171
 483              		.loc 1 317 22 is_stmt 0 view .LVU172
 484 001a 013D     		subs	r5, r5, #1
 485 001c B580     		strh	r5, [r6, #4]	@ movhi
 318:rtos/uCOS-III/Source/os_msg.c ****     OSMsgPool.NbrUsed++;
 486              		.loc 1 318 5 is_stmt 1 view .LVU173
 487              		.loc 1 318 14 is_stmt 0 view .LVU174
 488 001e F588     		ldrh	r5, [r6, #6]
 489              		.loc 1 318 22 view .LVU175
 490 0020 0135     		adds	r5, r5, #1
 491 0022 F580     		strh	r5, [r6, #6]	@ movhi
 319:rtos/uCOS-III/Source/os_msg.c **** 
 320:rtos/uCOS-III/Source/os_msg.c **** #if (OS_CFG_DBG_EN > 0u)
 321:rtos/uCOS-III/Source/os_msg.c ****     if (OSMsgPool.NbrUsedMax < OSMsgPool.NbrUsed) {
 322:rtos/uCOS-III/Source/os_msg.c ****         OSMsgPool.NbrUsedMax = OSMsgPool.NbrUsed;
 323:rtos/uCOS-III/Source/os_msg.c ****     }
 324:rtos/uCOS-III/Source/os_msg.c **** #endif
 325:rtos/uCOS-III/Source/os_msg.c **** 
 326:rtos/uCOS-III/Source/os_msg.c ****     if (p_msg_q->NbrEntries == 0u) {                            /* Is this first message placed in 
 492              		.loc 1 326 5 is_stmt 1 view .LVU176
 493              		.loc 1 326 8 is_stmt 0 view .LVU177
 494 0024 B7B9     		cbnz	r7, .L38
 327:rtos/uCOS-III/Source/os_msg.c ****         p_msg_q->InPtr         = p_msg;                         /* Yes                             
 495              		.loc 1 327 9 is_stmt 1 view .LVU178
 496              		.loc 1 327 32 is_stmt 0 view .LVU179
 497 0026 0460     		str	r4, [r0]
 328:rtos/uCOS-III/Source/os_msg.c ****         p_msg_q->OutPtr        = p_msg;
 498              		.loc 1 328 9 is_stmt 1 view .LVU180
 499              		.loc 1 328 32 is_stmt 0 view .LVU181
 500 0028 4460     		str	r4, [r0, #4]
 329:rtos/uCOS-III/Source/os_msg.c ****         p_msg_q->NbrEntries    =           1u;
 501              		.loc 1 329 9 is_stmt 1 view .LVU182
 502              		.loc 1 329 32 is_stmt 0 view .LVU183
 503 002a 0123     		movs	r3, #1
 504 002c 4381     		strh	r3, [r0, #10]	@ movhi
 330:rtos/uCOS-III/Source/os_msg.c ****         p_msg->NextPtr         = (OS_MSG *)0;
 505              		.loc 1 330 9 is_stmt 1 view .LVU184
 506              		.loc 1 330 32 is_stmt 0 view .LVU185
 507 002e 0023     		movs	r3, #0
 508 0030 2360     		str	r3, [r4]
 509              	.L39:
 331:rtos/uCOS-III/Source/os_msg.c ****     } else {                                                    /* No                              
ARM GAS  /tmp/ccsuif9P.s 			page 16


 332:rtos/uCOS-III/Source/os_msg.c ****         if ((opt & OS_OPT_POST_LIFO) == OS_OPT_POST_FIFO) {     /* Is it FIFO or LIFO?             
 333:rtos/uCOS-III/Source/os_msg.c ****             p_msg_in           = p_msg_q->InPtr;                /* FIFO, add to the head           
 334:rtos/uCOS-III/Source/os_msg.c ****             p_msg_in->NextPtr  = p_msg;
 335:rtos/uCOS-III/Source/os_msg.c ****             p_msg_q->InPtr     = p_msg;
 336:rtos/uCOS-III/Source/os_msg.c ****             p_msg->NextPtr     = (OS_MSG *)0;
 337:rtos/uCOS-III/Source/os_msg.c ****         } else {
 338:rtos/uCOS-III/Source/os_msg.c ****             p_msg->NextPtr     = p_msg_q->OutPtr;               /* LIFO, add to the tail           
 339:rtos/uCOS-III/Source/os_msg.c ****             p_msg_q->OutPtr    = p_msg;
 340:rtos/uCOS-III/Source/os_msg.c ****         }
 341:rtos/uCOS-III/Source/os_msg.c ****         p_msg_q->NbrEntries++;
 342:rtos/uCOS-III/Source/os_msg.c ****     }
 343:rtos/uCOS-III/Source/os_msg.c **** 
 344:rtos/uCOS-III/Source/os_msg.c **** #if (OS_CFG_DBG_EN > 0u)
 345:rtos/uCOS-III/Source/os_msg.c ****     if (p_msg_q->NbrEntriesMax < p_msg_q->NbrEntries) {
 346:rtos/uCOS-III/Source/os_msg.c ****         p_msg_q->NbrEntriesMax = p_msg_q->NbrEntries;
 347:rtos/uCOS-III/Source/os_msg.c ****     }
 348:rtos/uCOS-III/Source/os_msg.c **** #endif
 349:rtos/uCOS-III/Source/os_msg.c **** 
 350:rtos/uCOS-III/Source/os_msg.c ****     p_msg->MsgPtr  = p_void;                                    /* Deposit message in the message q
 510              		.loc 1 350 5 is_stmt 1 view .LVU186
 511              		.loc 1 350 20 is_stmt 0 view .LVU187
 512 0032 6160     		str	r1, [r4, #4]
 351:rtos/uCOS-III/Source/os_msg.c ****     p_msg->MsgSize = msg_size;
 513              		.loc 1 351 5 is_stmt 1 view .LVU188
 514              		.loc 1 351 20 is_stmt 0 view .LVU189
 515 0034 2281     		strh	r2, [r4, #8]	@ movhi
 352:rtos/uCOS-III/Source/os_msg.c **** #if (OS_CFG_TS_EN > 0u)
 353:rtos/uCOS-III/Source/os_msg.c ****     p_msg->MsgTS   = ts;
 354:rtos/uCOS-III/Source/os_msg.c **** #endif
 355:rtos/uCOS-III/Source/os_msg.c ****    *p_err          = OS_ERR_NONE;
 516              		.loc 1 355 4 is_stmt 1 view .LVU190
 517              		.loc 1 355 20 is_stmt 0 view .LVU191
 518 0036 0023     		movs	r3, #0
 519 0038 059A     		ldr	r2, [sp, #20]
 520              	.LVL33:
 521              		.loc 1 355 20 view .LVU192
 522 003a 1380     		strh	r3, [r2]	@ movhi
 523              	.LVL34:
 524              	.L34:
 356:rtos/uCOS-III/Source/os_msg.c **** }
 525              		.loc 1 356 1 view .LVU193
 526 003c F0BC     		pop	{r4, r5, r6, r7}
 527              	.LCFI8:
 528              		.cfi_remember_state
 529              		.cfi_restore 7
 530              		.cfi_restore 6
 531              		.cfi_restore 5
 532              		.cfi_restore 4
 533              		.cfi_def_cfa_offset 0
 534              	.LVL35:
 535              		.loc 1 356 1 view .LVU194
 536 003e 7047     		bx	lr
 537              	.LVL36:
 538              	.L43:
 539              	.LCFI9:
 540              		.cfi_restore_state
 306:rtos/uCOS-III/Source/os_msg.c ****         return;
ARM GAS  /tmp/ccsuif9P.s 			page 17


 541              		.loc 1 306 8 is_stmt 1 view .LVU195
 306:rtos/uCOS-III/Source/os_msg.c ****         return;
 542              		.loc 1 306 15 is_stmt 0 view .LVU196
 543 0040 46F29353 		movw	r3, #26003
 544              	.LVL37:
 306:rtos/uCOS-III/Source/os_msg.c ****         return;
 545              		.loc 1 306 15 view .LVU197
 546 0044 059A     		ldr	r2, [sp, #20]
 547              	.LVL38:
 306:rtos/uCOS-III/Source/os_msg.c ****         return;
 548              		.loc 1 306 15 view .LVU198
 549 0046 1380     		strh	r3, [r2]	@ movhi
 307:rtos/uCOS-III/Source/os_msg.c ****     }
 550              		.loc 1 307 9 is_stmt 1 view .LVU199
 551 0048 F8E7     		b	.L34
 552              	.LVL39:
 553              	.L44:
 311:rtos/uCOS-III/Source/os_msg.c ****         return;
 554              		.loc 1 311 8 view .LVU200
 311:rtos/uCOS-III/Source/os_msg.c ****         return;
 555              		.loc 1 311 15 is_stmt 0 view .LVU201
 556 004a 45F21D73 		movw	r3, #22301
 557              	.LVL40:
 311:rtos/uCOS-III/Source/os_msg.c ****         return;
 558              		.loc 1 311 15 view .LVU202
 559 004e 059A     		ldr	r2, [sp, #20]
 560              	.LVL41:
 311:rtos/uCOS-III/Source/os_msg.c ****         return;
 561              		.loc 1 311 15 view .LVU203
 562 0050 1380     		strh	r3, [r2]	@ movhi
 312:rtos/uCOS-III/Source/os_msg.c ****     }
 563              		.loc 1 312 9 is_stmt 1 view .LVU204
 564 0052 F3E7     		b	.L34
 565              	.LVL42:
 566              	.L38:
 332:rtos/uCOS-III/Source/os_msg.c ****             p_msg_in           = p_msg_q->InPtr;                /* FIFO, add to the head           
 567              		.loc 1 332 9 view .LVU205
 332:rtos/uCOS-III/Source/os_msg.c ****             p_msg_in           = p_msg_q->InPtr;                /* FIFO, add to the head           
 568              		.loc 1 332 12 is_stmt 0 view .LVU206
 569 0054 1CF0100F 		tst	ip, #16
 570 0058 08D1     		bne	.L40
 333:rtos/uCOS-III/Source/os_msg.c ****             p_msg_in->NextPtr  = p_msg;
 571              		.loc 1 333 13 is_stmt 1 view .LVU207
 333:rtos/uCOS-III/Source/os_msg.c ****             p_msg_in->NextPtr  = p_msg;
 572              		.loc 1 333 32 is_stmt 0 view .LVU208
 573 005a 0368     		ldr	r3, [r0]
 574              	.LVL43:
 334:rtos/uCOS-III/Source/os_msg.c ****             p_msg_q->InPtr     = p_msg;
 575              		.loc 1 334 13 is_stmt 1 view .LVU209
 334:rtos/uCOS-III/Source/os_msg.c ****             p_msg_q->InPtr     = p_msg;
 576              		.loc 1 334 32 is_stmt 0 view .LVU210
 577 005c 1C60     		str	r4, [r3]
 335:rtos/uCOS-III/Source/os_msg.c ****             p_msg->NextPtr     = (OS_MSG *)0;
 578              		.loc 1 335 13 is_stmt 1 view .LVU211
 335:rtos/uCOS-III/Source/os_msg.c ****             p_msg->NextPtr     = (OS_MSG *)0;
 579              		.loc 1 335 32 is_stmt 0 view .LVU212
 580 005e 0460     		str	r4, [r0]
ARM GAS  /tmp/ccsuif9P.s 			page 18


 336:rtos/uCOS-III/Source/os_msg.c ****         } else {
 581              		.loc 1 336 13 is_stmt 1 view .LVU213
 336:rtos/uCOS-III/Source/os_msg.c ****         } else {
 582              		.loc 1 336 32 is_stmt 0 view .LVU214
 583 0060 0023     		movs	r3, #0
 584              	.LVL44:
 336:rtos/uCOS-III/Source/os_msg.c ****         } else {
 585              		.loc 1 336 32 view .LVU215
 586 0062 2360     		str	r3, [r4]
 587              	.L41:
 341:rtos/uCOS-III/Source/os_msg.c ****     }
 588              		.loc 1 341 9 is_stmt 1 view .LVU216
 341:rtos/uCOS-III/Source/os_msg.c ****     }
 589              		.loc 1 341 16 is_stmt 0 view .LVU217
 590 0064 4389     		ldrh	r3, [r0, #10]
 341:rtos/uCOS-III/Source/os_msg.c ****     }
 591              		.loc 1 341 28 view .LVU218
 592 0066 0133     		adds	r3, r3, #1
 593 0068 4381     		strh	r3, [r0, #10]	@ movhi
 594 006a E2E7     		b	.L39
 595              	.L40:
 338:rtos/uCOS-III/Source/os_msg.c ****             p_msg_q->OutPtr    = p_msg;
 596              		.loc 1 338 13 is_stmt 1 view .LVU219
 338:rtos/uCOS-III/Source/os_msg.c ****             p_msg_q->OutPtr    = p_msg;
 597              		.loc 1 338 41 is_stmt 0 view .LVU220
 598 006c 4368     		ldr	r3, [r0, #4]
 338:rtos/uCOS-III/Source/os_msg.c ****             p_msg_q->OutPtr    = p_msg;
 599              		.loc 1 338 32 view .LVU221
 600 006e 2360     		str	r3, [r4]
 339:rtos/uCOS-III/Source/os_msg.c ****         }
 601              		.loc 1 339 13 is_stmt 1 view .LVU222
 339:rtos/uCOS-III/Source/os_msg.c ****         }
 602              		.loc 1 339 32 is_stmt 0 view .LVU223
 603 0070 4460     		str	r4, [r0, #4]
 604 0072 F7E7     		b	.L41
 605              	.L46:
 606              		.align	2
 607              	.L45:
 608 0074 00000000 		.word	OSMsgPool
 609              		.cfi_endproc
 610              	.LFE4:
 612              		.text
 613              	.Letext0:
 614              		.file 2 "rtos/uC-CPU/ARM-Cortex-M/ARMv7-M/GNU/cpu.h"
 615              		.file 3 "rtos/uC-CPU/cpu_core.h"
 616              		.file 4 "rtos/uCOS-III/Source/os_type.h"
 617              		.file 5 "rtos/uCOS-III/Source/os.h"
 618              		.file 6 "rtos/uCOS-III/Ports/ARM-Cortex-M/ARMv7-M/GNU/os_cpu.h"
ARM GAS  /tmp/ccsuif9P.s 			page 19

