ARM GAS  /tmp/cc8jH5dy.s 			page 1


   1              		.cpu cortex-m4
   2              		.eabi_attribute 27, 1
   3              		.eabi_attribute 28, 1
   4              		.eabi_attribute 20, 1
   5              		.eabi_attribute 21, 1
   6              		.eabi_attribute 23, 3
   7              		.eabi_attribute 24, 1
   8              		.eabi_attribute 25, 1
   9              		.eabi_attribute 26, 1
  10              		.eabi_attribute 30, 1
  11              		.eabi_attribute 34, 1
  12              		.eabi_attribute 18, 4
  13              		.file	"os_tick.c"
  14              		.text
  15              	.Ltext0:
  16              		.cfi_sections	.debug_frame
  17              		.section	.text.OS_TickListUpdate,"ax",%progbits
  18              		.align	1
  19              		.arch armv7e-m
  20              		.syntax unified
  21              		.thumb
  22              		.thumb_func
  23              		.fpu fpv4-sp-d16
  25              	OS_TickListUpdate:
  26              	.LVL0:
  27              	.LFB5:
  28              		.file 1 "rtos/uCOS-III/Source/os_tick.c"
   1:rtos/uCOS-III/Source/os_tick.c **** /*
   2:rtos/uCOS-III/Source/os_tick.c **** ***************************************************************************************************
   3:rtos/uCOS-III/Source/os_tick.c **** *                                                uC/OS-III
   4:rtos/uCOS-III/Source/os_tick.c **** *                                          The Real-Time Kernel
   5:rtos/uCOS-III/Source/os_tick.c **** *
   6:rtos/uCOS-III/Source/os_tick.c **** *                         (c) Copyright 2009-2019; Silicon Laboratories Inc.,
   7:rtos/uCOS-III/Source/os_tick.c **** *                                400 W. Cesar Chavez, Austin, TX 78701
   8:rtos/uCOS-III/Source/os_tick.c **** *
   9:rtos/uCOS-III/Source/os_tick.c **** *                   All rights reserved. Protected by international copyright laws.
  10:rtos/uCOS-III/Source/os_tick.c **** *
  11:rtos/uCOS-III/Source/os_tick.c **** *                  Your use of this software is subject to your acceptance of the terms
  12:rtos/uCOS-III/Source/os_tick.c **** *                  of a Silicon Labs Micrium software license, which can be obtained by
  13:rtos/uCOS-III/Source/os_tick.c **** *                  contacting info@micrium.com. If you do not agree to the terms of this
  14:rtos/uCOS-III/Source/os_tick.c **** *                  license, you may not use this software.
  15:rtos/uCOS-III/Source/os_tick.c **** *
  16:rtos/uCOS-III/Source/os_tick.c **** *                  Please help us continue to provide the Embedded community with the finest
  17:rtos/uCOS-III/Source/os_tick.c **** *                  software available. Your honesty is greatly appreciated.
  18:rtos/uCOS-III/Source/os_tick.c **** *
  19:rtos/uCOS-III/Source/os_tick.c **** *                    You can find our product's documentation at: doc.micrium.com
  20:rtos/uCOS-III/Source/os_tick.c **** *
  21:rtos/uCOS-III/Source/os_tick.c **** *                          For more information visit us at: www.micrium.com
  22:rtos/uCOS-III/Source/os_tick.c **** ***************************************************************************************************
  23:rtos/uCOS-III/Source/os_tick.c **** */
  24:rtos/uCOS-III/Source/os_tick.c **** 
  25:rtos/uCOS-III/Source/os_tick.c **** /*
  26:rtos/uCOS-III/Source/os_tick.c **** ***************************************************************************************************
  27:rtos/uCOS-III/Source/os_tick.c **** *                                            TICK MANAGEMENT
  28:rtos/uCOS-III/Source/os_tick.c **** *
  29:rtos/uCOS-III/Source/os_tick.c **** * File    : os_tick.c
  30:rtos/uCOS-III/Source/os_tick.c **** * Version : V3.07.04
ARM GAS  /tmp/cc8jH5dy.s 			page 2


  31:rtos/uCOS-III/Source/os_tick.c **** ***************************************************************************************************
  32:rtos/uCOS-III/Source/os_tick.c **** */
  33:rtos/uCOS-III/Source/os_tick.c **** 
  34:rtos/uCOS-III/Source/os_tick.c **** #define  MICRIUM_SOURCE
  35:rtos/uCOS-III/Source/os_tick.c **** #include "os.h"
  36:rtos/uCOS-III/Source/os_tick.c **** 
  37:rtos/uCOS-III/Source/os_tick.c **** #ifdef VSC_INCLUDE_SOURCE_FILE_NAMES
  38:rtos/uCOS-III/Source/os_tick.c **** const  CPU_CHAR  *os_tick__c = "$Id: $";
  39:rtos/uCOS-III/Source/os_tick.c **** #endif
  40:rtos/uCOS-III/Source/os_tick.c **** 
  41:rtos/uCOS-III/Source/os_tick.c **** #if (OS_CFG_TICK_EN > 0u)
  42:rtos/uCOS-III/Source/os_tick.c **** /*
  43:rtos/uCOS-III/Source/os_tick.c **** ***************************************************************************************************
  44:rtos/uCOS-III/Source/os_tick.c **** *                                                 FUNCTION PROTOTYPES
  45:rtos/uCOS-III/Source/os_tick.c **** ***************************************************************************************************
  46:rtos/uCOS-III/Source/os_tick.c **** */
  47:rtos/uCOS-III/Source/os_tick.c **** 
  48:rtos/uCOS-III/Source/os_tick.c **** static  void  OS_TickListUpdate (OS_TICK  ticks);
  49:rtos/uCOS-III/Source/os_tick.c **** 
  50:rtos/uCOS-III/Source/os_tick.c **** 
  51:rtos/uCOS-III/Source/os_tick.c **** /*
  52:rtos/uCOS-III/Source/os_tick.c **** ***************************************************************************************************
  53:rtos/uCOS-III/Source/os_tick.c **** *                                                      TICK INIT
  54:rtos/uCOS-III/Source/os_tick.c **** *
  55:rtos/uCOS-III/Source/os_tick.c **** * Description: This function initializes the variables related to the tick handler.
  56:rtos/uCOS-III/Source/os_tick.c **** *              The function is internal to uC/OS-III.
  57:rtos/uCOS-III/Source/os_tick.c **** *
  58:rtos/uCOS-III/Source/os_tick.c **** * Arguments  : p_err          is a pointer to a variable that will contain an error code returned b
  59:rtos/uCOS-III/Source/os_tick.c **** *              -----
  60:rtos/uCOS-III/Source/os_tick.c **** *                                 OS_ERR_NONE           the tick variables were initialized success
  61:rtos/uCOS-III/Source/os_tick.c **** *
  62:rtos/uCOS-III/Source/os_tick.c **** * Returns    : none
  63:rtos/uCOS-III/Source/os_tick.c **** *
  64:rtos/uCOS-III/Source/os_tick.c **** * Note(s)    : This function is INTERNAL to uC/OS-III and your application should not call it.
  65:rtos/uCOS-III/Source/os_tick.c **** ***************************************************************************************************
  66:rtos/uCOS-III/Source/os_tick.c **** */
  67:rtos/uCOS-III/Source/os_tick.c **** 
  68:rtos/uCOS-III/Source/os_tick.c **** void  OS_TickInit (OS_ERR  *p_err)
  69:rtos/uCOS-III/Source/os_tick.c **** {
  70:rtos/uCOS-III/Source/os_tick.c ****     *p_err                = OS_ERR_NONE;
  71:rtos/uCOS-III/Source/os_tick.c **** 
  72:rtos/uCOS-III/Source/os_tick.c ****     OSTickCtr             = 0u;                               /* Clear the tick counter            
  73:rtos/uCOS-III/Source/os_tick.c **** 
  74:rtos/uCOS-III/Source/os_tick.c **** #if (OS_CFG_DYN_TICK_EN > 0u)
  75:rtos/uCOS-III/Source/os_tick.c ****     OSTickCtrStep         = 0u;
  76:rtos/uCOS-III/Source/os_tick.c **** #endif
  77:rtos/uCOS-III/Source/os_tick.c **** 
  78:rtos/uCOS-III/Source/os_tick.c ****     OSTickList.TCB_Ptr    = (OS_TCB *)0;
  79:rtos/uCOS-III/Source/os_tick.c **** 
  80:rtos/uCOS-III/Source/os_tick.c **** #if (OS_CFG_DBG_EN > 0u)
  81:rtos/uCOS-III/Source/os_tick.c ****     OSTickList.NbrEntries = 0u;
  82:rtos/uCOS-III/Source/os_tick.c ****     OSTickList.NbrUpdated = 0u;
  83:rtos/uCOS-III/Source/os_tick.c **** #endif
  84:rtos/uCOS-III/Source/os_tick.c **** }
  85:rtos/uCOS-III/Source/os_tick.c **** 
  86:rtos/uCOS-III/Source/os_tick.c **** /*
  87:rtos/uCOS-III/Source/os_tick.c **** ***************************************************************************************************
ARM GAS  /tmp/cc8jH5dy.s 			page 3


  88:rtos/uCOS-III/Source/os_tick.c **** *                                                      TICK UPDATE
  89:rtos/uCOS-III/Source/os_tick.c **** *
  90:rtos/uCOS-III/Source/os_tick.c **** * Description: This function updates the list of task either delayed pending with timeout.
  91:rtos/uCOS-III/Source/os_tick.c **** *              The function is internal to uC/OS-III.
  92:rtos/uCOS-III/Source/os_tick.c **** *
  93:rtos/uCOS-III/Source/os_tick.c **** * Arguments  : ticks          the number of ticks which have elapsed
  94:rtos/uCOS-III/Source/os_tick.c **** *              -----
  95:rtos/uCOS-III/Source/os_tick.c **** *
  96:rtos/uCOS-III/Source/os_tick.c **** * Returns    : none
  97:rtos/uCOS-III/Source/os_tick.c **** *
  98:rtos/uCOS-III/Source/os_tick.c **** * Note(s)    : This function is INTERNAL to uC/OS-III and your application should not call it.
  99:rtos/uCOS-III/Source/os_tick.c **** ***************************************************************************************************
 100:rtos/uCOS-III/Source/os_tick.c **** */
 101:rtos/uCOS-III/Source/os_tick.c **** 
 102:rtos/uCOS-III/Source/os_tick.c **** void  OS_TickUpdate (OS_TICK  ticks)
 103:rtos/uCOS-III/Source/os_tick.c **** {
 104:rtos/uCOS-III/Source/os_tick.c **** #if (OS_CFG_TS_EN > 0u)
 105:rtos/uCOS-III/Source/os_tick.c ****     CPU_TS  ts_start;
 106:rtos/uCOS-III/Source/os_tick.c **** #endif
 107:rtos/uCOS-III/Source/os_tick.c ****     CPU_SR_ALLOC();
 108:rtos/uCOS-III/Source/os_tick.c **** 
 109:rtos/uCOS-III/Source/os_tick.c **** 
 110:rtos/uCOS-III/Source/os_tick.c ****     CPU_CRITICAL_ENTER();
 111:rtos/uCOS-III/Source/os_tick.c **** 
 112:rtos/uCOS-III/Source/os_tick.c ****     OSTickCtr += ticks;                                         /* Keep track of the number of tick
 113:rtos/uCOS-III/Source/os_tick.c **** 
 114:rtos/uCOS-III/Source/os_tick.c ****     OS_TRACE_TICK_INCREMENT(OSTickCtr);
 115:rtos/uCOS-III/Source/os_tick.c **** 
 116:rtos/uCOS-III/Source/os_tick.c **** #if (OS_CFG_TS_EN > 0u)
 117:rtos/uCOS-III/Source/os_tick.c ****     ts_start   = OS_TS_GET();
 118:rtos/uCOS-III/Source/os_tick.c ****     OS_TickListUpdate(ticks);
 119:rtos/uCOS-III/Source/os_tick.c ****     OSTickTime = OS_TS_GET() - ts_start;
 120:rtos/uCOS-III/Source/os_tick.c ****     if (OSTickTimeMax < OSTickTime) {
 121:rtos/uCOS-III/Source/os_tick.c ****         OSTickTimeMax = OSTickTime;
 122:rtos/uCOS-III/Source/os_tick.c ****     }
 123:rtos/uCOS-III/Source/os_tick.c **** #else
 124:rtos/uCOS-III/Source/os_tick.c ****     OS_TickListUpdate(ticks);
 125:rtos/uCOS-III/Source/os_tick.c **** #endif
 126:rtos/uCOS-III/Source/os_tick.c **** 
 127:rtos/uCOS-III/Source/os_tick.c **** #if (OS_CFG_DYN_TICK_EN > 0u)
 128:rtos/uCOS-III/Source/os_tick.c ****     if (OSTickList.TCB_Ptr != (OS_TCB *)0) {
 129:rtos/uCOS-III/Source/os_tick.c ****         OSTickCtrStep = OSTickList.TCB_Ptr->TickRemain;
 130:rtos/uCOS-III/Source/os_tick.c ****     } else {
 131:rtos/uCOS-III/Source/os_tick.c ****         OSTickCtrStep = 0u;
 132:rtos/uCOS-III/Source/os_tick.c ****     }
 133:rtos/uCOS-III/Source/os_tick.c **** 
 134:rtos/uCOS-III/Source/os_tick.c ****     OS_DynTickSet(OSTickCtrStep);
 135:rtos/uCOS-III/Source/os_tick.c **** #endif
 136:rtos/uCOS-III/Source/os_tick.c ****     CPU_CRITICAL_EXIT();
 137:rtos/uCOS-III/Source/os_tick.c **** }
 138:rtos/uCOS-III/Source/os_tick.c **** 
 139:rtos/uCOS-III/Source/os_tick.c **** /*
 140:rtos/uCOS-III/Source/os_tick.c **** ***************************************************************************************************
 141:rtos/uCOS-III/Source/os_tick.c **** *                                                      INSERT
 142:rtos/uCOS-III/Source/os_tick.c **** *
 143:rtos/uCOS-III/Source/os_tick.c **** * Description: This task is internal to uC/OS-III and allows the insertion of a task in a tick list
 144:rtos/uCOS-III/Source/os_tick.c **** *
ARM GAS  /tmp/cc8jH5dy.s 			page 4


 145:rtos/uCOS-III/Source/os_tick.c **** * Arguments  : p_tcb       is a pointer to the TCB to insert in the list
 146:rtos/uCOS-III/Source/os_tick.c **** *
 147:rtos/uCOS-III/Source/os_tick.c **** *              elapsed     is the number of elapsed ticks since the last tick interrupt
 148:rtos/uCOS-III/Source/os_tick.c **** *
 149:rtos/uCOS-III/Source/os_tick.c **** *              tick_base   is value of OSTickCtr from which time is offset
 150:rtos/uCOS-III/Source/os_tick.c **** *
 151:rtos/uCOS-III/Source/os_tick.c **** *              time        is the amount of time remaining (in ticks) for the task to become ready
 152:rtos/uCOS-III/Source/os_tick.c **** *
 153:rtos/uCOS-III/Source/os_tick.c **** * Returns    : OS_TRUE     if time is valid for the given tick base
 154:rtos/uCOS-III/Source/os_tick.c **** *
 155:rtos/uCOS-III/Source/os_tick.c **** *              OS_FALSE    if time is invalid (i.e. zero delay)
 156:rtos/uCOS-III/Source/os_tick.c **** *
 157:rtos/uCOS-III/Source/os_tick.c **** * Note(s)    : 1) This function is INTERNAL to uC/OS-III and your application should not call it.
 158:rtos/uCOS-III/Source/os_tick.c **** *
 159:rtos/uCOS-III/Source/os_tick.c **** *              2) This function supports both Periodic Tick Mode (PTM) and Dynamic Tick Mode (DTM).
 160:rtos/uCOS-III/Source/os_tick.c **** *
 161:rtos/uCOS-III/Source/os_tick.c **** *              3) PTM should always call this function with elapsed == 0u.
 162:rtos/uCOS-III/Source/os_tick.c **** ***************************************************************************************************
 163:rtos/uCOS-III/Source/os_tick.c **** */
 164:rtos/uCOS-III/Source/os_tick.c **** 
 165:rtos/uCOS-III/Source/os_tick.c **** CPU_BOOLEAN  OS_TickListInsert (OS_TCB   *p_tcb,
 166:rtos/uCOS-III/Source/os_tick.c ****                                 OS_TICK   elapsed,
 167:rtos/uCOS-III/Source/os_tick.c ****                                 OS_TICK   tick_base,
 168:rtos/uCOS-III/Source/os_tick.c ****                                 OS_TICK   time)
 169:rtos/uCOS-III/Source/os_tick.c **** {
 170:rtos/uCOS-III/Source/os_tick.c ****     OS_TCB        *p_tcb1;
 171:rtos/uCOS-III/Source/os_tick.c ****     OS_TCB        *p_tcb2;
 172:rtos/uCOS-III/Source/os_tick.c ****     OS_TICK_LIST  *p_list;
 173:rtos/uCOS-III/Source/os_tick.c ****     OS_TICK        delta;
 174:rtos/uCOS-III/Source/os_tick.c ****     OS_TICK        remain;
 175:rtos/uCOS-III/Source/os_tick.c **** 
 176:rtos/uCOS-III/Source/os_tick.c **** 
 177:rtos/uCOS-III/Source/os_tick.c ****     delta = (time + tick_base) - (OSTickCtr + elapsed);         /* How many ticks until our delay e
 178:rtos/uCOS-III/Source/os_tick.c **** 
 179:rtos/uCOS-III/Source/os_tick.c ****     if (delta == 0u) {
 180:rtos/uCOS-III/Source/os_tick.c ****         p_tcb->TickRemain = 0u;
 181:rtos/uCOS-III/Source/os_tick.c ****         return (OS_FALSE);
 182:rtos/uCOS-III/Source/os_tick.c ****     }
 183:rtos/uCOS-III/Source/os_tick.c **** 
 184:rtos/uCOS-III/Source/os_tick.c ****     OS_TRACE_TASK_DLY(delta);
 185:rtos/uCOS-III/Source/os_tick.c **** 
 186:rtos/uCOS-III/Source/os_tick.c ****     p_list = &OSTickList;
 187:rtos/uCOS-III/Source/os_tick.c ****     if (p_list->TCB_Ptr == (OS_TCB *)0) {                       /* Is the list empty?              
 188:rtos/uCOS-III/Source/os_tick.c ****         p_tcb->TickRemain   = delta;                            /* Yes, Store time in TCB          
 189:rtos/uCOS-III/Source/os_tick.c ****         p_tcb->TickNextPtr  = (OS_TCB *)0;
 190:rtos/uCOS-III/Source/os_tick.c ****         p_tcb->TickPrevPtr  = (OS_TCB *)0;
 191:rtos/uCOS-III/Source/os_tick.c ****         p_list->TCB_Ptr     = p_tcb;                            /* Point to TCB of task to place in
 192:rtos/uCOS-III/Source/os_tick.c **** #if (OS_CFG_DYN_TICK_EN > 0u)
 193:rtos/uCOS-III/Source/os_tick.c ****         if (elapsed != 0u) {
 194:rtos/uCOS-III/Source/os_tick.c ****             OSTickCtr      += elapsed;                          /* Update OSTickCtr before we set a
 195:rtos/uCOS-III/Source/os_tick.c ****             OS_TRACE_TICK_INCREMENT(OSTickCtr);
 196:rtos/uCOS-III/Source/os_tick.c ****         }
 197:rtos/uCOS-III/Source/os_tick.c **** 
 198:rtos/uCOS-III/Source/os_tick.c ****         OSTickCtrStep       = delta;
 199:rtos/uCOS-III/Source/os_tick.c ****         OS_DynTickSet(OSTickCtrStep);
 200:rtos/uCOS-III/Source/os_tick.c **** #endif
 201:rtos/uCOS-III/Source/os_tick.c **** #if (OS_CFG_DBG_EN > 0u)
ARM GAS  /tmp/cc8jH5dy.s 			page 5


 202:rtos/uCOS-III/Source/os_tick.c ****         p_list->NbrEntries  = 1u;                               /* List contains 1 entry           
 203:rtos/uCOS-III/Source/os_tick.c **** #endif
 204:rtos/uCOS-III/Source/os_tick.c ****         return (OS_TRUE);
 205:rtos/uCOS-III/Source/os_tick.c ****     }
 206:rtos/uCOS-III/Source/os_tick.c **** 
 207:rtos/uCOS-III/Source/os_tick.c **** 
 208:rtos/uCOS-III/Source/os_tick.c **** #if (OS_CFG_DBG_EN > 0u)
 209:rtos/uCOS-III/Source/os_tick.c ****     p_list->NbrEntries++;                                       /* Update debug counter to reflect 
 210:rtos/uCOS-III/Source/os_tick.c **** #endif
 211:rtos/uCOS-III/Source/os_tick.c **** 
 212:rtos/uCOS-III/Source/os_tick.c ****     p_tcb2 = p_list->TCB_Ptr;
 213:rtos/uCOS-III/Source/os_tick.c ****     remain = p_tcb2->TickRemain - elapsed;                      /* How many ticks until the head's 
 214:rtos/uCOS-III/Source/os_tick.c **** 
 215:rtos/uCOS-III/Source/os_tick.c ****     if ((delta               <   remain) &&                     /* If our entry is the new head of 
 216:rtos/uCOS-III/Source/os_tick.c ****         (p_tcb2->TickPrevPtr == (OS_TCB *)0)) {
 217:rtos/uCOS-III/Source/os_tick.c ****         p_tcb->TickRemain    =  delta;                          /* ... the delta is equivalent to t
 218:rtos/uCOS-III/Source/os_tick.c ****         p_tcb2->TickRemain   =  remain - delta;                 /* ... the previous head's delta is
 219:rtos/uCOS-III/Source/os_tick.c **** 
 220:rtos/uCOS-III/Source/os_tick.c ****         p_tcb->TickPrevPtr   = (OS_TCB *)0;
 221:rtos/uCOS-III/Source/os_tick.c ****         p_tcb->TickNextPtr   =  p_tcb2;
 222:rtos/uCOS-III/Source/os_tick.c ****         p_tcb2->TickPrevPtr  =  p_tcb;
 223:rtos/uCOS-III/Source/os_tick.c ****         p_list->TCB_Ptr      =  p_tcb;
 224:rtos/uCOS-III/Source/os_tick.c **** #if (OS_CFG_DYN_TICK_EN > 0u)
 225:rtos/uCOS-III/Source/os_tick.c ****         if (elapsed != 0u) {
 226:rtos/uCOS-III/Source/os_tick.c ****             OSTickCtr       +=  elapsed;                        /* Update OSTickCtr before we set a
 227:rtos/uCOS-III/Source/os_tick.c ****             OS_TRACE_TICK_INCREMENT(OSTickCtr);
 228:rtos/uCOS-III/Source/os_tick.c ****         }
 229:rtos/uCOS-III/Source/os_tick.c ****                                                                 /* In DTM, a new list head must upd
 230:rtos/uCOS-III/Source/os_tick.c ****         OSTickCtrStep        =  delta;                          /* ... timer to interrupt at the ne
 231:rtos/uCOS-III/Source/os_tick.c ****         OS_DynTickSet(OSTickCtrStep);
 232:rtos/uCOS-III/Source/os_tick.c **** #endif
 233:rtos/uCOS-III/Source/os_tick.c **** 
 234:rtos/uCOS-III/Source/os_tick.c ****         return (OS_TRUE);
 235:rtos/uCOS-III/Source/os_tick.c ****     }
 236:rtos/uCOS-III/Source/os_tick.c **** 
 237:rtos/uCOS-III/Source/os_tick.c ****                                                                 /* Our entry comes after the curren
 238:rtos/uCOS-III/Source/os_tick.c ****     delta  -= remain;                                           /* Make delta relative to the head.
 239:rtos/uCOS-III/Source/os_tick.c ****     p_tcb1  = p_tcb2;
 240:rtos/uCOS-III/Source/os_tick.c ****     p_tcb2  = p_tcb1->TickNextPtr;
 241:rtos/uCOS-III/Source/os_tick.c **** 
 242:rtos/uCOS-III/Source/os_tick.c ****     while ((p_tcb2 !=        (OS_TCB *)0) &&                    /* Find the appropriate position in
 243:rtos/uCOS-III/Source/os_tick.c ****            (delta  >= p_tcb2->TickRemain)) {
 244:rtos/uCOS-III/Source/os_tick.c ****         delta  -= p_tcb2->TickRemain;
 245:rtos/uCOS-III/Source/os_tick.c ****         p_tcb1  = p_tcb2;
 246:rtos/uCOS-III/Source/os_tick.c ****         p_tcb2  = p_tcb2->TickNextPtr;
 247:rtos/uCOS-III/Source/os_tick.c ****     }
 248:rtos/uCOS-III/Source/os_tick.c **** 
 249:rtos/uCOS-III/Source/os_tick.c ****     if (p_tcb2 != (OS_TCB *)0) {                                /* Our entry is not the last elemen
 250:rtos/uCOS-III/Source/os_tick.c ****         p_tcb1               = p_tcb2->TickPrevPtr;
 251:rtos/uCOS-III/Source/os_tick.c ****         p_tcb->TickRemain    = delta;                           /* Store remaining time            
 252:rtos/uCOS-III/Source/os_tick.c ****         p_tcb->TickPrevPtr   = p_tcb1;
 253:rtos/uCOS-III/Source/os_tick.c ****         p_tcb->TickNextPtr   = p_tcb2;
 254:rtos/uCOS-III/Source/os_tick.c ****         p_tcb2->TickRemain  -= delta;                           /* Reduce time of next entry in the
 255:rtos/uCOS-III/Source/os_tick.c ****         p_tcb2->TickPrevPtr  = p_tcb;
 256:rtos/uCOS-III/Source/os_tick.c ****         p_tcb1->TickNextPtr  = p_tcb;
 257:rtos/uCOS-III/Source/os_tick.c **** 
 258:rtos/uCOS-III/Source/os_tick.c ****     } else {                                                    /* Our entry belongs at the end of 
ARM GAS  /tmp/cc8jH5dy.s 			page 6


 259:rtos/uCOS-III/Source/os_tick.c ****         p_tcb->TickRemain    = delta;
 260:rtos/uCOS-III/Source/os_tick.c ****         p_tcb->TickPrevPtr   = p_tcb1;
 261:rtos/uCOS-III/Source/os_tick.c ****         p_tcb->TickNextPtr   = (OS_TCB *)0;
 262:rtos/uCOS-III/Source/os_tick.c ****         p_tcb1->TickNextPtr  = p_tcb;
 263:rtos/uCOS-III/Source/os_tick.c ****     }
 264:rtos/uCOS-III/Source/os_tick.c **** 
 265:rtos/uCOS-III/Source/os_tick.c ****     return (OS_TRUE);
 266:rtos/uCOS-III/Source/os_tick.c **** }
 267:rtos/uCOS-III/Source/os_tick.c **** 
 268:rtos/uCOS-III/Source/os_tick.c **** /*
 269:rtos/uCOS-III/Source/os_tick.c **** ***************************************************************************************************
 270:rtos/uCOS-III/Source/os_tick.c **** *                                            ADD DELAYED TASK TO TICK LIST
 271:rtos/uCOS-III/Source/os_tick.c **** *
 272:rtos/uCOS-III/Source/os_tick.c **** * Description: This function is called to place a task in a list of task waiting for time to expire
 273:rtos/uCOS-III/Source/os_tick.c **** *
 274:rtos/uCOS-III/Source/os_tick.c **** * Arguments  : p_tcb          is a pointer to the OS_TCB of the task to add to the tick list
 275:rtos/uCOS-III/Source/os_tick.c **** *              -----
 276:rtos/uCOS-III/Source/os_tick.c **** *
 277:rtos/uCOS-III/Source/os_tick.c **** *              time           represents either the 'match' value of OSTickCtr or a relative time f
 278:rtos/uCOS-III/Source/os_tick.c **** *                             system time as specified by the 'opt' argument..
 279:rtos/uCOS-III/Source/os_tick.c **** *
 280:rtos/uCOS-III/Source/os_tick.c **** *                             relative when 'opt' is set to OS_OPT_TIME_DLY
 281:rtos/uCOS-III/Source/os_tick.c **** *                             relative when 'opt' is set to OS_OPT_TIME_TIMEOUT
 282:rtos/uCOS-III/Source/os_tick.c **** *                             match    when 'opt' is set to OS_OPT_TIME_MATCH
 283:rtos/uCOS-III/Source/os_tick.c **** *                             periodic when 'opt' is set to OS_OPT_TIME_PERIODIC
 284:rtos/uCOS-III/Source/os_tick.c **** *
 285:rtos/uCOS-III/Source/os_tick.c **** *              opt            is an option specifying how to calculate time.  The valid values are:
 286:rtos/uCOS-III/Source/os_tick.c **** *              ---
 287:rtos/uCOS-III/Source/os_tick.c **** *                                 OS_OPT_TIME_DLY
 288:rtos/uCOS-III/Source/os_tick.c **** *                                 OS_OPT_TIME_TIMEOUT
 289:rtos/uCOS-III/Source/os_tick.c **** *                                 OS_OPT_TIME_PERIODIC
 290:rtos/uCOS-III/Source/os_tick.c **** *                                 OS_OPT_TIME_MATCH
 291:rtos/uCOS-III/Source/os_tick.c **** *
 292:rtos/uCOS-III/Source/os_tick.c **** *              p_err          is a pointer to a variable that will contain an error code returned b
 293:rtos/uCOS-III/Source/os_tick.c **** *              -----
 294:rtos/uCOS-III/Source/os_tick.c **** *                                 OS_ERR_NONE           the call was successful and the time delay 
 295:rtos/uCOS-III/Source/os_tick.c **** *                                 OS_ERR_TIME_ZERO_DLY  if the effective delay is zero
 296:rtos/uCOS-III/Source/os_tick.c **** *
 297:rtos/uCOS-III/Source/os_tick.c **** * Returns    : None
 298:rtos/uCOS-III/Source/os_tick.c **** *
 299:rtos/uCOS-III/Source/os_tick.c **** * Note(s)    : 1) This function is INTERNAL to uC/OS-III and your application MUST NOT call it.
 300:rtos/uCOS-III/Source/os_tick.c **** *
 301:rtos/uCOS-III/Source/os_tick.c **** *              2) This function is assumed to be called with interrupts disabled.
 302:rtos/uCOS-III/Source/os_tick.c **** ***************************************************************************************************
 303:rtos/uCOS-III/Source/os_tick.c **** */
 304:rtos/uCOS-III/Source/os_tick.c **** 
 305:rtos/uCOS-III/Source/os_tick.c **** void  OS_TickListInsertDly (OS_TCB   *p_tcb,
 306:rtos/uCOS-III/Source/os_tick.c ****                             OS_TICK   time,
 307:rtos/uCOS-III/Source/os_tick.c ****                             OS_OPT    opt,
 308:rtos/uCOS-III/Source/os_tick.c ****                             OS_ERR   *p_err)
 309:rtos/uCOS-III/Source/os_tick.c **** {
 310:rtos/uCOS-III/Source/os_tick.c ****     OS_TICK      elapsed;
 311:rtos/uCOS-III/Source/os_tick.c ****     OS_TICK      tick_base;
 312:rtos/uCOS-III/Source/os_tick.c ****     OS_TICK      base_offset;
 313:rtos/uCOS-III/Source/os_tick.c ****     CPU_BOOLEAN  valid_dly;
 314:rtos/uCOS-III/Source/os_tick.c **** 
 315:rtos/uCOS-III/Source/os_tick.c **** 
ARM GAS  /tmp/cc8jH5dy.s 			page 7


 316:rtos/uCOS-III/Source/os_tick.c **** #if (OS_CFG_DYN_TICK_EN > 0u)
 317:rtos/uCOS-III/Source/os_tick.c ****     elapsed  = OS_DynTickGet();
 318:rtos/uCOS-III/Source/os_tick.c **** #else
 319:rtos/uCOS-III/Source/os_tick.c ****     elapsed  = 0u;
 320:rtos/uCOS-III/Source/os_tick.c **** #endif
 321:rtos/uCOS-III/Source/os_tick.c **** 
 322:rtos/uCOS-III/Source/os_tick.c ****     if (opt == OS_OPT_TIME_MATCH) {                             /* MATCH to absolute tick ctr value
 323:rtos/uCOS-III/Source/os_tick.c ****         tick_base = 0u;                                         /* tick_base + time == time        
 324:rtos/uCOS-III/Source/os_tick.c **** 
 325:rtos/uCOS-III/Source/os_tick.c ****     } else if (opt == OS_OPT_TIME_PERIODIC) {                   /* PERIODIC mode.                  
 326:rtos/uCOS-III/Source/os_tick.c ****         if (time == 0u) {
 327:rtos/uCOS-III/Source/os_tick.c ****            *p_err = OS_ERR_TIME_ZERO_DLY;                       /* Infinite frequency is invalid.  
 328:rtos/uCOS-III/Source/os_tick.c ****             return;
 329:rtos/uCOS-III/Source/os_tick.c ****         }
 330:rtos/uCOS-III/Source/os_tick.c **** 
 331:rtos/uCOS-III/Source/os_tick.c ****         tick_base = p_tcb->TickCtrPrev;
 332:rtos/uCOS-III/Source/os_tick.c **** 
 333:rtos/uCOS-III/Source/os_tick.c **** #if (OS_CFG_DYN_TICK_EN > 0u)                                   /* How far is our tick-base from th
 334:rtos/uCOS-III/Source/os_tick.c ****         base_offset = OSTickCtr + elapsed - tick_base;
 335:rtos/uCOS-III/Source/os_tick.c **** #else
 336:rtos/uCOS-III/Source/os_tick.c ****         base_offset = OSTickCtr - tick_base;
 337:rtos/uCOS-III/Source/os_tick.c **** #endif
 338:rtos/uCOS-III/Source/os_tick.c **** 
 339:rtos/uCOS-III/Source/os_tick.c ****         if (base_offset >= time) {                              /* If our task missed the last peri
 340:rtos/uCOS-III/Source/os_tick.c ****             tick_base += time * (base_offset / time);           /* ... tick_base up to the next one
 341:rtos/uCOS-III/Source/os_tick.c ****             if ((base_offset % time) != 0u) {
 342:rtos/uCOS-III/Source/os_tick.c ****                 tick_base += time;                              /* Account for rounding errors with
 343:rtos/uCOS-III/Source/os_tick.c ****             }
 344:rtos/uCOS-III/Source/os_tick.c **** 
 345:rtos/uCOS-III/Source/os_tick.c ****             p_tcb->TickCtrPrev = tick_base;                     /* Adjust the periodic tick base   
 346:rtos/uCOS-III/Source/os_tick.c ****         }
 347:rtos/uCOS-III/Source/os_tick.c **** 
 348:rtos/uCOS-III/Source/os_tick.c ****         p_tcb->TickCtrPrev += time;                             /* Update for the next time we perf
 349:rtos/uCOS-III/Source/os_tick.c **** 
 350:rtos/uCOS-III/Source/os_tick.c ****     } else {                                                    /* RELATIVE time delay mode        
 351:rtos/uCOS-III/Source/os_tick.c **** #if (OS_CFG_DYN_TICK_EN > 0u)                                   /* Our base is always the current s
 352:rtos/uCOS-III/Source/os_tick.c ****         tick_base = OSTickCtr + elapsed;
 353:rtos/uCOS-III/Source/os_tick.c **** #else
 354:rtos/uCOS-III/Source/os_tick.c ****         tick_base = OSTickCtr;
 355:rtos/uCOS-III/Source/os_tick.c **** #endif
 356:rtos/uCOS-III/Source/os_tick.c ****     }
 357:rtos/uCOS-III/Source/os_tick.c **** 
 358:rtos/uCOS-III/Source/os_tick.c ****     valid_dly = OS_TickListInsert(p_tcb, elapsed, tick_base, time);
 359:rtos/uCOS-III/Source/os_tick.c **** 
 360:rtos/uCOS-III/Source/os_tick.c ****     if (valid_dly == OS_TRUE) {
 361:rtos/uCOS-III/Source/os_tick.c ****         p_tcb->TaskState = OS_TASK_STATE_DLY;
 362:rtos/uCOS-III/Source/os_tick.c ****        *p_err            = OS_ERR_NONE;
 363:rtos/uCOS-III/Source/os_tick.c ****     } else {
 364:rtos/uCOS-III/Source/os_tick.c ****        *p_err = OS_ERR_TIME_ZERO_DLY;
 365:rtos/uCOS-III/Source/os_tick.c ****     }
 366:rtos/uCOS-III/Source/os_tick.c **** }
 367:rtos/uCOS-III/Source/os_tick.c **** 
 368:rtos/uCOS-III/Source/os_tick.c **** /*
 369:rtos/uCOS-III/Source/os_tick.c **** ***************************************************************************************************
 370:rtos/uCOS-III/Source/os_tick.c **** *                                         REMOVE A TASK FROM THE TICK LIST
 371:rtos/uCOS-III/Source/os_tick.c **** *
 372:rtos/uCOS-III/Source/os_tick.c **** * Description: This function is called to remove a task from the tick list
ARM GAS  /tmp/cc8jH5dy.s 			page 8


 373:rtos/uCOS-III/Source/os_tick.c **** *
 374:rtos/uCOS-III/Source/os_tick.c **** * Arguments  : p_tcb          Is a pointer to the OS_TCB to remove.
 375:rtos/uCOS-III/Source/os_tick.c **** *              -----
 376:rtos/uCOS-III/Source/os_tick.c **** *
 377:rtos/uCOS-III/Source/os_tick.c **** * Returns    : none
 378:rtos/uCOS-III/Source/os_tick.c **** *
 379:rtos/uCOS-III/Source/os_tick.c **** * Note(s)    : 1) This function is INTERNAL to uC/OS-III and your application MUST NOT call it.
 380:rtos/uCOS-III/Source/os_tick.c **** *
 381:rtos/uCOS-III/Source/os_tick.c **** *              2) This function is assumed to be called with interrupts disabled.
 382:rtos/uCOS-III/Source/os_tick.c **** ***************************************************************************************************
 383:rtos/uCOS-III/Source/os_tick.c **** */
 384:rtos/uCOS-III/Source/os_tick.c **** 
 385:rtos/uCOS-III/Source/os_tick.c **** void  OS_TickListRemove (OS_TCB  *p_tcb)
 386:rtos/uCOS-III/Source/os_tick.c **** {
 387:rtos/uCOS-III/Source/os_tick.c ****     OS_TCB        *p_tcb1;
 388:rtos/uCOS-III/Source/os_tick.c ****     OS_TCB        *p_tcb2;
 389:rtos/uCOS-III/Source/os_tick.c ****     OS_TICK_LIST  *p_list;
 390:rtos/uCOS-III/Source/os_tick.c **** #if (OS_CFG_DYN_TICK_EN > 0u)
 391:rtos/uCOS-III/Source/os_tick.c ****     OS_TICK        elapsed;
 392:rtos/uCOS-III/Source/os_tick.c **** #endif
 393:rtos/uCOS-III/Source/os_tick.c **** 
 394:rtos/uCOS-III/Source/os_tick.c **** #if (OS_CFG_DYN_TICK_EN > 0u)
 395:rtos/uCOS-III/Source/os_tick.c ****     elapsed = OS_DynTickGet();
 396:rtos/uCOS-III/Source/os_tick.c **** #endif
 397:rtos/uCOS-III/Source/os_tick.c **** 
 398:rtos/uCOS-III/Source/os_tick.c ****     p_tcb1 = p_tcb->TickPrevPtr;
 399:rtos/uCOS-III/Source/os_tick.c ****     p_tcb2 = p_tcb->TickNextPtr;
 400:rtos/uCOS-III/Source/os_tick.c ****     p_list = &OSTickList;
 401:rtos/uCOS-III/Source/os_tick.c ****     if (p_tcb1 == (OS_TCB *)0) {
 402:rtos/uCOS-III/Source/os_tick.c ****         if (p_tcb2 == (OS_TCB *)0) {                            /* Remove the ONLY entry in the lis
 403:rtos/uCOS-III/Source/os_tick.c ****             p_list->TCB_Ptr      = (OS_TCB *)0;
 404:rtos/uCOS-III/Source/os_tick.c **** #if (OS_CFG_DBG_EN > 0u)
 405:rtos/uCOS-III/Source/os_tick.c ****             p_list->NbrEntries   =           0u;
 406:rtos/uCOS-III/Source/os_tick.c **** #endif
 407:rtos/uCOS-III/Source/os_tick.c ****             p_tcb->TickRemain    =           0u;
 408:rtos/uCOS-III/Source/os_tick.c **** #if (OS_CFG_DYN_TICK_EN > 0u)
 409:rtos/uCOS-III/Source/os_tick.c ****             if (elapsed != 0u) {
 410:rtos/uCOS-III/Source/os_tick.c ****                 OSTickCtr       += elapsed;                     /* Keep track of time.             
 411:rtos/uCOS-III/Source/os_tick.c ****                 OS_TRACE_TICK_INCREMENT(OSTickCtr);
 412:rtos/uCOS-III/Source/os_tick.c ****             }
 413:rtos/uCOS-III/Source/os_tick.c ****             OSTickCtrStep        =           0u;
 414:rtos/uCOS-III/Source/os_tick.c ****             OS_DynTickSet(OSTickCtrStep);
 415:rtos/uCOS-III/Source/os_tick.c **** #endif
 416:rtos/uCOS-III/Source/os_tick.c ****         } else {
 417:rtos/uCOS-III/Source/os_tick.c ****             p_tcb2->TickPrevPtr  = (OS_TCB *)0;
 418:rtos/uCOS-III/Source/os_tick.c ****             p_tcb2->TickRemain  += p_tcb->TickRemain;           /* Add back the ticks to the delta 
 419:rtos/uCOS-III/Source/os_tick.c ****             p_list->TCB_Ptr      = p_tcb2;
 420:rtos/uCOS-III/Source/os_tick.c **** #if (OS_CFG_DBG_EN > 0u)
 421:rtos/uCOS-III/Source/os_tick.c ****             p_list->NbrEntries--;
 422:rtos/uCOS-III/Source/os_tick.c **** #endif
 423:rtos/uCOS-III/Source/os_tick.c **** 
 424:rtos/uCOS-III/Source/os_tick.c **** #if (OS_CFG_DYN_TICK_EN > 0u)
 425:rtos/uCOS-III/Source/os_tick.c ****             if (p_tcb2->TickRemain != p_tcb->TickRemain) {      /* Only set a new tick if tcb2 had 
 426:rtos/uCOS-III/Source/os_tick.c ****                 if (elapsed != 0u) {
 427:rtos/uCOS-III/Source/os_tick.c ****                     OSTickCtr          += elapsed;              /* Keep track of time.             
 428:rtos/uCOS-III/Source/os_tick.c ****                     OS_TRACE_TICK_INCREMENT(OSTickCtr);
 429:rtos/uCOS-III/Source/os_tick.c ****                     p_tcb2->TickRemain -= elapsed;              /* We must account for any time whi
ARM GAS  /tmp/cc8jH5dy.s 			page 9


 430:rtos/uCOS-III/Source/os_tick.c ****                 }
 431:rtos/uCOS-III/Source/os_tick.c ****                 OSTickCtrStep           = p_tcb2->TickRemain;
 432:rtos/uCOS-III/Source/os_tick.c ****                 OS_DynTickSet(OSTickCtrStep);
 433:rtos/uCOS-III/Source/os_tick.c ****             }
 434:rtos/uCOS-III/Source/os_tick.c **** #endif
 435:rtos/uCOS-III/Source/os_tick.c ****             p_tcb->TickNextPtr          = (OS_TCB *)0;
 436:rtos/uCOS-III/Source/os_tick.c ****             p_tcb->TickRemain           =           0u;
 437:rtos/uCOS-III/Source/os_tick.c ****         }
 438:rtos/uCOS-III/Source/os_tick.c ****     } else {
 439:rtos/uCOS-III/Source/os_tick.c ****         p_tcb1->TickNextPtr = p_tcb2;
 440:rtos/uCOS-III/Source/os_tick.c ****         if (p_tcb2 != (OS_TCB *)0) {
 441:rtos/uCOS-III/Source/os_tick.c ****             p_tcb2->TickPrevPtr  = p_tcb1;
 442:rtos/uCOS-III/Source/os_tick.c ****             p_tcb2->TickRemain  += p_tcb->TickRemain;            /* Add back the ticks to the delta
 443:rtos/uCOS-III/Source/os_tick.c ****         }
 444:rtos/uCOS-III/Source/os_tick.c ****         p_tcb->TickPrevPtr       = (OS_TCB *)0;
 445:rtos/uCOS-III/Source/os_tick.c **** #if (OS_CFG_DBG_EN > 0u)
 446:rtos/uCOS-III/Source/os_tick.c ****         p_list->NbrEntries--;
 447:rtos/uCOS-III/Source/os_tick.c **** #endif
 448:rtos/uCOS-III/Source/os_tick.c ****         p_tcb->TickNextPtr       = (OS_TCB *)0;
 449:rtos/uCOS-III/Source/os_tick.c ****         p_tcb->TickRemain        =           0u;
 450:rtos/uCOS-III/Source/os_tick.c ****     }
 451:rtos/uCOS-III/Source/os_tick.c **** }
 452:rtos/uCOS-III/Source/os_tick.c **** 
 453:rtos/uCOS-III/Source/os_tick.c **** /*
 454:rtos/uCOS-III/Source/os_tick.c **** ***************************************************************************************************
 455:rtos/uCOS-III/Source/os_tick.c **** *                                 UPDATE THE LIST OF TASKS DELAYED OR PENDING WITH TIMEOUT
 456:rtos/uCOS-III/Source/os_tick.c **** *
 457:rtos/uCOS-III/Source/os_tick.c **** * Description: This function updates the delta list which contains tasks that are delayed or pendin
 458:rtos/uCOS-III/Source/os_tick.c **** *
 459:rtos/uCOS-III/Source/os_tick.c **** * Arguments  : ticks          the number of ticks which have elapsed.
 460:rtos/uCOS-III/Source/os_tick.c **** *
 461:rtos/uCOS-III/Source/os_tick.c **** * Returns    : none
 462:rtos/uCOS-III/Source/os_tick.c **** *
 463:rtos/uCOS-III/Source/os_tick.c **** * Note(s)    : 1) This function is INTERNAL to uC/OS-III and your application MUST NOT call it.
 464:rtos/uCOS-III/Source/os_tick.c **** ***************************************************************************************************
 465:rtos/uCOS-III/Source/os_tick.c **** */
 466:rtos/uCOS-III/Source/os_tick.c **** 
 467:rtos/uCOS-III/Source/os_tick.c **** static  void  OS_TickListUpdate (OS_TICK  ticks)
 468:rtos/uCOS-III/Source/os_tick.c **** {
  29              		.loc 1 468 1 view -0
  30              		.cfi_startproc
  31              		@ args = 0, pretend = 0, frame = 0
  32              		@ frame_needed = 0, uses_anonymous_args = 0
  33              		.loc 1 468 1 is_stmt 0 view .LVU1
  34 0000 70B5     		push	{r4, r5, r6, lr}
  35              	.LCFI0:
  36              		.cfi_def_cfa_offset 16
  37              		.cfi_offset 4, -16
  38              		.cfi_offset 5, -12
  39              		.cfi_offset 6, -8
  40              		.cfi_offset 14, -4
 469:rtos/uCOS-III/Source/os_tick.c ****     OS_TCB        *p_tcb;
  41              		.loc 1 469 5 is_stmt 1 view .LVU2
 470:rtos/uCOS-III/Source/os_tick.c ****     OS_TICK_LIST  *p_list;
  42              		.loc 1 470 5 view .LVU3
 471:rtos/uCOS-III/Source/os_tick.c **** #if (OS_CFG_DBG_EN > 0u)
 472:rtos/uCOS-III/Source/os_tick.c ****     OS_OBJ_QTY     nbr_updated;
ARM GAS  /tmp/cc8jH5dy.s 			page 10


 473:rtos/uCOS-III/Source/os_tick.c **** #endif
 474:rtos/uCOS-III/Source/os_tick.c **** #if (OS_CFG_MUTEX_EN > 0u)
 475:rtos/uCOS-III/Source/os_tick.c ****     OS_TCB        *p_tcb_owner;
  43              		.loc 1 475 5 view .LVU4
 476:rtos/uCOS-III/Source/os_tick.c ****     OS_PRIO        prio_new;
  44              		.loc 1 476 5 view .LVU5
 477:rtos/uCOS-III/Source/os_tick.c **** #endif
 478:rtos/uCOS-III/Source/os_tick.c **** 
 479:rtos/uCOS-III/Source/os_tick.c **** 
 480:rtos/uCOS-III/Source/os_tick.c **** 
 481:rtos/uCOS-III/Source/os_tick.c **** #if (OS_CFG_DBG_EN > 0u)
 482:rtos/uCOS-III/Source/os_tick.c ****     nbr_updated = 0u;
 483:rtos/uCOS-III/Source/os_tick.c **** #endif
 484:rtos/uCOS-III/Source/os_tick.c ****     p_list      = &OSTickList;
  45              		.loc 1 484 5 view .LVU6
  46              	.LVL1:
 485:rtos/uCOS-III/Source/os_tick.c ****     p_tcb       = p_list->TCB_Ptr;
  47              		.loc 1 485 5 view .LVU7
  48              		.loc 1 485 17 is_stmt 0 view .LVU8
  49 0002 3B4B     		ldr	r3, .L21
  50 0004 1C68     		ldr	r4, [r3]
  51              	.LVL2:
 486:rtos/uCOS-III/Source/os_tick.c ****     if (p_tcb != (OS_TCB *)0) {
  52              		.loc 1 486 5 is_stmt 1 view .LVU9
  53              		.loc 1 486 8 is_stmt 0 view .LVU10
  54 0006 002C     		cmp	r4, #0
  55 0008 70D0     		beq	.L1
  56 000a 0546     		mov	r5, r0
 487:rtos/uCOS-III/Source/os_tick.c ****         if (p_tcb->TickRemain <= ticks) {
  57              		.loc 1 487 9 is_stmt 1 view .LVU11
  58              		.loc 1 487 18 is_stmt 0 view .LVU12
  59 000c 636C     		ldr	r3, [r4, #68]
  60              		.loc 1 487 12 view .LVU13
  61 000e 8342     		cmp	r3, r0
  62 0010 03D8     		bhi	.L3
 488:rtos/uCOS-III/Source/os_tick.c ****             ticks              = ticks - p_tcb->TickRemain;
  63              		.loc 1 488 13 is_stmt 1 view .LVU14
  64              		.loc 1 488 32 is_stmt 0 view .LVU15
  65 0012 C51A     		subs	r5, r0, r3
  66              	.LVL3:
 489:rtos/uCOS-III/Source/os_tick.c ****             p_tcb->TickRemain  = 0u;
  67              		.loc 1 489 13 is_stmt 1 view .LVU16
  68              		.loc 1 489 32 is_stmt 0 view .LVU17
  69 0014 0023     		movs	r3, #0
  70 0016 6364     		str	r3, [r4, #68]
  71 0018 15E0     		b	.L15
  72              	.LVL4:
  73              	.L3:
 490:rtos/uCOS-III/Source/os_tick.c ****         } else {
 491:rtos/uCOS-III/Source/os_tick.c ****             p_tcb->TickRemain -= ticks;
  74              		.loc 1 491 13 is_stmt 1 view .LVU18
  75              		.loc 1 491 31 is_stmt 0 view .LVU19
  76 001a 1B1A     		subs	r3, r3, r0
  77 001c 6364     		str	r3, [r4, #68]
  78 001e 12E0     		b	.L15
  79              	.LVL5:
  80              	.L5:
ARM GAS  /tmp/cc8jH5dy.s 			page 11


 492:rtos/uCOS-III/Source/os_tick.c ****         }
 493:rtos/uCOS-III/Source/os_tick.c **** 
 494:rtos/uCOS-III/Source/os_tick.c ****         while (p_tcb->TickRemain == 0u) {
 495:rtos/uCOS-III/Source/os_tick.c **** #if (OS_CFG_DBG_EN > 0u)
 496:rtos/uCOS-III/Source/os_tick.c ****             nbr_updated++;
 497:rtos/uCOS-III/Source/os_tick.c **** #endif
 498:rtos/uCOS-III/Source/os_tick.c **** 
 499:rtos/uCOS-III/Source/os_tick.c ****             switch (p_tcb->TaskState) {
 500:rtos/uCOS-III/Source/os_tick.c ****                 case OS_TASK_STATE_DLY:
 501:rtos/uCOS-III/Source/os_tick.c ****                      p_tcb->TaskState = OS_TASK_STATE_RDY;
  81              		.loc 1 501 22 is_stmt 1 view .LVU20
  82              		.loc 1 501 39 is_stmt 0 view .LVU21
  83 0020 0023     		movs	r3, #0
  84 0022 84F82E30 		strb	r3, [r4, #46]
 502:rtos/uCOS-III/Source/os_tick.c ****                      OS_RdyListInsert(p_tcb);                            /* Insert the task in the 
  85              		.loc 1 502 22 is_stmt 1 view .LVU22
  86 0026 2046     		mov	r0, r4
  87 0028 FFF7FEFF 		bl	OS_RdyListInsert
  88              	.LVL6:
 503:rtos/uCOS-III/Source/os_tick.c ****                      break;
  89              		.loc 1 503 22 view .LVU23
  90              	.L8:
 504:rtos/uCOS-III/Source/os_tick.c **** 
 505:rtos/uCOS-III/Source/os_tick.c ****                 case OS_TASK_STATE_DLY_SUSPENDED:
 506:rtos/uCOS-III/Source/os_tick.c ****                      p_tcb->TaskState = OS_TASK_STATE_SUSPENDED;
 507:rtos/uCOS-III/Source/os_tick.c ****                      break;
 508:rtos/uCOS-III/Source/os_tick.c **** 
 509:rtos/uCOS-III/Source/os_tick.c ****                 default:
 510:rtos/uCOS-III/Source/os_tick.c **** #if (OS_CFG_MUTEX_EN > 0u)
 511:rtos/uCOS-III/Source/os_tick.c ****                      p_tcb_owner = (OS_TCB *)0;
 512:rtos/uCOS-III/Source/os_tick.c ****                      if (p_tcb->PendOn == OS_TASK_PEND_ON_MUTEX) {
 513:rtos/uCOS-III/Source/os_tick.c ****                          p_tcb_owner = (OS_TCB *)((OS_MUTEX *)((void *)p_tcb->PendObjPtr))->OwnerTC
 514:rtos/uCOS-III/Source/os_tick.c ****                      }
 515:rtos/uCOS-III/Source/os_tick.c **** #endif
 516:rtos/uCOS-III/Source/os_tick.c **** 
 517:rtos/uCOS-III/Source/os_tick.c **** #if (OS_MSG_EN > 0u)
 518:rtos/uCOS-III/Source/os_tick.c ****                      p_tcb->MsgPtr  = (void *)0;
 519:rtos/uCOS-III/Source/os_tick.c ****                      p_tcb->MsgSize = 0u;
 520:rtos/uCOS-III/Source/os_tick.c **** #endif
 521:rtos/uCOS-III/Source/os_tick.c **** #if (OS_CFG_TS_EN > 0u)
 522:rtos/uCOS-III/Source/os_tick.c ****                      p_tcb->TS      = OS_TS_GET();
 523:rtos/uCOS-III/Source/os_tick.c **** #endif
 524:rtos/uCOS-III/Source/os_tick.c ****                      OS_PendListRemove(p_tcb);                           /* Remove task from pend l
 525:rtos/uCOS-III/Source/os_tick.c **** 
 526:rtos/uCOS-III/Source/os_tick.c ****                      switch (p_tcb->TaskState) {
 527:rtos/uCOS-III/Source/os_tick.c ****                          case OS_TASK_STATE_PEND_TIMEOUT:
 528:rtos/uCOS-III/Source/os_tick.c ****                               OS_RdyListInsert(p_tcb);                   /* Insert the task in the 
 529:rtos/uCOS-III/Source/os_tick.c ****                               p_tcb->TaskState  = OS_TASK_STATE_RDY;
 530:rtos/uCOS-III/Source/os_tick.c ****                               break;
 531:rtos/uCOS-III/Source/os_tick.c **** 
 532:rtos/uCOS-III/Source/os_tick.c ****                          case OS_TASK_STATE_PEND_TIMEOUT_SUSPENDED:
 533:rtos/uCOS-III/Source/os_tick.c ****                               p_tcb->TaskState  = OS_TASK_STATE_SUSPENDED;
 534:rtos/uCOS-III/Source/os_tick.c ****                               break;
 535:rtos/uCOS-III/Source/os_tick.c **** 
 536:rtos/uCOS-III/Source/os_tick.c ****                          default:
 537:rtos/uCOS-III/Source/os_tick.c ****                               break;
 538:rtos/uCOS-III/Source/os_tick.c ****                      }
ARM GAS  /tmp/cc8jH5dy.s 			page 12


 539:rtos/uCOS-III/Source/os_tick.c ****                      p_tcb->PendStatus = OS_STATUS_PEND_TIMEOUT;         /* Indicate pend timed out
 540:rtos/uCOS-III/Source/os_tick.c ****                      p_tcb->PendOn     = OS_TASK_PEND_ON_NOTHING;        /* Indicate no longer pend
 541:rtos/uCOS-III/Source/os_tick.c **** 
 542:rtos/uCOS-III/Source/os_tick.c **** #if (OS_CFG_MUTEX_EN > 0u)
 543:rtos/uCOS-III/Source/os_tick.c ****                      if (p_tcb_owner != (OS_TCB *)0) {
 544:rtos/uCOS-III/Source/os_tick.c ****                          if ((p_tcb_owner->Prio != p_tcb_owner->BasePrio) &&
 545:rtos/uCOS-III/Source/os_tick.c ****                              (p_tcb_owner->Prio == p_tcb->Prio)) {       /* Has the owner inherited
 546:rtos/uCOS-III/Source/os_tick.c ****                              prio_new = OS_MutexGrpPrioFindHighest(p_tcb_owner);
 547:rtos/uCOS-III/Source/os_tick.c ****                              prio_new = (prio_new > p_tcb_owner->BasePrio) ? p_tcb_owner->BasePrio 
 548:rtos/uCOS-III/Source/os_tick.c ****                              if (prio_new != p_tcb_owner->Prio) {
 549:rtos/uCOS-III/Source/os_tick.c ****                                  OS_TaskChangePrio(p_tcb_owner, prio_new);
 550:rtos/uCOS-III/Source/os_tick.c ****                                  OS_TRACE_MUTEX_TASK_PRIO_DISINHERIT(p_tcb_owner, p_tcb_owner->Prio
 551:rtos/uCOS-III/Source/os_tick.c ****                              }
 552:rtos/uCOS-III/Source/os_tick.c ****                          }
 553:rtos/uCOS-III/Source/os_tick.c ****                      }
 554:rtos/uCOS-III/Source/os_tick.c **** #endif
 555:rtos/uCOS-III/Source/os_tick.c ****                      break;
 556:rtos/uCOS-III/Source/os_tick.c ****             }
 557:rtos/uCOS-III/Source/os_tick.c **** 
 558:rtos/uCOS-III/Source/os_tick.c ****             p_list->TCB_Ptr = p_tcb->TickNextPtr;
  91              		.loc 1 558 13 view .LVU24
  92              		.loc 1 558 36 is_stmt 0 view .LVU25
  93 002c 6469     		ldr	r4, [r4, #20]
  94              	.LVL7:
  95              		.loc 1 558 29 view .LVU26
  96 002e 304B     		ldr	r3, .L21
  97 0030 1C60     		str	r4, [r3]
 559:rtos/uCOS-III/Source/os_tick.c ****             p_tcb           = p_list->TCB_Ptr;                           /* Get 'p_tcb' again for l
  98              		.loc 1 559 13 is_stmt 1 view .LVU27
  99              	.LVL8:
 560:rtos/uCOS-III/Source/os_tick.c ****             if (p_tcb == (OS_TCB *)0) {
 100              		.loc 1 560 13 view .LVU28
 101              		.loc 1 560 16 is_stmt 0 view .LVU29
 102 0032 002C     		cmp	r4, #0
 103 0034 5AD0     		beq	.L1
 561:rtos/uCOS-III/Source/os_tick.c **** #if (OS_CFG_DBG_EN > 0u)
 562:rtos/uCOS-III/Source/os_tick.c ****                 p_list->NbrEntries = 0u;
 563:rtos/uCOS-III/Source/os_tick.c **** #endif
 564:rtos/uCOS-III/Source/os_tick.c ****                 break;
 565:rtos/uCOS-III/Source/os_tick.c ****             } else {
 566:rtos/uCOS-III/Source/os_tick.c **** #if (OS_CFG_DBG_EN > 0u)
 567:rtos/uCOS-III/Source/os_tick.c ****                 p_list->NbrEntries--;
 568:rtos/uCOS-III/Source/os_tick.c **** #endif
 569:rtos/uCOS-III/Source/os_tick.c ****                 p_tcb->TickPrevPtr = (OS_TCB *)0;
 104              		.loc 1 569 17 is_stmt 1 view .LVU30
 105              		.loc 1 569 36 is_stmt 0 view .LVU31
 106 0036 0023     		movs	r3, #0
 107 0038 A361     		str	r3, [r4, #24]
 570:rtos/uCOS-III/Source/os_tick.c ****                 if (p_tcb->TickRemain <= ticks) {
 108              		.loc 1 570 17 is_stmt 1 view .LVU32
 109              		.loc 1 570 26 is_stmt 0 view .LVU33
 110 003a 636C     		ldr	r3, [r4, #68]
 111              		.loc 1 570 20 view .LVU34
 112 003c AB42     		cmp	r3, r5
 113 003e 52D8     		bhi	.L13
 571:rtos/uCOS-III/Source/os_tick.c ****                     ticks              = ticks - p_tcb->TickRemain;
 114              		.loc 1 571 21 is_stmt 1 view .LVU35
ARM GAS  /tmp/cc8jH5dy.s 			page 13


 115              		.loc 1 571 40 is_stmt 0 view .LVU36
 116 0040 ED1A     		subs	r5, r5, r3
 117              	.LVL9:
 572:rtos/uCOS-III/Source/os_tick.c ****                     p_tcb->TickRemain  = 0u;
 118              		.loc 1 572 21 is_stmt 1 view .LVU37
 119              		.loc 1 572 40 is_stmt 0 view .LVU38
 120 0042 0023     		movs	r3, #0
 121 0044 6364     		str	r3, [r4, #68]
 122              	.L15:
 494:rtos/uCOS-III/Source/os_tick.c **** #if (OS_CFG_DBG_EN > 0u)
 123              		.loc 1 494 15 is_stmt 1 view .LVU39
 494:rtos/uCOS-III/Source/os_tick.c **** #if (OS_CFG_DBG_EN > 0u)
 124              		.loc 1 494 21 is_stmt 0 view .LVU40
 125 0046 636C     		ldr	r3, [r4, #68]
 494:rtos/uCOS-III/Source/os_tick.c **** #if (OS_CFG_DBG_EN > 0u)
 126              		.loc 1 494 15 view .LVU41
 127 0048 002B     		cmp	r3, #0
 128 004a 4FD1     		bne	.L1
 499:rtos/uCOS-III/Source/os_tick.c ****                 case OS_TASK_STATE_DLY:
 129              		.loc 1 499 13 is_stmt 1 view .LVU42
 499:rtos/uCOS-III/Source/os_tick.c ****                 case OS_TASK_STATE_DLY:
 130              		.loc 1 499 26 is_stmt 0 view .LVU43
 131 004c 94F82E30 		ldrb	r3, [r4, #46]	@ zero_extendqisi2
 499:rtos/uCOS-III/Source/os_tick.c ****                 case OS_TASK_STATE_DLY:
 132              		.loc 1 499 13 view .LVU44
 133 0050 012B     		cmp	r3, #1
 134 0052 E5D0     		beq	.L5
 135 0054 052B     		cmp	r3, #5
 136 0056 34D0     		beq	.L6
 511:rtos/uCOS-III/Source/os_tick.c ****                      if (p_tcb->PendOn == OS_TASK_PEND_ON_MUTEX) {
 137              		.loc 1 511 22 is_stmt 1 view .LVU45
 138              	.LVL10:
 512:rtos/uCOS-III/Source/os_tick.c ****                          p_tcb_owner = (OS_TCB *)((OS_MUTEX *)((void *)p_tcb->PendObjPtr))->OwnerTC
 139              		.loc 1 512 22 view .LVU46
 512:rtos/uCOS-III/Source/os_tick.c ****                          p_tcb_owner = (OS_TCB *)((OS_MUTEX *)((void *)p_tcb->PendObjPtr))->OwnerTC
 140              		.loc 1 512 31 is_stmt 0 view .LVU47
 141 0058 94F82C30 		ldrb	r3, [r4, #44]	@ zero_extendqisi2
 512:rtos/uCOS-III/Source/os_tick.c ****                          p_tcb_owner = (OS_TCB *)((OS_MUTEX *)((void *)p_tcb->PendObjPtr))->OwnerTC
 142              		.loc 1 512 25 view .LVU48
 143 005c 042B     		cmp	r3, #4
 144 005e 34D0     		beq	.L20
 511:rtos/uCOS-III/Source/os_tick.c ****                      if (p_tcb->PendOn == OS_TASK_PEND_ON_MUTEX) {
 145              		.loc 1 511 34 view .LVU49
 146 0060 0026     		movs	r6, #0
 147              	.LVL11:
 148              	.L9:
 518:rtos/uCOS-III/Source/os_tick.c ****                      p_tcb->MsgSize = 0u;
 149              		.loc 1 518 22 is_stmt 1 view .LVU50
 518:rtos/uCOS-III/Source/os_tick.c ****                      p_tcb->MsgSize = 0u;
 150              		.loc 1 518 37 is_stmt 0 view .LVU51
 151 0062 0023     		movs	r3, #0
 152 0064 6365     		str	r3, [r4, #84]
 519:rtos/uCOS-III/Source/os_tick.c **** #endif
 153              		.loc 1 519 22 is_stmt 1 view .LVU52
 519:rtos/uCOS-III/Source/os_tick.c **** #endif
 154              		.loc 1 519 37 is_stmt 0 view .LVU53
 155 0066 A4F85830 		strh	r3, [r4, #88]	@ movhi
ARM GAS  /tmp/cc8jH5dy.s 			page 14


 524:rtos/uCOS-III/Source/os_tick.c **** 
 156              		.loc 1 524 22 is_stmt 1 view .LVU54
 157 006a 2046     		mov	r0, r4
 158 006c FFF7FEFF 		bl	OS_PendListRemove
 159              	.LVL12:
 526:rtos/uCOS-III/Source/os_tick.c ****                          case OS_TASK_STATE_PEND_TIMEOUT:
 160              		.loc 1 526 22 view .LVU55
 526:rtos/uCOS-III/Source/os_tick.c ****                          case OS_TASK_STATE_PEND_TIMEOUT:
 161              		.loc 1 526 35 is_stmt 0 view .LVU56
 162 0070 94F82E30 		ldrb	r3, [r4, #46]	@ zero_extendqisi2
 163 0074 032B     		cmp	r3, #3
 164 0076 2BD0     		beq	.L10
 165 0078 072B     		cmp	r3, #7
 166 007a 30D0     		beq	.L11
 167              	.L12:
 539:rtos/uCOS-III/Source/os_tick.c ****                      p_tcb->PendOn     = OS_TASK_PEND_ON_NOTHING;        /* Indicate no longer pend
 168              		.loc 1 539 22 is_stmt 1 view .LVU57
 539:rtos/uCOS-III/Source/os_tick.c ****                      p_tcb->PendOn     = OS_TASK_PEND_ON_NOTHING;        /* Indicate no longer pend
 169              		.loc 1 539 40 is_stmt 0 view .LVU58
 170 007c 0323     		movs	r3, #3
 171 007e 84F82D30 		strb	r3, [r4, #45]
 540:rtos/uCOS-III/Source/os_tick.c **** 
 172              		.loc 1 540 22 is_stmt 1 view .LVU59
 540:rtos/uCOS-III/Source/os_tick.c **** 
 173              		.loc 1 540 40 is_stmt 0 view .LVU60
 174 0082 0023     		movs	r3, #0
 175 0084 84F82C30 		strb	r3, [r4, #44]
 543:rtos/uCOS-III/Source/os_tick.c ****                          if ((p_tcb_owner->Prio != p_tcb_owner->BasePrio) &&
 176              		.loc 1 543 22 is_stmt 1 view .LVU61
 543:rtos/uCOS-III/Source/os_tick.c ****                          if ((p_tcb_owner->Prio != p_tcb_owner->BasePrio) &&
 177              		.loc 1 543 25 is_stmt 0 view .LVU62
 178 0088 002E     		cmp	r6, #0
 179 008a CFD0     		beq	.L8
 544:rtos/uCOS-III/Source/os_tick.c ****                              (p_tcb_owner->Prio == p_tcb->Prio)) {       /* Has the owner inherited
 180              		.loc 1 544 26 is_stmt 1 view .LVU63
 544:rtos/uCOS-III/Source/os_tick.c ****                              (p_tcb_owner->Prio == p_tcb->Prio)) {       /* Has the owner inherited
 181              		.loc 1 544 42 is_stmt 0 view .LVU64
 182 008c 96F82F30 		ldrb	r3, [r6, #47]	@ zero_extendqisi2
 544:rtos/uCOS-III/Source/os_tick.c ****                              (p_tcb_owner->Prio == p_tcb->Prio)) {       /* Has the owner inherited
 183              		.loc 1 544 63 view .LVU65
 184 0090 96F83020 		ldrb	r2, [r6, #48]	@ zero_extendqisi2
 544:rtos/uCOS-III/Source/os_tick.c ****                              (p_tcb_owner->Prio == p_tcb->Prio)) {       /* Has the owner inherited
 185              		.loc 1 544 29 view .LVU66
 186 0094 9342     		cmp	r3, r2
 187 0096 C9D0     		beq	.L8
 545:rtos/uCOS-III/Source/os_tick.c ****                              prio_new = OS_MutexGrpPrioFindHighest(p_tcb_owner);
 188              		.loc 1 545 57 discriminator 1 view .LVU67
 189 0098 94F82F20 		ldrb	r2, [r4, #47]	@ zero_extendqisi2
 544:rtos/uCOS-III/Source/os_tick.c ****                              (p_tcb_owner->Prio == p_tcb->Prio)) {       /* Has the owner inherited
 190              		.loc 1 544 75 discriminator 1 view .LVU68
 191 009c 9342     		cmp	r3, r2
 192 009e C5D1     		bne	.L8
 546:rtos/uCOS-III/Source/os_tick.c ****                              prio_new = (prio_new > p_tcb_owner->BasePrio) ? p_tcb_owner->BasePrio 
 193              		.loc 1 546 30 is_stmt 1 view .LVU69
 546:rtos/uCOS-III/Source/os_tick.c ****                              prio_new = (prio_new > p_tcb_owner->BasePrio) ? p_tcb_owner->BasePrio 
 194              		.loc 1 546 41 is_stmt 0 view .LVU70
 195 00a0 3046     		mov	r0, r6
ARM GAS  /tmp/cc8jH5dy.s 			page 15


 196 00a2 FFF7FEFF 		bl	OS_MutexGrpPrioFindHighest
 197              	.LVL13:
 547:rtos/uCOS-III/Source/os_tick.c ****                              if (prio_new != p_tcb_owner->Prio) {
 198              		.loc 1 547 30 is_stmt 1 view .LVU71
 547:rtos/uCOS-III/Source/os_tick.c ****                              if (prio_new != p_tcb_owner->Prio) {
 199              		.loc 1 547 64 is_stmt 0 view .LVU72
 200 00a6 96F83010 		ldrb	r1, [r6, #48]	@ zero_extendqisi2
 547:rtos/uCOS-III/Source/os_tick.c ****                              if (prio_new != p_tcb_owner->Prio) {
 201              		.loc 1 547 39 view .LVU73
 202 00aa 8142     		cmp	r1, r0
 203 00ac 28BF     		it	cs
 204 00ae 0146     		movcs	r1, r0
 205 00b0 C9B2     		uxtb	r1, r1
 206              	.LVL14:
 548:rtos/uCOS-III/Source/os_tick.c ****                                  OS_TaskChangePrio(p_tcb_owner, prio_new);
 207              		.loc 1 548 30 is_stmt 1 view .LVU74
 548:rtos/uCOS-III/Source/os_tick.c ****                                  OS_TaskChangePrio(p_tcb_owner, prio_new);
 208              		.loc 1 548 57 is_stmt 0 view .LVU75
 209 00b2 96F82F30 		ldrb	r3, [r6, #47]	@ zero_extendqisi2
 548:rtos/uCOS-III/Source/os_tick.c ****                                  OS_TaskChangePrio(p_tcb_owner, prio_new);
 210              		.loc 1 548 33 view .LVU76
 211 00b6 8B42     		cmp	r3, r1
 212 00b8 B8D0     		beq	.L8
 549:rtos/uCOS-III/Source/os_tick.c ****                                  OS_TRACE_MUTEX_TASK_PRIO_DISINHERIT(p_tcb_owner, p_tcb_owner->Prio
 213              		.loc 1 549 34 is_stmt 1 view .LVU77
 214 00ba 3046     		mov	r0, r6
 215 00bc FFF7FEFF 		bl	OS_TaskChangePrio
 216              	.LVL15:
 549:rtos/uCOS-III/Source/os_tick.c ****                                  OS_TRACE_MUTEX_TASK_PRIO_DISINHERIT(p_tcb_owner, p_tcb_owner->Prio
 217              		.loc 1 549 34 is_stmt 0 view .LVU78
 218 00c0 B4E7     		b	.L8
 219              	.LVL16:
 220              	.L6:
 506:rtos/uCOS-III/Source/os_tick.c ****                      break;
 221              		.loc 1 506 22 is_stmt 1 view .LVU79
 506:rtos/uCOS-III/Source/os_tick.c ****                      break;
 222              		.loc 1 506 39 is_stmt 0 view .LVU80
 223 00c2 0423     		movs	r3, #4
 224 00c4 84F82E30 		strb	r3, [r4, #46]
 507:rtos/uCOS-III/Source/os_tick.c **** 
 225              		.loc 1 507 22 is_stmt 1 view .LVU81
 226 00c8 B0E7     		b	.L8
 227              	.LVL17:
 228              	.L20:
 513:rtos/uCOS-III/Source/os_tick.c ****                      }
 229              		.loc 1 513 26 view .LVU82
 513:rtos/uCOS-III/Source/os_tick.c ****                      }
 230              		.loc 1 513 77 is_stmt 0 view .LVU83
 231 00ca A36A     		ldr	r3, [r4, #40]
 513:rtos/uCOS-III/Source/os_tick.c ****                      }
 232              		.loc 1 513 38 view .LVU84
 233 00cc 1E69     		ldr	r6, [r3, #16]
 234              	.LVL18:
 513:rtos/uCOS-III/Source/os_tick.c ****                      }
 235              		.loc 1 513 38 view .LVU85
 236 00ce C8E7     		b	.L9
 237              	.L10:
ARM GAS  /tmp/cc8jH5dy.s 			page 16


 528:rtos/uCOS-III/Source/os_tick.c ****                               p_tcb->TaskState  = OS_TASK_STATE_RDY;
 238              		.loc 1 528 31 is_stmt 1 view .LVU86
 239 00d0 2046     		mov	r0, r4
 240 00d2 FFF7FEFF 		bl	OS_RdyListInsert
 241              	.LVL19:
 529:rtos/uCOS-III/Source/os_tick.c ****                               break;
 242              		.loc 1 529 31 view .LVU87
 529:rtos/uCOS-III/Source/os_tick.c ****                               break;
 243              		.loc 1 529 49 is_stmt 0 view .LVU88
 244 00d6 0023     		movs	r3, #0
 245 00d8 84F82E30 		strb	r3, [r4, #46]
 530:rtos/uCOS-III/Source/os_tick.c **** 
 246              		.loc 1 530 31 is_stmt 1 view .LVU89
 247 00dc CEE7     		b	.L12
 248              	.L11:
 533:rtos/uCOS-III/Source/os_tick.c ****                               break;
 249              		.loc 1 533 31 view .LVU90
 533:rtos/uCOS-III/Source/os_tick.c ****                               break;
 250              		.loc 1 533 49 is_stmt 0 view .LVU91
 251 00de 0423     		movs	r3, #4
 252 00e0 84F82E30 		strb	r3, [r4, #46]
 534:rtos/uCOS-III/Source/os_tick.c **** 
 253              		.loc 1 534 31 is_stmt 1 view .LVU92
 254 00e4 CAE7     		b	.L12
 255              	.LVL20:
 256              	.L13:
 573:rtos/uCOS-III/Source/os_tick.c ****                 } else {
 574:rtos/uCOS-III/Source/os_tick.c ****                     p_tcb->TickRemain -= ticks;
 257              		.loc 1 574 21 view .LVU93
 258              		.loc 1 574 39 is_stmt 0 view .LVU94
 259 00e6 5B1B     		subs	r3, r3, r5
 260 00e8 6364     		str	r3, [r4, #68]
 261 00ea ACE7     		b	.L15
 262              	.LVL21:
 263              	.L1:
 575:rtos/uCOS-III/Source/os_tick.c ****                 }
 576:rtos/uCOS-III/Source/os_tick.c ****             }
 577:rtos/uCOS-III/Source/os_tick.c ****         }
 578:rtos/uCOS-III/Source/os_tick.c ****     }
 579:rtos/uCOS-III/Source/os_tick.c **** #if (OS_CFG_DBG_EN > 0u)
 580:rtos/uCOS-III/Source/os_tick.c ****     p_list->NbrUpdated = nbr_updated;
 581:rtos/uCOS-III/Source/os_tick.c **** #endif
 582:rtos/uCOS-III/Source/os_tick.c **** }
 264              		.loc 1 582 1 view .LVU95
 265 00ec 70BD     		pop	{r4, r5, r6, pc}
 266              	.LVL22:
 267              	.L22:
 268              		.loc 1 582 1 view .LVU96
 269 00ee 00BF     		.align	2
 270              	.L21:
 271 00f0 00000000 		.word	OSTickList
 272              		.cfi_endproc
 273              	.LFE5:
 275              		.section	.text.OS_TickInit,"ax",%progbits
 276              		.align	1
 277              		.global	OS_TickInit
 278              		.syntax unified
ARM GAS  /tmp/cc8jH5dy.s 			page 17


 279              		.thumb
 280              		.thumb_func
 281              		.fpu fpv4-sp-d16
 283              	OS_TickInit:
 284              	.LVL23:
 285              	.LFB0:
  69:rtos/uCOS-III/Source/os_tick.c ****     *p_err                = OS_ERR_NONE;
 286              		.loc 1 69 1 is_stmt 1 view -0
 287              		.cfi_startproc
 288              		@ args = 0, pretend = 0, frame = 0
 289              		@ frame_needed = 0, uses_anonymous_args = 0
 290              		@ link register save eliminated.
  70:rtos/uCOS-III/Source/os_tick.c **** 
 291              		.loc 1 70 5 view .LVU98
  70:rtos/uCOS-III/Source/os_tick.c **** 
 292              		.loc 1 70 27 is_stmt 0 view .LVU99
 293 0000 0023     		movs	r3, #0
 294 0002 0380     		strh	r3, [r0]	@ movhi
  72:rtos/uCOS-III/Source/os_tick.c **** 
 295              		.loc 1 72 5 is_stmt 1 view .LVU100
  72:rtos/uCOS-III/Source/os_tick.c **** 
 296              		.loc 1 72 27 is_stmt 0 view .LVU101
 297 0004 024A     		ldr	r2, .L24
 298 0006 1360     		str	r3, [r2]
  78:rtos/uCOS-III/Source/os_tick.c **** 
 299              		.loc 1 78 5 is_stmt 1 view .LVU102
  78:rtos/uCOS-III/Source/os_tick.c **** 
 300              		.loc 1 78 27 is_stmt 0 view .LVU103
 301 0008 024A     		ldr	r2, .L24+4
 302 000a 1360     		str	r3, [r2]
  84:rtos/uCOS-III/Source/os_tick.c **** 
 303              		.loc 1 84 1 view .LVU104
 304 000c 7047     		bx	lr
 305              	.L25:
 306 000e 00BF     		.align	2
 307              	.L24:
 308 0010 00000000 		.word	OSTickCtr
 309 0014 00000000 		.word	OSTickList
 310              		.cfi_endproc
 311              	.LFE0:
 313              		.section	.text.OS_TickUpdate,"ax",%progbits
 314              		.align	1
 315              		.global	OS_TickUpdate
 316              		.syntax unified
 317              		.thumb
 318              		.thumb_func
 319              		.fpu fpv4-sp-d16
 321              	OS_TickUpdate:
 322              	.LVL24:
 323              	.LFB1:
 103:rtos/uCOS-III/Source/os_tick.c **** #if (OS_CFG_TS_EN > 0u)
 324              		.loc 1 103 1 is_stmt 1 view -0
 325              		.cfi_startproc
 326              		@ args = 0, pretend = 0, frame = 0
 327              		@ frame_needed = 0, uses_anonymous_args = 0
 103:rtos/uCOS-III/Source/os_tick.c **** #if (OS_CFG_TS_EN > 0u)
 328              		.loc 1 103 1 is_stmt 0 view .LVU106
ARM GAS  /tmp/cc8jH5dy.s 			page 18


 329 0000 38B5     		push	{r3, r4, r5, lr}
 330              	.LCFI1:
 331              		.cfi_def_cfa_offset 16
 332              		.cfi_offset 3, -16
 333              		.cfi_offset 4, -12
 334              		.cfi_offset 5, -8
 335              		.cfi_offset 14, -4
 336 0002 0446     		mov	r4, r0
 107:rtos/uCOS-III/Source/os_tick.c **** 
 337              		.loc 1 107 5 is_stmt 1 view .LVU107
 338              	.LVL25:
 110:rtos/uCOS-III/Source/os_tick.c **** 
 339              		.loc 1 110 5 view .LVU108
 110:rtos/uCOS-III/Source/os_tick.c **** 
 340              		.loc 1 110 5 view .LVU109
 110:rtos/uCOS-III/Source/os_tick.c **** 
 341              		.loc 1 110 5 view .LVU110
 342 0004 4020     		movs	r0, #64
 343              	.LVL26:
 110:rtos/uCOS-III/Source/os_tick.c **** 
 344              		.loc 1 110 5 is_stmt 0 view .LVU111
 345 0006 FFF7FEFF 		bl	CPU_SR_Save
 346              	.LVL27:
 347 000a 0546     		mov	r5, r0
 348              	.LVL28:
 110:rtos/uCOS-III/Source/os_tick.c **** 
 349              		.loc 1 110 5 is_stmt 1 view .LVU112
 110:rtos/uCOS-III/Source/os_tick.c **** 
 350              		.loc 1 110 5 view .LVU113
 112:rtos/uCOS-III/Source/os_tick.c **** 
 351              		.loc 1 112 5 view .LVU114
 112:rtos/uCOS-III/Source/os_tick.c **** 
 352              		.loc 1 112 15 is_stmt 0 view .LVU115
 353 000c 054A     		ldr	r2, .L28
 354 000e 1368     		ldr	r3, [r2]
 355 0010 2344     		add	r3, r3, r4
 356 0012 1360     		str	r3, [r2]
 114:rtos/uCOS-III/Source/os_tick.c **** 
 357              		.loc 1 114 39 is_stmt 1 view .LVU116
 124:rtos/uCOS-III/Source/os_tick.c **** #endif
 358              		.loc 1 124 5 view .LVU117
 359 0014 2046     		mov	r0, r4
 360              	.LVL29:
 124:rtos/uCOS-III/Source/os_tick.c **** #endif
 361              		.loc 1 124 5 is_stmt 0 view .LVU118
 362 0016 FFF7FEFF 		bl	OS_TickListUpdate
 363              	.LVL30:
 136:rtos/uCOS-III/Source/os_tick.c **** }
 364              		.loc 1 136 5 is_stmt 1 view .LVU119
 136:rtos/uCOS-III/Source/os_tick.c **** }
 365              		.loc 1 136 5 view .LVU120
 136:rtos/uCOS-III/Source/os_tick.c **** }
 366              		.loc 1 136 5 view .LVU121
 367 001a 2846     		mov	r0, r5
 368 001c FFF7FEFF 		bl	CPU_SR_Restore
 369              	.LVL31:
 136:rtos/uCOS-III/Source/os_tick.c **** }
ARM GAS  /tmp/cc8jH5dy.s 			page 19


 370              		.loc 1 136 5 view .LVU122
 136:rtos/uCOS-III/Source/os_tick.c **** }
 371              		.loc 1 136 5 view .LVU123
 137:rtos/uCOS-III/Source/os_tick.c **** 
 372              		.loc 1 137 1 is_stmt 0 view .LVU124
 373 0020 38BD     		pop	{r3, r4, r5, pc}
 374              	.LVL32:
 375              	.L29:
 137:rtos/uCOS-III/Source/os_tick.c **** 
 376              		.loc 1 137 1 view .LVU125
 377 0022 00BF     		.align	2
 378              	.L28:
 379 0024 00000000 		.word	OSTickCtr
 380              		.cfi_endproc
 381              	.LFE1:
 383              		.section	.text.OS_TickListInsert,"ax",%progbits
 384              		.align	1
 385              		.global	OS_TickListInsert
 386              		.syntax unified
 387              		.thumb
 388              		.thumb_func
 389              		.fpu fpv4-sp-d16
 391              	OS_TickListInsert:
 392              	.LVL33:
 393              	.LFB2:
 169:rtos/uCOS-III/Source/os_tick.c ****     OS_TCB        *p_tcb1;
 394              		.loc 1 169 1 is_stmt 1 view -0
 395              		.cfi_startproc
 396              		@ args = 0, pretend = 0, frame = 0
 397              		@ frame_needed = 0, uses_anonymous_args = 0
 398              		@ link register save eliminated.
 169:rtos/uCOS-III/Source/os_tick.c ****     OS_TCB        *p_tcb1;
 399              		.loc 1 169 1 is_stmt 0 view .LVU127
 400 0000 F0B4     		push	{r4, r5, r6, r7}
 401              	.LCFI2:
 402              		.cfi_def_cfa_offset 16
 403              		.cfi_offset 4, -16
 404              		.cfi_offset 5, -12
 405              		.cfi_offset 6, -8
 406              		.cfi_offset 7, -4
 170:rtos/uCOS-III/Source/os_tick.c ****     OS_TCB        *p_tcb2;
 407              		.loc 1 170 5 is_stmt 1 view .LVU128
 171:rtos/uCOS-III/Source/os_tick.c ****     OS_TICK_LIST  *p_list;
 408              		.loc 1 171 5 view .LVU129
 172:rtos/uCOS-III/Source/os_tick.c ****     OS_TICK        delta;
 409              		.loc 1 172 5 view .LVU130
 173:rtos/uCOS-III/Source/os_tick.c ****     OS_TICK        remain;
 410              		.loc 1 173 5 view .LVU131
 174:rtos/uCOS-III/Source/os_tick.c **** 
 411              		.loc 1 174 5 view .LVU132
 177:rtos/uCOS-III/Source/os_tick.c **** 
 412              		.loc 1 177 5 view .LVU133
 177:rtos/uCOS-III/Source/os_tick.c **** 
 413              		.loc 1 177 19 is_stmt 0 view .LVU134
 414 0002 1344     		add	r3, r3, r2
 415              	.LVL34:
 177:rtos/uCOS-III/Source/os_tick.c **** 
ARM GAS  /tmp/cc8jH5dy.s 			page 20


 416              		.loc 1 177 45 view .LVU135
 417 0004 224A     		ldr	r2, .L43
 418              	.LVL35:
 177:rtos/uCOS-III/Source/os_tick.c **** 
 419              		.loc 1 177 45 view .LVU136
 420 0006 1568     		ldr	r5, [r2]
 421 0008 0D44     		add	r5, r5, r1
 422              	.LVL36:
 179:rtos/uCOS-III/Source/os_tick.c ****         p_tcb->TickRemain = 0u;
 423              		.loc 1 179 5 is_stmt 1 view .LVU137
 179:rtos/uCOS-III/Source/os_tick.c ****         p_tcb->TickRemain = 0u;
 424              		.loc 1 179 8 is_stmt 0 view .LVU138
 425 000a 5A1B     		subs	r2, r3, r5
 426              	.LVL37:
 179:rtos/uCOS-III/Source/os_tick.c ****         p_tcb->TickRemain = 0u;
 427              		.loc 1 179 8 view .LVU139
 428 000c 0DD0     		beq	.L40
 184:rtos/uCOS-III/Source/os_tick.c **** 
 429              		.loc 1 184 29 is_stmt 1 view .LVU140
 186:rtos/uCOS-III/Source/os_tick.c ****     if (p_list->TCB_Ptr == (OS_TCB *)0) {                       /* Is the list empty?              
 430              		.loc 1 186 5 view .LVU141
 431              	.LVL38:
 187:rtos/uCOS-III/Source/os_tick.c ****         p_tcb->TickRemain   = delta;                            /* Yes, Store time in TCB          
 432              		.loc 1 187 5 view .LVU142
 187:rtos/uCOS-III/Source/os_tick.c ****         p_tcb->TickRemain   = delta;                            /* Yes, Store time in TCB          
 433              		.loc 1 187 15 is_stmt 0 view .LVU143
 434 000e 214C     		ldr	r4, .L43+4
 435 0010 2468     		ldr	r4, [r4]
 187:rtos/uCOS-III/Source/os_tick.c ****         p_tcb->TickRemain   = delta;                            /* Yes, Store time in TCB          
 436              		.loc 1 187 8 view .LVU144
 437 0012 74B1     		cbz	r4, .L41
 212:rtos/uCOS-III/Source/os_tick.c ****     remain = p_tcb2->TickRemain - elapsed;                      /* How many ticks until the head's 
 438              		.loc 1 212 5 is_stmt 1 view .LVU145
 439              	.LVL39:
 213:rtos/uCOS-III/Source/os_tick.c **** 
 440              		.loc 1 213 5 view .LVU146
 213:rtos/uCOS-III/Source/os_tick.c **** 
 441              		.loc 1 213 20 is_stmt 0 view .LVU147
 442 0014 666C     		ldr	r6, [r4, #68]
 213:rtos/uCOS-III/Source/os_tick.c **** 
 443              		.loc 1 213 12 view .LVU148
 444 0016 A6EB010C 		sub	ip, r6, r1
 445              	.LVL40:
 215:rtos/uCOS-III/Source/os_tick.c ****         (p_tcb2->TickPrevPtr == (OS_TCB *)0)) {
 446              		.loc 1 215 5 is_stmt 1 view .LVU149
 215:rtos/uCOS-III/Source/os_tick.c ****         (p_tcb2->TickPrevPtr == (OS_TCB *)0)) {
 447              		.loc 1 215 8 is_stmt 0 view .LVU150
 448 001a 6245     		cmp	r2, ip
 449 001c 01D2     		bcs	.L34
 216:rtos/uCOS-III/Source/os_tick.c ****         p_tcb->TickRemain    =  delta;                          /* ... the delta is equivalent to t
 450              		.loc 1 216 16 discriminator 1 view .LVU151
 451 001e A769     		ldr	r7, [r4, #24]
 215:rtos/uCOS-III/Source/os_tick.c ****         (p_tcb2->TickPrevPtr == (OS_TCB *)0)) {
 452              		.loc 1 215 42 discriminator 1 view .LVU152
 453 0020 7FB1     		cbz	r7, .L42
 454              	.L34:
 238:rtos/uCOS-III/Source/os_tick.c ****     p_tcb1  = p_tcb2;
ARM GAS  /tmp/cc8jH5dy.s 			page 21


 455              		.loc 1 238 5 is_stmt 1 view .LVU153
 238:rtos/uCOS-III/Source/os_tick.c ****     p_tcb1  = p_tcb2;
 456              		.loc 1 238 12 is_stmt 0 view .LVU154
 457 0022 891B     		subs	r1, r1, r6
 458              	.LVL41:
 238:rtos/uCOS-III/Source/os_tick.c ****     p_tcb1  = p_tcb2;
 459              		.loc 1 238 12 view .LVU155
 460 0024 0A44     		add	r2, r2, r1
 461              	.LVL42:
 239:rtos/uCOS-III/Source/os_tick.c ****     p_tcb2  = p_tcb1->TickNextPtr;
 462              		.loc 1 239 5 is_stmt 1 view .LVU156
 240:rtos/uCOS-III/Source/os_tick.c **** 
 463              		.loc 1 240 5 view .LVU157
 240:rtos/uCOS-III/Source/os_tick.c **** 
 464              		.loc 1 240 13 is_stmt 0 view .LVU158
 465 0026 6369     		ldr	r3, [r4, #20]
 466              	.LVL43:
 242:rtos/uCOS-III/Source/os_tick.c ****            (delta  >= p_tcb2->TickRemain)) {
 467              		.loc 1 242 5 is_stmt 1 view .LVU159
 242:rtos/uCOS-III/Source/os_tick.c ****            (delta  >= p_tcb2->TickRemain)) {
 468              		.loc 1 242 11 is_stmt 0 view .LVU160
 469 0028 1AE0     		b	.L35
 470              	.LVL44:
 471              	.L40:
 180:rtos/uCOS-III/Source/os_tick.c ****         return (OS_FALSE);
 472              		.loc 1 180 9 is_stmt 1 view .LVU161
 180:rtos/uCOS-III/Source/os_tick.c ****         return (OS_FALSE);
 473              		.loc 1 180 27 is_stmt 0 view .LVU162
 474 002a 0023     		movs	r3, #0
 475 002c 4364     		str	r3, [r0, #68]
 181:rtos/uCOS-III/Source/os_tick.c ****     }
 476              		.loc 1 181 9 is_stmt 1 view .LVU163
 181:rtos/uCOS-III/Source/os_tick.c ****     }
 477              		.loc 1 181 16 is_stmt 0 view .LVU164
 478 002e 1846     		mov	r0, r3
 479              	.LVL45:
 181:rtos/uCOS-III/Source/os_tick.c ****     }
 480              		.loc 1 181 16 view .LVU165
 481 0030 25E0     		b	.L32
 482              	.LVL46:
 483              	.L41:
 188:rtos/uCOS-III/Source/os_tick.c ****         p_tcb->TickNextPtr  = (OS_TCB *)0;
 484              		.loc 1 188 9 is_stmt 1 view .LVU166
 188:rtos/uCOS-III/Source/os_tick.c ****         p_tcb->TickNextPtr  = (OS_TCB *)0;
 485              		.loc 1 188 29 is_stmt 0 view .LVU167
 486 0032 4264     		str	r2, [r0, #68]
 189:rtos/uCOS-III/Source/os_tick.c ****         p_tcb->TickPrevPtr  = (OS_TCB *)0;
 487              		.loc 1 189 9 is_stmt 1 view .LVU168
 189:rtos/uCOS-III/Source/os_tick.c ****         p_tcb->TickPrevPtr  = (OS_TCB *)0;
 488              		.loc 1 189 29 is_stmt 0 view .LVU169
 489 0034 0023     		movs	r3, #0
 490 0036 4361     		str	r3, [r0, #20]
 190:rtos/uCOS-III/Source/os_tick.c ****         p_list->TCB_Ptr     = p_tcb;                            /* Point to TCB of task to place in
 491              		.loc 1 190 9 is_stmt 1 view .LVU170
 190:rtos/uCOS-III/Source/os_tick.c ****         p_list->TCB_Ptr     = p_tcb;                            /* Point to TCB of task to place in
 492              		.loc 1 190 29 is_stmt 0 view .LVU171
 493 0038 8361     		str	r3, [r0, #24]
ARM GAS  /tmp/cc8jH5dy.s 			page 22


 191:rtos/uCOS-III/Source/os_tick.c **** #if (OS_CFG_DYN_TICK_EN > 0u)
 494              		.loc 1 191 9 is_stmt 1 view .LVU172
 191:rtos/uCOS-III/Source/os_tick.c **** #if (OS_CFG_DYN_TICK_EN > 0u)
 495              		.loc 1 191 29 is_stmt 0 view .LVU173
 496 003a 164B     		ldr	r3, .L43+4
 497 003c 1860     		str	r0, [r3]
 204:rtos/uCOS-III/Source/os_tick.c ****     }
 498              		.loc 1 204 9 is_stmt 1 view .LVU174
 204:rtos/uCOS-III/Source/os_tick.c ****     }
 499              		.loc 1 204 16 is_stmt 0 view .LVU175
 500 003e 0120     		movs	r0, #1
 501              	.LVL47:
 204:rtos/uCOS-III/Source/os_tick.c ****     }
 502              		.loc 1 204 16 view .LVU176
 503 0040 1DE0     		b	.L32
 504              	.LVL48:
 505              	.L42:
 217:rtos/uCOS-III/Source/os_tick.c ****         p_tcb2->TickRemain   =  remain - delta;                 /* ... the previous head's delta is
 506              		.loc 1 217 9 is_stmt 1 view .LVU177
 217:rtos/uCOS-III/Source/os_tick.c ****         p_tcb2->TickRemain   =  remain - delta;                 /* ... the previous head's delta is
 507              		.loc 1 217 30 is_stmt 0 view .LVU178
 508 0042 4264     		str	r2, [r0, #68]
 218:rtos/uCOS-III/Source/os_tick.c **** 
 509              		.loc 1 218 9 is_stmt 1 view .LVU179
 218:rtos/uCOS-III/Source/os_tick.c **** 
 510              		.loc 1 218 40 is_stmt 0 view .LVU180
 511 0044 EB1A     		subs	r3, r5, r3
 512 0046 6344     		add	r3, r3, ip
 218:rtos/uCOS-III/Source/os_tick.c **** 
 513              		.loc 1 218 30 view .LVU181
 514 0048 6364     		str	r3, [r4, #68]
 220:rtos/uCOS-III/Source/os_tick.c ****         p_tcb->TickNextPtr   =  p_tcb2;
 515              		.loc 1 220 9 is_stmt 1 view .LVU182
 220:rtos/uCOS-III/Source/os_tick.c ****         p_tcb->TickNextPtr   =  p_tcb2;
 516              		.loc 1 220 30 is_stmt 0 view .LVU183
 517 004a 0023     		movs	r3, #0
 518 004c 8361     		str	r3, [r0, #24]
 221:rtos/uCOS-III/Source/os_tick.c ****         p_tcb2->TickPrevPtr  =  p_tcb;
 519              		.loc 1 221 9 is_stmt 1 view .LVU184
 221:rtos/uCOS-III/Source/os_tick.c ****         p_tcb2->TickPrevPtr  =  p_tcb;
 520              		.loc 1 221 30 is_stmt 0 view .LVU185
 521 004e 4461     		str	r4, [r0, #20]
 222:rtos/uCOS-III/Source/os_tick.c ****         p_list->TCB_Ptr      =  p_tcb;
 522              		.loc 1 222 9 is_stmt 1 view .LVU186
 222:rtos/uCOS-III/Source/os_tick.c ****         p_list->TCB_Ptr      =  p_tcb;
 523              		.loc 1 222 30 is_stmt 0 view .LVU187
 524 0050 A061     		str	r0, [r4, #24]
 223:rtos/uCOS-III/Source/os_tick.c **** #if (OS_CFG_DYN_TICK_EN > 0u)
 525              		.loc 1 223 9 is_stmt 1 view .LVU188
 223:rtos/uCOS-III/Source/os_tick.c **** #if (OS_CFG_DYN_TICK_EN > 0u)
 526              		.loc 1 223 30 is_stmt 0 view .LVU189
 527 0052 104B     		ldr	r3, .L43+4
 528 0054 1860     		str	r0, [r3]
 234:rtos/uCOS-III/Source/os_tick.c ****     }
 529              		.loc 1 234 9 is_stmt 1 view .LVU190
 234:rtos/uCOS-III/Source/os_tick.c ****     }
 530              		.loc 1 234 16 is_stmt 0 view .LVU191
ARM GAS  /tmp/cc8jH5dy.s 			page 23


 531 0056 0120     		movs	r0, #1
 532              	.LVL49:
 234:rtos/uCOS-III/Source/os_tick.c ****     }
 533              		.loc 1 234 16 view .LVU192
 534 0058 11E0     		b	.L32
 535              	.LVL50:
 536              	.L37:
 244:rtos/uCOS-III/Source/os_tick.c ****         p_tcb1  = p_tcb2;
 537              		.loc 1 244 9 is_stmt 1 view .LVU193
 244:rtos/uCOS-III/Source/os_tick.c ****         p_tcb1  = p_tcb2;
 538              		.loc 1 244 16 is_stmt 0 view .LVU194
 539 005a 521A     		subs	r2, r2, r1
 540              	.LVL51:
 245:rtos/uCOS-III/Source/os_tick.c ****         p_tcb2  = p_tcb2->TickNextPtr;
 541              		.loc 1 245 9 is_stmt 1 view .LVU195
 246:rtos/uCOS-III/Source/os_tick.c ****     }
 542              		.loc 1 246 9 view .LVU196
 245:rtos/uCOS-III/Source/os_tick.c ****         p_tcb2  = p_tcb2->TickNextPtr;
 543              		.loc 1 245 17 is_stmt 0 view .LVU197
 544 005c 1C46     		mov	r4, r3
 246:rtos/uCOS-III/Source/os_tick.c ****     }
 545              		.loc 1 246 17 view .LVU198
 546 005e 5B69     		ldr	r3, [r3, #20]
 547              	.LVL52:
 548              	.L35:
 242:rtos/uCOS-III/Source/os_tick.c ****            (delta  >= p_tcb2->TickRemain)) {
 549              		.loc 1 242 11 is_stmt 1 view .LVU199
 550 0060 13B1     		cbz	r3, .L36
 243:rtos/uCOS-III/Source/os_tick.c ****         delta  -= p_tcb2->TickRemain;
 551              		.loc 1 243 29 is_stmt 0 discriminator 1 view .LVU200
 552 0062 596C     		ldr	r1, [r3, #68]
 242:rtos/uCOS-III/Source/os_tick.c ****            (delta  >= p_tcb2->TickRemain)) {
 553              		.loc 1 242 43 discriminator 1 view .LVU201
 554 0064 9142     		cmp	r1, r2
 555 0066 F8D9     		bls	.L37
 556              	.L36:
 249:rtos/uCOS-III/Source/os_tick.c ****         p_tcb1               = p_tcb2->TickPrevPtr;
 557              		.loc 1 249 5 is_stmt 1 view .LVU202
 249:rtos/uCOS-III/Source/os_tick.c ****         p_tcb1               = p_tcb2->TickPrevPtr;
 558              		.loc 1 249 8 is_stmt 0 view .LVU203
 559 0068 5BB1     		cbz	r3, .L38
 250:rtos/uCOS-III/Source/os_tick.c ****         p_tcb->TickRemain    = delta;                           /* Store remaining time            
 560              		.loc 1 250 9 is_stmt 1 view .LVU204
 250:rtos/uCOS-III/Source/os_tick.c ****         p_tcb->TickRemain    = delta;                           /* Store remaining time            
 561              		.loc 1 250 30 is_stmt 0 view .LVU205
 562 006a 9C69     		ldr	r4, [r3, #24]
 563              	.LVL53:
 251:rtos/uCOS-III/Source/os_tick.c ****         p_tcb->TickPrevPtr   = p_tcb1;
 564              		.loc 1 251 9 is_stmt 1 view .LVU206
 251:rtos/uCOS-III/Source/os_tick.c ****         p_tcb->TickPrevPtr   = p_tcb1;
 565              		.loc 1 251 30 is_stmt 0 view .LVU207
 566 006c 4264     		str	r2, [r0, #68]
 252:rtos/uCOS-III/Source/os_tick.c ****         p_tcb->TickNextPtr   = p_tcb2;
 567              		.loc 1 252 9 is_stmt 1 view .LVU208
 252:rtos/uCOS-III/Source/os_tick.c ****         p_tcb->TickNextPtr   = p_tcb2;
 568              		.loc 1 252 30 is_stmt 0 view .LVU209
 569 006e 8461     		str	r4, [r0, #24]
ARM GAS  /tmp/cc8jH5dy.s 			page 24


 253:rtos/uCOS-III/Source/os_tick.c ****         p_tcb2->TickRemain  -= delta;                           /* Reduce time of next entry in the
 570              		.loc 1 253 9 is_stmt 1 view .LVU210
 253:rtos/uCOS-III/Source/os_tick.c ****         p_tcb2->TickRemain  -= delta;                           /* Reduce time of next entry in the
 571              		.loc 1 253 30 is_stmt 0 view .LVU211
 572 0070 4361     		str	r3, [r0, #20]
 254:rtos/uCOS-III/Source/os_tick.c ****         p_tcb2->TickPrevPtr  = p_tcb;
 573              		.loc 1 254 9 is_stmt 1 view .LVU212
 254:rtos/uCOS-III/Source/os_tick.c ****         p_tcb2->TickPrevPtr  = p_tcb;
 574              		.loc 1 254 29 is_stmt 0 view .LVU213
 575 0072 596C     		ldr	r1, [r3, #68]
 576 0074 8A1A     		subs	r2, r1, r2
 577              	.LVL54:
 254:rtos/uCOS-III/Source/os_tick.c ****         p_tcb2->TickPrevPtr  = p_tcb;
 578              		.loc 1 254 29 view .LVU214
 579 0076 5A64     		str	r2, [r3, #68]
 580              	.LVL55:
 255:rtos/uCOS-III/Source/os_tick.c ****         p_tcb1->TickNextPtr  = p_tcb;
 581              		.loc 1 255 9 is_stmt 1 view .LVU215
 255:rtos/uCOS-III/Source/os_tick.c ****         p_tcb1->TickNextPtr  = p_tcb;
 582              		.loc 1 255 30 is_stmt 0 view .LVU216
 583 0078 9861     		str	r0, [r3, #24]
 256:rtos/uCOS-III/Source/os_tick.c **** 
 584              		.loc 1 256 9 is_stmt 1 view .LVU217
 256:rtos/uCOS-III/Source/os_tick.c **** 
 585              		.loc 1 256 30 is_stmt 0 view .LVU218
 586 007a 6061     		str	r0, [r4, #20]
 265:rtos/uCOS-III/Source/os_tick.c **** }
 587              		.loc 1 265 12 view .LVU219
 588 007c 0120     		movs	r0, #1
 589              	.LVL56:
 590              	.L32:
 266:rtos/uCOS-III/Source/os_tick.c **** 
 591              		.loc 1 266 1 view .LVU220
 592 007e F0BC     		pop	{r4, r5, r6, r7}
 593              	.LCFI3:
 594              		.cfi_remember_state
 595              		.cfi_restore 7
 596              		.cfi_restore 6
 597              		.cfi_restore 5
 598              		.cfi_restore 4
 599              		.cfi_def_cfa_offset 0
 600 0080 7047     		bx	lr
 601              	.LVL57:
 602              	.L38:
 603              	.LCFI4:
 604              		.cfi_restore_state
 259:rtos/uCOS-III/Source/os_tick.c ****         p_tcb->TickPrevPtr   = p_tcb1;
 605              		.loc 1 259 9 is_stmt 1 view .LVU221
 259:rtos/uCOS-III/Source/os_tick.c ****         p_tcb->TickPrevPtr   = p_tcb1;
 606              		.loc 1 259 30 is_stmt 0 view .LVU222
 607 0082 4264     		str	r2, [r0, #68]
 260:rtos/uCOS-III/Source/os_tick.c ****         p_tcb->TickNextPtr   = (OS_TCB *)0;
 608              		.loc 1 260 9 is_stmt 1 view .LVU223
 260:rtos/uCOS-III/Source/os_tick.c ****         p_tcb->TickNextPtr   = (OS_TCB *)0;
 609              		.loc 1 260 30 is_stmt 0 view .LVU224
 610 0084 8461     		str	r4, [r0, #24]
 261:rtos/uCOS-III/Source/os_tick.c ****         p_tcb1->TickNextPtr  = p_tcb;
ARM GAS  /tmp/cc8jH5dy.s 			page 25


 611              		.loc 1 261 9 is_stmt 1 view .LVU225
 261:rtos/uCOS-III/Source/os_tick.c ****         p_tcb1->TickNextPtr  = p_tcb;
 612              		.loc 1 261 30 is_stmt 0 view .LVU226
 613 0086 0023     		movs	r3, #0
 614              	.LVL58:
 261:rtos/uCOS-III/Source/os_tick.c ****         p_tcb1->TickNextPtr  = p_tcb;
 615              		.loc 1 261 30 view .LVU227
 616 0088 4361     		str	r3, [r0, #20]
 262:rtos/uCOS-III/Source/os_tick.c ****     }
 617              		.loc 1 262 9 is_stmt 1 view .LVU228
 262:rtos/uCOS-III/Source/os_tick.c ****     }
 618              		.loc 1 262 30 is_stmt 0 view .LVU229
 619 008a 6061     		str	r0, [r4, #20]
 265:rtos/uCOS-III/Source/os_tick.c **** }
 620              		.loc 1 265 12 view .LVU230
 621 008c 0120     		movs	r0, #1
 622              	.LVL59:
 265:rtos/uCOS-III/Source/os_tick.c **** }
 623              		.loc 1 265 12 view .LVU231
 624 008e F6E7     		b	.L32
 625              	.L44:
 626              		.align	2
 627              	.L43:
 628 0090 00000000 		.word	OSTickCtr
 629 0094 00000000 		.word	OSTickList
 630              		.cfi_endproc
 631              	.LFE2:
 633              		.section	.text.OS_TickListInsertDly,"ax",%progbits
 634              		.align	1
 635              		.global	OS_TickListInsertDly
 636              		.syntax unified
 637              		.thumb
 638              		.thumb_func
 639              		.fpu fpv4-sp-d16
 641              	OS_TickListInsertDly:
 642              	.LVL60:
 643              	.LFB3:
 309:rtos/uCOS-III/Source/os_tick.c ****     OS_TICK      elapsed;
 644              		.loc 1 309 1 is_stmt 1 view -0
 645              		.cfi_startproc
 646              		@ args = 0, pretend = 0, frame = 0
 647              		@ frame_needed = 0, uses_anonymous_args = 0
 309:rtos/uCOS-III/Source/os_tick.c ****     OS_TICK      elapsed;
 648              		.loc 1 309 1 is_stmt 0 view .LVU233
 649 0000 38B5     		push	{r3, r4, r5, lr}
 650              	.LCFI5:
 651              		.cfi_def_cfa_offset 16
 652              		.cfi_offset 3, -16
 653              		.cfi_offset 4, -12
 654              		.cfi_offset 5, -8
 655              		.cfi_offset 14, -4
 656 0002 0446     		mov	r4, r0
 657 0004 1D46     		mov	r5, r3
 310:rtos/uCOS-III/Source/os_tick.c ****     OS_TICK      tick_base;
 658              		.loc 1 310 5 is_stmt 1 view .LVU234
 311:rtos/uCOS-III/Source/os_tick.c ****     OS_TICK      base_offset;
 659              		.loc 1 311 5 view .LVU235
ARM GAS  /tmp/cc8jH5dy.s 			page 26


 312:rtos/uCOS-III/Source/os_tick.c ****     CPU_BOOLEAN  valid_dly;
 660              		.loc 1 312 5 view .LVU236
 313:rtos/uCOS-III/Source/os_tick.c **** 
 661              		.loc 1 313 5 view .LVU237
 319:rtos/uCOS-III/Source/os_tick.c **** #endif
 662              		.loc 1 319 5 view .LVU238
 663              	.LVL61:
 322:rtos/uCOS-III/Source/os_tick.c ****         tick_base = 0u;                                         /* tick_base + time == time        
 664              		.loc 1 322 5 view .LVU239
 322:rtos/uCOS-III/Source/os_tick.c ****         tick_base = 0u;                                         /* tick_base + time == time        
 665              		.loc 1 322 8 is_stmt 0 view .LVU240
 666 0006 042A     		cmp	r2, #4
 667 0008 26D0     		beq	.L53
 325:rtos/uCOS-III/Source/os_tick.c ****         if (time == 0u) {
 668              		.loc 1 325 12 is_stmt 1 view .LVU241
 325:rtos/uCOS-III/Source/os_tick.c ****         if (time == 0u) {
 669              		.loc 1 325 15 is_stmt 0 view .LVU242
 670 000a 082A     		cmp	r2, #8
 671 000c 0CD0     		beq	.L55
 354:rtos/uCOS-III/Source/os_tick.c **** #endif
 672              		.loc 1 354 9 is_stmt 1 view .LVU243
 354:rtos/uCOS-III/Source/os_tick.c **** #endif
 673              		.loc 1 354 19 is_stmt 0 view .LVU244
 674 000e 164B     		ldr	r3, .L58
 675              	.LVL62:
 354:rtos/uCOS-III/Source/os_tick.c **** #endif
 676              		.loc 1 354 19 view .LVU245
 677 0010 1A68     		ldr	r2, [r3]
 678              	.LVL63:
 679              	.L46:
 358:rtos/uCOS-III/Source/os_tick.c **** 
 680              		.loc 1 358 5 is_stmt 1 view .LVU246
 358:rtos/uCOS-III/Source/os_tick.c **** 
 681              		.loc 1 358 17 is_stmt 0 view .LVU247
 682 0012 0B46     		mov	r3, r1
 683 0014 0021     		movs	r1, #0
 684              	.LVL64:
 358:rtos/uCOS-III/Source/os_tick.c **** 
 685              		.loc 1 358 17 view .LVU248
 686 0016 2046     		mov	r0, r4
 687 0018 FFF7FEFF 		bl	OS_TickListInsert
 688              	.LVL65:
 360:rtos/uCOS-III/Source/os_tick.c ****         p_tcb->TaskState = OS_TASK_STATE_DLY;
 689              		.loc 1 360 5 is_stmt 1 view .LVU249
 360:rtos/uCOS-III/Source/os_tick.c ****         p_tcb->TaskState = OS_TASK_STATE_DLY;
 690              		.loc 1 360 8 is_stmt 0 view .LVU250
 691 001c 0128     		cmp	r0, #1
 692 001e 1DD0     		beq	.L56
 364:rtos/uCOS-III/Source/os_tick.c ****     }
 693              		.loc 1 364 8 is_stmt 1 view .LVU251
 364:rtos/uCOS-III/Source/os_tick.c ****     }
 694              		.loc 1 364 15 is_stmt 0 view .LVU252
 695 0020 47F27E23 		movw	r3, #29310
 696 0024 2B80     		strh	r3, [r5]	@ movhi
 697              	.LVL66:
 698              	.L45:
 366:rtos/uCOS-III/Source/os_tick.c **** 
ARM GAS  /tmp/cc8jH5dy.s 			page 27


 699              		.loc 1 366 1 view .LVU253
 700 0026 38BD     		pop	{r3, r4, r5, pc}
 701              	.LVL67:
 702              	.L55:
 326:rtos/uCOS-III/Source/os_tick.c ****            *p_err = OS_ERR_TIME_ZERO_DLY;                       /* Infinite frequency is invalid.  
 703              		.loc 1 326 9 is_stmt 1 view .LVU254
 326:rtos/uCOS-III/Source/os_tick.c ****            *p_err = OS_ERR_TIME_ZERO_DLY;                       /* Infinite frequency is invalid.  
 704              		.loc 1 326 12 is_stmt 0 view .LVU255
 705 0028 91B1     		cbz	r1, .L57
 331:rtos/uCOS-III/Source/os_tick.c **** 
 706              		.loc 1 331 9 is_stmt 1 view .LVU256
 331:rtos/uCOS-III/Source/os_tick.c **** 
 707              		.loc 1 331 19 is_stmt 0 view .LVU257
 708 002a 826C     		ldr	r2, [r0, #72]
 709              	.LVL68:
 336:rtos/uCOS-III/Source/os_tick.c **** #endif
 710              		.loc 1 336 9 is_stmt 1 view .LVU258
 336:rtos/uCOS-III/Source/os_tick.c **** #endif
 711              		.loc 1 336 33 is_stmt 0 view .LVU259
 712 002c 0E4B     		ldr	r3, .L58
 713              	.LVL69:
 336:rtos/uCOS-III/Source/os_tick.c **** #endif
 714              		.loc 1 336 33 view .LVU260
 715 002e 1B68     		ldr	r3, [r3]
 336:rtos/uCOS-III/Source/os_tick.c **** #endif
 716              		.loc 1 336 21 view .LVU261
 717 0030 9B1A     		subs	r3, r3, r2
 718              	.LVL70:
 339:rtos/uCOS-III/Source/os_tick.c ****             tick_base += time * (base_offset / time);           /* ... tick_base up to the next one
 719              		.loc 1 339 9 is_stmt 1 view .LVU262
 339:rtos/uCOS-III/Source/os_tick.c ****             tick_base += time * (base_offset / time);           /* ... tick_base up to the next one
 720              		.loc 1 339 12 is_stmt 0 view .LVU263
 721 0032 9942     		cmp	r1, r3
 722 0034 08D8     		bhi	.L50
 340:rtos/uCOS-III/Source/os_tick.c ****             if ((base_offset % time) != 0u) {
 723              		.loc 1 340 13 is_stmt 1 view .LVU264
 340:rtos/uCOS-III/Source/os_tick.c ****             if ((base_offset % time) != 0u) {
 724              		.loc 1 340 46 is_stmt 0 view .LVU265
 725 0036 B3FBF1F0 		udiv	r0, r3, r1
 726              	.LVL71:
 340:rtos/uCOS-III/Source/os_tick.c ****             if ((base_offset % time) != 0u) {
 727              		.loc 1 340 31 view .LVU266
 728 003a 01FB00F0 		mul	r0, r1, r0
 340:rtos/uCOS-III/Source/os_tick.c ****             if ((base_offset % time) != 0u) {
 729              		.loc 1 340 23 view .LVU267
 730 003e 0244     		add	r2, r2, r0
 731              	.LVL72:
 341:rtos/uCOS-III/Source/os_tick.c ****                 tick_base += time;                              /* Account for rounding errors with
 732              		.loc 1 341 13 is_stmt 1 view .LVU268
 341:rtos/uCOS-III/Source/os_tick.c ****                 tick_base += time;                              /* Account for rounding errors with
 733              		.loc 1 341 16 is_stmt 0 view .LVU269
 734 0040 8342     		cmp	r3, r0
 735 0042 00D0     		beq	.L51
 342:rtos/uCOS-III/Source/os_tick.c ****             }
 736              		.loc 1 342 17 is_stmt 1 view .LVU270
 342:rtos/uCOS-III/Source/os_tick.c ****             }
 737              		.loc 1 342 27 is_stmt 0 view .LVU271
ARM GAS  /tmp/cc8jH5dy.s 			page 28


 738 0044 0A44     		add	r2, r2, r1
 739              	.LVL73:
 740              	.L51:
 345:rtos/uCOS-III/Source/os_tick.c ****         }
 741              		.loc 1 345 13 is_stmt 1 view .LVU272
 345:rtos/uCOS-III/Source/os_tick.c ****         }
 742              		.loc 1 345 32 is_stmt 0 view .LVU273
 743 0046 A264     		str	r2, [r4, #72]
 744              	.L50:
 348:rtos/uCOS-III/Source/os_tick.c **** 
 745              		.loc 1 348 9 is_stmt 1 view .LVU274
 348:rtos/uCOS-III/Source/os_tick.c **** 
 746              		.loc 1 348 28 is_stmt 0 view .LVU275
 747 0048 A36C     		ldr	r3, [r4, #72]
 748              	.LVL74:
 348:rtos/uCOS-III/Source/os_tick.c **** 
 749              		.loc 1 348 28 view .LVU276
 750 004a 0B44     		add	r3, r3, r1
 751 004c A364     		str	r3, [r4, #72]
 752 004e E0E7     		b	.L46
 753              	.LVL75:
 754              	.L57:
 327:rtos/uCOS-III/Source/os_tick.c ****             return;
 755              		.loc 1 327 12 is_stmt 1 view .LVU277
 327:rtos/uCOS-III/Source/os_tick.c ****             return;
 756              		.loc 1 327 19 is_stmt 0 view .LVU278
 757 0050 47F27E23 		movw	r3, #29310
 758              	.LVL76:
 327:rtos/uCOS-III/Source/os_tick.c ****             return;
 759              		.loc 1 327 19 view .LVU279
 760 0054 2B80     		strh	r3, [r5]	@ movhi
 328:rtos/uCOS-III/Source/os_tick.c ****         }
 761              		.loc 1 328 13 is_stmt 1 view .LVU280
 762 0056 E6E7     		b	.L45
 763              	.LVL77:
 764              	.L53:
 323:rtos/uCOS-III/Source/os_tick.c **** 
 765              		.loc 1 323 19 is_stmt 0 view .LVU281
 766 0058 0022     		movs	r2, #0
 767              	.LVL78:
 323:rtos/uCOS-III/Source/os_tick.c **** 
 768              		.loc 1 323 19 view .LVU282
 769 005a DAE7     		b	.L46
 770              	.LVL79:
 771              	.L56:
 361:rtos/uCOS-III/Source/os_tick.c ****        *p_err            = OS_ERR_NONE;
 772              		.loc 1 361 9 is_stmt 1 view .LVU283
 361:rtos/uCOS-III/Source/os_tick.c ****        *p_err            = OS_ERR_NONE;
 773              		.loc 1 361 26 is_stmt 0 view .LVU284
 774 005c 0123     		movs	r3, #1
 775 005e 84F82E30 		strb	r3, [r4, #46]
 362:rtos/uCOS-III/Source/os_tick.c ****     } else {
 776              		.loc 1 362 8 is_stmt 1 view .LVU285
 362:rtos/uCOS-III/Source/os_tick.c ****     } else {
 777              		.loc 1 362 26 is_stmt 0 view .LVU286
 778 0062 0023     		movs	r3, #0
 779 0064 2B80     		strh	r3, [r5]	@ movhi
ARM GAS  /tmp/cc8jH5dy.s 			page 29


 780 0066 DEE7     		b	.L45
 781              	.L59:
 782              		.align	2
 783              	.L58:
 784 0068 00000000 		.word	OSTickCtr
 785              		.cfi_endproc
 786              	.LFE3:
 788              		.section	.text.OS_TickListRemove,"ax",%progbits
 789              		.align	1
 790              		.global	OS_TickListRemove
 791              		.syntax unified
 792              		.thumb
 793              		.thumb_func
 794              		.fpu fpv4-sp-d16
 796              	OS_TickListRemove:
 797              	.LVL80:
 798              	.LFB4:
 386:rtos/uCOS-III/Source/os_tick.c ****     OS_TCB        *p_tcb1;
 799              		.loc 1 386 1 is_stmt 1 view -0
 800              		.cfi_startproc
 801              		@ args = 0, pretend = 0, frame = 0
 802              		@ frame_needed = 0, uses_anonymous_args = 0
 803              		@ link register save eliminated.
 387:rtos/uCOS-III/Source/os_tick.c ****     OS_TCB        *p_tcb2;
 804              		.loc 1 387 5 view .LVU288
 388:rtos/uCOS-III/Source/os_tick.c ****     OS_TICK_LIST  *p_list;
 805              		.loc 1 388 5 view .LVU289
 389:rtos/uCOS-III/Source/os_tick.c **** #if (OS_CFG_DYN_TICK_EN > 0u)
 806              		.loc 1 389 5 view .LVU290
 398:rtos/uCOS-III/Source/os_tick.c ****     p_tcb2 = p_tcb->TickNextPtr;
 807              		.loc 1 398 5 view .LVU291
 398:rtos/uCOS-III/Source/os_tick.c ****     p_tcb2 = p_tcb->TickNextPtr;
 808              		.loc 1 398 12 is_stmt 0 view .LVU292
 809 0000 8269     		ldr	r2, [r0, #24]
 810              	.LVL81:
 399:rtos/uCOS-III/Source/os_tick.c ****     p_list = &OSTickList;
 811              		.loc 1 399 5 is_stmt 1 view .LVU293
 399:rtos/uCOS-III/Source/os_tick.c ****     p_list = &OSTickList;
 812              		.loc 1 399 12 is_stmt 0 view .LVU294
 813 0002 4369     		ldr	r3, [r0, #20]
 814              	.LVL82:
 400:rtos/uCOS-III/Source/os_tick.c ****     if (p_tcb1 == (OS_TCB *)0) {
 815              		.loc 1 400 5 is_stmt 1 view .LVU295
 401:rtos/uCOS-III/Source/os_tick.c ****         if (p_tcb2 == (OS_TCB *)0) {                            /* Remove the ONLY entry in the lis
 816              		.loc 1 401 5 view .LVU296
 401:rtos/uCOS-III/Source/os_tick.c ****         if (p_tcb2 == (OS_TCB *)0) {                            /* Remove the ONLY entry in the lis
 817              		.loc 1 401 8 is_stmt 0 view .LVU297
 818 0004 5AB1     		cbz	r2, .L68
 439:rtos/uCOS-III/Source/os_tick.c ****         if (p_tcb2 != (OS_TCB *)0) {
 819              		.loc 1 439 9 is_stmt 1 view .LVU298
 439:rtos/uCOS-III/Source/os_tick.c ****         if (p_tcb2 != (OS_TCB *)0) {
 820              		.loc 1 439 29 is_stmt 0 view .LVU299
 821 0006 5361     		str	r3, [r2, #20]
 440:rtos/uCOS-III/Source/os_tick.c ****             p_tcb2->TickPrevPtr  = p_tcb1;
 822              		.loc 1 440 9 is_stmt 1 view .LVU300
 440:rtos/uCOS-III/Source/os_tick.c ****             p_tcb2->TickPrevPtr  = p_tcb1;
 823              		.loc 1 440 12 is_stmt 0 view .LVU301
ARM GAS  /tmp/cc8jH5dy.s 			page 30


 824 0008 23B1     		cbz	r3, .L64
 441:rtos/uCOS-III/Source/os_tick.c ****             p_tcb2->TickRemain  += p_tcb->TickRemain;            /* Add back the ticks to the delta
 825              		.loc 1 441 13 is_stmt 1 view .LVU302
 441:rtos/uCOS-III/Source/os_tick.c ****             p_tcb2->TickRemain  += p_tcb->TickRemain;            /* Add back the ticks to the delta
 826              		.loc 1 441 34 is_stmt 0 view .LVU303
 827 000a 9A61     		str	r2, [r3, #24]
 442:rtos/uCOS-III/Source/os_tick.c ****         }
 828              		.loc 1 442 13 is_stmt 1 view .LVU304
 442:rtos/uCOS-III/Source/os_tick.c ****         }
 829              		.loc 1 442 41 is_stmt 0 view .LVU305
 830 000c 416C     		ldr	r1, [r0, #68]
 442:rtos/uCOS-III/Source/os_tick.c ****         }
 831              		.loc 1 442 33 view .LVU306
 832 000e 5A6C     		ldr	r2, [r3, #68]
 833              	.LVL83:
 442:rtos/uCOS-III/Source/os_tick.c ****         }
 834              		.loc 1 442 33 view .LVU307
 835 0010 0A44     		add	r2, r2, r1
 836 0012 5A64     		str	r2, [r3, #68]
 837              	.LVL84:
 838              	.L64:
 444:rtos/uCOS-III/Source/os_tick.c **** #if (OS_CFG_DBG_EN > 0u)
 839              		.loc 1 444 9 is_stmt 1 view .LVU308
 444:rtos/uCOS-III/Source/os_tick.c **** #if (OS_CFG_DBG_EN > 0u)
 840              		.loc 1 444 34 is_stmt 0 view .LVU309
 841 0014 0023     		movs	r3, #0
 842              	.LVL85:
 444:rtos/uCOS-III/Source/os_tick.c **** #if (OS_CFG_DBG_EN > 0u)
 843              		.loc 1 444 34 view .LVU310
 844 0016 8361     		str	r3, [r0, #24]
 448:rtos/uCOS-III/Source/os_tick.c ****         p_tcb->TickRemain        =           0u;
 845              		.loc 1 448 9 is_stmt 1 view .LVU311
 448:rtos/uCOS-III/Source/os_tick.c ****         p_tcb->TickRemain        =           0u;
 846              		.loc 1 448 34 is_stmt 0 view .LVU312
 847 0018 4361     		str	r3, [r0, #20]
 449:rtos/uCOS-III/Source/os_tick.c ****     }
 848              		.loc 1 449 9 is_stmt 1 view .LVU313
 449:rtos/uCOS-III/Source/os_tick.c ****     }
 849              		.loc 1 449 34 is_stmt 0 view .LVU314
 850 001a 4364     		str	r3, [r0, #68]
 851 001c 7047     		bx	lr
 852              	.LVL86:
 853              	.L68:
 402:rtos/uCOS-III/Source/os_tick.c ****             p_list->TCB_Ptr      = (OS_TCB *)0;
 854              		.loc 1 402 9 is_stmt 1 view .LVU315
 402:rtos/uCOS-III/Source/os_tick.c ****             p_list->TCB_Ptr      = (OS_TCB *)0;
 855              		.loc 1 402 12 is_stmt 0 view .LVU316
 856 001e 6BB1     		cbz	r3, .L69
 386:rtos/uCOS-III/Source/os_tick.c ****     OS_TCB        *p_tcb1;
 857              		.loc 1 386 1 view .LVU317
 858 0020 10B4     		push	{r4}
 859              	.LCFI6:
 860              		.cfi_def_cfa_offset 4
 861              		.cfi_offset 4, -4
 417:rtos/uCOS-III/Source/os_tick.c ****             p_tcb2->TickRemain  += p_tcb->TickRemain;           /* Add back the ticks to the delta 
 862              		.loc 1 417 13 is_stmt 1 view .LVU318
 417:rtos/uCOS-III/Source/os_tick.c ****             p_tcb2->TickRemain  += p_tcb->TickRemain;           /* Add back the ticks to the delta 
ARM GAS  /tmp/cc8jH5dy.s 			page 31


 863              		.loc 1 417 34 is_stmt 0 view .LVU319
 864 0022 0022     		movs	r2, #0
 865              	.LVL87:
 417:rtos/uCOS-III/Source/os_tick.c ****             p_tcb2->TickRemain  += p_tcb->TickRemain;           /* Add back the ticks to the delta 
 866              		.loc 1 417 34 view .LVU320
 867 0024 9A61     		str	r2, [r3, #24]
 868              	.LVL88:
 418:rtos/uCOS-III/Source/os_tick.c ****             p_list->TCB_Ptr      = p_tcb2;
 869              		.loc 1 418 13 is_stmt 1 view .LVU321
 418:rtos/uCOS-III/Source/os_tick.c ****             p_list->TCB_Ptr      = p_tcb2;
 870              		.loc 1 418 41 is_stmt 0 view .LVU322
 871 0026 446C     		ldr	r4, [r0, #68]
 418:rtos/uCOS-III/Source/os_tick.c ****             p_list->TCB_Ptr      = p_tcb2;
 872              		.loc 1 418 33 view .LVU323
 873 0028 596C     		ldr	r1, [r3, #68]
 874 002a 2144     		add	r1, r1, r4
 875 002c 5964     		str	r1, [r3, #68]
 419:rtos/uCOS-III/Source/os_tick.c **** #if (OS_CFG_DBG_EN > 0u)
 876              		.loc 1 419 13 is_stmt 1 view .LVU324
 419:rtos/uCOS-III/Source/os_tick.c **** #if (OS_CFG_DBG_EN > 0u)
 877              		.loc 1 419 34 is_stmt 0 view .LVU325
 878 002e 0549     		ldr	r1, .L70
 879 0030 0B60     		str	r3, [r1]
 435:rtos/uCOS-III/Source/os_tick.c ****             p_tcb->TickRemain           =           0u;
 880              		.loc 1 435 13 is_stmt 1 view .LVU326
 435:rtos/uCOS-III/Source/os_tick.c ****             p_tcb->TickRemain           =           0u;
 881              		.loc 1 435 41 is_stmt 0 view .LVU327
 882 0032 4261     		str	r2, [r0, #20]
 436:rtos/uCOS-III/Source/os_tick.c ****         }
 883              		.loc 1 436 13 is_stmt 1 view .LVU328
 436:rtos/uCOS-III/Source/os_tick.c ****         }
 884              		.loc 1 436 41 is_stmt 0 view .LVU329
 885 0034 4264     		str	r2, [r0, #68]
 451:rtos/uCOS-III/Source/os_tick.c **** 
 886              		.loc 1 451 1 view .LVU330
 887 0036 5DF8044B 		ldr	r4, [sp], #4
 888              	.LCFI7:
 889              		.cfi_restore 4
 890              		.cfi_def_cfa_offset 0
 891 003a 7047     		bx	lr
 892              	.LVL89:
 893              	.L69:
 403:rtos/uCOS-III/Source/os_tick.c **** #if (OS_CFG_DBG_EN > 0u)
 894              		.loc 1 403 13 is_stmt 1 view .LVU331
 403:rtos/uCOS-III/Source/os_tick.c **** #if (OS_CFG_DBG_EN > 0u)
 895              		.loc 1 403 34 is_stmt 0 view .LVU332
 896 003c 014A     		ldr	r2, .L70
 897              	.LVL90:
 403:rtos/uCOS-III/Source/os_tick.c **** #if (OS_CFG_DBG_EN > 0u)
 898              		.loc 1 403 34 view .LVU333
 899 003e 1360     		str	r3, [r2]
 407:rtos/uCOS-III/Source/os_tick.c **** #if (OS_CFG_DYN_TICK_EN > 0u)
 900              		.loc 1 407 13 is_stmt 1 view .LVU334
 407:rtos/uCOS-III/Source/os_tick.c **** #if (OS_CFG_DYN_TICK_EN > 0u)
 901              		.loc 1 407 34 is_stmt 0 view .LVU335
 902 0040 4364     		str	r3, [r0, #68]
 903 0042 7047     		bx	lr
ARM GAS  /tmp/cc8jH5dy.s 			page 32


 904              	.L71:
 905              		.align	2
 906              	.L70:
 907 0044 00000000 		.word	OSTickList
 908              		.cfi_endproc
 909              	.LFE4:
 911              		.text
 912              	.Letext0:
 913              		.file 2 "rtos/uC-CPU/ARM-Cortex-M/ARMv7-M/GNU/cpu.h"
 914              		.file 3 "rtos/uC-CPU/cpu_core.h"
 915              		.file 4 "rtos/uCOS-III/Source/os_type.h"
 916              		.file 5 "rtos/uCOS-III/Source/os.h"
 917              		.file 6 "rtos/uCOS-III/Ports/ARM-Cortex-M/ARMv7-M/GNU/os_cpu.h"
ARM GAS  /tmp/cc8jH5dy.s 			page 33

