ARM GAS  /tmp/ccS1bHPU.s 			page 1


   1              		.cpu cortex-m4
   2              		.eabi_attribute 27, 1
   3              		.eabi_attribute 28, 1
   4              		.eabi_attribute 20, 1
   5              		.eabi_attribute 21, 1
   6              		.eabi_attribute 23, 3
   7              		.eabi_attribute 24, 1
   8              		.eabi_attribute 25, 1
   9              		.eabi_attribute 26, 1
  10              		.eabi_attribute 30, 1
  11              		.eabi_attribute 34, 1
  12              		.eabi_attribute 18, 4
  13              		.file	"os_task.c"
  14              		.text
  15              	.Ltext0:
  16              		.cfi_sections	.debug_frame
  17              		.section	.text.OSTaskQFlush,"ax",%progbits
  18              		.align	1
  19              		.global	OSTaskQFlush
  20              		.arch armv7e-m
  21              		.syntax unified
  22              		.thumb
  23              		.thumb_func
  24              		.fpu fpv4-sp-d16
  26              	OSTaskQFlush:
  27              	.LVL0:
  28              	.LFB3:
  29              		.file 1 "rtos/uCOS-III/Source/os_task.c"
   1:rtos/uCOS-III/Source/os_task.c **** /*
   2:rtos/uCOS-III/Source/os_task.c **** ***************************************************************************************************
   3:rtos/uCOS-III/Source/os_task.c **** *                                                uC/OS-III
   4:rtos/uCOS-III/Source/os_task.c **** *                                          The Real-Time Kernel
   5:rtos/uCOS-III/Source/os_task.c **** *
   6:rtos/uCOS-III/Source/os_task.c **** *                         (c) Copyright 2009-2019; Silicon Laboratories Inc.,
   7:rtos/uCOS-III/Source/os_task.c **** *                                400 W. Cesar Chavez, Austin, TX 78701
   8:rtos/uCOS-III/Source/os_task.c **** *
   9:rtos/uCOS-III/Source/os_task.c **** *                   All rights reserved. Protected by international copyright laws.
  10:rtos/uCOS-III/Source/os_task.c **** *
  11:rtos/uCOS-III/Source/os_task.c **** *                  Your use of this software is subject to your acceptance of the terms
  12:rtos/uCOS-III/Source/os_task.c **** *                  of a Silicon Labs Micrium software license, which can be obtained by
  13:rtos/uCOS-III/Source/os_task.c **** *                  contacting info@micrium.com. If you do not agree to the terms of this
  14:rtos/uCOS-III/Source/os_task.c **** *                  license, you may not use this software.
  15:rtos/uCOS-III/Source/os_task.c **** *
  16:rtos/uCOS-III/Source/os_task.c **** *                  Please help us continue to provide the Embedded community with the finest
  17:rtos/uCOS-III/Source/os_task.c **** *                  software available. Your honesty is greatly appreciated.
  18:rtos/uCOS-III/Source/os_task.c **** *
  19:rtos/uCOS-III/Source/os_task.c **** *                    You can find our product's documentation at: doc.micrium.com
  20:rtos/uCOS-III/Source/os_task.c **** *
  21:rtos/uCOS-III/Source/os_task.c **** *                          For more information visit us at: www.micrium.com
  22:rtos/uCOS-III/Source/os_task.c **** ***************************************************************************************************
  23:rtos/uCOS-III/Source/os_task.c **** */
  24:rtos/uCOS-III/Source/os_task.c **** 
  25:rtos/uCOS-III/Source/os_task.c **** /*
  26:rtos/uCOS-III/Source/os_task.c **** ***************************************************************************************************
  27:rtos/uCOS-III/Source/os_task.c **** *                                            TASK MANAGEMENT
  28:rtos/uCOS-III/Source/os_task.c **** *
  29:rtos/uCOS-III/Source/os_task.c **** * File    : os_task.c
ARM GAS  /tmp/ccS1bHPU.s 			page 2


  30:rtos/uCOS-III/Source/os_task.c **** * Version : V3.07.04
  31:rtos/uCOS-III/Source/os_task.c **** ***************************************************************************************************
  32:rtos/uCOS-III/Source/os_task.c **** */
  33:rtos/uCOS-III/Source/os_task.c **** 
  34:rtos/uCOS-III/Source/os_task.c **** #define  MICRIUM_SOURCE
  35:rtos/uCOS-III/Source/os_task.c **** #include "os.h"
  36:rtos/uCOS-III/Source/os_task.c **** 
  37:rtos/uCOS-III/Source/os_task.c **** 
  38:rtos/uCOS-III/Source/os_task.c **** #ifdef VSC_INCLUDE_SOURCE_FILE_NAMES
  39:rtos/uCOS-III/Source/os_task.c **** const  CPU_CHAR  *os_task__c = "$Id: $";
  40:rtos/uCOS-III/Source/os_task.c **** #endif
  41:rtos/uCOS-III/Source/os_task.c **** 
  42:rtos/uCOS-III/Source/os_task.c **** /*
  43:rtos/uCOS-III/Source/os_task.c **** ***************************************************************************************************
  44:rtos/uCOS-III/Source/os_task.c **** *                                                CHANGE PRIORITY OF A TASK
  45:rtos/uCOS-III/Source/os_task.c **** *
  46:rtos/uCOS-III/Source/os_task.c **** * Description: This function allows you to change the priority of a task dynamically.  Note that th
  47:rtos/uCOS-III/Source/os_task.c **** *              priority MUST be available.
  48:rtos/uCOS-III/Source/os_task.c **** *
  49:rtos/uCOS-III/Source/os_task.c **** * Arguments  : p_tcb      is the TCB of the tack to change the priority for
  50:rtos/uCOS-III/Source/os_task.c **** *
  51:rtos/uCOS-III/Source/os_task.c **** *              prio_new   is the new priority
  52:rtos/uCOS-III/Source/os_task.c **** *
  53:rtos/uCOS-III/Source/os_task.c **** *              p_err      is a pointer to an error code returned by this function:
  54:rtos/uCOS-III/Source/os_task.c **** *
  55:rtos/uCOS-III/Source/os_task.c **** *                             OS_ERR_NONE                    Is the call was successful
  56:rtos/uCOS-III/Source/os_task.c **** *                             OS_ERR_OS_NOT_RUNNING          If uC/OS-III is not running yet
  57:rtos/uCOS-III/Source/os_task.c **** *                             OS_ERR_PRIO_INVALID            If the priority you specify is higher 
  58:rtos/uCOS-III/Source/os_task.c **** *                                                              (i.e. >= (OS_CFG_PRIO_MAX-1)) or alr
  59:rtos/uCOS-III/Source/os_task.c **** *                                                              task
  60:rtos/uCOS-III/Source/os_task.c **** *                             OS_ERR_STATE_INVALID           If the task is in an invalid state
  61:rtos/uCOS-III/Source/os_task.c **** *                             OS_ERR_TASK_CHANGE_PRIO_ISR    If you tried to change the task's prio
  62:rtos/uCOS-III/Source/os_task.c **** *
  63:rtos/uCOS-III/Source/os_task.c **** * Returns    : none
  64:rtos/uCOS-III/Source/os_task.c **** *
  65:rtos/uCOS-III/Source/os_task.c **** * Note(s)    : none
  66:rtos/uCOS-III/Source/os_task.c **** ***************************************************************************************************
  67:rtos/uCOS-III/Source/os_task.c **** */
  68:rtos/uCOS-III/Source/os_task.c **** 
  69:rtos/uCOS-III/Source/os_task.c **** #if (OS_CFG_TASK_CHANGE_PRIO_EN > 0u)
  70:rtos/uCOS-III/Source/os_task.c **** void  OSTaskChangePrio (OS_TCB   *p_tcb,
  71:rtos/uCOS-III/Source/os_task.c ****                         OS_PRIO   prio_new,
  72:rtos/uCOS-III/Source/os_task.c ****                         OS_ERR   *p_err)
  73:rtos/uCOS-III/Source/os_task.c **** {
  74:rtos/uCOS-III/Source/os_task.c **** #if (OS_CFG_MUTEX_EN > 0u)
  75:rtos/uCOS-III/Source/os_task.c ****     OS_PRIO  prio_high;
  76:rtos/uCOS-III/Source/os_task.c **** #endif
  77:rtos/uCOS-III/Source/os_task.c ****     CPU_SR_ALLOC();
  78:rtos/uCOS-III/Source/os_task.c **** 
  79:rtos/uCOS-III/Source/os_task.c **** 
  80:rtos/uCOS-III/Source/os_task.c **** #ifdef OS_SAFETY_CRITICAL
  81:rtos/uCOS-III/Source/os_task.c ****     if (p_err == (OS_ERR *)0) {
  82:rtos/uCOS-III/Source/os_task.c ****         OS_SAFETY_CRITICAL_EXCEPTION();
  83:rtos/uCOS-III/Source/os_task.c ****         return;
  84:rtos/uCOS-III/Source/os_task.c ****     }
  85:rtos/uCOS-III/Source/os_task.c **** #endif
  86:rtos/uCOS-III/Source/os_task.c **** 
ARM GAS  /tmp/ccS1bHPU.s 			page 3


  87:rtos/uCOS-III/Source/os_task.c **** #if (OS_CFG_ARG_CHK_EN > 0u)
  88:rtos/uCOS-III/Source/os_task.c ****     if ((p_tcb != (OS_TCB *)0) && (p_tcb->TaskState == OS_TASK_STATE_DEL)) {
  89:rtos/uCOS-III/Source/os_task.c ****        *p_err = OS_ERR_STATE_INVALID;
  90:rtos/uCOS-III/Source/os_task.c ****         return;
  91:rtos/uCOS-III/Source/os_task.c ****     }
  92:rtos/uCOS-III/Source/os_task.c **** #endif
  93:rtos/uCOS-III/Source/os_task.c **** 
  94:rtos/uCOS-III/Source/os_task.c **** #if (OS_CFG_CALLED_FROM_ISR_CHK_EN > 0u)
  95:rtos/uCOS-III/Source/os_task.c ****     if (OSIntNestingCtr > 0u) {                                 /* Not allowed to call from an ISR 
  96:rtos/uCOS-III/Source/os_task.c ****        *p_err = OS_ERR_TASK_CHANGE_PRIO_ISR;
  97:rtos/uCOS-III/Source/os_task.c ****         return;
  98:rtos/uCOS-III/Source/os_task.c ****     }
  99:rtos/uCOS-III/Source/os_task.c **** #endif
 100:rtos/uCOS-III/Source/os_task.c **** 
 101:rtos/uCOS-III/Source/os_task.c ****     if (prio_new >= (OS_CFG_PRIO_MAX - 1u)) {                   /* Cannot set to Idle Task priority
 102:rtos/uCOS-III/Source/os_task.c ****        *p_err = OS_ERR_PRIO_INVALID;
 103:rtos/uCOS-III/Source/os_task.c ****         return;
 104:rtos/uCOS-III/Source/os_task.c ****     }
 105:rtos/uCOS-III/Source/os_task.c **** 
 106:rtos/uCOS-III/Source/os_task.c ****     CPU_CRITICAL_ENTER();
 107:rtos/uCOS-III/Source/os_task.c **** 
 108:rtos/uCOS-III/Source/os_task.c ****     if (p_tcb == (OS_TCB *)0) {                                 /* Are we changing the priority of 
 109:rtos/uCOS-III/Source/os_task.c ****         if (OSRunning != OS_STATE_OS_RUNNING) {
 110:rtos/uCOS-III/Source/os_task.c ****             CPU_CRITICAL_EXIT();
 111:rtos/uCOS-III/Source/os_task.c ****            *p_err = OS_ERR_OS_NOT_RUNNING;
 112:rtos/uCOS-III/Source/os_task.c ****             return;
 113:rtos/uCOS-III/Source/os_task.c ****         }
 114:rtos/uCOS-III/Source/os_task.c ****         p_tcb = OSTCBCurPtr;
 115:rtos/uCOS-III/Source/os_task.c ****     }
 116:rtos/uCOS-III/Source/os_task.c **** 
 117:rtos/uCOS-III/Source/os_task.c **** #if (OS_CFG_MUTEX_EN > 0u)
 118:rtos/uCOS-III/Source/os_task.c ****     p_tcb->BasePrio = prio_new;                                 /* Update base priority            
 119:rtos/uCOS-III/Source/os_task.c **** 
 120:rtos/uCOS-III/Source/os_task.c ****     if (p_tcb->MutexGrpHeadPtr != (OS_MUTEX *)0) {              /* Owning a mutex?                 
 121:rtos/uCOS-III/Source/os_task.c ****         if (prio_new > p_tcb->Prio) {
 122:rtos/uCOS-III/Source/os_task.c ****             prio_high = OS_MutexGrpPrioFindHighest(p_tcb);
 123:rtos/uCOS-III/Source/os_task.c ****             if (prio_new > prio_high) {
 124:rtos/uCOS-III/Source/os_task.c ****                 prio_new = prio_high;
 125:rtos/uCOS-III/Source/os_task.c ****             }
 126:rtos/uCOS-III/Source/os_task.c ****         }
 127:rtos/uCOS-III/Source/os_task.c ****     }
 128:rtos/uCOS-III/Source/os_task.c **** #endif
 129:rtos/uCOS-III/Source/os_task.c **** 
 130:rtos/uCOS-III/Source/os_task.c ****     OS_TaskChangePrio(p_tcb, prio_new);
 131:rtos/uCOS-III/Source/os_task.c **** 
 132:rtos/uCOS-III/Source/os_task.c ****     OS_TRACE_TASK_PRIO_CHANGE(p_tcb, prio_new);
 133:rtos/uCOS-III/Source/os_task.c ****     CPU_CRITICAL_EXIT();
 134:rtos/uCOS-III/Source/os_task.c **** 
 135:rtos/uCOS-III/Source/os_task.c ****     if (OSRunning == OS_STATE_OS_RUNNING) {
 136:rtos/uCOS-III/Source/os_task.c ****         OSSched();                                              /* Run highest priority task ready 
 137:rtos/uCOS-III/Source/os_task.c ****     }
 138:rtos/uCOS-III/Source/os_task.c **** 
 139:rtos/uCOS-III/Source/os_task.c ****    *p_err = OS_ERR_NONE;
 140:rtos/uCOS-III/Source/os_task.c **** }
 141:rtos/uCOS-III/Source/os_task.c **** #endif
 142:rtos/uCOS-III/Source/os_task.c **** 
 143:rtos/uCOS-III/Source/os_task.c **** 
ARM GAS  /tmp/ccS1bHPU.s 			page 4


 144:rtos/uCOS-III/Source/os_task.c **** /*
 145:rtos/uCOS-III/Source/os_task.c **** ***************************************************************************************************
 146:rtos/uCOS-III/Source/os_task.c **** *                                                    CREATE A TASK
 147:rtos/uCOS-III/Source/os_task.c **** *
 148:rtos/uCOS-III/Source/os_task.c **** * Description: This function is used to have uC/OS-III manage the execution of a task.  Tasks can e
 149:rtos/uCOS-III/Source/os_task.c **** *              prior to the start of multitasking or by a running task.  A task cannot be created b
 150:rtos/uCOS-III/Source/os_task.c **** *
 151:rtos/uCOS-III/Source/os_task.c **** * Arguments  : p_tcb          is a pointer to the task's TCB
 152:rtos/uCOS-III/Source/os_task.c **** *
 153:rtos/uCOS-III/Source/os_task.c **** *              p_name         is a pointer to an ASCII string to provide a name to the task.
 154:rtos/uCOS-III/Source/os_task.c **** *
 155:rtos/uCOS-III/Source/os_task.c **** *              p_task         is a pointer to the task's code
 156:rtos/uCOS-III/Source/os_task.c **** *
 157:rtos/uCOS-III/Source/os_task.c **** *              p_arg          is a pointer to an optional data area which can be used to pass param
 158:rtos/uCOS-III/Source/os_task.c **** *                             the task when the task first executes.  Where the task is concerned i
 159:rtos/uCOS-III/Source/os_task.c **** *                             it was invoked and passed the argument 'p_arg' as follows:
 160:rtos/uCOS-III/Source/os_task.c **** *
 161:rtos/uCOS-III/Source/os_task.c **** *                                 void Task (void *p_arg)
 162:rtos/uCOS-III/Source/os_task.c **** *                                 {
 163:rtos/uCOS-III/Source/os_task.c **** *                                     for (;;) {
 164:rtos/uCOS-III/Source/os_task.c **** *                                         Task code;
 165:rtos/uCOS-III/Source/os_task.c **** *                                     }
 166:rtos/uCOS-III/Source/os_task.c **** *                                 }
 167:rtos/uCOS-III/Source/os_task.c **** *
 168:rtos/uCOS-III/Source/os_task.c **** *              prio           is the task's priority.  A unique priority MUST be assigned to each t
 169:rtos/uCOS-III/Source/os_task.c **** *                             lower the number, the higher the priority.
 170:rtos/uCOS-III/Source/os_task.c **** *
 171:rtos/uCOS-III/Source/os_task.c **** *              p_stk_base     is a pointer to the base address of the stack (i.e. low address).
 172:rtos/uCOS-III/Source/os_task.c **** *
 173:rtos/uCOS-III/Source/os_task.c **** *              stk_limit      is the number of stack elements to set as 'watermark' limit for the s
 174:rtos/uCOS-III/Source/os_task.c **** *                             represents the number of CPU_STK entries left before the stack is ful
 175:rtos/uCOS-III/Source/os_task.c **** *                             specifying 10% of the 'stk_size' value indicates that the stack limit
 176:rtos/uCOS-III/Source/os_task.c **** *                             when the stack reaches 90% full.
 177:rtos/uCOS-III/Source/os_task.c **** *
 178:rtos/uCOS-III/Source/os_task.c **** *              stk_size       is the size of the stack in number of elements.  If CPU_STK is set to
 179:rtos/uCOS-III/Source/os_task.c **** *                             'stk_size' corresponds to the number of bytes available.  If CPU_STK 
 180:rtos/uCOS-III/Source/os_task.c **** *                             CPU_INT16U, 'stk_size' contains the number of 16-bit entries availabl
 181:rtos/uCOS-III/Source/os_task.c **** *                             CPU_STK is set to CPU_INT32U, 'stk_size' contains the number of 32-bi
 182:rtos/uCOS-III/Source/os_task.c **** *                             available on the stack.
 183:rtos/uCOS-III/Source/os_task.c **** *
 184:rtos/uCOS-III/Source/os_task.c **** *              q_size         is the maximum number of messages that can be sent to the task
 185:rtos/uCOS-III/Source/os_task.c **** *
 186:rtos/uCOS-III/Source/os_task.c **** *              time_quanta    amount of time (in ticks) for time slice when round-robin between tas
 187:rtos/uCOS-III/Source/os_task.c **** *                             the default.
 188:rtos/uCOS-III/Source/os_task.c **** *
 189:rtos/uCOS-III/Source/os_task.c **** *              p_ext          is a pointer to a user supplied memory location which is used as a TC
 190:rtos/uCOS-III/Source/os_task.c **** *                             For example, this user memory can hold the contents of floating-point
 191:rtos/uCOS-III/Source/os_task.c **** *                             during a context switch, the time each task takes to execute, the num
 192:rtos/uCOS-III/Source/os_task.c **** *                             the task has been switched-in, etc.
 193:rtos/uCOS-III/Source/os_task.c **** *
 194:rtos/uCOS-III/Source/os_task.c **** *              opt            contains additional information (or options) about the behavior of th
 195:rtos/uCOS-III/Source/os_task.c **** *                             See OS_OPT_TASK_xxx in OS.H.  Current choices are:
 196:rtos/uCOS-III/Source/os_task.c **** *
 197:rtos/uCOS-III/Source/os_task.c **** *                                 OS_OPT_TASK_NONE            No option selected
 198:rtos/uCOS-III/Source/os_task.c **** *                                 OS_OPT_TASK_STK_CHK         Stack checking to be allowed for the 
 199:rtos/uCOS-III/Source/os_task.c **** *                                 OS_OPT_TASK_STK_CLR         Clear the stack when the task is crea
 200:rtos/uCOS-III/Source/os_task.c **** *                                 OS_OPT_TASK_SAVE_FP         If the CPU has floating-point registe
ARM GAS  /tmp/ccS1bHPU.s 			page 5


 201:rtos/uCOS-III/Source/os_task.c **** *                                                             during a context switch.
 202:rtos/uCOS-III/Source/os_task.c **** *                                 OS_OPT_TASK_NO_TLS          If the caller doesn't want or need TL
 203:rtos/uCOS-III/Source/os_task.c **** *                                                             Storage) support for the task.  If yo
 204:rtos/uCOS-III/Source/os_task.c **** *                                                             option, TLS will be supported by defa
 205:rtos/uCOS-III/Source/os_task.c **** *
 206:rtos/uCOS-III/Source/os_task.c **** *              p_err          is a pointer to an error code that will be set during this call.  The
 207:rtos/uCOS-III/Source/os_task.c **** *                             to by 'p_err' can be:
 208:rtos/uCOS-III/Source/os_task.c **** *
 209:rtos/uCOS-III/Source/os_task.c **** *                                 OS_ERR_NONE                    If the function was successful
 210:rtos/uCOS-III/Source/os_task.c **** *                                 OS_ERR_ILLEGAL_CREATE_RUN_TIME If you are trying to create the ta
 211:rtos/uCOS-III/Source/os_task.c **** *                                                                   OSSafetyCriticalStart()
 212:rtos/uCOS-III/Source/os_task.c **** *                                 OS_ERR_PRIO_INVALID            If the priority you specify is hig
 213:rtos/uCOS-III/Source/os_task.c **** *                                                                   allowed (i.e. >= OS_CFG_PRIO_MA
 214:rtos/uCOS-III/Source/os_task.c **** *                                 OS_ERR_STK_OVF                 If the stack was overflowed during
 215:rtos/uCOS-III/Source/os_task.c **** *                                 OS_ERR_STK_INVALID             If you specified a NULL pointer fo
 216:rtos/uCOS-III/Source/os_task.c **** *                                 OS_ERR_STK_SIZE_INVALID        If you specified zero for the 'stk
 217:rtos/uCOS-III/Source/os_task.c **** *                                 OS_ERR_STK_LIMIT_INVALID       If you specified a 'stk_limit' gre
 218:rtos/uCOS-III/Source/os_task.c **** *                                                                   to 'stk_size'
 219:rtos/uCOS-III/Source/os_task.c **** *                                 OS_ERR_TASK_CREATE_ISR         If you tried to create a task from
 220:rtos/uCOS-III/Source/os_task.c **** *                                 OS_ERR_TASK_INVALID            If you specified a NULL pointer fo
 221:rtos/uCOS-III/Source/os_task.c **** *                                 OS_ERR_TCB_INVALID             If you specified a NULL pointer fo
 222:rtos/uCOS-III/Source/os_task.c **** *
 223:rtos/uCOS-III/Source/os_task.c **** * Returns    : none
 224:rtos/uCOS-III/Source/os_task.c **** *
 225:rtos/uCOS-III/Source/os_task.c **** * Note(s)    : 1) OSTaskCreate() will return with the error OS_ERR_STK_OVF when a stack overflow is
 226:rtos/uCOS-III/Source/os_task.c **** *                 during stack initialization. In that specific case some memory may have been corr
 227:rtos/uCOS-III/Source/os_task.c **** *                 therefore recommended to treat OS_ERR_STK_OVF as a fatal error.
 228:rtos/uCOS-III/Source/os_task.c **** ***************************************************************************************************
 229:rtos/uCOS-III/Source/os_task.c **** */
 230:rtos/uCOS-III/Source/os_task.c **** 
 231:rtos/uCOS-III/Source/os_task.c **** void  OSTaskCreate (OS_TCB        *p_tcb,
 232:rtos/uCOS-III/Source/os_task.c ****                     CPU_CHAR      *p_name,
 233:rtos/uCOS-III/Source/os_task.c ****                     OS_TASK_PTR    p_task,
 234:rtos/uCOS-III/Source/os_task.c ****                     void          *p_arg,
 235:rtos/uCOS-III/Source/os_task.c ****                     OS_PRIO        prio,
 236:rtos/uCOS-III/Source/os_task.c ****                     CPU_STK       *p_stk_base,
 237:rtos/uCOS-III/Source/os_task.c ****                     CPU_STK_SIZE   stk_limit,
 238:rtos/uCOS-III/Source/os_task.c ****                     CPU_STK_SIZE   stk_size,
 239:rtos/uCOS-III/Source/os_task.c ****                     OS_MSG_QTY     q_size,
 240:rtos/uCOS-III/Source/os_task.c ****                     OS_TICK        time_quanta,
 241:rtos/uCOS-III/Source/os_task.c ****                     void          *p_ext,
 242:rtos/uCOS-III/Source/os_task.c ****                     OS_OPT         opt,
 243:rtos/uCOS-III/Source/os_task.c ****                     OS_ERR        *p_err)
 244:rtos/uCOS-III/Source/os_task.c **** {
 245:rtos/uCOS-III/Source/os_task.c ****     CPU_STK_SIZE   i;
 246:rtos/uCOS-III/Source/os_task.c **** #if (OS_CFG_TASK_REG_TBL_SIZE > 0u)
 247:rtos/uCOS-III/Source/os_task.c ****     OS_REG_ID      reg_nbr;
 248:rtos/uCOS-III/Source/os_task.c **** #endif
 249:rtos/uCOS-III/Source/os_task.c **** #if defined(OS_CFG_TLS_TBL_SIZE) && (OS_CFG_TLS_TBL_SIZE > 0u)
 250:rtos/uCOS-III/Source/os_task.c ****     OS_TLS_ID      id;
 251:rtos/uCOS-III/Source/os_task.c **** #endif
 252:rtos/uCOS-III/Source/os_task.c **** 
 253:rtos/uCOS-III/Source/os_task.c ****     CPU_STK       *p_sp;
 254:rtos/uCOS-III/Source/os_task.c ****     CPU_STK       *p_stk_limit;
 255:rtos/uCOS-III/Source/os_task.c ****     CPU_SR_ALLOC();
 256:rtos/uCOS-III/Source/os_task.c **** 
 257:rtos/uCOS-III/Source/os_task.c **** 
ARM GAS  /tmp/ccS1bHPU.s 			page 6


 258:rtos/uCOS-III/Source/os_task.c **** 
 259:rtos/uCOS-III/Source/os_task.c **** #ifdef OS_SAFETY_CRITICAL
 260:rtos/uCOS-III/Source/os_task.c ****     if (p_err == (OS_ERR *)0) {
 261:rtos/uCOS-III/Source/os_task.c ****         OS_SAFETY_CRITICAL_EXCEPTION();
 262:rtos/uCOS-III/Source/os_task.c ****         return;
 263:rtos/uCOS-III/Source/os_task.c ****     }
 264:rtos/uCOS-III/Source/os_task.c **** #endif
 265:rtos/uCOS-III/Source/os_task.c **** 
 266:rtos/uCOS-III/Source/os_task.c **** #ifdef OS_SAFETY_CRITICAL_IEC61508
 267:rtos/uCOS-III/Source/os_task.c ****     if (OSSafetyCriticalStartFlag == OS_TRUE) {
 268:rtos/uCOS-III/Source/os_task.c ****        *p_err = OS_ERR_ILLEGAL_CREATE_RUN_TIME;
 269:rtos/uCOS-III/Source/os_task.c ****         return;
 270:rtos/uCOS-III/Source/os_task.c ****     }
 271:rtos/uCOS-III/Source/os_task.c **** #endif
 272:rtos/uCOS-III/Source/os_task.c **** 
 273:rtos/uCOS-III/Source/os_task.c **** #if (OS_CFG_CALLED_FROM_ISR_CHK_EN > 0u)
 274:rtos/uCOS-III/Source/os_task.c ****     if (OSIntNestingCtr > 0u) {                                 /* --------- CANNOT CREATE A TASK F
 275:rtos/uCOS-III/Source/os_task.c ****         OS_TRACE_TASK_CREATE_FAILED(p_tcb);
 276:rtos/uCOS-III/Source/os_task.c ****        *p_err = OS_ERR_TASK_CREATE_ISR;
 277:rtos/uCOS-III/Source/os_task.c ****         return;
 278:rtos/uCOS-III/Source/os_task.c ****     }
 279:rtos/uCOS-III/Source/os_task.c **** #endif
 280:rtos/uCOS-III/Source/os_task.c **** 
 281:rtos/uCOS-III/Source/os_task.c **** #if (OS_CFG_ARG_CHK_EN > 0u)                                    /* ---------------- VALIDATE ARGUME
 282:rtos/uCOS-III/Source/os_task.c ****     if (p_tcb == (OS_TCB *)0) {                                 /* User must supply a valid OS_TCB 
 283:rtos/uCOS-III/Source/os_task.c ****         OS_TRACE_TASK_CREATE_FAILED(p_tcb);
 284:rtos/uCOS-III/Source/os_task.c ****        *p_err = OS_ERR_TCB_INVALID;
 285:rtos/uCOS-III/Source/os_task.c ****         return;
 286:rtos/uCOS-III/Source/os_task.c ****     }
 287:rtos/uCOS-III/Source/os_task.c ****     if (p_task == (OS_TASK_PTR)0u) {                            /* User must supply a valid task   
 288:rtos/uCOS-III/Source/os_task.c ****         OS_TRACE_TASK_CREATE_FAILED(p_tcb);
 289:rtos/uCOS-III/Source/os_task.c ****        *p_err = OS_ERR_TASK_INVALID;
 290:rtos/uCOS-III/Source/os_task.c ****         return;
 291:rtos/uCOS-III/Source/os_task.c ****     }
 292:rtos/uCOS-III/Source/os_task.c ****     if (p_stk_base == (CPU_STK *)0) {                           /* User must supply a valid stack b
 293:rtos/uCOS-III/Source/os_task.c ****         OS_TRACE_TASK_CREATE_FAILED(p_tcb);
 294:rtos/uCOS-III/Source/os_task.c ****        *p_err = OS_ERR_STK_INVALID;
 295:rtos/uCOS-III/Source/os_task.c ****         return;
 296:rtos/uCOS-III/Source/os_task.c ****     }
 297:rtos/uCOS-III/Source/os_task.c ****     if (stk_size < OSCfg_StkSizeMin) {                          /* User must supply a valid minimum
 298:rtos/uCOS-III/Source/os_task.c ****         OS_TRACE_TASK_CREATE_FAILED(p_tcb);
 299:rtos/uCOS-III/Source/os_task.c ****        *p_err = OS_ERR_STK_SIZE_INVALID;
 300:rtos/uCOS-III/Source/os_task.c ****         return;
 301:rtos/uCOS-III/Source/os_task.c ****     }
 302:rtos/uCOS-III/Source/os_task.c ****     if (stk_limit >= stk_size) {                                /* User must supply a valid stack l
 303:rtos/uCOS-III/Source/os_task.c ****         OS_TRACE_TASK_CREATE_FAILED(p_tcb);
 304:rtos/uCOS-III/Source/os_task.c ****        *p_err = OS_ERR_STK_LIMIT_INVALID;
 305:rtos/uCOS-III/Source/os_task.c ****         return;
 306:rtos/uCOS-III/Source/os_task.c ****     }
 307:rtos/uCOS-III/Source/os_task.c ****     if ((prio  > (OS_CFG_PRIO_MAX - 2u)) &&                     /* Priority must be within 0 and OS
 308:rtos/uCOS-III/Source/os_task.c ****         (prio != (OS_CFG_PRIO_MAX - 1u))) {
 309:rtos/uCOS-III/Source/os_task.c ****         OS_TRACE_TASK_CREATE_FAILED(p_tcb);
 310:rtos/uCOS-III/Source/os_task.c ****        *p_err = OS_ERR_PRIO_INVALID;
 311:rtos/uCOS-III/Source/os_task.c ****         return;
 312:rtos/uCOS-III/Source/os_task.c ****     }
 313:rtos/uCOS-III/Source/os_task.c **** #endif
 314:rtos/uCOS-III/Source/os_task.c **** 
ARM GAS  /tmp/ccS1bHPU.s 			page 7


 315:rtos/uCOS-III/Source/os_task.c ****     if (prio == (OS_CFG_PRIO_MAX - 1u)) {
 316:rtos/uCOS-III/Source/os_task.c **** #if (OS_CFG_TASK_IDLE_EN > 0u)
 317:rtos/uCOS-III/Source/os_task.c ****         if (p_tcb != &OSIdleTaskTCB) {
 318:rtos/uCOS-III/Source/os_task.c ****             OS_TRACE_TASK_CREATE_FAILED(p_tcb);
 319:rtos/uCOS-III/Source/os_task.c ****            *p_err = OS_ERR_PRIO_INVALID;                        /* Not allowed to use same priority
 320:rtos/uCOS-III/Source/os_task.c ****             return;
 321:rtos/uCOS-III/Source/os_task.c ****         }
 322:rtos/uCOS-III/Source/os_task.c **** #else
 323:rtos/uCOS-III/Source/os_task.c ****         OS_TRACE_TASK_CREATE_FAILED(p_tcb);
 324:rtos/uCOS-III/Source/os_task.c ****        *p_err = OS_ERR_PRIO_INVALID;                            /* Not allowed to use same priority
 325:rtos/uCOS-III/Source/os_task.c ****         return;
 326:rtos/uCOS-III/Source/os_task.c **** #endif
 327:rtos/uCOS-III/Source/os_task.c ****     }
 328:rtos/uCOS-III/Source/os_task.c **** 
 329:rtos/uCOS-III/Source/os_task.c ****     OS_TaskInitTCB(p_tcb);                                      /* Initialize the TCB to default va
 330:rtos/uCOS-III/Source/os_task.c **** 
 331:rtos/uCOS-III/Source/os_task.c ****    *p_err = OS_ERR_NONE;
 332:rtos/uCOS-III/Source/os_task.c ****                                                                 /* -------------- CLEAR THE TASK'S 
 333:rtos/uCOS-III/Source/os_task.c ****     if (((opt & OS_OPT_TASK_STK_CHK) != 0u) ||                  /* See if stack checking has been e
 334:rtos/uCOS-III/Source/os_task.c ****         ((opt & OS_OPT_TASK_STK_CLR) != 0u)) {                  /* See if stack needs to be cleared
 335:rtos/uCOS-III/Source/os_task.c ****         if ((opt & OS_OPT_TASK_STK_CLR) != 0u) {
 336:rtos/uCOS-III/Source/os_task.c ****             p_sp = p_stk_base;
 337:rtos/uCOS-III/Source/os_task.c ****             for (i = 0u; i < stk_size; i++) {                   /* Stack grows from HIGH to LOW mem
 338:rtos/uCOS-III/Source/os_task.c ****                *p_sp = 0u;                                      /* Clear from bottom of stack and u
 339:rtos/uCOS-III/Source/os_task.c ****                 p_sp++;
 340:rtos/uCOS-III/Source/os_task.c ****             }
 341:rtos/uCOS-III/Source/os_task.c ****         }
 342:rtos/uCOS-III/Source/os_task.c ****     }
 343:rtos/uCOS-III/Source/os_task.c ****                                                                 /* ------ INITIALIZE THE STACK FRAM
 344:rtos/uCOS-III/Source/os_task.c **** #if (CPU_CFG_STK_GROWTH == CPU_STK_GROWTH_HI_TO_LO)
 345:rtos/uCOS-III/Source/os_task.c ****     p_stk_limit = p_stk_base + stk_limit;
 346:rtos/uCOS-III/Source/os_task.c **** #else
 347:rtos/uCOS-III/Source/os_task.c ****     p_stk_limit = p_stk_base + (stk_size - 1u) - stk_limit;
 348:rtos/uCOS-III/Source/os_task.c **** #endif
 349:rtos/uCOS-III/Source/os_task.c **** 
 350:rtos/uCOS-III/Source/os_task.c ****     p_sp = OSTaskStkInit(p_task,
 351:rtos/uCOS-III/Source/os_task.c ****                          p_arg,
 352:rtos/uCOS-III/Source/os_task.c ****                          p_stk_base,
 353:rtos/uCOS-III/Source/os_task.c ****                          p_stk_limit,
 354:rtos/uCOS-III/Source/os_task.c ****                          stk_size,
 355:rtos/uCOS-III/Source/os_task.c ****                          opt);
 356:rtos/uCOS-III/Source/os_task.c **** 
 357:rtos/uCOS-III/Source/os_task.c **** #if (CPU_CFG_STK_GROWTH == CPU_STK_GROWTH_HI_TO_LO)             /* Check if we overflown the stack 
 358:rtos/uCOS-III/Source/os_task.c ****     if (p_sp < p_stk_base) {
 359:rtos/uCOS-III/Source/os_task.c ****        *p_err = OS_ERR_STK_OVF;
 360:rtos/uCOS-III/Source/os_task.c ****         return;
 361:rtos/uCOS-III/Source/os_task.c ****     }
 362:rtos/uCOS-III/Source/os_task.c **** #else
 363:rtos/uCOS-III/Source/os_task.c ****     if (p_sp > (p_stk_base + stk_size)) {
 364:rtos/uCOS-III/Source/os_task.c ****        *p_err = OS_ERR_STK_OVF;
 365:rtos/uCOS-III/Source/os_task.c ****         return;
 366:rtos/uCOS-III/Source/os_task.c ****     }
 367:rtos/uCOS-III/Source/os_task.c **** #endif
 368:rtos/uCOS-III/Source/os_task.c **** 
 369:rtos/uCOS-III/Source/os_task.c **** #if (OS_CFG_TASK_STK_REDZONE_EN > 0u)                           /* Initialize Redzoned stack       
 370:rtos/uCOS-III/Source/os_task.c ****     OS_TaskStkRedzoneInit(p_stk_base, stk_size);
 371:rtos/uCOS-III/Source/os_task.c **** #endif
ARM GAS  /tmp/ccS1bHPU.s 			page 8


 372:rtos/uCOS-III/Source/os_task.c **** 
 373:rtos/uCOS-III/Source/os_task.c ****                                                                 /* ------------ INITIALIZE THE TCB 
 374:rtos/uCOS-III/Source/os_task.c **** #if (OS_CFG_DBG_EN > 0u)
 375:rtos/uCOS-III/Source/os_task.c ****     p_tcb->TaskEntryAddr = p_task;                              /* Save task entry point address   
 376:rtos/uCOS-III/Source/os_task.c ****     p_tcb->TaskEntryArg  = p_arg;                               /* Save task entry argument        
 377:rtos/uCOS-III/Source/os_task.c **** #endif
 378:rtos/uCOS-III/Source/os_task.c **** 
 379:rtos/uCOS-III/Source/os_task.c **** #if (OS_CFG_DBG_EN > 0u)
 380:rtos/uCOS-III/Source/os_task.c ****     p_tcb->NamePtr       = p_name;                              /* Save task name                  
 381:rtos/uCOS-III/Source/os_task.c **** #else
 382:rtos/uCOS-III/Source/os_task.c ****     (void)p_name;
 383:rtos/uCOS-III/Source/os_task.c **** #endif
 384:rtos/uCOS-III/Source/os_task.c **** 
 385:rtos/uCOS-III/Source/os_task.c ****     p_tcb->Prio          = prio;                                /* Save the task's priority        
 386:rtos/uCOS-III/Source/os_task.c **** 
 387:rtos/uCOS-III/Source/os_task.c **** #if (OS_CFG_MUTEX_EN > 0u)
 388:rtos/uCOS-III/Source/os_task.c ****     p_tcb->BasePrio      = prio;                                /* Set the base priority           
 389:rtos/uCOS-III/Source/os_task.c **** #endif
 390:rtos/uCOS-III/Source/os_task.c **** 
 391:rtos/uCOS-III/Source/os_task.c ****     p_tcb->StkPtr        = p_sp;                                /* Save the new top-of-stack pointe
 392:rtos/uCOS-III/Source/os_task.c ****     p_tcb->StkLimitPtr   = p_stk_limit;                         /* Save the stack limit pointer    
 393:rtos/uCOS-III/Source/os_task.c **** 
 394:rtos/uCOS-III/Source/os_task.c **** #if (OS_CFG_SCHED_ROUND_ROBIN_EN > 0u)
 395:rtos/uCOS-III/Source/os_task.c ****     p_tcb->TimeQuanta    = time_quanta;                         /* Save the #ticks for time slice (
 396:rtos/uCOS-III/Source/os_task.c ****     if (time_quanta == 0u) {
 397:rtos/uCOS-III/Source/os_task.c ****         p_tcb->TimeQuantaCtr = OSSchedRoundRobinDfltTimeQuanta;
 398:rtos/uCOS-III/Source/os_task.c ****     } else {
 399:rtos/uCOS-III/Source/os_task.c ****         p_tcb->TimeQuantaCtr = time_quanta;
 400:rtos/uCOS-III/Source/os_task.c ****     }
 401:rtos/uCOS-III/Source/os_task.c **** #else
 402:rtos/uCOS-III/Source/os_task.c ****     (void)time_quanta;
 403:rtos/uCOS-III/Source/os_task.c **** #endif
 404:rtos/uCOS-III/Source/os_task.c **** 
 405:rtos/uCOS-III/Source/os_task.c ****     p_tcb->ExtPtr        = p_ext;                               /* Save pointer to TCB extension   
 406:rtos/uCOS-III/Source/os_task.c **** #if ((OS_CFG_DBG_EN > 0u) || (OS_CFG_STAT_TASK_STK_CHK_EN > 0u) || (OS_CFG_TASK_STK_REDZONE_EN > 0u
 407:rtos/uCOS-III/Source/os_task.c ****     p_tcb->StkBasePtr    = p_stk_base;                          /* Save pointer to the base address
 408:rtos/uCOS-III/Source/os_task.c ****     p_tcb->StkSize       = stk_size;                            /* Save the stack size (in number o
 409:rtos/uCOS-III/Source/os_task.c **** #endif
 410:rtos/uCOS-III/Source/os_task.c ****     p_tcb->Opt           = opt;                                 /* Save task options               
 411:rtos/uCOS-III/Source/os_task.c **** 
 412:rtos/uCOS-III/Source/os_task.c **** #if (OS_CFG_TASK_REG_TBL_SIZE > 0u)
 413:rtos/uCOS-III/Source/os_task.c ****     for (reg_nbr = 0u; reg_nbr < OS_CFG_TASK_REG_TBL_SIZE; reg_nbr++) {
 414:rtos/uCOS-III/Source/os_task.c ****         p_tcb->RegTbl[reg_nbr] = 0u;
 415:rtos/uCOS-III/Source/os_task.c ****     }
 416:rtos/uCOS-III/Source/os_task.c **** #endif
 417:rtos/uCOS-III/Source/os_task.c **** 
 418:rtos/uCOS-III/Source/os_task.c **** #if (OS_CFG_TASK_Q_EN > 0u)
 419:rtos/uCOS-III/Source/os_task.c ****     OS_MsgQInit(&p_tcb->MsgQ,                                   /* Initialize the task's message qu
 420:rtos/uCOS-III/Source/os_task.c ****                 q_size);
 421:rtos/uCOS-III/Source/os_task.c **** #else
 422:rtos/uCOS-III/Source/os_task.c ****     (void)q_size;
 423:rtos/uCOS-III/Source/os_task.c **** #endif
 424:rtos/uCOS-III/Source/os_task.c **** 
 425:rtos/uCOS-III/Source/os_task.c ****     OSTaskCreateHook(p_tcb);                                    /* Call user defined hook          
 426:rtos/uCOS-III/Source/os_task.c **** 
 427:rtos/uCOS-III/Source/os_task.c ****     OS_TRACE_TASK_CREATE(p_tcb);
 428:rtos/uCOS-III/Source/os_task.c ****     OS_TRACE_TASK_SEM_CREATE(p_tcb, p_name);
ARM GAS  /tmp/ccS1bHPU.s 			page 9


 429:rtos/uCOS-III/Source/os_task.c **** #if (OS_CFG_TASK_Q_EN > 0u)
 430:rtos/uCOS-III/Source/os_task.c ****     OS_TRACE_TASK_MSG_Q_CREATE(&p_tcb->MsgQ, p_name);
 431:rtos/uCOS-III/Source/os_task.c **** #endif
 432:rtos/uCOS-III/Source/os_task.c **** 
 433:rtos/uCOS-III/Source/os_task.c **** #if defined(OS_CFG_TLS_TBL_SIZE) && (OS_CFG_TLS_TBL_SIZE > 0u)
 434:rtos/uCOS-III/Source/os_task.c ****     for (id = 0u; id < OS_CFG_TLS_TBL_SIZE; id++) {
 435:rtos/uCOS-III/Source/os_task.c ****         p_tcb->TLS_Tbl[id] = 0u;
 436:rtos/uCOS-III/Source/os_task.c ****     }
 437:rtos/uCOS-III/Source/os_task.c ****     OS_TLS_TaskCreate(p_tcb);                                   /* Call TLS hook                   
 438:rtos/uCOS-III/Source/os_task.c **** #endif
 439:rtos/uCOS-III/Source/os_task.c ****                                                                 /* -------------- ADD TASK TO READY
 440:rtos/uCOS-III/Source/os_task.c ****     CPU_CRITICAL_ENTER();
 441:rtos/uCOS-III/Source/os_task.c ****     OS_PrioInsert(p_tcb->Prio);
 442:rtos/uCOS-III/Source/os_task.c ****     OS_RdyListInsertTail(p_tcb);
 443:rtos/uCOS-III/Source/os_task.c **** 
 444:rtos/uCOS-III/Source/os_task.c **** #if (OS_CFG_DBG_EN > 0u)
 445:rtos/uCOS-III/Source/os_task.c ****     OS_TaskDbgListAdd(p_tcb);
 446:rtos/uCOS-III/Source/os_task.c **** #endif
 447:rtos/uCOS-III/Source/os_task.c **** 
 448:rtos/uCOS-III/Source/os_task.c ****     OSTaskQty++;                                                /* Increment the #tasks counter    
 449:rtos/uCOS-III/Source/os_task.c **** 
 450:rtos/uCOS-III/Source/os_task.c ****     if (OSRunning != OS_STATE_OS_RUNNING) {                     /* Return if multitasking has not s
 451:rtos/uCOS-III/Source/os_task.c ****         CPU_CRITICAL_EXIT();
 452:rtos/uCOS-III/Source/os_task.c ****         return;
 453:rtos/uCOS-III/Source/os_task.c ****     }
 454:rtos/uCOS-III/Source/os_task.c **** 
 455:rtos/uCOS-III/Source/os_task.c ****     CPU_CRITICAL_EXIT();
 456:rtos/uCOS-III/Source/os_task.c **** 
 457:rtos/uCOS-III/Source/os_task.c ****     OSSched();
 458:rtos/uCOS-III/Source/os_task.c **** }
 459:rtos/uCOS-III/Source/os_task.c **** 
 460:rtos/uCOS-III/Source/os_task.c **** 
 461:rtos/uCOS-III/Source/os_task.c **** /*
 462:rtos/uCOS-III/Source/os_task.c **** ***************************************************************************************************
 463:rtos/uCOS-III/Source/os_task.c **** *                                                     DELETE A TASK
 464:rtos/uCOS-III/Source/os_task.c **** *
 465:rtos/uCOS-III/Source/os_task.c **** * Description: This function allows you to delete a task.  The calling task can delete itself by sp
 466:rtos/uCOS-III/Source/os_task.c **** *              pointer for 'p_tcb'.  The deleted task is returned to the dormant state and can be r
 467:rtos/uCOS-III/Source/os_task.c **** *              creating the deleted task again.
 468:rtos/uCOS-III/Source/os_task.c **** *
 469:rtos/uCOS-III/Source/os_task.c **** * Arguments  : p_tcb      is the TCB of the tack to delete
 470:rtos/uCOS-III/Source/os_task.c **** *
 471:rtos/uCOS-III/Source/os_task.c **** *              p_err      is a pointer to an error code returned by this function:
 472:rtos/uCOS-III/Source/os_task.c **** *
 473:rtos/uCOS-III/Source/os_task.c **** *                             OS_ERR_NONE                    If the call is successful
 474:rtos/uCOS-III/Source/os_task.c **** *                             OS_ERR_ILLEGAL_DEL_RUN_TIME    If you are trying to delete the task a
 475:rtos/uCOS-III/Source/os_task.c **** *                                                              OSStart()
 476:rtos/uCOS-III/Source/os_task.c **** *                             OS_ERR_OS_NOT_RUNNING          If uC/OS-III is not running yet
 477:rtos/uCOS-III/Source/os_task.c **** *                             OS_ERR_STATE_INVALID           If the state of the task is invalid
 478:rtos/uCOS-III/Source/os_task.c **** *                             OS_ERR_TASK_DEL_IDLE           If you attempted to delete uC/OS-III's
 479:rtos/uCOS-III/Source/os_task.c **** *                             OS_ERR_TASK_DEL_INVALID        If you attempted to delete uC/OS-III's
 480:rtos/uCOS-III/Source/os_task.c **** *                             OS_ERR_TASK_DEL_ISR            If you tried to delete a task from an 
 481:rtos/uCOS-III/Source/os_task.c **** *
 482:rtos/uCOS-III/Source/os_task.c **** * Returns    : none
 483:rtos/uCOS-III/Source/os_task.c **** *
 484:rtos/uCOS-III/Source/os_task.c **** * Note(s)    : 1) 'p_err' gets set to OS_ERR_NONE before OSSched() to allow the returned err or cod
 485:rtos/uCOS-III/Source/os_task.c **** *                 for a task that is deleting itself. In this case, 'p_err' MUST point to a global 
ARM GAS  /tmp/ccS1bHPU.s 			page 10


 486:rtos/uCOS-III/Source/os_task.c **** *                 accessed by another task.
 487:rtos/uCOS-III/Source/os_task.c **** ***************************************************************************************************
 488:rtos/uCOS-III/Source/os_task.c **** */
 489:rtos/uCOS-III/Source/os_task.c **** 
 490:rtos/uCOS-III/Source/os_task.c **** #if (OS_CFG_TASK_DEL_EN > 0u)
 491:rtos/uCOS-III/Source/os_task.c **** void  OSTaskDel (OS_TCB  *p_tcb,
 492:rtos/uCOS-III/Source/os_task.c ****                  OS_ERR  *p_err)
 493:rtos/uCOS-III/Source/os_task.c **** {
 494:rtos/uCOS-III/Source/os_task.c **** #if (OS_CFG_MUTEX_EN > 0u)
 495:rtos/uCOS-III/Source/os_task.c ****     OS_TCB   *p_tcb_owner;
 496:rtos/uCOS-III/Source/os_task.c ****     OS_PRIO   prio_new;
 497:rtos/uCOS-III/Source/os_task.c **** #endif
 498:rtos/uCOS-III/Source/os_task.c ****     CPU_SR_ALLOC();
 499:rtos/uCOS-III/Source/os_task.c **** 
 500:rtos/uCOS-III/Source/os_task.c **** 
 501:rtos/uCOS-III/Source/os_task.c **** #ifdef OS_SAFETY_CRITICAL
 502:rtos/uCOS-III/Source/os_task.c ****     if (p_err == (OS_ERR *)0) {
 503:rtos/uCOS-III/Source/os_task.c ****         OS_SAFETY_CRITICAL_EXCEPTION();
 504:rtos/uCOS-III/Source/os_task.c ****         return;
 505:rtos/uCOS-III/Source/os_task.c ****     }
 506:rtos/uCOS-III/Source/os_task.c **** #endif
 507:rtos/uCOS-III/Source/os_task.c **** 
 508:rtos/uCOS-III/Source/os_task.c **** #ifdef OS_SAFETY_CRITICAL_IEC61508
 509:rtos/uCOS-III/Source/os_task.c ****     if (OSSafetyCriticalStartFlag == OS_TRUE) {
 510:rtos/uCOS-III/Source/os_task.c ****        *p_err = OS_ERR_ILLEGAL_DEL_RUN_TIME;
 511:rtos/uCOS-III/Source/os_task.c ****         return;
 512:rtos/uCOS-III/Source/os_task.c ****     }
 513:rtos/uCOS-III/Source/os_task.c **** #endif
 514:rtos/uCOS-III/Source/os_task.c **** 
 515:rtos/uCOS-III/Source/os_task.c **** #if (OS_CFG_CALLED_FROM_ISR_CHK_EN > 0u)
 516:rtos/uCOS-III/Source/os_task.c ****     if (OSIntNestingCtr > 0u) {                                 /* See if trying to delete from ISR
 517:rtos/uCOS-III/Source/os_task.c ****        *p_err = OS_ERR_TASK_DEL_ISR;
 518:rtos/uCOS-III/Source/os_task.c ****         return;
 519:rtos/uCOS-III/Source/os_task.c ****     }
 520:rtos/uCOS-III/Source/os_task.c **** #endif
 521:rtos/uCOS-III/Source/os_task.c **** 
 522:rtos/uCOS-III/Source/os_task.c **** #if (OS_CFG_INVALID_OS_CALLS_CHK_EN > 0u)
 523:rtos/uCOS-III/Source/os_task.c ****     if (OSRunning != OS_STATE_OS_RUNNING) {                     /* Is the kernel running?          
 524:rtos/uCOS-III/Source/os_task.c ****        *p_err = OS_ERR_OS_NOT_RUNNING;
 525:rtos/uCOS-III/Source/os_task.c ****         return;
 526:rtos/uCOS-III/Source/os_task.c ****     }
 527:rtos/uCOS-III/Source/os_task.c **** #endif
 528:rtos/uCOS-III/Source/os_task.c **** 
 529:rtos/uCOS-III/Source/os_task.c **** #if (OS_CFG_TASK_IDLE_EN > 0u)
 530:rtos/uCOS-III/Source/os_task.c ****     if (p_tcb == &OSIdleTaskTCB) {                              /* Not allowed to delete the idle t
 531:rtos/uCOS-III/Source/os_task.c ****        *p_err = OS_ERR_TASK_DEL_IDLE;
 532:rtos/uCOS-III/Source/os_task.c ****         return;
 533:rtos/uCOS-III/Source/os_task.c ****     }
 534:rtos/uCOS-III/Source/os_task.c **** #endif
 535:rtos/uCOS-III/Source/os_task.c **** 
 536:rtos/uCOS-III/Source/os_task.c ****     if (p_tcb == (OS_TCB *)0) {                                 /* Delete 'Self'?                  
 537:rtos/uCOS-III/Source/os_task.c ****         CPU_CRITICAL_ENTER();
 538:rtos/uCOS-III/Source/os_task.c ****         p_tcb  = OSTCBCurPtr;                                   /* Yes.                            
 539:rtos/uCOS-III/Source/os_task.c ****         CPU_CRITICAL_EXIT();
 540:rtos/uCOS-III/Source/os_task.c ****     }
 541:rtos/uCOS-III/Source/os_task.c **** 
 542:rtos/uCOS-III/Source/os_task.c ****     CPU_CRITICAL_ENTER();
ARM GAS  /tmp/ccS1bHPU.s 			page 11


 543:rtos/uCOS-III/Source/os_task.c ****     switch (p_tcb->TaskState) {
 544:rtos/uCOS-III/Source/os_task.c ****         case OS_TASK_STATE_RDY:
 545:rtos/uCOS-III/Source/os_task.c ****              OS_RdyListRemove(p_tcb);
 546:rtos/uCOS-III/Source/os_task.c ****              break;
 547:rtos/uCOS-III/Source/os_task.c **** 
 548:rtos/uCOS-III/Source/os_task.c ****         case OS_TASK_STATE_SUSPENDED:
 549:rtos/uCOS-III/Source/os_task.c ****              break;
 550:rtos/uCOS-III/Source/os_task.c **** 
 551:rtos/uCOS-III/Source/os_task.c ****         case OS_TASK_STATE_DLY:                                 /* Task is only delayed, not on any
 552:rtos/uCOS-III/Source/os_task.c ****         case OS_TASK_STATE_DLY_SUSPENDED:
 553:rtos/uCOS-III/Source/os_task.c **** #if (OS_CFG_TICK_EN > 0u)
 554:rtos/uCOS-III/Source/os_task.c ****              OS_TickListRemove(p_tcb);
 555:rtos/uCOS-III/Source/os_task.c **** #endif
 556:rtos/uCOS-III/Source/os_task.c ****              break;
 557:rtos/uCOS-III/Source/os_task.c **** 
 558:rtos/uCOS-III/Source/os_task.c ****         case OS_TASK_STATE_PEND:
 559:rtos/uCOS-III/Source/os_task.c ****         case OS_TASK_STATE_PEND_SUSPENDED:
 560:rtos/uCOS-III/Source/os_task.c ****         case OS_TASK_STATE_PEND_TIMEOUT:
 561:rtos/uCOS-III/Source/os_task.c ****         case OS_TASK_STATE_PEND_TIMEOUT_SUSPENDED:
 562:rtos/uCOS-III/Source/os_task.c ****              switch (p_tcb->PendOn) {                           /* See what we are pending on      
 563:rtos/uCOS-III/Source/os_task.c ****                  case OS_TASK_PEND_ON_NOTHING:
 564:rtos/uCOS-III/Source/os_task.c ****                  case OS_TASK_PEND_ON_TASK_Q:                   /* There is no wait list for these 
 565:rtos/uCOS-III/Source/os_task.c ****                  case OS_TASK_PEND_ON_TASK_SEM:
 566:rtos/uCOS-III/Source/os_task.c ****                       break;
 567:rtos/uCOS-III/Source/os_task.c **** 
 568:rtos/uCOS-III/Source/os_task.c ****                  case OS_TASK_PEND_ON_FLAG:                     /* Remove from pend list           
 569:rtos/uCOS-III/Source/os_task.c ****                  case OS_TASK_PEND_ON_Q:
 570:rtos/uCOS-III/Source/os_task.c ****                  case OS_TASK_PEND_ON_SEM:
 571:rtos/uCOS-III/Source/os_task.c ****                       OS_PendListRemove(p_tcb);
 572:rtos/uCOS-III/Source/os_task.c ****                       break;
 573:rtos/uCOS-III/Source/os_task.c **** 
 574:rtos/uCOS-III/Source/os_task.c **** #if (OS_CFG_MUTEX_EN > 0u)
 575:rtos/uCOS-III/Source/os_task.c ****                  case OS_TASK_PEND_ON_MUTEX:
 576:rtos/uCOS-III/Source/os_task.c ****                       p_tcb_owner = ((OS_MUTEX *)((void *)p_tcb->PendObjPtr))->OwnerTCBPtr;
 577:rtos/uCOS-III/Source/os_task.c ****                       prio_new = p_tcb_owner->Prio;
 578:rtos/uCOS-III/Source/os_task.c ****                       OS_PendListRemove(p_tcb);
 579:rtos/uCOS-III/Source/os_task.c ****                       if ((p_tcb_owner->Prio != p_tcb_owner->BasePrio) &&
 580:rtos/uCOS-III/Source/os_task.c ****                           (p_tcb_owner->Prio == p_tcb->Prio)) { /* Has the owner inherited a priori
 581:rtos/uCOS-III/Source/os_task.c ****                           prio_new = OS_MutexGrpPrioFindHighest(p_tcb_owner);
 582:rtos/uCOS-III/Source/os_task.c ****                           prio_new = (prio_new > p_tcb_owner->BasePrio) ? p_tcb_owner->BasePrio : p
 583:rtos/uCOS-III/Source/os_task.c ****                       }
 584:rtos/uCOS-III/Source/os_task.c ****                       p_tcb->PendOn = OS_TASK_PEND_ON_NOTHING;
 585:rtos/uCOS-III/Source/os_task.c **** 
 586:rtos/uCOS-III/Source/os_task.c ****                       if (prio_new != p_tcb_owner->Prio) {
 587:rtos/uCOS-III/Source/os_task.c ****                           OS_TaskChangePrio(p_tcb_owner, prio_new);
 588:rtos/uCOS-III/Source/os_task.c ****                           OS_TRACE_MUTEX_TASK_PRIO_DISINHERIT(p_tcb_owner, p_tcb_owner->Prio);
 589:rtos/uCOS-III/Source/os_task.c ****                       }
 590:rtos/uCOS-III/Source/os_task.c ****                       break;
 591:rtos/uCOS-III/Source/os_task.c **** #endif
 592:rtos/uCOS-III/Source/os_task.c **** 
 593:rtos/uCOS-III/Source/os_task.c ****                  default:
 594:rtos/uCOS-III/Source/os_task.c ****                                                                 /* Default case.                   
 595:rtos/uCOS-III/Source/os_task.c ****                       break;
 596:rtos/uCOS-III/Source/os_task.c ****              }
 597:rtos/uCOS-III/Source/os_task.c **** #if (OS_CFG_TICK_EN > 0u)
 598:rtos/uCOS-III/Source/os_task.c ****              if ((p_tcb->TaskState == OS_TASK_STATE_PEND_TIMEOUT) ||
 599:rtos/uCOS-III/Source/os_task.c ****                  (p_tcb->TaskState == OS_TASK_STATE_PEND_TIMEOUT_SUSPENDED)) {
ARM GAS  /tmp/ccS1bHPU.s 			page 12


 600:rtos/uCOS-III/Source/os_task.c ****                  OS_TickListRemove(p_tcb);
 601:rtos/uCOS-III/Source/os_task.c ****              }
 602:rtos/uCOS-III/Source/os_task.c **** #endif
 603:rtos/uCOS-III/Source/os_task.c ****              break;
 604:rtos/uCOS-III/Source/os_task.c **** 
 605:rtos/uCOS-III/Source/os_task.c ****         default:
 606:rtos/uCOS-III/Source/os_task.c ****             CPU_CRITICAL_EXIT();
 607:rtos/uCOS-III/Source/os_task.c ****            *p_err = OS_ERR_STATE_INVALID;
 608:rtos/uCOS-III/Source/os_task.c ****             return;
 609:rtos/uCOS-III/Source/os_task.c ****     }
 610:rtos/uCOS-III/Source/os_task.c **** 
 611:rtos/uCOS-III/Source/os_task.c **** #if (OS_CFG_MUTEX_EN > 0u)
 612:rtos/uCOS-III/Source/os_task.c ****     if(p_tcb->MutexGrpHeadPtr != (OS_MUTEX *)0) {
 613:rtos/uCOS-III/Source/os_task.c ****         OS_MutexGrpPostAll(p_tcb);
 614:rtos/uCOS-III/Source/os_task.c ****     }
 615:rtos/uCOS-III/Source/os_task.c **** #endif
 616:rtos/uCOS-III/Source/os_task.c **** 
 617:rtos/uCOS-III/Source/os_task.c **** #if (OS_CFG_TASK_Q_EN > 0u)
 618:rtos/uCOS-III/Source/os_task.c ****     (void)OS_MsgQFreeAll(&p_tcb->MsgQ);                         /* Free task's message queue messag
 619:rtos/uCOS-III/Source/os_task.c **** #endif
 620:rtos/uCOS-III/Source/os_task.c **** 
 621:rtos/uCOS-III/Source/os_task.c ****     OSTaskDelHook(p_tcb);                                       /* Call user defined hook          
 622:rtos/uCOS-III/Source/os_task.c **** 
 623:rtos/uCOS-III/Source/os_task.c **** #if defined(OS_CFG_TLS_TBL_SIZE) && (OS_CFG_TLS_TBL_SIZE > 0u)
 624:rtos/uCOS-III/Source/os_task.c ****     OS_TLS_TaskDel(p_tcb);                                      /* Call TLS hook                   
 625:rtos/uCOS-III/Source/os_task.c **** #endif
 626:rtos/uCOS-III/Source/os_task.c **** 
 627:rtos/uCOS-III/Source/os_task.c **** #if (OS_CFG_DBG_EN > 0u)
 628:rtos/uCOS-III/Source/os_task.c ****     OS_TaskDbgListRemove(p_tcb);
 629:rtos/uCOS-III/Source/os_task.c **** #endif
 630:rtos/uCOS-III/Source/os_task.c **** 
 631:rtos/uCOS-III/Source/os_task.c ****     OSTaskQty--;                                                /* One less task being managed     
 632:rtos/uCOS-III/Source/os_task.c **** 
 633:rtos/uCOS-III/Source/os_task.c ****     OS_TRACE_TASK_DEL(p_tcb);
 634:rtos/uCOS-III/Source/os_task.c **** 
 635:rtos/uCOS-III/Source/os_task.c **** #if (OS_CFG_TASK_STK_REDZONE_EN == 0u)                          /* Don't clear the TCB before check
 636:rtos/uCOS-III/Source/os_task.c ****     OS_TaskInitTCB(p_tcb);                                      /* Initialize the TCB to default va
 637:rtos/uCOS-III/Source/os_task.c **** #endif
 638:rtos/uCOS-III/Source/os_task.c ****     p_tcb->TaskState = (OS_STATE)OS_TASK_STATE_DEL;             /* Indicate that the task was delet
 639:rtos/uCOS-III/Source/os_task.c **** 
 640:rtos/uCOS-III/Source/os_task.c ****    *p_err = OS_ERR_NONE;                                        /* See Note #1.                    
 641:rtos/uCOS-III/Source/os_task.c ****     CPU_CRITICAL_EXIT();
 642:rtos/uCOS-III/Source/os_task.c **** 
 643:rtos/uCOS-III/Source/os_task.c ****     OSSched();                                                  /* Find new highest priority task  
 644:rtos/uCOS-III/Source/os_task.c **** }
 645:rtos/uCOS-III/Source/os_task.c **** #endif
 646:rtos/uCOS-III/Source/os_task.c **** 
 647:rtos/uCOS-III/Source/os_task.c **** 
 648:rtos/uCOS-III/Source/os_task.c **** /*
 649:rtos/uCOS-III/Source/os_task.c **** ***************************************************************************************************
 650:rtos/uCOS-III/Source/os_task.c **** *                                                    FLUSH TASK's QUEUE
 651:rtos/uCOS-III/Source/os_task.c **** *
 652:rtos/uCOS-III/Source/os_task.c **** * Description: This function is used to flush the task's internal message queue.
 653:rtos/uCOS-III/Source/os_task.c **** *
 654:rtos/uCOS-III/Source/os_task.c **** * Arguments  : p_tcb       is a pointer to the task's OS_TCB.  Specifying a NULL pointer indicates 
 655:rtos/uCOS-III/Source/os_task.c **** *                          flush the message queue of the calling task.
 656:rtos/uCOS-III/Source/os_task.c **** *
ARM GAS  /tmp/ccS1bHPU.s 			page 13


 657:rtos/uCOS-III/Source/os_task.c **** *              p_err       is a pointer to a variable that will contain an error code returned by t
 658:rtos/uCOS-III/Source/os_task.c **** *
 659:rtos/uCOS-III/Source/os_task.c **** *                              OS_ERR_NONE              Upon success
 660:rtos/uCOS-III/Source/os_task.c **** *                              OS_ERR_FLUSH_ISR         If you called this function from an ISR
 661:rtos/uCOS-III/Source/os_task.c **** *                              OS_ERR_OS_NOT_RUNNING    If uC/OS-III is not running yet
 662:rtos/uCOS-III/Source/os_task.c **** *
 663:rtos/uCOS-III/Source/os_task.c **** * Returns     : The number of entries freed from the queue
 664:rtos/uCOS-III/Source/os_task.c **** *
 665:rtos/uCOS-III/Source/os_task.c **** * Note(s)     : 1) You should use this function with great care because, when to flush the queue, y
 666:rtos/uCOS-III/Source/os_task.c **** *                  references to what the queue entries are pointing to and thus, you could cause '
 667:rtos/uCOS-III/Source/os_task.c **** *                  other words, the data you are pointing to that's being referenced by the queue e
 668:rtos/uCOS-III/Source/os_task.c **** *                  likely, need to be de-allocated (i.e. freed).
 669:rtos/uCOS-III/Source/os_task.c **** ***************************************************************************************************
 670:rtos/uCOS-III/Source/os_task.c **** */
 671:rtos/uCOS-III/Source/os_task.c **** 
 672:rtos/uCOS-III/Source/os_task.c **** #if (OS_CFG_TASK_Q_EN > 0u)
 673:rtos/uCOS-III/Source/os_task.c **** OS_MSG_QTY  OSTaskQFlush (OS_TCB  *p_tcb,
 674:rtos/uCOS-III/Source/os_task.c ****                           OS_ERR  *p_err)
 675:rtos/uCOS-III/Source/os_task.c **** {
  30              		.loc 1 675 1 view -0
  31              		.cfi_startproc
  32              		@ args = 0, pretend = 0, frame = 0
  33              		@ frame_needed = 0, uses_anonymous_args = 0
  34              		.loc 1 675 1 is_stmt 0 view .LVU1
  35 0000 70B5     		push	{r4, r5, r6, lr}
  36              	.LCFI0:
  37              		.cfi_def_cfa_offset 16
  38              		.cfi_offset 4, -16
  39              		.cfi_offset 5, -12
  40              		.cfi_offset 6, -8
  41              		.cfi_offset 14, -4
  42 0002 0C46     		mov	r4, r1
 676:rtos/uCOS-III/Source/os_task.c ****     OS_MSG_QTY  entries;
  43              		.loc 1 676 5 is_stmt 1 view .LVU2
 677:rtos/uCOS-III/Source/os_task.c ****     CPU_SR_ALLOC();
  44              		.loc 1 677 5 view .LVU3
  45              	.LVL1:
 678:rtos/uCOS-III/Source/os_task.c **** 
 679:rtos/uCOS-III/Source/os_task.c **** 
 680:rtos/uCOS-III/Source/os_task.c **** #ifdef OS_SAFETY_CRITICAL
 681:rtos/uCOS-III/Source/os_task.c ****     if (p_err == (OS_ERR *)0) {
 682:rtos/uCOS-III/Source/os_task.c ****         OS_SAFETY_CRITICAL_EXCEPTION();
 683:rtos/uCOS-III/Source/os_task.c ****         return (0u);
 684:rtos/uCOS-III/Source/os_task.c ****     }
 685:rtos/uCOS-III/Source/os_task.c **** #endif
 686:rtos/uCOS-III/Source/os_task.c **** 
 687:rtos/uCOS-III/Source/os_task.c **** #if (OS_CFG_CALLED_FROM_ISR_CHK_EN > 0u)
 688:rtos/uCOS-III/Source/os_task.c ****     if (OSIntNestingCtr > 0u) {                                 /* Can't flush a message queue from
  46              		.loc 1 688 5 view .LVU4
  47              		.loc 1 688 25 is_stmt 0 view .LVU5
  48 0004 154B     		ldr	r3, .L9
  49 0006 1B78     		ldrb	r3, [r3]	@ zero_extendqisi2
  50              		.loc 1 688 8 view .LVU6
  51 0008 4BB9     		cbnz	r3, .L7
  52 000a 0546     		mov	r5, r0
 689:rtos/uCOS-III/Source/os_task.c ****        *p_err = OS_ERR_FLUSH_ISR;
 690:rtos/uCOS-III/Source/os_task.c ****         return (0u);
ARM GAS  /tmp/ccS1bHPU.s 			page 14


 691:rtos/uCOS-III/Source/os_task.c ****     }
 692:rtos/uCOS-III/Source/os_task.c **** #endif
 693:rtos/uCOS-III/Source/os_task.c **** 
 694:rtos/uCOS-III/Source/os_task.c **** #if (OS_CFG_INVALID_OS_CALLS_CHK_EN > 0u)
 695:rtos/uCOS-III/Source/os_task.c ****     if (OSRunning != OS_STATE_OS_RUNNING) {                     /* Is the kernel running?          
  53              		.loc 1 695 5 is_stmt 1 view .LVU7
  54              		.loc 1 695 19 is_stmt 0 view .LVU8
  55 000c 144B     		ldr	r3, .L9+4
  56 000e 1B78     		ldrb	r3, [r3]	@ zero_extendqisi2
  57              		.loc 1 695 8 view .LVU9
  58 0010 012B     		cmp	r3, #1
  59 0012 0AD0     		beq	.L4
 696:rtos/uCOS-III/Source/os_task.c ****        *p_err = OS_ERR_OS_NOT_RUNNING;
  60              		.loc 1 696 8 is_stmt 1 view .LVU10
  61              		.loc 1 696 15 is_stmt 0 view .LVU11
  62 0014 45F68963 		movw	r3, #24201
  63 0018 0B80     		strh	r3, [r1]	@ movhi
 697:rtos/uCOS-III/Source/os_task.c ****         return (0u);
  64              		.loc 1 697 9 is_stmt 1 view .LVU12
  65              		.loc 1 697 16 is_stmt 0 view .LVU13
  66 001a 0025     		movs	r5, #0
  67 001c 03E0     		b	.L3
  68              	.L7:
 689:rtos/uCOS-III/Source/os_task.c ****        *p_err = OS_ERR_FLUSH_ISR;
  69              		.loc 1 689 8 is_stmt 1 view .LVU14
 689:rtos/uCOS-III/Source/os_task.c ****        *p_err = OS_ERR_FLUSH_ISR;
  70              		.loc 1 689 15 is_stmt 0 view .LVU15
  71 001e 4FF46C53 		mov	r3, #15104
  72 0022 0B80     		strh	r3, [r1]	@ movhi
 690:rtos/uCOS-III/Source/os_task.c ****     }
  73              		.loc 1 690 9 is_stmt 1 view .LVU16
 690:rtos/uCOS-III/Source/os_task.c ****     }
  74              		.loc 1 690 16 is_stmt 0 view .LVU17
  75 0024 0025     		movs	r5, #0
  76              	.LVL2:
  77              	.L3:
 698:rtos/uCOS-III/Source/os_task.c ****     }
 699:rtos/uCOS-III/Source/os_task.c **** #endif
 700:rtos/uCOS-III/Source/os_task.c **** 
 701:rtos/uCOS-III/Source/os_task.c ****     if (p_tcb == (OS_TCB *)0) {                                 /* Flush message queue of calling t
 702:rtos/uCOS-III/Source/os_task.c ****         CPU_CRITICAL_ENTER();
 703:rtos/uCOS-III/Source/os_task.c ****         p_tcb = OSTCBCurPtr;
 704:rtos/uCOS-III/Source/os_task.c ****         CPU_CRITICAL_EXIT();
 705:rtos/uCOS-III/Source/os_task.c ****     }
 706:rtos/uCOS-III/Source/os_task.c **** 
 707:rtos/uCOS-III/Source/os_task.c ****     CPU_CRITICAL_ENTER();
 708:rtos/uCOS-III/Source/os_task.c ****     entries = OS_MsgQFreeAll(&p_tcb->MsgQ);                     /* Return all OS_MSGs to the OS_MSG
 709:rtos/uCOS-III/Source/os_task.c ****     CPU_CRITICAL_EXIT();
 710:rtos/uCOS-III/Source/os_task.c ****    *p_err   = OS_ERR_NONE;
 711:rtos/uCOS-III/Source/os_task.c ****     return (entries);
 712:rtos/uCOS-III/Source/os_task.c **** }
  78              		.loc 1 712 1 view .LVU18
  79 0026 2846     		mov	r0, r5
  80 0028 70BD     		pop	{r4, r5, r6, pc}
  81              	.LVL3:
  82              	.L4:
 701:rtos/uCOS-III/Source/os_task.c ****         CPU_CRITICAL_ENTER();
ARM GAS  /tmp/ccS1bHPU.s 			page 15


  83              		.loc 1 701 5 is_stmt 1 view .LVU19
 701:rtos/uCOS-III/Source/os_task.c ****         CPU_CRITICAL_ENTER();
  84              		.loc 1 701 8 is_stmt 0 view .LVU20
  85 002a 70B1     		cbz	r0, .L8
  86              	.LVL4:
  87              	.L5:
 704:rtos/uCOS-III/Source/os_task.c ****     }
  88              		.loc 1 704 9 is_stmt 1 discriminator 1 view .LVU21
 704:rtos/uCOS-III/Source/os_task.c ****     }
  89              		.loc 1 704 9 discriminator 1 view .LVU22
 707:rtos/uCOS-III/Source/os_task.c ****     entries = OS_MsgQFreeAll(&p_tcb->MsgQ);                     /* Return all OS_MSGs to the OS_MSG
  90              		.loc 1 707 5 discriminator 1 view .LVU23
 707:rtos/uCOS-III/Source/os_task.c ****     entries = OS_MsgQFreeAll(&p_tcb->MsgQ);                     /* Return all OS_MSGs to the OS_MSG
  91              		.loc 1 707 5 discriminator 1 view .LVU24
 707:rtos/uCOS-III/Source/os_task.c ****     entries = OS_MsgQFreeAll(&p_tcb->MsgQ);                     /* Return all OS_MSGs to the OS_MSG
  92              		.loc 1 707 5 discriminator 1 view .LVU25
  93 002c 4020     		movs	r0, #64
  94 002e FFF7FEFF 		bl	CPU_SR_Save
  95              	.LVL5:
  96 0032 0646     		mov	r6, r0
  97              	.LVL6:
 707:rtos/uCOS-III/Source/os_task.c ****     entries = OS_MsgQFreeAll(&p_tcb->MsgQ);                     /* Return all OS_MSGs to the OS_MSG
  98              		.loc 1 707 5 discriminator 1 view .LVU26
 707:rtos/uCOS-III/Source/os_task.c ****     entries = OS_MsgQFreeAll(&p_tcb->MsgQ);                     /* Return all OS_MSGs to the OS_MSG
  99              		.loc 1 707 5 discriminator 1 view .LVU27
 708:rtos/uCOS-III/Source/os_task.c ****     CPU_CRITICAL_EXIT();
 100              		.loc 1 708 5 discriminator 1 view .LVU28
 708:rtos/uCOS-III/Source/os_task.c ****     CPU_CRITICAL_EXIT();
 101              		.loc 1 708 15 is_stmt 0 discriminator 1 view .LVU29
 102 0034 05F15C00 		add	r0, r5, #92
 103              	.LVL7:
 708:rtos/uCOS-III/Source/os_task.c ****     CPU_CRITICAL_EXIT();
 104              		.loc 1 708 15 discriminator 1 view .LVU30
 105 0038 FFF7FEFF 		bl	OS_MsgQFreeAll
 106              	.LVL8:
 107 003c 0546     		mov	r5, r0
 108              	.LVL9:
 709:rtos/uCOS-III/Source/os_task.c ****    *p_err   = OS_ERR_NONE;
 109              		.loc 1 709 5 is_stmt 1 discriminator 1 view .LVU31
 709:rtos/uCOS-III/Source/os_task.c ****    *p_err   = OS_ERR_NONE;
 110              		.loc 1 709 5 discriminator 1 view .LVU32
 709:rtos/uCOS-III/Source/os_task.c ****    *p_err   = OS_ERR_NONE;
 111              		.loc 1 709 5 discriminator 1 view .LVU33
 112 003e 3046     		mov	r0, r6
 113 0040 FFF7FEFF 		bl	CPU_SR_Restore
 114              	.LVL10:
 709:rtos/uCOS-III/Source/os_task.c ****    *p_err   = OS_ERR_NONE;
 115              		.loc 1 709 5 discriminator 1 view .LVU34
 709:rtos/uCOS-III/Source/os_task.c ****    *p_err   = OS_ERR_NONE;
 116              		.loc 1 709 5 discriminator 1 view .LVU35
 710:rtos/uCOS-III/Source/os_task.c ****     return (entries);
 117              		.loc 1 710 4 discriminator 1 view .LVU36
 710:rtos/uCOS-III/Source/os_task.c ****     return (entries);
 118              		.loc 1 710 13 is_stmt 0 discriminator 1 view .LVU37
 119 0044 0023     		movs	r3, #0
 120 0046 2380     		strh	r3, [r4]	@ movhi
 711:rtos/uCOS-III/Source/os_task.c **** }
ARM GAS  /tmp/ccS1bHPU.s 			page 16


 121              		.loc 1 711 5 is_stmt 1 discriminator 1 view .LVU38
 711:rtos/uCOS-III/Source/os_task.c **** }
 122              		.loc 1 711 12 is_stmt 0 discriminator 1 view .LVU39
 123 0048 EDE7     		b	.L3
 124              	.LVL11:
 125              	.L8:
 702:rtos/uCOS-III/Source/os_task.c ****         p_tcb = OSTCBCurPtr;
 126              		.loc 1 702 9 is_stmt 1 view .LVU40
 702:rtos/uCOS-III/Source/os_task.c ****         p_tcb = OSTCBCurPtr;
 127              		.loc 1 702 9 view .LVU41
 702:rtos/uCOS-III/Source/os_task.c ****         p_tcb = OSTCBCurPtr;
 128              		.loc 1 702 9 view .LVU42
 129 004a 4020     		movs	r0, #64
 130              	.LVL12:
 702:rtos/uCOS-III/Source/os_task.c ****         p_tcb = OSTCBCurPtr;
 131              		.loc 1 702 9 is_stmt 0 view .LVU43
 132 004c FFF7FEFF 		bl	CPU_SR_Save
 133              	.LVL13:
 702:rtos/uCOS-III/Source/os_task.c ****         p_tcb = OSTCBCurPtr;
 134              		.loc 1 702 9 is_stmt 1 view .LVU44
 702:rtos/uCOS-III/Source/os_task.c ****         p_tcb = OSTCBCurPtr;
 135              		.loc 1 702 9 view .LVU45
 703:rtos/uCOS-III/Source/os_task.c ****         CPU_CRITICAL_EXIT();
 136              		.loc 1 703 9 view .LVU46
 703:rtos/uCOS-III/Source/os_task.c ****         CPU_CRITICAL_EXIT();
 137              		.loc 1 703 15 is_stmt 0 view .LVU47
 138 0050 044B     		ldr	r3, .L9+8
 139 0052 1D68     		ldr	r5, [r3]
 140              	.LVL14:
 704:rtos/uCOS-III/Source/os_task.c ****     }
 141              		.loc 1 704 9 is_stmt 1 view .LVU48
 704:rtos/uCOS-III/Source/os_task.c ****     }
 142              		.loc 1 704 9 view .LVU49
 704:rtos/uCOS-III/Source/os_task.c ****     }
 143              		.loc 1 704 9 view .LVU50
 144 0054 FFF7FEFF 		bl	CPU_SR_Restore
 145              	.LVL15:
 704:rtos/uCOS-III/Source/os_task.c ****     }
 146              		.loc 1 704 9 is_stmt 0 view .LVU51
 147 0058 E8E7     		b	.L5
 148              	.L10:
 149 005a 00BF     		.align	2
 150              	.L9:
 151 005c 00000000 		.word	OSIntNestingCtr
 152 0060 00000000 		.word	OSRunning
 153 0064 00000000 		.word	OSTCBCurPtr
 154              		.cfi_endproc
 155              	.LFE3:
 157              		.section	.text.OSTaskQPend,"ax",%progbits
 158              		.align	1
 159              		.global	OSTaskQPend
 160              		.syntax unified
 161              		.thumb
 162              		.thumb_func
 163              		.fpu fpv4-sp-d16
 165              	OSTaskQPend:
 166              	.LVL16:
ARM GAS  /tmp/ccS1bHPU.s 			page 17


 167              	.LFB4:
 713:rtos/uCOS-III/Source/os_task.c **** #endif
 714:rtos/uCOS-III/Source/os_task.c **** 
 715:rtos/uCOS-III/Source/os_task.c **** 
 716:rtos/uCOS-III/Source/os_task.c **** /*
 717:rtos/uCOS-III/Source/os_task.c **** ***************************************************************************************************
 718:rtos/uCOS-III/Source/os_task.c **** *                                                  WAIT FOR A MESSAGE
 719:rtos/uCOS-III/Source/os_task.c **** *
 720:rtos/uCOS-III/Source/os_task.c **** * Description: This function causes the current task to wait for a message to be posted to it.
 721:rtos/uCOS-III/Source/os_task.c **** *
 722:rtos/uCOS-III/Source/os_task.c **** * Arguments  : timeout       is an optional timeout period (in clock ticks).  If non-zero, your tas
 723:rtos/uCOS-III/Source/os_task.c **** *                            message to arrive up to the amount of time specified by this argument.
 724:rtos/uCOS-III/Source/os_task.c **** *                            If you specify 0, however, your task will wait forever or, until a mes
 725:rtos/uCOS-III/Source/os_task.c **** *
 726:rtos/uCOS-III/Source/os_task.c **** *              opt           determines whether the user wants to block if the task's queue is empt
 727:rtos/uCOS-III/Source/os_task.c **** *
 728:rtos/uCOS-III/Source/os_task.c **** *                                OS_OPT_PEND_BLOCKING
 729:rtos/uCOS-III/Source/os_task.c **** *                                OS_OPT_PEND_NON_BLOCKING
 730:rtos/uCOS-III/Source/os_task.c **** *
 731:rtos/uCOS-III/Source/os_task.c **** *              p_msg_size    is a pointer to a variable that will receive the size of the message
 732:rtos/uCOS-III/Source/os_task.c **** *
 733:rtos/uCOS-III/Source/os_task.c **** *              p_ts          is a pointer to a variable that will receive the timestamp of when the
 734:rtos/uCOS-III/Source/os_task.c **** *                            received.  If you pass a NULL pointer (i.e. (CPU_TS *)0) then you will
 735:rtos/uCOS-III/Source/os_task.c **** *                            timestamp.  In other words, passing a NULL pointer is valid and indica
 736:rtos/uCOS-III/Source/os_task.c **** *                            need the timestamp.
 737:rtos/uCOS-III/Source/os_task.c **** *
 738:rtos/uCOS-III/Source/os_task.c **** *              p_err         is a pointer to where an error message will be deposited.  Possible er
 739:rtos/uCOS-III/Source/os_task.c **** *                            messages are:
 740:rtos/uCOS-III/Source/os_task.c **** *
 741:rtos/uCOS-III/Source/os_task.c **** *                                OS_ERR_NONE               The call was successful and your task re
 742:rtos/uCOS-III/Source/os_task.c **** *                                OS_ERR_OPT_INVALID        If you specified an invalid option
 743:rtos/uCOS-III/Source/os_task.c **** *                                OS_ERR_OS_NOT_RUNNING     If uC/OS-III is not running yet
 744:rtos/uCOS-III/Source/os_task.c **** *                                OS_ERR_PEND_ABORT         If the pend was aborted
 745:rtos/uCOS-III/Source/os_task.c **** *                                OS_ERR_PEND_ISR           If you called this function from an ISR 
 746:rtos/uCOS-III/Source/os_task.c **** *                                OS_ERR_PEND_WOULD_BLOCK   If you specified non-blocking but the qu
 747:rtos/uCOS-III/Source/os_task.c **** *                                OS_ERR_PTR_INVALID        If 'p_msg_size' is NULL
 748:rtos/uCOS-III/Source/os_task.c **** *                                OS_ERR_SCHED_LOCKED       If the scheduler is locked
 749:rtos/uCOS-III/Source/os_task.c **** *                                OS_ERR_TIMEOUT            A message was not received within the sp
 750:rtos/uCOS-III/Source/os_task.c **** *                                                          would lead to a suspension
 751:rtos/uCOS-III/Source/os_task.c **** *                                OS_ERR_TICK_DISABLED      If kernel ticks are disabled and a timeo
 752:rtos/uCOS-III/Source/os_task.c **** *
 753:rtos/uCOS-III/Source/os_task.c **** * Returns    : A pointer to the message received or a NULL pointer upon error.
 754:rtos/uCOS-III/Source/os_task.c **** *
 755:rtos/uCOS-III/Source/os_task.c **** * Note(s)    : 1) It is possible to receive NULL pointers when there are no errors.
 756:rtos/uCOS-III/Source/os_task.c **** *
 757:rtos/uCOS-III/Source/os_task.c **** *            : 2) This API 'MUST NOT' be called from a timer callback function.
 758:rtos/uCOS-III/Source/os_task.c **** ***************************************************************************************************
 759:rtos/uCOS-III/Source/os_task.c **** */
 760:rtos/uCOS-III/Source/os_task.c **** 
 761:rtos/uCOS-III/Source/os_task.c **** #if (OS_CFG_TASK_Q_EN > 0u)
 762:rtos/uCOS-III/Source/os_task.c **** void  *OSTaskQPend (OS_TICK       timeout,
 763:rtos/uCOS-III/Source/os_task.c ****                     OS_OPT        opt,
 764:rtos/uCOS-III/Source/os_task.c ****                     OS_MSG_SIZE  *p_msg_size,
 765:rtos/uCOS-III/Source/os_task.c ****                     CPU_TS       *p_ts,
 766:rtos/uCOS-III/Source/os_task.c ****                     OS_ERR       *p_err)
 767:rtos/uCOS-III/Source/os_task.c **** {
 168              		.loc 1 767 1 is_stmt 1 view -0
ARM GAS  /tmp/ccS1bHPU.s 			page 18


 169              		.cfi_startproc
 170              		@ args = 4, pretend = 0, frame = 0
 171              		@ frame_needed = 0, uses_anonymous_args = 0
 172              		.loc 1 767 1 is_stmt 0 view .LVU53
 173 0000 2DE9F047 		push	{r4, r5, r6, r7, r8, r9, r10, lr}
 174              	.LCFI1:
 175              		.cfi_def_cfa_offset 32
 176              		.cfi_offset 4, -32
 177              		.cfi_offset 5, -28
 178              		.cfi_offset 6, -24
 179              		.cfi_offset 7, -20
 180              		.cfi_offset 8, -16
 181              		.cfi_offset 9, -12
 182              		.cfi_offset 10, -8
 183              		.cfi_offset 14, -4
 184 0004 1E46     		mov	r6, r3
 185 0006 DDF82090 		ldr	r9, [sp, #32]
 768:rtos/uCOS-III/Source/os_task.c ****     OS_MSG_Q  *p_msg_q;
 186              		.loc 1 768 5 is_stmt 1 view .LVU54
 769:rtos/uCOS-III/Source/os_task.c ****     void      *p_void;
 187              		.loc 1 769 5 view .LVU55
 770:rtos/uCOS-III/Source/os_task.c ****     CPU_SR_ALLOC();
 188              		.loc 1 770 5 view .LVU56
 189              	.LVL17:
 771:rtos/uCOS-III/Source/os_task.c **** 
 772:rtos/uCOS-III/Source/os_task.c **** 
 773:rtos/uCOS-III/Source/os_task.c **** #ifdef OS_SAFETY_CRITICAL
 774:rtos/uCOS-III/Source/os_task.c ****     if (p_err == (OS_ERR *)0) {
 775:rtos/uCOS-III/Source/os_task.c ****         OS_SAFETY_CRITICAL_EXCEPTION();
 776:rtos/uCOS-III/Source/os_task.c ****         return ((void *)0);
 777:rtos/uCOS-III/Source/os_task.c ****     }
 778:rtos/uCOS-III/Source/os_task.c **** #endif
 779:rtos/uCOS-III/Source/os_task.c **** 
 780:rtos/uCOS-III/Source/os_task.c ****     OS_TRACE_TASK_MSG_Q_PEND_ENTER(&OSTCBCurPtr->MsgQ, timeout, opt, p_msg_size, p_ts);
 190              		.loc 1 780 87 view .LVU57
 781:rtos/uCOS-III/Source/os_task.c **** 
 782:rtos/uCOS-III/Source/os_task.c **** #if (OS_CFG_TICK_EN == 0u)
 783:rtos/uCOS-III/Source/os_task.c ****     if (timeout != 0u) {
 784:rtos/uCOS-III/Source/os_task.c ****        *p_err = OS_ERR_TICK_DISABLED;
 785:rtos/uCOS-III/Source/os_task.c ****         OS_TRACE_TASK_MSG_Q_PEND_EXIT(OS_ERR_TICK_DISABLED);
 786:rtos/uCOS-III/Source/os_task.c ****         return ((void *)0);
 787:rtos/uCOS-III/Source/os_task.c ****     }
 788:rtos/uCOS-III/Source/os_task.c **** #endif
 789:rtos/uCOS-III/Source/os_task.c **** 
 790:rtos/uCOS-III/Source/os_task.c **** #if (OS_CFG_CALLED_FROM_ISR_CHK_EN > 0u)
 791:rtos/uCOS-III/Source/os_task.c ****     if (OSIntNestingCtr > 0u) {                                 /* Can't Pend from an ISR          
 191              		.loc 1 791 5 view .LVU58
 192              		.loc 1 791 25 is_stmt 0 view .LVU59
 193 000a 464B     		ldr	r3, .L35
 194              	.LVL18:
 195              		.loc 1 791 25 view .LVU60
 196 000c 1B78     		ldrb	r3, [r3]	@ zero_extendqisi2
 197              		.loc 1 791 8 view .LVU61
 198 000e 002B     		cmp	r3, #0
 199 0010 43D1     		bne	.L28
 200 0012 8046     		mov	r8, r0
 201 0014 0C46     		mov	r4, r1
ARM GAS  /tmp/ccS1bHPU.s 			page 19


 202 0016 1546     		mov	r5, r2
 792:rtos/uCOS-III/Source/os_task.c ****         OS_TRACE_TASK_MSG_Q_PEND_EXIT(OS_ERR_PEND_ISR);
 793:rtos/uCOS-III/Source/os_task.c ****        *p_err = OS_ERR_PEND_ISR;
 794:rtos/uCOS-III/Source/os_task.c ****         return ((void *)0);
 795:rtos/uCOS-III/Source/os_task.c ****     }
 796:rtos/uCOS-III/Source/os_task.c **** #endif
 797:rtos/uCOS-III/Source/os_task.c **** 
 798:rtos/uCOS-III/Source/os_task.c **** #if (OS_CFG_INVALID_OS_CALLS_CHK_EN > 0u)
 799:rtos/uCOS-III/Source/os_task.c ****     if (OSRunning != OS_STATE_OS_RUNNING) {                     /* Is the kernel running?          
 203              		.loc 1 799 5 is_stmt 1 view .LVU62
 204              		.loc 1 799 19 is_stmt 0 view .LVU63
 205 0018 434B     		ldr	r3, .L35+4
 206 001a 1B78     		ldrb	r3, [r3]	@ zero_extendqisi2
 207              		.loc 1 799 8 view .LVU64
 208 001c 012B     		cmp	r3, #1
 209 001e 42D1     		bne	.L29
 800:rtos/uCOS-III/Source/os_task.c ****         OS_TRACE_TASK_MSG_Q_PEND_EXIT(OS_ERR_OS_NOT_RUNNING);
 801:rtos/uCOS-III/Source/os_task.c ****        *p_err = OS_ERR_OS_NOT_RUNNING;
 802:rtos/uCOS-III/Source/os_task.c ****         return ((void *)0);
 803:rtos/uCOS-III/Source/os_task.c ****     }
 804:rtos/uCOS-III/Source/os_task.c **** #endif
 805:rtos/uCOS-III/Source/os_task.c **** 
 806:rtos/uCOS-III/Source/os_task.c **** 
 807:rtos/uCOS-III/Source/os_task.c **** #if (OS_CFG_ARG_CHK_EN > 0u)                                    /* ---------------- VALIDATE ARGUME
 808:rtos/uCOS-III/Source/os_task.c ****     if (p_msg_size == (OS_MSG_SIZE *)0) {                       /* User must supply a valid destina
 210              		.loc 1 808 5 is_stmt 1 view .LVU65
 211              		.loc 1 808 8 is_stmt 0 view .LVU66
 212 0020 002A     		cmp	r2, #0
 213 0022 48D0     		beq	.L30
 809:rtos/uCOS-III/Source/os_task.c ****         OS_TRACE_TASK_MSG_Q_PEND_EXIT(OS_ERR_PTR_INVALID);
 810:rtos/uCOS-III/Source/os_task.c ****        *p_err = OS_ERR_PTR_INVALID;
 811:rtos/uCOS-III/Source/os_task.c ****         return ((void *)0);
 812:rtos/uCOS-III/Source/os_task.c ****     }
 813:rtos/uCOS-III/Source/os_task.c ****     switch (opt) {                                              /* User must supply a valid option 
 214              		.loc 1 813 5 is_stmt 1 view .LVU67
 215 0024 11B1     		cbz	r1, .L16
 216 0026 B1F5004F 		cmp	r1, #32768
 217 002a 4AD1     		bne	.L31
 218              	.L16:
 814:rtos/uCOS-III/Source/os_task.c ****         case OS_OPT_PEND_BLOCKING:
 815:rtos/uCOS-III/Source/os_task.c ****         case OS_OPT_PEND_NON_BLOCKING:
 816:rtos/uCOS-III/Source/os_task.c ****              break;
 219              		.loc 1 816 14 view .LVU68
 817:rtos/uCOS-III/Source/os_task.c **** 
 818:rtos/uCOS-III/Source/os_task.c ****         default:
 819:rtos/uCOS-III/Source/os_task.c ****              OS_TRACE_TASK_MSG_Q_PEND_EXIT(OS_ERR_OPT_INVALID);
 820:rtos/uCOS-III/Source/os_task.c ****             *p_err = OS_ERR_OPT_INVALID;
 821:rtos/uCOS-III/Source/os_task.c ****              return ((void *)0);
 822:rtos/uCOS-III/Source/os_task.c ****     }
 823:rtos/uCOS-III/Source/os_task.c **** #endif
 824:rtos/uCOS-III/Source/os_task.c **** 
 825:rtos/uCOS-III/Source/os_task.c ****     if (p_ts != (CPU_TS *)0) {
 220              		.loc 1 825 5 view .LVU69
 221              		.loc 1 825 8 is_stmt 0 view .LVU70
 222 002c 0EB1     		cbz	r6, .L17
 826:rtos/uCOS-III/Source/os_task.c ****        *p_ts = 0u;                                              /* Initialize the returned timestam
 223              		.loc 1 826 8 is_stmt 1 view .LVU71
ARM GAS  /tmp/ccS1bHPU.s 			page 20


 224              		.loc 1 826 14 is_stmt 0 view .LVU72
 225 002e 0023     		movs	r3, #0
 226 0030 3360     		str	r3, [r6]
 227              	.L17:
 827:rtos/uCOS-III/Source/os_task.c ****     }
 828:rtos/uCOS-III/Source/os_task.c **** 
 829:rtos/uCOS-III/Source/os_task.c ****     CPU_CRITICAL_ENTER();
 228              		.loc 1 829 5 is_stmt 1 view .LVU73
 229              		.loc 1 829 5 view .LVU74
 230              		.loc 1 829 5 view .LVU75
 231 0032 4020     		movs	r0, #64
 232              	.LVL19:
 233              		.loc 1 829 5 is_stmt 0 view .LVU76
 234 0034 FFF7FEFF 		bl	CPU_SR_Save
 235              	.LVL20:
 236              		.loc 1 829 5 view .LVU77
 237 0038 8246     		mov	r10, r0
 238              	.LVL21:
 239              		.loc 1 829 5 is_stmt 1 view .LVU78
 240              		.loc 1 829 5 view .LVU79
 830:rtos/uCOS-III/Source/os_task.c ****     p_msg_q = &OSTCBCurPtr->MsgQ;                               /* Any message waiting in the messa
 241              		.loc 1 830 5 view .LVU80
 242              		.loc 1 830 27 is_stmt 0 view .LVU81
 243 003a 3C4B     		ldr	r3, .L35+8
 244 003c 1868     		ldr	r0, [r3]
 245              	.LVL22:
 831:rtos/uCOS-III/Source/os_task.c ****     p_void  = OS_MsgQGet(p_msg_q,
 246              		.loc 1 831 5 is_stmt 1 view .LVU82
 247              		.loc 1 831 15 is_stmt 0 view .LVU83
 248 003e 4B46     		mov	r3, r9
 249 0040 3246     		mov	r2, r6
 250 0042 2946     		mov	r1, r5
 251 0044 5C30     		adds	r0, r0, #92
 252              	.LVL23:
 253              		.loc 1 831 15 view .LVU84
 254 0046 FFF7FEFF 		bl	OS_MsgQGet
 255              	.LVL24:
 256              		.loc 1 831 15 view .LVU85
 257 004a 0746     		mov	r7, r0
 258              	.LVL25:
 832:rtos/uCOS-III/Source/os_task.c ****                          p_msg_size,
 833:rtos/uCOS-III/Source/os_task.c ****                          p_ts,
 834:rtos/uCOS-III/Source/os_task.c ****                          p_err);
 835:rtos/uCOS-III/Source/os_task.c ****     if (*p_err == OS_ERR_NONE) {
 259              		.loc 1 835 5 is_stmt 1 view .LVU86
 260              		.loc 1 835 9 is_stmt 0 view .LVU87
 261 004c B9F80030 		ldrh	r3, [r9]
 262              		.loc 1 835 8 view .LVU88
 263 0050 002B     		cmp	r3, #0
 264 0052 3CD0     		beq	.L32
 836:rtos/uCOS-III/Source/os_task.c **** #if (OS_CFG_TASK_PROFILE_EN > 0u)
 837:rtos/uCOS-III/Source/os_task.c **** #if (OS_CFG_TS_EN > 0u)
 838:rtos/uCOS-III/Source/os_task.c ****         if (p_ts != (CPU_TS *)0) {
 839:rtos/uCOS-III/Source/os_task.c ****             OSTCBCurPtr->MsgQPendTime = OS_TS_GET() - *p_ts;
 840:rtos/uCOS-III/Source/os_task.c ****             if (OSTCBCurPtr->MsgQPendTimeMax < OSTCBCurPtr->MsgQPendTime) {
 841:rtos/uCOS-III/Source/os_task.c ****                 OSTCBCurPtr->MsgQPendTimeMax = OSTCBCurPtr->MsgQPendTime;
 842:rtos/uCOS-III/Source/os_task.c ****             }
ARM GAS  /tmp/ccS1bHPU.s 			page 21


 843:rtos/uCOS-III/Source/os_task.c ****         }
 844:rtos/uCOS-III/Source/os_task.c **** #endif
 845:rtos/uCOS-III/Source/os_task.c **** #endif
 846:rtos/uCOS-III/Source/os_task.c ****         OS_TRACE_TASK_MSG_Q_PEND(p_msg_q);
 847:rtos/uCOS-III/Source/os_task.c ****         CPU_CRITICAL_EXIT();
 848:rtos/uCOS-III/Source/os_task.c ****         OS_TRACE_TASK_MSG_Q_PEND_EXIT(OS_ERR_NONE);
 849:rtos/uCOS-III/Source/os_task.c ****         return (p_void);                                        /* Yes, Return oldest message recei
 850:rtos/uCOS-III/Source/os_task.c ****     }
 851:rtos/uCOS-III/Source/os_task.c **** 
 852:rtos/uCOS-III/Source/os_task.c ****     if ((opt & OS_OPT_PEND_NON_BLOCKING) != 0u) {               /* Caller wants to block if not ava
 265              		.loc 1 852 5 is_stmt 1 view .LVU89
 266              		.loc 1 852 8 is_stmt 0 view .LVU90
 267 0054 14F4004F 		tst	r4, #32768
 268 0058 3DD1     		bne	.L33
 853:rtos/uCOS-III/Source/os_task.c ****        *p_err = OS_ERR_PEND_WOULD_BLOCK;                        /* No                              
 854:rtos/uCOS-III/Source/os_task.c ****         CPU_CRITICAL_EXIT();
 855:rtos/uCOS-III/Source/os_task.c ****         OS_TRACE_TASK_MSG_Q_PEND_FAILED(p_msg_q);
 856:rtos/uCOS-III/Source/os_task.c ****         OS_TRACE_TASK_MSG_Q_PEND_EXIT(OS_ERR_PEND_WOULD_BLOCK);
 857:rtos/uCOS-III/Source/os_task.c ****         return ((void *)0);
 858:rtos/uCOS-III/Source/os_task.c ****     } else {                                                    /* Yes                             
 859:rtos/uCOS-III/Source/os_task.c ****         if (OSSchedLockNestingCtr > 0u) {                       /* Can't block when the scheduler i
 269              		.loc 1 859 9 is_stmt 1 view .LVU91
 270              		.loc 1 859 35 is_stmt 0 view .LVU92
 271 005a 354B     		ldr	r3, .L35+12
 272 005c 1B78     		ldrb	r3, [r3]	@ zero_extendqisi2
 273              		.loc 1 859 12 view .LVU93
 274 005e 002B     		cmp	r3, #0
 275 0060 42D1     		bne	.L34
 860:rtos/uCOS-III/Source/os_task.c ****             CPU_CRITICAL_EXIT();
 861:rtos/uCOS-III/Source/os_task.c ****             OS_TRACE_TASK_MSG_Q_PEND_FAILED(p_msg_q);
 862:rtos/uCOS-III/Source/os_task.c ****             OS_TRACE_TASK_MSG_Q_PEND_EXIT(OS_ERR_SCHED_LOCKED);
 863:rtos/uCOS-III/Source/os_task.c ****            *p_err = OS_ERR_SCHED_LOCKED;
 864:rtos/uCOS-III/Source/os_task.c ****             return ((void *)0);
 865:rtos/uCOS-III/Source/os_task.c ****         }
 866:rtos/uCOS-III/Source/os_task.c ****     }
 867:rtos/uCOS-III/Source/os_task.c **** 
 868:rtos/uCOS-III/Source/os_task.c ****     OS_Pend((OS_PEND_OBJ *)0,                                   /* Block task pending on Message   
 276              		.loc 1 868 5 is_stmt 1 view .LVU94
 277 0062 324C     		ldr	r4, .L35+8
 278 0064 4346     		mov	r3, r8
 279 0066 0222     		movs	r2, #2
 280 0068 2168     		ldr	r1, [r4]
 281 006a 0020     		movs	r0, #0
 282              	.LVL26:
 283              		.loc 1 868 5 is_stmt 0 view .LVU95
 284 006c FFF7FEFF 		bl	OS_Pend
 285              	.LVL27:
 869:rtos/uCOS-III/Source/os_task.c ****              OSTCBCurPtr,
 870:rtos/uCOS-III/Source/os_task.c ****              OS_TASK_PEND_ON_TASK_Q,
 871:rtos/uCOS-III/Source/os_task.c ****              timeout);
 872:rtos/uCOS-III/Source/os_task.c ****     CPU_CRITICAL_EXIT();
 286              		.loc 1 872 5 is_stmt 1 view .LVU96
 287              		.loc 1 872 5 view .LVU97
 288              		.loc 1 872 5 view .LVU98
 289 0070 5046     		mov	r0, r10
 290 0072 FFF7FEFF 		bl	CPU_SR_Restore
 291              	.LVL28:
ARM GAS  /tmp/ccS1bHPU.s 			page 22


 292              		.loc 1 872 5 view .LVU99
 293              		.loc 1 872 5 view .LVU100
 873:rtos/uCOS-III/Source/os_task.c ****     OS_TRACE_TASK_MSG_Q_PEND_BLOCK(p_msg_q);
 294              		.loc 1 873 44 view .LVU101
 874:rtos/uCOS-III/Source/os_task.c ****     OSSched();                                                  /* Find the next highest priority t
 295              		.loc 1 874 5 view .LVU102
 296 0076 FFF7FEFF 		bl	OSSched
 297              	.LVL29:
 875:rtos/uCOS-III/Source/os_task.c **** 
 876:rtos/uCOS-III/Source/os_task.c ****     CPU_CRITICAL_ENTER();
 298              		.loc 1 876 5 view .LVU103
 299              		.loc 1 876 5 view .LVU104
 300              		.loc 1 876 5 view .LVU105
 301 007a 4020     		movs	r0, #64
 302 007c FFF7FEFF 		bl	CPU_SR_Save
 303              	.LVL30:
 304              		.loc 1 876 5 view .LVU106
 305              		.loc 1 876 5 view .LVU107
 877:rtos/uCOS-III/Source/os_task.c ****     switch (OSTCBCurPtr->PendStatus) {
 306              		.loc 1 877 5 view .LVU108
 307              		.loc 1 877 24 is_stmt 0 view .LVU109
 308 0080 2268     		ldr	r2, [r4]
 309 0082 92F82D30 		ldrb	r3, [r2, #45]	@ zero_extendqisi2
 310              		.loc 1 877 5 view .LVU110
 311 0086 C3B3     		cbz	r3, .L21
 312 0088 012B     		cmp	r3, #1
 313 008a 40D0     		beq	.L22
 878:rtos/uCOS-III/Source/os_task.c ****         case OS_STATUS_PEND_OK:                                 /* Extract message from TCB (Put th
 879:rtos/uCOS-III/Source/os_task.c ****              p_void      = OSTCBCurPtr->MsgPtr;
 880:rtos/uCOS-III/Source/os_task.c ****             *p_msg_size  = OSTCBCurPtr->MsgSize;
 881:rtos/uCOS-III/Source/os_task.c **** #if (OS_CFG_TS_EN > 0u)
 882:rtos/uCOS-III/Source/os_task.c ****              if (p_ts != (CPU_TS *)0) {
 883:rtos/uCOS-III/Source/os_task.c ****                 *p_ts = OSTCBCurPtr->TS;
 884:rtos/uCOS-III/Source/os_task.c **** #if (OS_CFG_TASK_PROFILE_EN > 0u)
 885:rtos/uCOS-III/Source/os_task.c ****                 OSTCBCurPtr->MsgQPendTime = OS_TS_GET() - OSTCBCurPtr->TS;
 886:rtos/uCOS-III/Source/os_task.c ****                 if (OSTCBCurPtr->MsgQPendTimeMax < OSTCBCurPtr->MsgQPendTime) {
 887:rtos/uCOS-III/Source/os_task.c ****                     OSTCBCurPtr->MsgQPendTimeMax = OSTCBCurPtr->MsgQPendTime;
 888:rtos/uCOS-III/Source/os_task.c ****                 }
 889:rtos/uCOS-III/Source/os_task.c **** #endif
 890:rtos/uCOS-III/Source/os_task.c ****              }
 891:rtos/uCOS-III/Source/os_task.c **** #endif
 892:rtos/uCOS-III/Source/os_task.c ****              OS_TRACE_TASK_MSG_Q_PEND(p_msg_q);
 893:rtos/uCOS-III/Source/os_task.c ****             *p_err = OS_ERR_NONE;
 894:rtos/uCOS-III/Source/os_task.c ****              break;
 895:rtos/uCOS-III/Source/os_task.c **** 
 896:rtos/uCOS-III/Source/os_task.c ****         case OS_STATUS_PEND_ABORT:                              /* Indicate that we aborted        
 897:rtos/uCOS-III/Source/os_task.c ****              p_void     = (void *)0;
 898:rtos/uCOS-III/Source/os_task.c ****             *p_msg_size = 0u;
 899:rtos/uCOS-III/Source/os_task.c ****              if (p_ts != (CPU_TS *)0) {
 900:rtos/uCOS-III/Source/os_task.c ****                 *p_ts = 0u;
 901:rtos/uCOS-III/Source/os_task.c ****              }
 902:rtos/uCOS-III/Source/os_task.c ****              OS_TRACE_TASK_MSG_Q_PEND_FAILED(p_msg_q);
 903:rtos/uCOS-III/Source/os_task.c ****             *p_err      =  OS_ERR_PEND_ABORT;
 904:rtos/uCOS-III/Source/os_task.c ****              break;
 905:rtos/uCOS-III/Source/os_task.c **** 
 906:rtos/uCOS-III/Source/os_task.c ****         case OS_STATUS_PEND_TIMEOUT:                            /* Indicate that we didn't get even
 907:rtos/uCOS-III/Source/os_task.c ****         default:
ARM GAS  /tmp/ccS1bHPU.s 			page 23


 908:rtos/uCOS-III/Source/os_task.c ****              p_void     = (void *)0;
 314              		.loc 1 908 14 is_stmt 1 view .LVU111
 315              	.LVL31:
 909:rtos/uCOS-III/Source/os_task.c ****             *p_msg_size = 0u;
 316              		.loc 1 909 13 view .LVU112
 317              		.loc 1 909 25 is_stmt 0 view .LVU113
 318 008c 0027     		movs	r7, #0
 319 008e 2F80     		strh	r7, [r5]	@ movhi
 910:rtos/uCOS-III/Source/os_task.c **** #if (OS_CFG_TS_EN > 0u)
 911:rtos/uCOS-III/Source/os_task.c ****              if (p_ts  != (CPU_TS *)0) {
 912:rtos/uCOS-III/Source/os_task.c ****                 *p_ts = OSTCBCurPtr->TS;
 913:rtos/uCOS-III/Source/os_task.c ****              }
 914:rtos/uCOS-III/Source/os_task.c **** #endif
 915:rtos/uCOS-III/Source/os_task.c ****              OS_TRACE_TASK_MSG_Q_PEND_FAILED(p_msg_q);
 320              		.loc 1 915 54 is_stmt 1 view .LVU114
 916:rtos/uCOS-III/Source/os_task.c ****             *p_err      =  OS_ERR_TIMEOUT;
 321              		.loc 1 916 13 view .LVU115
 322              		.loc 1 916 25 is_stmt 0 view .LVU116
 323 0090 47F2D923 		movw	r3, #29401
 324 0094 A9F80030 		strh	r3, [r9]	@ movhi
 917:rtos/uCOS-III/Source/os_task.c ****              break;
 325              		.loc 1 917 14 is_stmt 1 view .LVU117
 326 0098 36E0     		b	.L24
 327              	.LVL32:
 328              	.L28:
 792:rtos/uCOS-III/Source/os_task.c ****        *p_err = OS_ERR_PEND_ISR;
 329              		.loc 1 792 55 view .LVU118
 793:rtos/uCOS-III/Source/os_task.c ****         return ((void *)0);
 330              		.loc 1 793 8 view .LVU119
 793:rtos/uCOS-III/Source/os_task.c ****         return ((void *)0);
 331              		.loc 1 793 15 is_stmt 0 view .LVU120
 332 009a 46F2AE13 		movw	r3, #25006
 333 009e A9F80030 		strh	r3, [r9]	@ movhi
 794:rtos/uCOS-III/Source/os_task.c ****     }
 334              		.loc 1 794 9 is_stmt 1 view .LVU121
 794:rtos/uCOS-III/Source/os_task.c ****     }
 335              		.loc 1 794 16 is_stmt 0 view .LVU122
 336 00a2 0027     		movs	r7, #0
 337 00a4 04E0     		b	.L11
 338              	.L29:
 800:rtos/uCOS-III/Source/os_task.c ****        *p_err = OS_ERR_OS_NOT_RUNNING;
 339              		.loc 1 800 61 is_stmt 1 view .LVU123
 801:rtos/uCOS-III/Source/os_task.c ****         return ((void *)0);
 340              		.loc 1 801 8 view .LVU124
 801:rtos/uCOS-III/Source/os_task.c ****         return ((void *)0);
 341              		.loc 1 801 15 is_stmt 0 view .LVU125
 342 00a6 45F68963 		movw	r3, #24201
 343 00aa A9F80030 		strh	r3, [r9]	@ movhi
 802:rtos/uCOS-III/Source/os_task.c ****     }
 344              		.loc 1 802 9 is_stmt 1 view .LVU126
 802:rtos/uCOS-III/Source/os_task.c ****     }
 345              		.loc 1 802 16 is_stmt 0 view .LVU127
 346 00ae 0027     		movs	r7, #0
 347              	.LVL33:
 348              	.L11:
 918:rtos/uCOS-III/Source/os_task.c ****     }
 919:rtos/uCOS-III/Source/os_task.c ****     CPU_CRITICAL_EXIT();
ARM GAS  /tmp/ccS1bHPU.s 			page 24


 920:rtos/uCOS-III/Source/os_task.c ****     OS_TRACE_TASK_MSG_Q_PEND_EXIT(*p_err);
 921:rtos/uCOS-III/Source/os_task.c ****     return (p_void);                                            /* Return received message         
 922:rtos/uCOS-III/Source/os_task.c **** }
 349              		.loc 1 922 1 view .LVU128
 350 00b0 3846     		mov	r0, r7
 351 00b2 BDE8F087 		pop	{r4, r5, r6, r7, r8, r9, r10, pc}
 352              	.LVL34:
 353              	.L30:
 809:rtos/uCOS-III/Source/os_task.c ****        *p_err = OS_ERR_PTR_INVALID;
 354              		.loc 1 809 58 is_stmt 1 view .LVU129
 810:rtos/uCOS-III/Source/os_task.c ****         return ((void *)0);
 355              		.loc 1 810 8 view .LVU130
 810:rtos/uCOS-III/Source/os_task.c ****         return ((void *)0);
 356              		.loc 1 810 15 is_stmt 0 view .LVU131
 357 00b6 46F2D523 		movw	r3, #25301
 358 00ba A9F80030 		strh	r3, [r9]	@ movhi
 811:rtos/uCOS-III/Source/os_task.c ****     }
 359              		.loc 1 811 9 is_stmt 1 view .LVU132
 811:rtos/uCOS-III/Source/os_task.c ****     }
 360              		.loc 1 811 16 is_stmt 0 view .LVU133
 361 00be 1746     		mov	r7, r2
 362 00c0 F6E7     		b	.L11
 363              	.L31:
 819:rtos/uCOS-III/Source/os_task.c ****             *p_err = OS_ERR_OPT_INVALID;
 364              		.loc 1 819 63 is_stmt 1 view .LVU134
 820:rtos/uCOS-III/Source/os_task.c ****              return ((void *)0);
 365              		.loc 1 820 13 view .LVU135
 820:rtos/uCOS-III/Source/os_task.c ****              return ((void *)0);
 366              		.loc 1 820 20 is_stmt 0 view .LVU136
 367 00c2 45F62563 		movw	r3, #24101
 368 00c6 A9F80030 		strh	r3, [r9]	@ movhi
 821:rtos/uCOS-III/Source/os_task.c ****     }
 369              		.loc 1 821 14 is_stmt 1 view .LVU137
 821:rtos/uCOS-III/Source/os_task.c ****     }
 370              		.loc 1 821 21 is_stmt 0 view .LVU138
 371 00ca 0027     		movs	r7, #0
 372 00cc F0E7     		b	.L11
 373              	.LVL35:
 374              	.L32:
 846:rtos/uCOS-III/Source/os_task.c ****         CPU_CRITICAL_EXIT();
 375              		.loc 1 846 42 is_stmt 1 view .LVU139
 847:rtos/uCOS-III/Source/os_task.c ****         OS_TRACE_TASK_MSG_Q_PEND_EXIT(OS_ERR_NONE);
 376              		.loc 1 847 9 view .LVU140
 847:rtos/uCOS-III/Source/os_task.c ****         OS_TRACE_TASK_MSG_Q_PEND_EXIT(OS_ERR_NONE);
 377              		.loc 1 847 9 view .LVU141
 847:rtos/uCOS-III/Source/os_task.c ****         OS_TRACE_TASK_MSG_Q_PEND_EXIT(OS_ERR_NONE);
 378              		.loc 1 847 9 view .LVU142
 379 00ce 5046     		mov	r0, r10
 380              	.LVL36:
 847:rtos/uCOS-III/Source/os_task.c ****         OS_TRACE_TASK_MSG_Q_PEND_EXIT(OS_ERR_NONE);
 381              		.loc 1 847 9 is_stmt 0 view .LVU143
 382 00d0 FFF7FEFF 		bl	CPU_SR_Restore
 383              	.LVL37:
 847:rtos/uCOS-III/Source/os_task.c ****         OS_TRACE_TASK_MSG_Q_PEND_EXIT(OS_ERR_NONE);
 384              		.loc 1 847 9 is_stmt 1 view .LVU144
 847:rtos/uCOS-III/Source/os_task.c ****         OS_TRACE_TASK_MSG_Q_PEND_EXIT(OS_ERR_NONE);
 385              		.loc 1 847 9 view .LVU145
ARM GAS  /tmp/ccS1bHPU.s 			page 25


 848:rtos/uCOS-III/Source/os_task.c ****         return (p_void);                                        /* Yes, Return oldest message recei
 386              		.loc 1 848 51 view .LVU146
 849:rtos/uCOS-III/Source/os_task.c ****     }
 387              		.loc 1 849 9 view .LVU147
 849:rtos/uCOS-III/Source/os_task.c ****     }
 388              		.loc 1 849 16 is_stmt 0 view .LVU148
 389 00d4 ECE7     		b	.L11
 390              	.LVL38:
 391              	.L33:
 853:rtos/uCOS-III/Source/os_task.c ****         CPU_CRITICAL_EXIT();
 392              		.loc 1 853 8 is_stmt 1 view .LVU149
 853:rtos/uCOS-III/Source/os_task.c ****         CPU_CRITICAL_EXIT();
 393              		.loc 1 853 15 is_stmt 0 view .LVU150
 394 00d6 46F2B013 		movw	r3, #25008
 395 00da A9F80030 		strh	r3, [r9]	@ movhi
 854:rtos/uCOS-III/Source/os_task.c ****         OS_TRACE_TASK_MSG_Q_PEND_FAILED(p_msg_q);
 396              		.loc 1 854 9 is_stmt 1 view .LVU151
 854:rtos/uCOS-III/Source/os_task.c ****         OS_TRACE_TASK_MSG_Q_PEND_FAILED(p_msg_q);
 397              		.loc 1 854 9 view .LVU152
 854:rtos/uCOS-III/Source/os_task.c ****         OS_TRACE_TASK_MSG_Q_PEND_FAILED(p_msg_q);
 398              		.loc 1 854 9 view .LVU153
 399 00de 5046     		mov	r0, r10
 400              	.LVL39:
 854:rtos/uCOS-III/Source/os_task.c ****         OS_TRACE_TASK_MSG_Q_PEND_FAILED(p_msg_q);
 401              		.loc 1 854 9 is_stmt 0 view .LVU154
 402 00e0 FFF7FEFF 		bl	CPU_SR_Restore
 403              	.LVL40:
 854:rtos/uCOS-III/Source/os_task.c ****         OS_TRACE_TASK_MSG_Q_PEND_FAILED(p_msg_q);
 404              		.loc 1 854 9 is_stmt 1 view .LVU155
 854:rtos/uCOS-III/Source/os_task.c ****         OS_TRACE_TASK_MSG_Q_PEND_FAILED(p_msg_q);
 405              		.loc 1 854 9 view .LVU156
 855:rtos/uCOS-III/Source/os_task.c ****         OS_TRACE_TASK_MSG_Q_PEND_EXIT(OS_ERR_PEND_WOULD_BLOCK);
 406              		.loc 1 855 49 view .LVU157
 856:rtos/uCOS-III/Source/os_task.c ****         return ((void *)0);
 407              		.loc 1 856 63 view .LVU158
 857:rtos/uCOS-III/Source/os_task.c ****     } else {                                                    /* Yes                             
 408              		.loc 1 857 9 view .LVU159
 857:rtos/uCOS-III/Source/os_task.c ****     } else {                                                    /* Yes                             
 409              		.loc 1 857 16 is_stmt 0 view .LVU160
 410 00e4 0027     		movs	r7, #0
 411              	.LVL41:
 857:rtos/uCOS-III/Source/os_task.c ****     } else {                                                    /* Yes                             
 412              		.loc 1 857 16 view .LVU161
 413 00e6 E3E7     		b	.L11
 414              	.LVL42:
 415              	.L34:
 860:rtos/uCOS-III/Source/os_task.c ****             OS_TRACE_TASK_MSG_Q_PEND_FAILED(p_msg_q);
 416              		.loc 1 860 13 is_stmt 1 view .LVU162
 860:rtos/uCOS-III/Source/os_task.c ****             OS_TRACE_TASK_MSG_Q_PEND_FAILED(p_msg_q);
 417              		.loc 1 860 13 view .LVU163
 860:rtos/uCOS-III/Source/os_task.c ****             OS_TRACE_TASK_MSG_Q_PEND_FAILED(p_msg_q);
 418              		.loc 1 860 13 view .LVU164
 419 00e8 5046     		mov	r0, r10
 420              	.LVL43:
 860:rtos/uCOS-III/Source/os_task.c ****             OS_TRACE_TASK_MSG_Q_PEND_FAILED(p_msg_q);
 421              		.loc 1 860 13 is_stmt 0 view .LVU165
 422 00ea FFF7FEFF 		bl	CPU_SR_Restore
ARM GAS  /tmp/ccS1bHPU.s 			page 26


 423              	.LVL44:
 860:rtos/uCOS-III/Source/os_task.c ****             OS_TRACE_TASK_MSG_Q_PEND_FAILED(p_msg_q);
 424              		.loc 1 860 13 is_stmt 1 view .LVU166
 860:rtos/uCOS-III/Source/os_task.c ****             OS_TRACE_TASK_MSG_Q_PEND_FAILED(p_msg_q);
 425              		.loc 1 860 13 view .LVU167
 861:rtos/uCOS-III/Source/os_task.c ****             OS_TRACE_TASK_MSG_Q_PEND_EXIT(OS_ERR_SCHED_LOCKED);
 426              		.loc 1 861 53 view .LVU168
 862:rtos/uCOS-III/Source/os_task.c ****            *p_err = OS_ERR_SCHED_LOCKED;
 427              		.loc 1 862 63 view .LVU169
 863:rtos/uCOS-III/Source/os_task.c ****             return ((void *)0);
 428              		.loc 1 863 12 view .LVU170
 863:rtos/uCOS-III/Source/os_task.c ****             return ((void *)0);
 429              		.loc 1 863 19 is_stmt 0 view .LVU171
 430 00ee 46F66353 		movw	r3, #28003
 431 00f2 A9F80030 		strh	r3, [r9]	@ movhi
 864:rtos/uCOS-III/Source/os_task.c ****         }
 432              		.loc 1 864 13 is_stmt 1 view .LVU172
 864:rtos/uCOS-III/Source/os_task.c ****         }
 433              		.loc 1 864 20 is_stmt 0 view .LVU173
 434 00f6 0027     		movs	r7, #0
 435              	.LVL45:
 864:rtos/uCOS-III/Source/os_task.c ****         }
 436              		.loc 1 864 20 view .LVU174
 437 00f8 DAE7     		b	.L11
 438              	.LVL46:
 439              	.L21:
 879:rtos/uCOS-III/Source/os_task.c ****             *p_msg_size  = OSTCBCurPtr->MsgSize;
 440              		.loc 1 879 14 is_stmt 1 view .LVU175
 879:rtos/uCOS-III/Source/os_task.c ****             *p_msg_size  = OSTCBCurPtr->MsgSize;
 441              		.loc 1 879 26 is_stmt 0 view .LVU176
 442 00fa 576D     		ldr	r7, [r2, #84]
 443              	.LVL47:
 880:rtos/uCOS-III/Source/os_task.c **** #if (OS_CFG_TS_EN > 0u)
 444              		.loc 1 880 13 is_stmt 1 view .LVU177
 880:rtos/uCOS-III/Source/os_task.c **** #if (OS_CFG_TS_EN > 0u)
 445              		.loc 1 880 39 is_stmt 0 view .LVU178
 446 00fc B2F85830 		ldrh	r3, [r2, #88]
 880:rtos/uCOS-III/Source/os_task.c **** #if (OS_CFG_TS_EN > 0u)
 447              		.loc 1 880 26 view .LVU179
 448 0100 2B80     		strh	r3, [r5]	@ movhi
 892:rtos/uCOS-III/Source/os_task.c ****             *p_err = OS_ERR_NONE;
 449              		.loc 1 892 47 is_stmt 1 view .LVU180
 893:rtos/uCOS-III/Source/os_task.c ****              break;
 450              		.loc 1 893 13 view .LVU181
 893:rtos/uCOS-III/Source/os_task.c ****              break;
 451              		.loc 1 893 20 is_stmt 0 view .LVU182
 452 0102 0023     		movs	r3, #0
 453 0104 A9F80030 		strh	r3, [r9]	@ movhi
 894:rtos/uCOS-III/Source/os_task.c **** 
 454              		.loc 1 894 14 is_stmt 1 view .LVU183
 455              	.LVL48:
 456              	.L24:
 919:rtos/uCOS-III/Source/os_task.c ****     OS_TRACE_TASK_MSG_Q_PEND_EXIT(*p_err);
 457              		.loc 1 919 5 view .LVU184
 919:rtos/uCOS-III/Source/os_task.c ****     OS_TRACE_TASK_MSG_Q_PEND_EXIT(*p_err);
 458              		.loc 1 919 5 view .LVU185
 919:rtos/uCOS-III/Source/os_task.c ****     OS_TRACE_TASK_MSG_Q_PEND_EXIT(*p_err);
ARM GAS  /tmp/ccS1bHPU.s 			page 27


 459              		.loc 1 919 5 view .LVU186
 460 0108 FFF7FEFF 		bl	CPU_SR_Restore
 461              	.LVL49:
 919:rtos/uCOS-III/Source/os_task.c ****     OS_TRACE_TASK_MSG_Q_PEND_EXIT(*p_err);
 462              		.loc 1 919 5 view .LVU187
 919:rtos/uCOS-III/Source/os_task.c ****     OS_TRACE_TASK_MSG_Q_PEND_EXIT(*p_err);
 463              		.loc 1 919 5 view .LVU188
 920:rtos/uCOS-III/Source/os_task.c ****     return (p_void);                                            /* Return received message         
 464              		.loc 1 920 42 view .LVU189
 921:rtos/uCOS-III/Source/os_task.c **** }
 465              		.loc 1 921 5 view .LVU190
 921:rtos/uCOS-III/Source/os_task.c **** }
 466              		.loc 1 921 12 is_stmt 0 view .LVU191
 467 010c D0E7     		b	.L11
 468              	.LVL50:
 469              	.L22:
 897:rtos/uCOS-III/Source/os_task.c ****             *p_msg_size = 0u;
 470              		.loc 1 897 14 is_stmt 1 view .LVU192
 898:rtos/uCOS-III/Source/os_task.c ****              if (p_ts != (CPU_TS *)0) {
 471              		.loc 1 898 13 view .LVU193
 898:rtos/uCOS-III/Source/os_task.c ****              if (p_ts != (CPU_TS *)0) {
 472              		.loc 1 898 25 is_stmt 0 view .LVU194
 473 010e 0023     		movs	r3, #0
 474 0110 2B80     		strh	r3, [r5]	@ movhi
 899:rtos/uCOS-III/Source/os_task.c ****                 *p_ts = 0u;
 475              		.loc 1 899 14 is_stmt 1 view .LVU195
 899:rtos/uCOS-III/Source/os_task.c ****                 *p_ts = 0u;
 476              		.loc 1 899 17 is_stmt 0 view .LVU196
 477 0112 06B1     		cbz	r6, .L25
 900:rtos/uCOS-III/Source/os_task.c ****              }
 478              		.loc 1 900 17 is_stmt 1 view .LVU197
 900:rtos/uCOS-III/Source/os_task.c ****              }
 479              		.loc 1 900 23 is_stmt 0 view .LVU198
 480 0114 3360     		str	r3, [r6]
 481              	.L25:
 902:rtos/uCOS-III/Source/os_task.c ****             *p_err      =  OS_ERR_PEND_ABORT;
 482              		.loc 1 902 54 is_stmt 1 view .LVU199
 903:rtos/uCOS-III/Source/os_task.c ****              break;
 483              		.loc 1 903 13 view .LVU200
 903:rtos/uCOS-III/Source/os_task.c ****              break;
 484              		.loc 1 903 25 is_stmt 0 view .LVU201
 485 0116 46F2A913 		movw	r3, #25001
 486 011a A9F80030 		strh	r3, [r9]	@ movhi
 904:rtos/uCOS-III/Source/os_task.c **** 
 487              		.loc 1 904 14 is_stmt 1 view .LVU202
 897:rtos/uCOS-III/Source/os_task.c ****             *p_msg_size = 0u;
 488              		.loc 1 897 25 is_stmt 0 view .LVU203
 489 011e 0027     		movs	r7, #0
 904:rtos/uCOS-III/Source/os_task.c **** 
 490              		.loc 1 904 14 view .LVU204
 491 0120 F2E7     		b	.L24
 492              	.L36:
 493 0122 00BF     		.align	2
 494              	.L35:
 495 0124 00000000 		.word	OSIntNestingCtr
 496 0128 00000000 		.word	OSRunning
 497 012c 00000000 		.word	OSTCBCurPtr
ARM GAS  /tmp/ccS1bHPU.s 			page 28


 498 0130 00000000 		.word	OSSchedLockNestingCtr
 499              		.cfi_endproc
 500              	.LFE4:
 502              		.section	.text.OSTaskQPendAbort,"ax",%progbits
 503              		.align	1
 504              		.global	OSTaskQPendAbort
 505              		.syntax unified
 506              		.thumb
 507              		.thumb_func
 508              		.fpu fpv4-sp-d16
 510              	OSTaskQPendAbort:
 511              	.LVL51:
 512              	.LFB5:
 923:rtos/uCOS-III/Source/os_task.c **** #endif
 924:rtos/uCOS-III/Source/os_task.c **** 
 925:rtos/uCOS-III/Source/os_task.c **** 
 926:rtos/uCOS-III/Source/os_task.c **** /*
 927:rtos/uCOS-III/Source/os_task.c **** ***************************************************************************************************
 928:rtos/uCOS-III/Source/os_task.c **** *                                              ABORT WAITING FOR A MESSAGE
 929:rtos/uCOS-III/Source/os_task.c **** *
 930:rtos/uCOS-III/Source/os_task.c **** * Description: This function aborts & readies the task specified.  This function should be used to 
 931:rtos/uCOS-III/Source/os_task.c **** *              for a message, rather than to normally post the message to the task via OSTaskQPost(
 932:rtos/uCOS-III/Source/os_task.c **** *
 933:rtos/uCOS-III/Source/os_task.c **** * Arguments  : p_tcb     is a pointer to the task to pend abort
 934:rtos/uCOS-III/Source/os_task.c **** *
 935:rtos/uCOS-III/Source/os_task.c **** *              opt       provides options for this function:
 936:rtos/uCOS-III/Source/os_task.c **** *
 937:rtos/uCOS-III/Source/os_task.c **** *                            OS_OPT_POST_NONE         No option specified
 938:rtos/uCOS-III/Source/os_task.c **** *                            OS_OPT_POST_NO_SCHED     Indicates that the scheduler will not be call
 939:rtos/uCOS-III/Source/os_task.c **** *
 940:rtos/uCOS-III/Source/os_task.c **** *              p_err     is a pointer to a variable that will contain an error code returned by thi
 941:rtos/uCOS-III/Source/os_task.c **** *
 942:rtos/uCOS-III/Source/os_task.c **** *                            OS_ERR_NONE               If the task was readied and informed of the 
 943:rtos/uCOS-III/Source/os_task.c **** *                            OS_ERR_OPT_INVALID        If you specified an invalid option
 944:rtos/uCOS-III/Source/os_task.c **** *                            OS_ERR_OS_NOT_RUNNING     If uC/OS-III is not running yet
 945:rtos/uCOS-III/Source/os_task.c **** *                            OS_ERR_PEND_ABORT_ISR     If you called this function from an ISR
 946:rtos/uCOS-III/Source/os_task.c **** *                            OS_ERR_PEND_ABORT_NONE    If task was not pending on a message and thu
 947:rtos/uCOS-III/Source/os_task.c **** *                                                      abort
 948:rtos/uCOS-III/Source/os_task.c **** *                            OS_ERR_PEND_ABORT_SELF    If you passed a NULL pointer for 'p_tcb'
 949:rtos/uCOS-III/Source/os_task.c **** *
 950:rtos/uCOS-III/Source/os_task.c **** * Returns    : == OS_FALSE   if task was not waiting for a message, or upon error.
 951:rtos/uCOS-III/Source/os_task.c **** *              == OS_TRUE    if task was waiting for a message and was readied and informed.
 952:rtos/uCOS-III/Source/os_task.c **** *
 953:rtos/uCOS-III/Source/os_task.c **** * Note(s)    : none
 954:rtos/uCOS-III/Source/os_task.c **** ***************************************************************************************************
 955:rtos/uCOS-III/Source/os_task.c **** */
 956:rtos/uCOS-III/Source/os_task.c **** 
 957:rtos/uCOS-III/Source/os_task.c **** #if (OS_CFG_TASK_Q_EN > 0u) && (OS_CFG_TASK_Q_PEND_ABORT_EN > 0u)
 958:rtos/uCOS-III/Source/os_task.c **** CPU_BOOLEAN  OSTaskQPendAbort (OS_TCB  *p_tcb,
 959:rtos/uCOS-III/Source/os_task.c ****                                OS_OPT   opt,
 960:rtos/uCOS-III/Source/os_task.c ****                                OS_ERR  *p_err)
 961:rtos/uCOS-III/Source/os_task.c **** {
 513              		.loc 1 961 1 is_stmt 1 view -0
 514              		.cfi_startproc
 515              		@ args = 0, pretend = 0, frame = 0
 516              		@ frame_needed = 0, uses_anonymous_args = 0
 517              		.loc 1 961 1 is_stmt 0 view .LVU206
ARM GAS  /tmp/ccS1bHPU.s 			page 29


 518 0000 2DE9F843 		push	{r3, r4, r5, r6, r7, r8, r9, lr}
 519              	.LCFI2:
 520              		.cfi_def_cfa_offset 32
 521              		.cfi_offset 3, -32
 522              		.cfi_offset 4, -28
 523              		.cfi_offset 5, -24
 524              		.cfi_offset 6, -20
 525              		.cfi_offset 7, -16
 526              		.cfi_offset 8, -12
 527              		.cfi_offset 9, -8
 528              		.cfi_offset 14, -4
 529 0004 1546     		mov	r5, r2
 962:rtos/uCOS-III/Source/os_task.c ****     CPU_TS  ts;
 530              		.loc 1 962 5 is_stmt 1 view .LVU207
 963:rtos/uCOS-III/Source/os_task.c ****     CPU_SR_ALLOC();
 531              		.loc 1 963 5 view .LVU208
 532              	.LVL52:
 964:rtos/uCOS-III/Source/os_task.c **** 
 965:rtos/uCOS-III/Source/os_task.c **** 
 966:rtos/uCOS-III/Source/os_task.c **** #ifdef OS_SAFETY_CRITICAL
 967:rtos/uCOS-III/Source/os_task.c ****     if (p_err == (OS_ERR *)0) {
 968:rtos/uCOS-III/Source/os_task.c ****         OS_SAFETY_CRITICAL_EXCEPTION();
 969:rtos/uCOS-III/Source/os_task.c ****         return (OS_FALSE);
 970:rtos/uCOS-III/Source/os_task.c ****     }
 971:rtos/uCOS-III/Source/os_task.c **** #endif
 972:rtos/uCOS-III/Source/os_task.c **** 
 973:rtos/uCOS-III/Source/os_task.c **** #if (OS_CFG_CALLED_FROM_ISR_CHK_EN > 0u)
 974:rtos/uCOS-III/Source/os_task.c ****     if (OSIntNestingCtr > 0u) {                                 /* See if called from ISR ...      
 533              		.loc 1 974 5 view .LVU209
 534              		.loc 1 974 25 is_stmt 0 view .LVU210
 535 0006 254B     		ldr	r3, .L49
 536 0008 1C78     		ldrb	r4, [r3]	@ zero_extendqisi2
 537              		.loc 1 974 8 view .LVU211
 538 000a 5CB9     		cbnz	r4, .L47
 539 000c 0746     		mov	r7, r0
 540 000e 0E46     		mov	r6, r1
 975:rtos/uCOS-III/Source/os_task.c ****        *p_err = OS_ERR_PEND_ABORT_ISR;                          /* ... can't Pend Abort from an ISR
 976:rtos/uCOS-III/Source/os_task.c ****         return (OS_FALSE);
 977:rtos/uCOS-III/Source/os_task.c ****     }
 978:rtos/uCOS-III/Source/os_task.c **** #endif
 979:rtos/uCOS-III/Source/os_task.c **** 
 980:rtos/uCOS-III/Source/os_task.c **** #if (OS_CFG_INVALID_OS_CALLS_CHK_EN > 0u)
 981:rtos/uCOS-III/Source/os_task.c ****     if (OSRunning != OS_STATE_OS_RUNNING) {                     /* Is the kernel running?          
 541              		.loc 1 981 5 is_stmt 1 view .LVU212
 542              		.loc 1 981 19 is_stmt 0 view .LVU213
 543 0010 234B     		ldr	r3, .L49+4
 544 0012 93F80080 		ldrb	r8, [r3]	@ zero_extendqisi2
 545              		.loc 1 981 8 view .LVU214
 546 0016 B8F1010F 		cmp	r8, #1
 547 001a 0AD0     		beq	.L40
 982:rtos/uCOS-III/Source/os_task.c ****        *p_err = OS_ERR_OS_NOT_RUNNING;
 548              		.loc 1 982 8 is_stmt 1 view .LVU215
 549              		.loc 1 982 15 is_stmt 0 view .LVU216
 550 001c 45F68963 		movw	r3, #24201
 551 0020 1380     		strh	r3, [r2]	@ movhi
 983:rtos/uCOS-III/Source/os_task.c ****         return (OS_FALSE);
 552              		.loc 1 983 9 is_stmt 1 view .LVU217
ARM GAS  /tmp/ccS1bHPU.s 			page 30


 553              		.loc 1 983 16 is_stmt 0 view .LVU218
 554 0022 03E0     		b	.L39
 555              	.L47:
 975:rtos/uCOS-III/Source/os_task.c ****        *p_err = OS_ERR_PEND_ABORT_ISR;                          /* ... can't Pend Abort from an ISR
 556              		.loc 1 975 8 is_stmt 1 view .LVU219
 975:rtos/uCOS-III/Source/os_task.c ****        *p_err = OS_ERR_PEND_ABORT_ISR;                          /* ... can't Pend Abort from an ISR
 557              		.loc 1 975 15 is_stmt 0 view .LVU220
 558 0024 46F2AA13 		movw	r3, #25002
 559 0028 1380     		strh	r3, [r2]	@ movhi
 976:rtos/uCOS-III/Source/os_task.c ****     }
 560              		.loc 1 976 9 is_stmt 1 view .LVU221
 976:rtos/uCOS-III/Source/os_task.c ****     }
 561              		.loc 1 976 16 is_stmt 0 view .LVU222
 562 002a 0024     		movs	r4, #0
 563              	.LVL53:
 564              	.L39:
 984:rtos/uCOS-III/Source/os_task.c ****     }
 985:rtos/uCOS-III/Source/os_task.c **** #endif
 986:rtos/uCOS-III/Source/os_task.c **** 
 987:rtos/uCOS-III/Source/os_task.c **** #if (OS_CFG_ARG_CHK_EN > 0u)                                    /* ---------------- VALIDATE ARGUME
 988:rtos/uCOS-III/Source/os_task.c ****     switch (opt) {                                              /* User must supply a valid option 
 989:rtos/uCOS-III/Source/os_task.c ****         case OS_OPT_POST_NONE:
 990:rtos/uCOS-III/Source/os_task.c ****         case OS_OPT_POST_NO_SCHED:
 991:rtos/uCOS-III/Source/os_task.c ****              break;
 992:rtos/uCOS-III/Source/os_task.c **** 
 993:rtos/uCOS-III/Source/os_task.c ****         default:
 994:rtos/uCOS-III/Source/os_task.c ****             *p_err = OS_ERR_OPT_INVALID;
 995:rtos/uCOS-III/Source/os_task.c ****              return (OS_FALSE);
 996:rtos/uCOS-III/Source/os_task.c ****     }
 997:rtos/uCOS-III/Source/os_task.c **** #endif
 998:rtos/uCOS-III/Source/os_task.c **** 
 999:rtos/uCOS-III/Source/os_task.c ****     CPU_CRITICAL_ENTER();
1000:rtos/uCOS-III/Source/os_task.c **** #if (OS_CFG_ARG_CHK_EN > 0u)
1001:rtos/uCOS-III/Source/os_task.c ****     if ((p_tcb == (OS_TCB *)0) ||                               /* Pend abort self?                
1002:rtos/uCOS-III/Source/os_task.c ****         (p_tcb == OSTCBCurPtr)) {
1003:rtos/uCOS-III/Source/os_task.c ****         CPU_CRITICAL_EXIT();
1004:rtos/uCOS-III/Source/os_task.c ****        *p_err = OS_ERR_PEND_ABORT_SELF;                         /* ... doesn't make sense          
1005:rtos/uCOS-III/Source/os_task.c ****         return (OS_FALSE);
1006:rtos/uCOS-III/Source/os_task.c ****     }
1007:rtos/uCOS-III/Source/os_task.c **** #endif
1008:rtos/uCOS-III/Source/os_task.c **** 
1009:rtos/uCOS-III/Source/os_task.c ****     if (p_tcb->PendOn != OS_TASK_PEND_ON_TASK_Q) {              /* Is task waiting for a message?  
1010:rtos/uCOS-III/Source/os_task.c ****         CPU_CRITICAL_EXIT();                                    /* No                              
1011:rtos/uCOS-III/Source/os_task.c ****        *p_err = OS_ERR_PEND_ABORT_NONE;
1012:rtos/uCOS-III/Source/os_task.c ****         return (OS_FALSE);
1013:rtos/uCOS-III/Source/os_task.c ****     }
1014:rtos/uCOS-III/Source/os_task.c **** 
1015:rtos/uCOS-III/Source/os_task.c **** #if (OS_CFG_TS_EN > 0u)
1016:rtos/uCOS-III/Source/os_task.c ****     ts = OS_TS_GET();                                           /* Get timestamp of when the abort 
1017:rtos/uCOS-III/Source/os_task.c **** #else
1018:rtos/uCOS-III/Source/os_task.c ****     ts = 0u;
1019:rtos/uCOS-III/Source/os_task.c **** #endif
1020:rtos/uCOS-III/Source/os_task.c ****     OS_PendAbort(p_tcb,                                         /* Abort the pend                  
1021:rtos/uCOS-III/Source/os_task.c ****                  ts,
1022:rtos/uCOS-III/Source/os_task.c ****                  OS_STATUS_PEND_ABORT);
1023:rtos/uCOS-III/Source/os_task.c ****     CPU_CRITICAL_EXIT();
1024:rtos/uCOS-III/Source/os_task.c ****     if ((opt & OS_OPT_POST_NO_SCHED) == 0u) {
ARM GAS  /tmp/ccS1bHPU.s 			page 31


1025:rtos/uCOS-III/Source/os_task.c ****         OSSched();                                              /* Run the scheduler               
1026:rtos/uCOS-III/Source/os_task.c ****     }
1027:rtos/uCOS-III/Source/os_task.c ****    *p_err = OS_ERR_NONE;
1028:rtos/uCOS-III/Source/os_task.c ****     return (OS_TRUE);
1029:rtos/uCOS-III/Source/os_task.c **** }
 565              		.loc 1 1029 1 view .LVU223
 566 002c 2046     		mov	r0, r4
 567 002e BDE8F883 		pop	{r3, r4, r5, r6, r7, r8, r9, pc}
 568              	.LVL54:
 569              	.L40:
 988:rtos/uCOS-III/Source/os_task.c ****         case OS_OPT_POST_NONE:
 570              		.loc 1 988 5 is_stmt 1 view .LVU224
 571 0032 31B1     		cbz	r1, .L41
 572 0034 B1F5004F 		cmp	r1, #32768
 573 0038 03D0     		beq	.L41
 994:rtos/uCOS-III/Source/os_task.c ****              return (OS_FALSE);
 574              		.loc 1 994 13 view .LVU225
 994:rtos/uCOS-III/Source/os_task.c ****              return (OS_FALSE);
 575              		.loc 1 994 20 is_stmt 0 view .LVU226
 576 003a 45F62563 		movw	r3, #24101
 577 003e 1380     		strh	r3, [r2]	@ movhi
 995:rtos/uCOS-III/Source/os_task.c ****     }
 578              		.loc 1 995 14 is_stmt 1 view .LVU227
 995:rtos/uCOS-III/Source/os_task.c ****     }
 579              		.loc 1 995 21 is_stmt 0 view .LVU228
 580 0040 F4E7     		b	.L39
 581              	.L41:
 991:rtos/uCOS-III/Source/os_task.c **** 
 582              		.loc 1 991 14 is_stmt 1 view .LVU229
 999:rtos/uCOS-III/Source/os_task.c **** #if (OS_CFG_ARG_CHK_EN > 0u)
 583              		.loc 1 999 5 view .LVU230
 999:rtos/uCOS-III/Source/os_task.c **** #if (OS_CFG_ARG_CHK_EN > 0u)
 584              		.loc 1 999 5 view .LVU231
 999:rtos/uCOS-III/Source/os_task.c **** #if (OS_CFG_ARG_CHK_EN > 0u)
 585              		.loc 1 999 5 view .LVU232
 586 0042 4020     		movs	r0, #64
 587              	.LVL55:
 999:rtos/uCOS-III/Source/os_task.c **** #if (OS_CFG_ARG_CHK_EN > 0u)
 588              		.loc 1 999 5 is_stmt 0 view .LVU233
 589 0044 FFF7FEFF 		bl	CPU_SR_Save
 590              	.LVL56:
 999:rtos/uCOS-III/Source/os_task.c **** #if (OS_CFG_ARG_CHK_EN > 0u)
 591              		.loc 1 999 5 view .LVU234
 592 0048 8146     		mov	r9, r0
 593              	.LVL57:
 999:rtos/uCOS-III/Source/os_task.c **** #if (OS_CFG_ARG_CHK_EN > 0u)
 594              		.loc 1 999 5 is_stmt 1 view .LVU235
 999:rtos/uCOS-III/Source/os_task.c **** #if (OS_CFG_ARG_CHK_EN > 0u)
 595              		.loc 1 999 5 view .LVU236
1001:rtos/uCOS-III/Source/os_task.c ****         (p_tcb == OSTCBCurPtr)) {
 596              		.loc 1 1001 5 view .LVU237
1001:rtos/uCOS-III/Source/os_task.c ****         (p_tcb == OSTCBCurPtr)) {
 597              		.loc 1 1001 8 is_stmt 0 view .LVU238
 598 004a 6FB1     		cbz	r7, .L42
1002:rtos/uCOS-III/Source/os_task.c ****         CPU_CRITICAL_EXIT();
 599              		.loc 1 1002 16 discriminator 1 view .LVU239
 600 004c 154B     		ldr	r3, .L49+8
ARM GAS  /tmp/ccS1bHPU.s 			page 32


 601 004e 1B68     		ldr	r3, [r3]
1001:rtos/uCOS-III/Source/os_task.c ****         (p_tcb == OSTCBCurPtr)) {
 602              		.loc 1 1001 32 discriminator 1 view .LVU240
 603 0050 BB42     		cmp	r3, r7
 604 0052 09D0     		beq	.L42
1009:rtos/uCOS-III/Source/os_task.c ****         CPU_CRITICAL_EXIT();                                    /* No                              
 605              		.loc 1 1009 5 is_stmt 1 view .LVU241
1009:rtos/uCOS-III/Source/os_task.c ****         CPU_CRITICAL_EXIT();                                    /* No                              
 606              		.loc 1 1009 14 is_stmt 0 view .LVU242
 607 0054 97F82C30 		ldrb	r3, [r7, #44]	@ zero_extendqisi2
1009:rtos/uCOS-III/Source/os_task.c ****         CPU_CRITICAL_EXIT();                                    /* No                              
 608              		.loc 1 1009 8 view .LVU243
 609 0058 022B     		cmp	r3, #2
 610 005a 0CD0     		beq	.L44
1010:rtos/uCOS-III/Source/os_task.c ****        *p_err = OS_ERR_PEND_ABORT_NONE;
 611              		.loc 1 1010 9 is_stmt 1 view .LVU244
1010:rtos/uCOS-III/Source/os_task.c ****        *p_err = OS_ERR_PEND_ABORT_NONE;
 612              		.loc 1 1010 9 view .LVU245
1010:rtos/uCOS-III/Source/os_task.c ****        *p_err = OS_ERR_PEND_ABORT_NONE;
 613              		.loc 1 1010 9 view .LVU246
 614 005c FFF7FEFF 		bl	CPU_SR_Restore
 615              	.LVL58:
1010:rtos/uCOS-III/Source/os_task.c ****        *p_err = OS_ERR_PEND_ABORT_NONE;
 616              		.loc 1 1010 9 view .LVU247
1010:rtos/uCOS-III/Source/os_task.c ****        *p_err = OS_ERR_PEND_ABORT_NONE;
 617              		.loc 1 1010 9 view .LVU248
1011:rtos/uCOS-III/Source/os_task.c ****         return (OS_FALSE);
 618              		.loc 1 1011 8 view .LVU249
1011:rtos/uCOS-III/Source/os_task.c ****         return (OS_FALSE);
 619              		.loc 1 1011 15 is_stmt 0 view .LVU250
 620 0060 46F2AB13 		movw	r3, #25003
 621 0064 2B80     		strh	r3, [r5]	@ movhi
1012:rtos/uCOS-III/Source/os_task.c ****     }
 622              		.loc 1 1012 9 is_stmt 1 view .LVU251
1012:rtos/uCOS-III/Source/os_task.c ****     }
 623              		.loc 1 1012 16 is_stmt 0 view .LVU252
 624 0066 E1E7     		b	.L39
 625              	.LVL59:
 626              	.L42:
1003:rtos/uCOS-III/Source/os_task.c ****        *p_err = OS_ERR_PEND_ABORT_SELF;                         /* ... doesn't make sense          
 627              		.loc 1 1003 9 is_stmt 1 view .LVU253
1003:rtos/uCOS-III/Source/os_task.c ****        *p_err = OS_ERR_PEND_ABORT_SELF;                         /* ... doesn't make sense          
 628              		.loc 1 1003 9 view .LVU254
1003:rtos/uCOS-III/Source/os_task.c ****        *p_err = OS_ERR_PEND_ABORT_SELF;                         /* ... doesn't make sense          
 629              		.loc 1 1003 9 view .LVU255
 630 0068 4846     		mov	r0, r9
 631              	.LVL60:
1003:rtos/uCOS-III/Source/os_task.c ****        *p_err = OS_ERR_PEND_ABORT_SELF;                         /* ... doesn't make sense          
 632              		.loc 1 1003 9 is_stmt 0 view .LVU256
 633 006a FFF7FEFF 		bl	CPU_SR_Restore
 634              	.LVL61:
1003:rtos/uCOS-III/Source/os_task.c ****        *p_err = OS_ERR_PEND_ABORT_SELF;                         /* ... doesn't make sense          
 635              		.loc 1 1003 9 is_stmt 1 view .LVU257
1003:rtos/uCOS-III/Source/os_task.c ****        *p_err = OS_ERR_PEND_ABORT_SELF;                         /* ... doesn't make sense          
 636              		.loc 1 1003 9 view .LVU258
1004:rtos/uCOS-III/Source/os_task.c ****         return (OS_FALSE);
 637              		.loc 1 1004 8 view .LVU259
ARM GAS  /tmp/ccS1bHPU.s 			page 33


1004:rtos/uCOS-III/Source/os_task.c ****         return (OS_FALSE);
 638              		.loc 1 1004 15 is_stmt 0 view .LVU260
 639 006e 46F2AC13 		movw	r3, #25004
 640 0072 2B80     		strh	r3, [r5]	@ movhi
1005:rtos/uCOS-III/Source/os_task.c ****     }
 641              		.loc 1 1005 9 is_stmt 1 view .LVU261
1005:rtos/uCOS-III/Source/os_task.c ****     }
 642              		.loc 1 1005 16 is_stmt 0 view .LVU262
 643 0074 DAE7     		b	.L39
 644              	.LVL62:
 645              	.L44:
1018:rtos/uCOS-III/Source/os_task.c **** #endif
 646              		.loc 1 1018 5 is_stmt 1 view .LVU263
1020:rtos/uCOS-III/Source/os_task.c ****                  ts,
 647              		.loc 1 1020 5 view .LVU264
 648 0076 0122     		movs	r2, #1
 649 0078 0021     		movs	r1, #0
 650 007a 3846     		mov	r0, r7
 651              	.LVL63:
1020:rtos/uCOS-III/Source/os_task.c ****                  ts,
 652              		.loc 1 1020 5 is_stmt 0 view .LVU265
 653 007c FFF7FEFF 		bl	OS_PendAbort
 654              	.LVL64:
1023:rtos/uCOS-III/Source/os_task.c ****     if ((opt & OS_OPT_POST_NO_SCHED) == 0u) {
 655              		.loc 1 1023 5 is_stmt 1 view .LVU266
1023:rtos/uCOS-III/Source/os_task.c ****     if ((opt & OS_OPT_POST_NO_SCHED) == 0u) {
 656              		.loc 1 1023 5 view .LVU267
1023:rtos/uCOS-III/Source/os_task.c ****     if ((opt & OS_OPT_POST_NO_SCHED) == 0u) {
 657              		.loc 1 1023 5 view .LVU268
 658 0080 4846     		mov	r0, r9
 659 0082 FFF7FEFF 		bl	CPU_SR_Restore
 660              	.LVL65:
1023:rtos/uCOS-III/Source/os_task.c ****     if ((opt & OS_OPT_POST_NO_SCHED) == 0u) {
 661              		.loc 1 1023 5 view .LVU269
1023:rtos/uCOS-III/Source/os_task.c ****     if ((opt & OS_OPT_POST_NO_SCHED) == 0u) {
 662              		.loc 1 1023 5 view .LVU270
1024:rtos/uCOS-III/Source/os_task.c ****         OSSched();                                              /* Run the scheduler               
 663              		.loc 1 1024 5 view .LVU271
1024:rtos/uCOS-III/Source/os_task.c ****         OSSched();                                              /* Run the scheduler               
 664              		.loc 1 1024 8 is_stmt 0 view .LVU272
 665 0086 16F4004F 		tst	r6, #32768
 666 008a 03D0     		beq	.L48
 667              	.L45:
1027:rtos/uCOS-III/Source/os_task.c ****     return (OS_TRUE);
 668              		.loc 1 1027 4 is_stmt 1 view .LVU273
1027:rtos/uCOS-III/Source/os_task.c ****     return (OS_TRUE);
 669              		.loc 1 1027 11 is_stmt 0 view .LVU274
 670 008c 0023     		movs	r3, #0
 671 008e 2B80     		strh	r3, [r5]	@ movhi
1028:rtos/uCOS-III/Source/os_task.c **** }
 672              		.loc 1 1028 5 is_stmt 1 view .LVU275
1028:rtos/uCOS-III/Source/os_task.c **** }
 673              		.loc 1 1028 12 is_stmt 0 view .LVU276
 674 0090 4446     		mov	r4, r8
 675 0092 CBE7     		b	.L39
 676              	.L48:
1025:rtos/uCOS-III/Source/os_task.c ****     }
ARM GAS  /tmp/ccS1bHPU.s 			page 34


 677              		.loc 1 1025 9 is_stmt 1 view .LVU277
 678 0094 FFF7FEFF 		bl	OSSched
 679              	.LVL66:
 680 0098 F8E7     		b	.L45
 681              	.L50:
 682 009a 00BF     		.align	2
 683              	.L49:
 684 009c 00000000 		.word	OSIntNestingCtr
 685 00a0 00000000 		.word	OSRunning
 686 00a4 00000000 		.word	OSTCBCurPtr
 687              		.cfi_endproc
 688              	.LFE5:
 690              		.section	.text.OSTaskQPost,"ax",%progbits
 691              		.align	1
 692              		.global	OSTaskQPost
 693              		.syntax unified
 694              		.thumb
 695              		.thumb_func
 696              		.fpu fpv4-sp-d16
 698              	OSTaskQPost:
 699              	.LVL67:
 700              	.LFB6:
1030:rtos/uCOS-III/Source/os_task.c **** #endif
1031:rtos/uCOS-III/Source/os_task.c **** 
1032:rtos/uCOS-III/Source/os_task.c **** 
1033:rtos/uCOS-III/Source/os_task.c **** /*
1034:rtos/uCOS-III/Source/os_task.c **** ***************************************************************************************************
1035:rtos/uCOS-III/Source/os_task.c **** *                                               POST MESSAGE TO A TASK
1036:rtos/uCOS-III/Source/os_task.c **** *
1037:rtos/uCOS-III/Source/os_task.c **** * Description: This function sends a message to a task.
1038:rtos/uCOS-III/Source/os_task.c **** *
1039:rtos/uCOS-III/Source/os_task.c **** * Arguments  : p_tcb      is a pointer to the TCB of the task receiving a message.  If you specify 
1040:rtos/uCOS-III/Source/os_task.c **** *                         the message will be posted to the task's queue of the calling task.  In o
1041:rtos/uCOS-III/Source/os_task.c **** *                         posting a message to yourself.
1042:rtos/uCOS-III/Source/os_task.c **** *
1043:rtos/uCOS-III/Source/os_task.c **** *              p_void     is a pointer to the message to send.
1044:rtos/uCOS-III/Source/os_task.c **** *
1045:rtos/uCOS-III/Source/os_task.c **** *              msg_size   is the size of the message sent (in bytes)
1046:rtos/uCOS-III/Source/os_task.c **** *
1047:rtos/uCOS-III/Source/os_task.c **** *              opt        specifies whether the post will be FIFO or LIFO:
1048:rtos/uCOS-III/Source/os_task.c **** *
1049:rtos/uCOS-III/Source/os_task.c **** *                             OS_OPT_POST_FIFO       Post at the end   of the queue
1050:rtos/uCOS-III/Source/os_task.c **** *                             OS_OPT_POST_LIFO       Post at the front of the queue
1051:rtos/uCOS-III/Source/os_task.c **** *
1052:rtos/uCOS-III/Source/os_task.c **** *                             OS_OPT_POST_NO_SCHED   Do not run the scheduler after the post
1053:rtos/uCOS-III/Source/os_task.c **** *
1054:rtos/uCOS-III/Source/os_task.c **** *                          Note(s): 1) OS_OPT_POST_NO_SCHED can be added with one of the other opti
1055:rtos/uCOS-III/Source/os_task.c **** *
1056:rtos/uCOS-III/Source/os_task.c **** *
1057:rtos/uCOS-III/Source/os_task.c **** *              p_err      is a pointer to a variable that will hold the error code associated
1058:rtos/uCOS-III/Source/os_task.c **** *                         with the outcome of this call.  Errors can be:
1059:rtos/uCOS-III/Source/os_task.c **** *
1060:rtos/uCOS-III/Source/os_task.c **** *                             OS_ERR_NONE              The call was successful and the message was 
1061:rtos/uCOS-III/Source/os_task.c **** *                             OS_ERR_MSG_POOL_EMPTY    If there are no more OS_MSGs available from 
1062:rtos/uCOS-III/Source/os_task.c **** *                             OS_ERR_OPT_INVALID       If you specified an invalid option
1063:rtos/uCOS-III/Source/os_task.c **** *                             OS_ERR_OS_NOT_RUNNING    If uC/OS-III is not running yet
1064:rtos/uCOS-III/Source/os_task.c **** *                             OS_ERR_Q_MAX             If the queue is full
ARM GAS  /tmp/ccS1bHPU.s 			page 35


1065:rtos/uCOS-III/Source/os_task.c **** *                             OS_ERR_STATE_INVALID     If the task is in an invalid state.  This sh
1066:rtos/uCOS-III/Source/os_task.c **** *                                                      and if it does, would be considered a system
1067:rtos/uCOS-III/Source/os_task.c **** *
1068:rtos/uCOS-III/Source/os_task.c **** * Returns    : none
1069:rtos/uCOS-III/Source/os_task.c **** *
1070:rtos/uCOS-III/Source/os_task.c **** * Note(s)    : none
1071:rtos/uCOS-III/Source/os_task.c **** ***************************************************************************************************
1072:rtos/uCOS-III/Source/os_task.c **** */
1073:rtos/uCOS-III/Source/os_task.c **** 
1074:rtos/uCOS-III/Source/os_task.c **** #if (OS_CFG_TASK_Q_EN > 0u)
1075:rtos/uCOS-III/Source/os_task.c **** void  OSTaskQPost (OS_TCB       *p_tcb,
1076:rtos/uCOS-III/Source/os_task.c ****                    void         *p_void,
1077:rtos/uCOS-III/Source/os_task.c ****                    OS_MSG_SIZE   msg_size,
1078:rtos/uCOS-III/Source/os_task.c ****                    OS_OPT        opt,
1079:rtos/uCOS-III/Source/os_task.c ****                    OS_ERR       *p_err)
1080:rtos/uCOS-III/Source/os_task.c **** {
 701              		.loc 1 1080 1 view -0
 702              		.cfi_startproc
 703              		@ args = 4, pretend = 0, frame = 0
 704              		@ frame_needed = 0, uses_anonymous_args = 0
 705              		.loc 1 1080 1 is_stmt 0 view .LVU279
 706 0000 2DE9F043 		push	{r4, r5, r6, r7, r8, r9, lr}
 707              	.LCFI3:
 708              		.cfi_def_cfa_offset 28
 709              		.cfi_offset 4, -28
 710              		.cfi_offset 5, -24
 711              		.cfi_offset 6, -20
 712              		.cfi_offset 7, -16
 713              		.cfi_offset 8, -12
 714              		.cfi_offset 9, -8
 715              		.cfi_offset 14, -4
 716 0004 83B0     		sub	sp, sp, #12
 717              	.LCFI4:
 718              		.cfi_def_cfa_offset 40
 719 0006 1C46     		mov	r4, r3
 720 0008 0A9D     		ldr	r5, [sp, #40]
1081:rtos/uCOS-III/Source/os_task.c ****     CPU_TS  ts;
 721              		.loc 1 1081 5 is_stmt 1 view .LVU280
1082:rtos/uCOS-III/Source/os_task.c ****     CPU_SR_ALLOC();
 722              		.loc 1 1082 5 view .LVU281
 723              	.LVL68:
1083:rtos/uCOS-III/Source/os_task.c **** 
1084:rtos/uCOS-III/Source/os_task.c **** 
1085:rtos/uCOS-III/Source/os_task.c **** #ifdef OS_SAFETY_CRITICAL
1086:rtos/uCOS-III/Source/os_task.c ****     if (p_err == (OS_ERR *)0) {
1087:rtos/uCOS-III/Source/os_task.c ****         OS_SAFETY_CRITICAL_EXCEPTION();
1088:rtos/uCOS-III/Source/os_task.c ****         return;
1089:rtos/uCOS-III/Source/os_task.c ****     }
1090:rtos/uCOS-III/Source/os_task.c **** #endif
1091:rtos/uCOS-III/Source/os_task.c **** 
1092:rtos/uCOS-III/Source/os_task.c ****     OS_TRACE_TASK_MSG_Q_POST_ENTER(&p_tcb->MsgQ, p_void, msg_size, opt);
 724              		.loc 1 1092 72 view .LVU282
1093:rtos/uCOS-III/Source/os_task.c **** 
1094:rtos/uCOS-III/Source/os_task.c **** #if (OS_CFG_INVALID_OS_CALLS_CHK_EN > 0u)
1095:rtos/uCOS-III/Source/os_task.c ****     if (OSRunning != OS_STATE_OS_RUNNING) {                     /* Is the kernel running?          
 725              		.loc 1 1095 5 view .LVU283
 726              		.loc 1 1095 19 is_stmt 0 view .LVU284
ARM GAS  /tmp/ccS1bHPU.s 			page 36


 727 000a 334B     		ldr	r3, .L66
 728              	.LVL69:
 729              		.loc 1 1095 19 view .LVU285
 730 000c 1B78     		ldrb	r3, [r3]	@ zero_extendqisi2
 731              		.loc 1 1095 8 view .LVU286
 732 000e 012B     		cmp	r3, #1
 733 0010 05D0     		beq	.L52
1096:rtos/uCOS-III/Source/os_task.c ****         OS_TRACE_TASK_MSG_Q_POST_EXIT(OS_ERR_OS_NOT_RUNNING);
 734              		.loc 1 1096 61 is_stmt 1 view .LVU287
1097:rtos/uCOS-III/Source/os_task.c ****        *p_err = OS_ERR_OS_NOT_RUNNING;
 735              		.loc 1 1097 8 view .LVU288
 736              		.loc 1 1097 15 is_stmt 0 view .LVU289
 737 0012 45F68963 		movw	r3, #24201
 738 0016 2B80     		strh	r3, [r5]	@ movhi
1098:rtos/uCOS-III/Source/os_task.c ****         return;
 739              		.loc 1 1098 9 is_stmt 1 view .LVU290
 740              	.LVL70:
 741              	.L51:
1099:rtos/uCOS-III/Source/os_task.c ****     }
1100:rtos/uCOS-III/Source/os_task.c **** #endif
1101:rtos/uCOS-III/Source/os_task.c **** 
1102:rtos/uCOS-III/Source/os_task.c **** #if (OS_CFG_ARG_CHK_EN > 0u)                                    /* ---------------- VALIDATE ARGUME
1103:rtos/uCOS-III/Source/os_task.c ****     switch (opt) {                                              /* User must supply a valid option 
1104:rtos/uCOS-III/Source/os_task.c ****         case OS_OPT_POST_FIFO:
1105:rtos/uCOS-III/Source/os_task.c ****         case OS_OPT_POST_LIFO:
1106:rtos/uCOS-III/Source/os_task.c ****         case OS_OPT_POST_FIFO | OS_OPT_POST_NO_SCHED:
1107:rtos/uCOS-III/Source/os_task.c ****         case OS_OPT_POST_LIFO | OS_OPT_POST_NO_SCHED:
1108:rtos/uCOS-III/Source/os_task.c ****              break;
1109:rtos/uCOS-III/Source/os_task.c **** 
1110:rtos/uCOS-III/Source/os_task.c ****         default:
1111:rtos/uCOS-III/Source/os_task.c ****              OS_TRACE_TASK_MSG_Q_POST_FAILED(&p_tcb->MsgQ);
1112:rtos/uCOS-III/Source/os_task.c ****              OS_TRACE_TASK_MSG_Q_POST_EXIT(OS_ERR_OPT_INVALID);
1113:rtos/uCOS-III/Source/os_task.c ****             *p_err = OS_ERR_OPT_INVALID;
1114:rtos/uCOS-III/Source/os_task.c ****              return;
1115:rtos/uCOS-III/Source/os_task.c ****     }
1116:rtos/uCOS-III/Source/os_task.c **** #endif
1117:rtos/uCOS-III/Source/os_task.c **** 
1118:rtos/uCOS-III/Source/os_task.c **** #if (OS_CFG_TS_EN > 0u)
1119:rtos/uCOS-III/Source/os_task.c ****     ts = OS_TS_GET();                                           /* Get timestamp                   
1120:rtos/uCOS-III/Source/os_task.c **** #else
1121:rtos/uCOS-III/Source/os_task.c ****     ts = 0u;
1122:rtos/uCOS-III/Source/os_task.c **** #endif
1123:rtos/uCOS-III/Source/os_task.c **** 
1124:rtos/uCOS-III/Source/os_task.c ****     OS_TRACE_TASK_MSG_Q_POST(&p_tcb->MsgQ);
1125:rtos/uCOS-III/Source/os_task.c **** 
1126:rtos/uCOS-III/Source/os_task.c ****    *p_err = OS_ERR_NONE;                                        /* Assume we won't have any errors 
1127:rtos/uCOS-III/Source/os_task.c ****     CPU_CRITICAL_ENTER();
1128:rtos/uCOS-III/Source/os_task.c ****     if (p_tcb == (OS_TCB *)0) {                                 /* Post msg to 'self'?             
1129:rtos/uCOS-III/Source/os_task.c ****         p_tcb = OSTCBCurPtr;
1130:rtos/uCOS-III/Source/os_task.c ****     }
1131:rtos/uCOS-III/Source/os_task.c ****     switch (p_tcb->TaskState) {
1132:rtos/uCOS-III/Source/os_task.c ****         case OS_TASK_STATE_RDY:
1133:rtos/uCOS-III/Source/os_task.c ****         case OS_TASK_STATE_DLY:
1134:rtos/uCOS-III/Source/os_task.c ****         case OS_TASK_STATE_SUSPENDED:
1135:rtos/uCOS-III/Source/os_task.c ****         case OS_TASK_STATE_DLY_SUSPENDED:
1136:rtos/uCOS-III/Source/os_task.c ****              OS_MsgQPut(&p_tcb->MsgQ,                           /* Deposit the message in the queue
1137:rtos/uCOS-III/Source/os_task.c ****                         p_void,
ARM GAS  /tmp/ccS1bHPU.s 			page 37


1138:rtos/uCOS-III/Source/os_task.c ****                         msg_size,
1139:rtos/uCOS-III/Source/os_task.c ****                         opt,
1140:rtos/uCOS-III/Source/os_task.c ****                         ts,
1141:rtos/uCOS-III/Source/os_task.c ****                         p_err);
1142:rtos/uCOS-III/Source/os_task.c ****              CPU_CRITICAL_EXIT();
1143:rtos/uCOS-III/Source/os_task.c ****              break;
1144:rtos/uCOS-III/Source/os_task.c **** 
1145:rtos/uCOS-III/Source/os_task.c ****         case OS_TASK_STATE_PEND:
1146:rtos/uCOS-III/Source/os_task.c ****         case OS_TASK_STATE_PEND_TIMEOUT:
1147:rtos/uCOS-III/Source/os_task.c ****         case OS_TASK_STATE_PEND_SUSPENDED:
1148:rtos/uCOS-III/Source/os_task.c ****         case OS_TASK_STATE_PEND_TIMEOUT_SUSPENDED:
1149:rtos/uCOS-III/Source/os_task.c ****              if (p_tcb->PendOn == OS_TASK_PEND_ON_TASK_Q) {     /* Is task waiting for a message to
1150:rtos/uCOS-III/Source/os_task.c ****                  OS_Post((OS_PEND_OBJ *)0,
1151:rtos/uCOS-III/Source/os_task.c ****                           p_tcb,
1152:rtos/uCOS-III/Source/os_task.c ****                           p_void,
1153:rtos/uCOS-III/Source/os_task.c ****                           msg_size,
1154:rtos/uCOS-III/Source/os_task.c ****                           ts);
1155:rtos/uCOS-III/Source/os_task.c ****                  CPU_CRITICAL_EXIT();
1156:rtos/uCOS-III/Source/os_task.c ****                  if ((opt & OS_OPT_POST_NO_SCHED) == 0u) {
1157:rtos/uCOS-III/Source/os_task.c ****                      OSSched();                                 /* Run the scheduler               
1158:rtos/uCOS-III/Source/os_task.c ****                  }
1159:rtos/uCOS-III/Source/os_task.c ****              } else {
1160:rtos/uCOS-III/Source/os_task.c ****                  OS_MsgQPut(&p_tcb->MsgQ,                       /* No,  Task is pending on somethin
1161:rtos/uCOS-III/Source/os_task.c ****                             p_void,                             /* ... Deposit the message in the t
1162:rtos/uCOS-III/Source/os_task.c ****                             msg_size,
1163:rtos/uCOS-III/Source/os_task.c ****                             opt,
1164:rtos/uCOS-III/Source/os_task.c ****                             ts,
1165:rtos/uCOS-III/Source/os_task.c ****                             p_err);
1166:rtos/uCOS-III/Source/os_task.c ****                  CPU_CRITICAL_EXIT();
1167:rtos/uCOS-III/Source/os_task.c ****              }
1168:rtos/uCOS-III/Source/os_task.c ****              break;
1169:rtos/uCOS-III/Source/os_task.c **** 
1170:rtos/uCOS-III/Source/os_task.c ****         default:
1171:rtos/uCOS-III/Source/os_task.c ****              CPU_CRITICAL_EXIT();
1172:rtos/uCOS-III/Source/os_task.c ****             *p_err = OS_ERR_STATE_INVALID;
1173:rtos/uCOS-III/Source/os_task.c ****              break;
1174:rtos/uCOS-III/Source/os_task.c ****     }
1175:rtos/uCOS-III/Source/os_task.c **** 
1176:rtos/uCOS-III/Source/os_task.c ****     OS_TRACE_TASK_MSG_Q_POST_EXIT(*p_err);
1177:rtos/uCOS-III/Source/os_task.c **** }
 742              		.loc 1 1177 1 is_stmt 0 view .LVU291
 743 0018 03B0     		add	sp, sp, #12
 744              	.LCFI5:
 745              		.cfi_remember_state
 746              		.cfi_def_cfa_offset 28
 747              		@ sp needed
 748 001a BDE8F083 		pop	{r4, r5, r6, r7, r8, r9, pc}
 749              	.LVL71:
 750              	.L52:
 751              	.LCFI6:
 752              		.cfi_restore_state
 753              		.loc 1 1177 1 view .LVU292
 754 001e 0646     		mov	r6, r0
 755 0020 0F46     		mov	r7, r1
 756 0022 9046     		mov	r8, r2
1103:rtos/uCOS-III/Source/os_task.c ****         case OS_OPT_POST_FIFO:
 757              		.loc 1 1103 5 is_stmt 1 view .LVU293
ARM GAS  /tmp/ccS1bHPU.s 			page 38


 758 0024 B4F5004F 		cmp	r4, #32768
 759 0028 03D0     		beq	.L54
1103:rtos/uCOS-III/Source/os_task.c ****         case OS_OPT_POST_FIFO:
 760              		.loc 1 1103 5 is_stmt 0 view .LVU294
 761 002a 13D8     		bhi	.L55
 762 002c 0CB1     		cbz	r4, .L54
 763 002e 102C     		cmp	r4, #16
 764 0030 14D1     		bne	.L56
 765              	.L54:
1108:rtos/uCOS-III/Source/os_task.c **** 
 766              		.loc 1 1108 14 is_stmt 1 view .LVU295
1121:rtos/uCOS-III/Source/os_task.c **** #endif
 767              		.loc 1 1121 5 view .LVU296
 768              	.LVL72:
1124:rtos/uCOS-III/Source/os_task.c **** 
 769              		.loc 1 1124 43 view .LVU297
1126:rtos/uCOS-III/Source/os_task.c ****     CPU_CRITICAL_ENTER();
 770              		.loc 1 1126 4 view .LVU298
1126:rtos/uCOS-III/Source/os_task.c ****     CPU_CRITICAL_ENTER();
 771              		.loc 1 1126 11 is_stmt 0 view .LVU299
 772 0032 0023     		movs	r3, #0
 773 0034 2B80     		strh	r3, [r5]	@ movhi
1127:rtos/uCOS-III/Source/os_task.c ****     if (p_tcb == (OS_TCB *)0) {                                 /* Post msg to 'self'?             
 774              		.loc 1 1127 5 is_stmt 1 view .LVU300
1127:rtos/uCOS-III/Source/os_task.c ****     if (p_tcb == (OS_TCB *)0) {                                 /* Post msg to 'self'?             
 775              		.loc 1 1127 5 view .LVU301
1127:rtos/uCOS-III/Source/os_task.c ****     if (p_tcb == (OS_TCB *)0) {                                 /* Post msg to 'self'?             
 776              		.loc 1 1127 5 view .LVU302
 777 0036 4020     		movs	r0, #64
 778              	.LVL73:
1127:rtos/uCOS-III/Source/os_task.c ****     if (p_tcb == (OS_TCB *)0) {                                 /* Post msg to 'self'?             
 779              		.loc 1 1127 5 is_stmt 0 view .LVU303
 780 0038 FFF7FEFF 		bl	CPU_SR_Save
 781              	.LVL74:
1127:rtos/uCOS-III/Source/os_task.c ****     if (p_tcb == (OS_TCB *)0) {                                 /* Post msg to 'self'?             
 782              		.loc 1 1127 5 view .LVU304
 783 003c 8146     		mov	r9, r0
 784              	.LVL75:
1127:rtos/uCOS-III/Source/os_task.c ****     if (p_tcb == (OS_TCB *)0) {                                 /* Post msg to 'self'?             
 785              		.loc 1 1127 5 is_stmt 1 view .LVU305
1127:rtos/uCOS-III/Source/os_task.c ****     if (p_tcb == (OS_TCB *)0) {                                 /* Post msg to 'self'?             
 786              		.loc 1 1127 5 view .LVU306
1128:rtos/uCOS-III/Source/os_task.c ****         p_tcb = OSTCBCurPtr;
 787              		.loc 1 1128 5 view .LVU307
1128:rtos/uCOS-III/Source/os_task.c ****         p_tcb = OSTCBCurPtr;
 788              		.loc 1 1128 8 is_stmt 0 view .LVU308
 789 003e 8EB1     		cbz	r6, .L64
 790              	.L57:
1131:rtos/uCOS-III/Source/os_task.c ****         case OS_TASK_STATE_RDY:
 791              		.loc 1 1131 5 is_stmt 1 view .LVU309
1131:rtos/uCOS-III/Source/os_task.c ****         case OS_TASK_STATE_RDY:
 792              		.loc 1 1131 18 is_stmt 0 view .LVU310
 793 0040 96F82E30 		ldrb	r3, [r6, #46]	@ zero_extendqisi2
 794 0044 072B     		cmp	r3, #7
 795 0046 40D8     		bhi	.L58
 796 0048 DFE803F0 		tbb	[pc, r3]
 797              	.L60:
ARM GAS  /tmp/ccS1bHPU.s 			page 39


 798 004c 0F       		.byte	(.L61-.L60)/2
 799 004d 0F       		.byte	(.L61-.L60)/2
 800 004e 1D       		.byte	(.L59-.L60)/2
 801 004f 1D       		.byte	(.L59-.L60)/2
 802 0050 0F       		.byte	(.L61-.L60)/2
 803 0051 0F       		.byte	(.L61-.L60)/2
 804 0052 1D       		.byte	(.L59-.L60)/2
 805 0053 1D       		.byte	(.L59-.L60)/2
 806              	.LVL76:
 807              		.p2align 1
 808              	.L55:
1103:rtos/uCOS-III/Source/os_task.c ****         case OS_OPT_POST_FIFO:
 809              		.loc 1 1103 5 view .LVU311
 810 0054 48F21003 		movw	r3, #32784
 811 0058 9C42     		cmp	r4, r3
 812 005a EAD0     		beq	.L54
 813              	.L56:
1111:rtos/uCOS-III/Source/os_task.c ****              OS_TRACE_TASK_MSG_Q_POST_EXIT(OS_ERR_OPT_INVALID);
 814              		.loc 1 1111 59 is_stmt 1 view .LVU312
1112:rtos/uCOS-III/Source/os_task.c ****             *p_err = OS_ERR_OPT_INVALID;
 815              		.loc 1 1112 63 view .LVU313
1113:rtos/uCOS-III/Source/os_task.c ****              return;
 816              		.loc 1 1113 13 view .LVU314
1113:rtos/uCOS-III/Source/os_task.c ****              return;
 817              		.loc 1 1113 20 is_stmt 0 view .LVU315
 818 005c 45F62563 		movw	r3, #24101
 819 0060 2B80     		strh	r3, [r5]	@ movhi
1114:rtos/uCOS-III/Source/os_task.c ****     }
 820              		.loc 1 1114 14 is_stmt 1 view .LVU316
 821 0062 D9E7     		b	.L51
 822              	.LVL77:
 823              	.L64:
1129:rtos/uCOS-III/Source/os_task.c ****     }
 824              		.loc 1 1129 9 view .LVU317
1129:rtos/uCOS-III/Source/os_task.c ****     }
 825              		.loc 1 1129 15 is_stmt 0 view .LVU318
 826 0064 1D4B     		ldr	r3, .L66+4
 827 0066 1E68     		ldr	r6, [r3]
 828              	.LVL78:
1129:rtos/uCOS-III/Source/os_task.c ****     }
 829              		.loc 1 1129 15 view .LVU319
 830 0068 EAE7     		b	.L57
 831              	.L61:
1136:rtos/uCOS-III/Source/os_task.c ****                         p_void,
 832              		.loc 1 1136 14 is_stmt 1 view .LVU320
 833 006a 0195     		str	r5, [sp, #4]
 834 006c 0023     		movs	r3, #0
 835 006e 0093     		str	r3, [sp]
 836 0070 2346     		mov	r3, r4
 837 0072 4246     		mov	r2, r8
 838 0074 3946     		mov	r1, r7
 839 0076 06F15C00 		add	r0, r6, #92
 840              	.LVL79:
1136:rtos/uCOS-III/Source/os_task.c ****                         p_void,
 841              		.loc 1 1136 14 is_stmt 0 view .LVU321
 842 007a FFF7FEFF 		bl	OS_MsgQPut
 843              	.LVL80:
ARM GAS  /tmp/ccS1bHPU.s 			page 40


1142:rtos/uCOS-III/Source/os_task.c ****              break;
 844              		.loc 1 1142 14 is_stmt 1 view .LVU322
1142:rtos/uCOS-III/Source/os_task.c ****              break;
 845              		.loc 1 1142 14 view .LVU323
1142:rtos/uCOS-III/Source/os_task.c ****              break;
 846              		.loc 1 1142 14 view .LVU324
 847 007e 4846     		mov	r0, r9
 848 0080 FFF7FEFF 		bl	CPU_SR_Restore
 849              	.LVL81:
1142:rtos/uCOS-III/Source/os_task.c ****              break;
 850              		.loc 1 1142 14 view .LVU325
1142:rtos/uCOS-III/Source/os_task.c ****              break;
 851              		.loc 1 1142 14 view .LVU326
1143:rtos/uCOS-III/Source/os_task.c **** 
 852              		.loc 1 1143 14 view .LVU327
 853 0084 C8E7     		b	.L51
 854              	.LVL82:
 855              	.L59:
1149:rtos/uCOS-III/Source/os_task.c ****                  OS_Post((OS_PEND_OBJ *)0,
 856              		.loc 1 1149 14 view .LVU328
1149:rtos/uCOS-III/Source/os_task.c ****                  OS_Post((OS_PEND_OBJ *)0,
 857              		.loc 1 1149 23 is_stmt 0 view .LVU329
 858 0086 96F82C30 		ldrb	r3, [r6, #44]	@ zero_extendqisi2
1149:rtos/uCOS-III/Source/os_task.c ****                  OS_Post((OS_PEND_OBJ *)0,
 859              		.loc 1 1149 17 view .LVU330
 860 008a 022B     		cmp	r3, #2
 861 008c 0DD0     		beq	.L65
1160:rtos/uCOS-III/Source/os_task.c ****                             p_void,                             /* ... Deposit the message in the t
 862              		.loc 1 1160 18 is_stmt 1 discriminator 1 view .LVU331
 863 008e 0195     		str	r5, [sp, #4]
 864 0090 0023     		movs	r3, #0
 865 0092 0093     		str	r3, [sp]
 866 0094 2346     		mov	r3, r4
 867 0096 4246     		mov	r2, r8
 868 0098 3946     		mov	r1, r7
 869 009a 06F15C00 		add	r0, r6, #92
 870              	.LVL83:
1160:rtos/uCOS-III/Source/os_task.c ****                             p_void,                             /* ... Deposit the message in the t
 871              		.loc 1 1160 18 is_stmt 0 discriminator 1 view .LVU332
 872 009e FFF7FEFF 		bl	OS_MsgQPut
 873              	.LVL84:
1166:rtos/uCOS-III/Source/os_task.c ****              }
 874              		.loc 1 1166 18 is_stmt 1 discriminator 1 view .LVU333
1166:rtos/uCOS-III/Source/os_task.c ****              }
 875              		.loc 1 1166 18 discriminator 1 view .LVU334
1166:rtos/uCOS-III/Source/os_task.c ****              }
 876              		.loc 1 1166 18 discriminator 1 view .LVU335
 877 00a2 4846     		mov	r0, r9
 878 00a4 FFF7FEFF 		bl	CPU_SR_Restore
 879              	.LVL85:
 880 00a8 B6E7     		b	.L51
 881              	.LVL86:
 882              	.L65:
1150:rtos/uCOS-III/Source/os_task.c ****                           p_tcb,
 883              		.loc 1 1150 18 view .LVU336
 884 00aa 0020     		movs	r0, #0
 885              	.LVL87:
ARM GAS  /tmp/ccS1bHPU.s 			page 41


1150:rtos/uCOS-III/Source/os_task.c ****                           p_tcb,
 886              		.loc 1 1150 18 is_stmt 0 view .LVU337
 887 00ac 0090     		str	r0, [sp]
 888 00ae 4346     		mov	r3, r8
 889 00b0 3A46     		mov	r2, r7
 890 00b2 3146     		mov	r1, r6
 891 00b4 FFF7FEFF 		bl	OS_Post
 892              	.LVL88:
1155:rtos/uCOS-III/Source/os_task.c ****                  if ((opt & OS_OPT_POST_NO_SCHED) == 0u) {
 893              		.loc 1 1155 18 is_stmt 1 view .LVU338
1155:rtos/uCOS-III/Source/os_task.c ****                  if ((opt & OS_OPT_POST_NO_SCHED) == 0u) {
 894              		.loc 1 1155 18 view .LVU339
1155:rtos/uCOS-III/Source/os_task.c ****                  if ((opt & OS_OPT_POST_NO_SCHED) == 0u) {
 895              		.loc 1 1155 18 view .LVU340
 896 00b8 4846     		mov	r0, r9
 897 00ba FFF7FEFF 		bl	CPU_SR_Restore
 898              	.LVL89:
1155:rtos/uCOS-III/Source/os_task.c ****                  if ((opt & OS_OPT_POST_NO_SCHED) == 0u) {
 899              		.loc 1 1155 18 view .LVU341
1155:rtos/uCOS-III/Source/os_task.c ****                  if ((opt & OS_OPT_POST_NO_SCHED) == 0u) {
 900              		.loc 1 1155 18 view .LVU342
1156:rtos/uCOS-III/Source/os_task.c ****                      OSSched();                                 /* Run the scheduler               
 901              		.loc 1 1156 18 view .LVU343
1156:rtos/uCOS-III/Source/os_task.c ****                      OSSched();                                 /* Run the scheduler               
 902              		.loc 1 1156 21 is_stmt 0 view .LVU344
 903 00be 14F4004F 		tst	r4, #32768
 904 00c2 A9D1     		bne	.L51
1157:rtos/uCOS-III/Source/os_task.c ****                  }
 905              		.loc 1 1157 22 is_stmt 1 view .LVU345
 906 00c4 FFF7FEFF 		bl	OSSched
 907              	.LVL90:
 908 00c8 A6E7     		b	.L51
 909              	.LVL91:
 910              	.L58:
1171:rtos/uCOS-III/Source/os_task.c ****             *p_err = OS_ERR_STATE_INVALID;
 911              		.loc 1 1171 14 view .LVU346
1171:rtos/uCOS-III/Source/os_task.c ****             *p_err = OS_ERR_STATE_INVALID;
 912              		.loc 1 1171 14 view .LVU347
1171:rtos/uCOS-III/Source/os_task.c ****             *p_err = OS_ERR_STATE_INVALID;
 913              		.loc 1 1171 14 view .LVU348
 914 00ca 4846     		mov	r0, r9
 915              	.LVL92:
1171:rtos/uCOS-III/Source/os_task.c ****             *p_err = OS_ERR_STATE_INVALID;
 916              		.loc 1 1171 14 is_stmt 0 view .LVU349
 917 00cc FFF7FEFF 		bl	CPU_SR_Restore
 918              	.LVL93:
1171:rtos/uCOS-III/Source/os_task.c ****             *p_err = OS_ERR_STATE_INVALID;
 919              		.loc 1 1171 14 is_stmt 1 view .LVU350
1171:rtos/uCOS-III/Source/os_task.c ****             *p_err = OS_ERR_STATE_INVALID;
 920              		.loc 1 1171 14 view .LVU351
1172:rtos/uCOS-III/Source/os_task.c ****              break;
 921              		.loc 1 1172 13 view .LVU352
1172:rtos/uCOS-III/Source/os_task.c ****              break;
 922              		.loc 1 1172 20 is_stmt 0 view .LVU353
 923 00d0 46F62D63 		movw	r3, #28205
 924 00d4 2B80     		strh	r3, [r5]	@ movhi
1173:rtos/uCOS-III/Source/os_task.c ****     }
ARM GAS  /tmp/ccS1bHPU.s 			page 42


 925              		.loc 1 1173 14 is_stmt 1 view .LVU354
1176:rtos/uCOS-III/Source/os_task.c **** }
 926              		.loc 1 1176 42 view .LVU355
1173:rtos/uCOS-III/Source/os_task.c ****     }
 927              		.loc 1 1173 14 is_stmt 0 view .LVU356
 928 00d6 9FE7     		b	.L51
 929              	.L67:
 930              		.align	2
 931              	.L66:
 932 00d8 00000000 		.word	OSRunning
 933 00dc 00000000 		.word	OSTCBCurPtr
 934              		.cfi_endproc
 935              	.LFE6:
 937              		.section	.text.OSTaskRegGet,"ax",%progbits
 938              		.align	1
 939              		.global	OSTaskRegGet
 940              		.syntax unified
 941              		.thumb
 942              		.thumb_func
 943              		.fpu fpv4-sp-d16
 945              	OSTaskRegGet:
 946              	.LVL94:
 947              	.LFB7:
1178:rtos/uCOS-III/Source/os_task.c **** #endif
1179:rtos/uCOS-III/Source/os_task.c **** 
1180:rtos/uCOS-III/Source/os_task.c **** 
1181:rtos/uCOS-III/Source/os_task.c **** /*
1182:rtos/uCOS-III/Source/os_task.c **** ***************************************************************************************************
1183:rtos/uCOS-III/Source/os_task.c **** *                                       GET THE CURRENT VALUE OF A TASK REGISTER
1184:rtos/uCOS-III/Source/os_task.c **** *
1185:rtos/uCOS-III/Source/os_task.c **** * Description: This function is called to obtain the current value of a task register.  Task regist
1186:rtos/uCOS-III/Source/os_task.c **** *              specific and can be used to store task specific values such as 'error numbers' (i.e.
1187:rtos/uCOS-III/Source/os_task.c **** *              etc.
1188:rtos/uCOS-III/Source/os_task.c **** *
1189:rtos/uCOS-III/Source/os_task.c **** * Arguments  : p_tcb     is a pointer to the OS_TCB of the task you want to read the register from.
1190:rtos/uCOS-III/Source/os_task.c **** *                        NULL pointer then you will get the register of the current task.
1191:rtos/uCOS-III/Source/os_task.c **** *
1192:rtos/uCOS-III/Source/os_task.c **** *              id        is the 'id' of the desired task variable.  Note that the 'id' must be less
1193:rtos/uCOS-III/Source/os_task.c **** *                        OS_CFG_TASK_REG_TBL_SIZE
1194:rtos/uCOS-III/Source/os_task.c **** *
1195:rtos/uCOS-III/Source/os_task.c **** *              p_err     is a pointer to a variable that will hold an error code related to this ca
1196:rtos/uCOS-III/Source/os_task.c **** *
1197:rtos/uCOS-III/Source/os_task.c **** *                            OS_ERR_NONE               If the call was successful
1198:rtos/uCOS-III/Source/os_task.c **** *                            OS_ERR_REG_ID_INVALID     If the 'id' is not between 0 and OS_CFG_TASK
1199:rtos/uCOS-III/Source/os_task.c **** *
1200:rtos/uCOS-III/Source/os_task.c **** * Returns    : The current value of the task's register or 0 if an error is detected.
1201:rtos/uCOS-III/Source/os_task.c **** *
1202:rtos/uCOS-III/Source/os_task.c **** * Note(s)    : none
1203:rtos/uCOS-III/Source/os_task.c **** ***************************************************************************************************
1204:rtos/uCOS-III/Source/os_task.c **** */
1205:rtos/uCOS-III/Source/os_task.c **** 
1206:rtos/uCOS-III/Source/os_task.c **** #if (OS_CFG_TASK_REG_TBL_SIZE > 0u)
1207:rtos/uCOS-III/Source/os_task.c **** OS_REG  OSTaskRegGet (OS_TCB     *p_tcb,
1208:rtos/uCOS-III/Source/os_task.c ****                       OS_REG_ID   id,
1209:rtos/uCOS-III/Source/os_task.c ****                       OS_ERR     *p_err)
1210:rtos/uCOS-III/Source/os_task.c **** {
 948              		.loc 1 1210 1 is_stmt 1 view -0
ARM GAS  /tmp/ccS1bHPU.s 			page 43


 949              		.cfi_startproc
 950              		@ args = 0, pretend = 0, frame = 0
 951              		@ frame_needed = 0, uses_anonymous_args = 0
 952              		.loc 1 1210 1 is_stmt 0 view .LVU358
 953 0000 70B5     		push	{r4, r5, r6, lr}
 954              	.LCFI7:
 955              		.cfi_def_cfa_offset 16
 956              		.cfi_offset 4, -16
 957              		.cfi_offset 5, -12
 958              		.cfi_offset 6, -8
 959              		.cfi_offset 14, -4
 960 0002 1646     		mov	r6, r2
1211:rtos/uCOS-III/Source/os_task.c ****     OS_REG     value;
 961              		.loc 1 1211 5 is_stmt 1 view .LVU359
1212:rtos/uCOS-III/Source/os_task.c ****     CPU_SR_ALLOC();
 962              		.loc 1 1212 5 view .LVU360
 963              	.LVL95:
1213:rtos/uCOS-III/Source/os_task.c **** 
1214:rtos/uCOS-III/Source/os_task.c **** 
1215:rtos/uCOS-III/Source/os_task.c **** 
1216:rtos/uCOS-III/Source/os_task.c **** #ifdef OS_SAFETY_CRITICAL
1217:rtos/uCOS-III/Source/os_task.c ****     if (p_err == (OS_ERR *)0) {
1218:rtos/uCOS-III/Source/os_task.c ****         OS_SAFETY_CRITICAL_EXCEPTION();
1219:rtos/uCOS-III/Source/os_task.c ****         return (0u);
1220:rtos/uCOS-III/Source/os_task.c ****     }
1221:rtos/uCOS-III/Source/os_task.c **** #endif
1222:rtos/uCOS-III/Source/os_task.c **** 
1223:rtos/uCOS-III/Source/os_task.c **** #if (OS_CFG_ARG_CHK_EN > 0u)
1224:rtos/uCOS-III/Source/os_task.c ****     if (id >= OS_CFG_TASK_REG_TBL_SIZE) {
 964              		.loc 1 1224 5 view .LVU361
 965              		.loc 1 1224 8 is_stmt 0 view .LVU362
 966 0004 29B1     		cbz	r1, .L69
1225:rtos/uCOS-III/Source/os_task.c ****        *p_err = OS_ERR_REG_ID_INVALID;
 967              		.loc 1 1225 8 is_stmt 1 view .LVU363
 968              		.loc 1 1225 15 is_stmt 0 view .LVU364
 969 0006 46F67913 		movw	r3, #27001
 970 000a 1380     		strh	r3, [r2]	@ movhi
1226:rtos/uCOS-III/Source/os_task.c ****         return (0u);
 971              		.loc 1 1226 9 is_stmt 1 view .LVU365
 972              		.loc 1 1226 16 is_stmt 0 view .LVU366
 973 000c 0024     		movs	r4, #0
 974              	.LVL96:
 975              	.L68:
1227:rtos/uCOS-III/Source/os_task.c ****     }
1228:rtos/uCOS-III/Source/os_task.c **** #endif
1229:rtos/uCOS-III/Source/os_task.c **** 
1230:rtos/uCOS-III/Source/os_task.c ****     CPU_CRITICAL_ENTER();
1231:rtos/uCOS-III/Source/os_task.c ****     if (p_tcb == (OS_TCB *)0) {
1232:rtos/uCOS-III/Source/os_task.c ****         p_tcb = OSTCBCurPtr;
1233:rtos/uCOS-III/Source/os_task.c ****     }
1234:rtos/uCOS-III/Source/os_task.c ****     value = p_tcb->RegTbl[id];
1235:rtos/uCOS-III/Source/os_task.c ****     CPU_CRITICAL_EXIT();
1236:rtos/uCOS-III/Source/os_task.c ****    *p_err = OS_ERR_NONE;
1237:rtos/uCOS-III/Source/os_task.c ****     return (value);
1238:rtos/uCOS-III/Source/os_task.c **** }
 976              		.loc 1 1238 1 view .LVU367
 977 000e 2046     		mov	r0, r4
ARM GAS  /tmp/ccS1bHPU.s 			page 44


 978 0010 70BD     		pop	{r4, r5, r6, pc}
 979              	.LVL97:
 980              	.L69:
 981              		.loc 1 1238 1 view .LVU368
 982 0012 0446     		mov	r4, r0
 983 0014 0D46     		mov	r5, r1
1230:rtos/uCOS-III/Source/os_task.c ****     if (p_tcb == (OS_TCB *)0) {
 984              		.loc 1 1230 5 is_stmt 1 view .LVU369
1230:rtos/uCOS-III/Source/os_task.c ****     if (p_tcb == (OS_TCB *)0) {
 985              		.loc 1 1230 5 view .LVU370
1230:rtos/uCOS-III/Source/os_task.c ****     if (p_tcb == (OS_TCB *)0) {
 986              		.loc 1 1230 5 view .LVU371
 987 0016 4020     		movs	r0, #64
 988              	.LVL98:
1230:rtos/uCOS-III/Source/os_task.c ****     if (p_tcb == (OS_TCB *)0) {
 989              		.loc 1 1230 5 is_stmt 0 view .LVU372
 990 0018 FFF7FEFF 		bl	CPU_SR_Save
 991              	.LVL99:
1230:rtos/uCOS-III/Source/os_task.c ****     if (p_tcb == (OS_TCB *)0) {
 992              		.loc 1 1230 5 is_stmt 1 view .LVU373
1230:rtos/uCOS-III/Source/os_task.c ****     if (p_tcb == (OS_TCB *)0) {
 993              		.loc 1 1230 5 view .LVU374
1231:rtos/uCOS-III/Source/os_task.c ****         p_tcb = OSTCBCurPtr;
 994              		.loc 1 1231 5 view .LVU375
1231:rtos/uCOS-III/Source/os_task.c ****         p_tcb = OSTCBCurPtr;
 995              		.loc 1 1231 8 is_stmt 0 view .LVU376
 996 001c 3CB1     		cbz	r4, .L73
 997              	.L71:
1234:rtos/uCOS-III/Source/os_task.c ****     CPU_CRITICAL_EXIT();
 998              		.loc 1 1234 5 is_stmt 1 view .LVU377
1234:rtos/uCOS-III/Source/os_task.c ****     CPU_CRITICAL_EXIT();
 999              		.loc 1 1234 11 is_stmt 0 view .LVU378
 1000 001e 1C35     		adds	r5, r5, #28
 1001 0020 54F82540 		ldr	r4, [r4, r5, lsl #2]
 1002              	.LVL100:
1235:rtos/uCOS-III/Source/os_task.c ****    *p_err = OS_ERR_NONE;
 1003              		.loc 1 1235 5 is_stmt 1 view .LVU379
1235:rtos/uCOS-III/Source/os_task.c ****    *p_err = OS_ERR_NONE;
 1004              		.loc 1 1235 5 view .LVU380
1235:rtos/uCOS-III/Source/os_task.c ****    *p_err = OS_ERR_NONE;
 1005              		.loc 1 1235 5 view .LVU381
 1006 0024 FFF7FEFF 		bl	CPU_SR_Restore
 1007              	.LVL101:
1235:rtos/uCOS-III/Source/os_task.c ****    *p_err = OS_ERR_NONE;
 1008              		.loc 1 1235 5 view .LVU382
1235:rtos/uCOS-III/Source/os_task.c ****    *p_err = OS_ERR_NONE;
 1009              		.loc 1 1235 5 view .LVU383
1236:rtos/uCOS-III/Source/os_task.c ****     return (value);
 1010              		.loc 1 1236 4 view .LVU384
1236:rtos/uCOS-III/Source/os_task.c ****     return (value);
 1011              		.loc 1 1236 11 is_stmt 0 view .LVU385
 1012 0028 0023     		movs	r3, #0
 1013 002a 3380     		strh	r3, [r6]	@ movhi
1237:rtos/uCOS-III/Source/os_task.c **** }
 1014              		.loc 1 1237 5 is_stmt 1 view .LVU386
1237:rtos/uCOS-III/Source/os_task.c **** }
 1015              		.loc 1 1237 12 is_stmt 0 view .LVU387
ARM GAS  /tmp/ccS1bHPU.s 			page 45


 1016 002c EFE7     		b	.L68
 1017              	.LVL102:
 1018              	.L73:
1232:rtos/uCOS-III/Source/os_task.c ****     }
 1019              		.loc 1 1232 9 is_stmt 1 view .LVU388
1232:rtos/uCOS-III/Source/os_task.c ****     }
 1020              		.loc 1 1232 15 is_stmt 0 view .LVU389
 1021 002e 014B     		ldr	r3, .L74
 1022 0030 1C68     		ldr	r4, [r3]
 1023              	.LVL103:
1232:rtos/uCOS-III/Source/os_task.c ****     }
 1024              		.loc 1 1232 15 view .LVU390
 1025 0032 F4E7     		b	.L71
 1026              	.L75:
 1027              		.align	2
 1028              	.L74:
 1029 0034 00000000 		.word	OSTCBCurPtr
 1030              		.cfi_endproc
 1031              	.LFE7:
 1033              		.section	.text.OSTaskRegGetID,"ax",%progbits
 1034              		.align	1
 1035              		.global	OSTaskRegGetID
 1036              		.syntax unified
 1037              		.thumb
 1038              		.thumb_func
 1039              		.fpu fpv4-sp-d16
 1041              	OSTaskRegGetID:
 1042              	.LVL104:
 1043              	.LFB8:
1239:rtos/uCOS-III/Source/os_task.c **** #endif
1240:rtos/uCOS-III/Source/os_task.c **** 
1241:rtos/uCOS-III/Source/os_task.c **** 
1242:rtos/uCOS-III/Source/os_task.c **** /*
1243:rtos/uCOS-III/Source/os_task.c **** ***************************************************************************************************
1244:rtos/uCOS-III/Source/os_task.c **** *                                    ALLOCATE THE NEXT AVAILABLE TASK REGISTER ID
1245:rtos/uCOS-III/Source/os_task.c **** *
1246:rtos/uCOS-III/Source/os_task.c **** * Description: This function is called to obtain a task register ID.  This function thus allows tas
1247:rtos/uCOS-III/Source/os_task.c **** *              allocated dynamically instead of statically.
1248:rtos/uCOS-III/Source/os_task.c **** *
1249:rtos/uCOS-III/Source/os_task.c **** * Arguments  : p_err       is a pointer to a variable that will hold an error code related to this 
1250:rtos/uCOS-III/Source/os_task.c **** *
1251:rtos/uCOS-III/Source/os_task.c **** *                            OS_ERR_NONE               If the call was successful
1252:rtos/uCOS-III/Source/os_task.c **** *                            OS_ERR_NO_MORE_ID_AVAIL   If you are attempting to assign more task re
1253:rtos/uCOS-III/Source/os_task.c **** *                                                          have available through OS_CFG_TASK_REG_T
1254:rtos/uCOS-III/Source/os_task.c **** *
1255:rtos/uCOS-III/Source/os_task.c **** * Returns    : The next available task register 'id' or OS_CFG_TASK_REG_TBL_SIZE if an error is det
1256:rtos/uCOS-III/Source/os_task.c **** *
1257:rtos/uCOS-III/Source/os_task.c **** * Note(s)    : none
1258:rtos/uCOS-III/Source/os_task.c **** ***************************************************************************************************
1259:rtos/uCOS-III/Source/os_task.c **** */
1260:rtos/uCOS-III/Source/os_task.c **** 
1261:rtos/uCOS-III/Source/os_task.c **** #if (OS_CFG_TASK_REG_TBL_SIZE > 0u)
1262:rtos/uCOS-III/Source/os_task.c **** OS_REG_ID  OSTaskRegGetID (OS_ERR  *p_err)
1263:rtos/uCOS-III/Source/os_task.c **** {
 1044              		.loc 1 1263 1 is_stmt 1 view -0
 1045              		.cfi_startproc
 1046              		@ args = 0, pretend = 0, frame = 0
ARM GAS  /tmp/ccS1bHPU.s 			page 46


 1047              		@ frame_needed = 0, uses_anonymous_args = 0
 1048              		.loc 1 1263 1 is_stmt 0 view .LVU392
 1049 0000 38B5     		push	{r3, r4, r5, lr}
 1050              	.LCFI8:
 1051              		.cfi_def_cfa_offset 16
 1052              		.cfi_offset 3, -16
 1053              		.cfi_offset 4, -12
 1054              		.cfi_offset 5, -8
 1055              		.cfi_offset 14, -4
 1056 0002 0546     		mov	r5, r0
1264:rtos/uCOS-III/Source/os_task.c ****     OS_REG_ID  id;
 1057              		.loc 1 1264 5 is_stmt 1 view .LVU393
1265:rtos/uCOS-III/Source/os_task.c ****     CPU_SR_ALLOC();
 1058              		.loc 1 1265 5 view .LVU394
 1059              	.LVL105:
1266:rtos/uCOS-III/Source/os_task.c **** 
1267:rtos/uCOS-III/Source/os_task.c **** 
1268:rtos/uCOS-III/Source/os_task.c **** 
1269:rtos/uCOS-III/Source/os_task.c **** #ifdef OS_SAFETY_CRITICAL
1270:rtos/uCOS-III/Source/os_task.c ****     if (p_err == (OS_ERR *)0) {
1271:rtos/uCOS-III/Source/os_task.c ****         OS_SAFETY_CRITICAL_EXCEPTION();
1272:rtos/uCOS-III/Source/os_task.c ****         return ((OS_REG_ID)OS_CFG_TASK_REG_TBL_SIZE);
1273:rtos/uCOS-III/Source/os_task.c ****     }
1274:rtos/uCOS-III/Source/os_task.c **** #endif
1275:rtos/uCOS-III/Source/os_task.c **** 
1276:rtos/uCOS-III/Source/os_task.c ****     CPU_CRITICAL_ENTER();
 1060              		.loc 1 1276 5 view .LVU395
 1061              		.loc 1 1276 5 view .LVU396
 1062              		.loc 1 1276 5 view .LVU397
 1063 0004 4020     		movs	r0, #64
 1064              	.LVL106:
 1065              		.loc 1 1276 5 is_stmt 0 view .LVU398
 1066 0006 FFF7FEFF 		bl	CPU_SR_Save
 1067              	.LVL107:
 1068              		.loc 1 1276 5 is_stmt 1 view .LVU399
 1069              		.loc 1 1276 5 view .LVU400
1277:rtos/uCOS-III/Source/os_task.c ****     if (OSTaskRegNextAvailID >= OS_CFG_TASK_REG_TBL_SIZE) {     /* See if we exceeded the number of
 1070              		.loc 1 1277 5 view .LVU401
 1071              		.loc 1 1277 30 is_stmt 0 view .LVU402
 1072 000a 094B     		ldr	r3, .L81
 1073 000c 1C78     		ldrb	r4, [r3]	@ zero_extendqisi2
 1074              		.loc 1 1277 8 view .LVU403
 1075 000e 44B9     		cbnz	r4, .L80
1278:rtos/uCOS-III/Source/os_task.c ****        *p_err = OS_ERR_NO_MORE_ID_AVAIL;                        /* Yes, cannot allocate more task r
1279:rtos/uCOS-III/Source/os_task.c ****         CPU_CRITICAL_EXIT();
1280:rtos/uCOS-III/Source/os_task.c ****         return (OS_CFG_TASK_REG_TBL_SIZE);
1281:rtos/uCOS-III/Source/os_task.c ****     }
1282:rtos/uCOS-III/Source/os_task.c **** 
1283:rtos/uCOS-III/Source/os_task.c ****     id = OSTaskRegNextAvailID;                                  /* Assign the next available ID    
 1076              		.loc 1 1283 5 is_stmt 1 view .LVU404
 1077              	.LVL108:
1284:rtos/uCOS-III/Source/os_task.c ****     OSTaskRegNextAvailID++;                                     /* Increment available ID for next 
 1078              		.loc 1 1284 5 view .LVU405
 1079              		.loc 1 1284 25 is_stmt 0 view .LVU406
 1080 0010 631C     		adds	r3, r4, #1
 1081 0012 074A     		ldr	r2, .L81
 1082 0014 1370     		strb	r3, [r2]
ARM GAS  /tmp/ccS1bHPU.s 			page 47


1285:rtos/uCOS-III/Source/os_task.c ****     CPU_CRITICAL_EXIT();
 1083              		.loc 1 1285 5 is_stmt 1 view .LVU407
 1084              		.loc 1 1285 5 view .LVU408
 1085              		.loc 1 1285 5 view .LVU409
 1086 0016 FFF7FEFF 		bl	CPU_SR_Restore
 1087              	.LVL109:
 1088              		.loc 1 1285 5 view .LVU410
 1089              		.loc 1 1285 5 view .LVU411
1286:rtos/uCOS-III/Source/os_task.c ****    *p_err = OS_ERR_NONE;
 1090              		.loc 1 1286 4 view .LVU412
 1091              		.loc 1 1286 11 is_stmt 0 view .LVU413
 1092 001a 0023     		movs	r3, #0
 1093 001c 2B80     		strh	r3, [r5]	@ movhi
1287:rtos/uCOS-III/Source/os_task.c ****     return (id);
 1094              		.loc 1 1287 5 is_stmt 1 view .LVU414
 1095              	.LVL110:
 1096              	.L78:
1288:rtos/uCOS-III/Source/os_task.c **** }
 1097              		.loc 1 1288 1 is_stmt 0 view .LVU415
 1098 001e 2046     		mov	r0, r4
 1099 0020 38BD     		pop	{r3, r4, r5, pc}
 1100              	.LVL111:
 1101              	.L80:
1278:rtos/uCOS-III/Source/os_task.c ****         CPU_CRITICAL_EXIT();
 1102              		.loc 1 1278 8 is_stmt 1 view .LVU416
1278:rtos/uCOS-III/Source/os_task.c ****         CPU_CRITICAL_EXIT();
 1103              		.loc 1 1278 15 is_stmt 0 view .LVU417
 1104 0022 45F6DA13 		movw	r3, #23002
 1105 0026 2B80     		strh	r3, [r5]	@ movhi
1279:rtos/uCOS-III/Source/os_task.c ****         return (OS_CFG_TASK_REG_TBL_SIZE);
 1106              		.loc 1 1279 9 is_stmt 1 view .LVU418
1279:rtos/uCOS-III/Source/os_task.c ****         return (OS_CFG_TASK_REG_TBL_SIZE);
 1107              		.loc 1 1279 9 view .LVU419
1279:rtos/uCOS-III/Source/os_task.c ****         return (OS_CFG_TASK_REG_TBL_SIZE);
 1108              		.loc 1 1279 9 view .LVU420
 1109 0028 FFF7FEFF 		bl	CPU_SR_Restore
 1110              	.LVL112:
1279:rtos/uCOS-III/Source/os_task.c ****         return (OS_CFG_TASK_REG_TBL_SIZE);
 1111              		.loc 1 1279 9 view .LVU421
1279:rtos/uCOS-III/Source/os_task.c ****         return (OS_CFG_TASK_REG_TBL_SIZE);
 1112              		.loc 1 1279 9 view .LVU422
1280:rtos/uCOS-III/Source/os_task.c ****     }
 1113              		.loc 1 1280 9 view .LVU423
1280:rtos/uCOS-III/Source/os_task.c ****     }
 1114              		.loc 1 1280 16 is_stmt 0 view .LVU424
 1115 002c 0124     		movs	r4, #1
 1116 002e F6E7     		b	.L78
 1117              	.L82:
 1118              		.align	2
 1119              	.L81:
 1120 0030 00000000 		.word	OSTaskRegNextAvailID
 1121              		.cfi_endproc
 1122              	.LFE8:
 1124              		.section	.text.OSTaskRegSet,"ax",%progbits
 1125              		.align	1
 1126              		.global	OSTaskRegSet
 1127              		.syntax unified
ARM GAS  /tmp/ccS1bHPU.s 			page 48


 1128              		.thumb
 1129              		.thumb_func
 1130              		.fpu fpv4-sp-d16
 1132              	OSTaskRegSet:
 1133              	.LVL113:
 1134              	.LFB9:
1289:rtos/uCOS-III/Source/os_task.c **** #endif
1290:rtos/uCOS-III/Source/os_task.c **** 
1291:rtos/uCOS-III/Source/os_task.c **** 
1292:rtos/uCOS-III/Source/os_task.c **** /*
1293:rtos/uCOS-III/Source/os_task.c **** ***************************************************************************************************
1294:rtos/uCOS-III/Source/os_task.c **** *                                       SET THE CURRENT VALUE OF A TASK REGISTER
1295:rtos/uCOS-III/Source/os_task.c **** *
1296:rtos/uCOS-III/Source/os_task.c **** * Description: This function is called to change the current value of a task register.  Task regist
1297:rtos/uCOS-III/Source/os_task.c **** *              specific and can be used to store task specific values such as 'error numbers' (i.e.
1298:rtos/uCOS-III/Source/os_task.c **** *              etc.
1299:rtos/uCOS-III/Source/os_task.c **** *
1300:rtos/uCOS-III/Source/os_task.c **** * Arguments  : p_tcb     is a pointer to the OS_TCB of the task you want to set the register for.  
1301:rtos/uCOS-III/Source/os_task.c **** *                        pointer then you will change the register of the current task.
1302:rtos/uCOS-III/Source/os_task.c **** *
1303:rtos/uCOS-III/Source/os_task.c **** *              id        is the 'id' of the desired task register.  Note that the 'id' must be less
1304:rtos/uCOS-III/Source/os_task.c **** *                        OS_CFG_TASK_REG_TBL_SIZE
1305:rtos/uCOS-III/Source/os_task.c **** *
1306:rtos/uCOS-III/Source/os_task.c **** *              value     is the desired value for the task register.
1307:rtos/uCOS-III/Source/os_task.c **** *
1308:rtos/uCOS-III/Source/os_task.c **** *              p_err     is a pointer to a variable that will hold an error code related to this ca
1309:rtos/uCOS-III/Source/os_task.c **** *
1310:rtos/uCOS-III/Source/os_task.c **** *                            OS_ERR_NONE               If the call was successful
1311:rtos/uCOS-III/Source/os_task.c **** *                            OS_ERR_REG_ID_INVALID     If the 'id' is not between 0 and OS_CFG_TASK
1312:rtos/uCOS-III/Source/os_task.c **** *
1313:rtos/uCOS-III/Source/os_task.c **** * Returns    : none
1314:rtos/uCOS-III/Source/os_task.c **** *
1315:rtos/uCOS-III/Source/os_task.c **** * Note(s)    : none
1316:rtos/uCOS-III/Source/os_task.c **** ***************************************************************************************************
1317:rtos/uCOS-III/Source/os_task.c **** */
1318:rtos/uCOS-III/Source/os_task.c **** 
1319:rtos/uCOS-III/Source/os_task.c **** #if (OS_CFG_TASK_REG_TBL_SIZE > 0u)
1320:rtos/uCOS-III/Source/os_task.c **** void  OSTaskRegSet (OS_TCB     *p_tcb,
1321:rtos/uCOS-III/Source/os_task.c ****                     OS_REG_ID   id,
1322:rtos/uCOS-III/Source/os_task.c ****                     OS_REG      value,
1323:rtos/uCOS-III/Source/os_task.c ****                     OS_ERR     *p_err)
1324:rtos/uCOS-III/Source/os_task.c **** {
 1135              		.loc 1 1324 1 is_stmt 1 view -0
 1136              		.cfi_startproc
 1137              		@ args = 0, pretend = 0, frame = 0
 1138              		@ frame_needed = 0, uses_anonymous_args = 0
 1139              		.loc 1 1324 1 is_stmt 0 view .LVU426
 1140 0000 F8B5     		push	{r3, r4, r5, r6, r7, lr}
 1141              	.LCFI9:
 1142              		.cfi_def_cfa_offset 24
 1143              		.cfi_offset 3, -24
 1144              		.cfi_offset 4, -20
 1145              		.cfi_offset 5, -16
 1146              		.cfi_offset 6, -12
 1147              		.cfi_offset 7, -8
 1148              		.cfi_offset 14, -4
 1149 0002 1E46     		mov	r6, r3
ARM GAS  /tmp/ccS1bHPU.s 			page 49


1325:rtos/uCOS-III/Source/os_task.c ****     CPU_SR_ALLOC();
 1150              		.loc 1 1325 5 is_stmt 1 view .LVU427
 1151              	.LVL114:
1326:rtos/uCOS-III/Source/os_task.c **** 
1327:rtos/uCOS-III/Source/os_task.c **** 
1328:rtos/uCOS-III/Source/os_task.c **** 
1329:rtos/uCOS-III/Source/os_task.c **** #ifdef OS_SAFETY_CRITICAL
1330:rtos/uCOS-III/Source/os_task.c ****     if (p_err == (OS_ERR *)0) {
1331:rtos/uCOS-III/Source/os_task.c ****         OS_SAFETY_CRITICAL_EXCEPTION();
1332:rtos/uCOS-III/Source/os_task.c ****         return;
1333:rtos/uCOS-III/Source/os_task.c ****     }
1334:rtos/uCOS-III/Source/os_task.c **** #endif
1335:rtos/uCOS-III/Source/os_task.c **** 
1336:rtos/uCOS-III/Source/os_task.c **** #if (OS_CFG_ARG_CHK_EN > 0u)
1337:rtos/uCOS-III/Source/os_task.c ****     if (id >= OS_CFG_TASK_REG_TBL_SIZE) {
 1152              		.loc 1 1337 5 view .LVU428
 1153              		.loc 1 1337 8 is_stmt 0 view .LVU429
 1154 0004 19B1     		cbz	r1, .L84
1338:rtos/uCOS-III/Source/os_task.c ****        *p_err = OS_ERR_REG_ID_INVALID;
 1155              		.loc 1 1338 8 is_stmt 1 view .LVU430
 1156              		.loc 1 1338 15 is_stmt 0 view .LVU431
 1157 0006 46F67913 		movw	r3, #27001
 1158              	.LVL115:
 1159              		.loc 1 1338 15 view .LVU432
 1160 000a 3380     		strh	r3, [r6]	@ movhi
1339:rtos/uCOS-III/Source/os_task.c ****         return;
 1161              		.loc 1 1339 9 is_stmt 1 view .LVU433
 1162              	.LVL116:
 1163              	.L83:
1340:rtos/uCOS-III/Source/os_task.c ****     }
1341:rtos/uCOS-III/Source/os_task.c **** #endif
1342:rtos/uCOS-III/Source/os_task.c **** 
1343:rtos/uCOS-III/Source/os_task.c ****     CPU_CRITICAL_ENTER();
1344:rtos/uCOS-III/Source/os_task.c ****     if (p_tcb == (OS_TCB *)0) {
1345:rtos/uCOS-III/Source/os_task.c ****         p_tcb = OSTCBCurPtr;
1346:rtos/uCOS-III/Source/os_task.c ****     }
1347:rtos/uCOS-III/Source/os_task.c ****     p_tcb->RegTbl[id] = value;
1348:rtos/uCOS-III/Source/os_task.c ****     CPU_CRITICAL_EXIT();
1349:rtos/uCOS-III/Source/os_task.c ****    *p_err             = OS_ERR_NONE;
1350:rtos/uCOS-III/Source/os_task.c **** }
 1164              		.loc 1 1350 1 is_stmt 0 view .LVU434
 1165 000c F8BD     		pop	{r3, r4, r5, r6, r7, pc}
 1166              	.LVL117:
 1167              	.L84:
 1168              		.loc 1 1350 1 view .LVU435
 1169 000e 0446     		mov	r4, r0
 1170 0010 1746     		mov	r7, r2
 1171 0012 0D46     		mov	r5, r1
1343:rtos/uCOS-III/Source/os_task.c ****     if (p_tcb == (OS_TCB *)0) {
 1172              		.loc 1 1343 5 is_stmt 1 view .LVU436
1343:rtos/uCOS-III/Source/os_task.c ****     if (p_tcb == (OS_TCB *)0) {
 1173              		.loc 1 1343 5 view .LVU437
1343:rtos/uCOS-III/Source/os_task.c ****     if (p_tcb == (OS_TCB *)0) {
 1174              		.loc 1 1343 5 view .LVU438
 1175 0014 4020     		movs	r0, #64
 1176              	.LVL118:
1343:rtos/uCOS-III/Source/os_task.c ****     if (p_tcb == (OS_TCB *)0) {
ARM GAS  /tmp/ccS1bHPU.s 			page 50


 1177              		.loc 1 1343 5 is_stmt 0 view .LVU439
 1178 0016 FFF7FEFF 		bl	CPU_SR_Save
 1179              	.LVL119:
1343:rtos/uCOS-III/Source/os_task.c ****     if (p_tcb == (OS_TCB *)0) {
 1180              		.loc 1 1343 5 is_stmt 1 view .LVU440
1343:rtos/uCOS-III/Source/os_task.c ****     if (p_tcb == (OS_TCB *)0) {
 1181              		.loc 1 1343 5 view .LVU441
1344:rtos/uCOS-III/Source/os_task.c ****         p_tcb = OSTCBCurPtr;
 1182              		.loc 1 1344 5 view .LVU442
1344:rtos/uCOS-III/Source/os_task.c ****         p_tcb = OSTCBCurPtr;
 1183              		.loc 1 1344 8 is_stmt 0 view .LVU443
 1184 001a 3CB1     		cbz	r4, .L88
 1185              	.L86:
1347:rtos/uCOS-III/Source/os_task.c ****     CPU_CRITICAL_EXIT();
 1186              		.loc 1 1347 5 is_stmt 1 view .LVU444
1347:rtos/uCOS-III/Source/os_task.c ****     CPU_CRITICAL_EXIT();
 1187              		.loc 1 1347 23 is_stmt 0 view .LVU445
 1188 001c 1C35     		adds	r5, r5, #28
 1189 001e 44F82570 		str	r7, [r4, r5, lsl #2]
1348:rtos/uCOS-III/Source/os_task.c ****    *p_err             = OS_ERR_NONE;
 1190              		.loc 1 1348 5 is_stmt 1 view .LVU446
1348:rtos/uCOS-III/Source/os_task.c ****    *p_err             = OS_ERR_NONE;
 1191              		.loc 1 1348 5 view .LVU447
1348:rtos/uCOS-III/Source/os_task.c ****    *p_err             = OS_ERR_NONE;
 1192              		.loc 1 1348 5 view .LVU448
 1193 0022 FFF7FEFF 		bl	CPU_SR_Restore
 1194              	.LVL120:
1348:rtos/uCOS-III/Source/os_task.c ****    *p_err             = OS_ERR_NONE;
 1195              		.loc 1 1348 5 view .LVU449
1348:rtos/uCOS-III/Source/os_task.c ****    *p_err             = OS_ERR_NONE;
 1196              		.loc 1 1348 5 view .LVU450
1349:rtos/uCOS-III/Source/os_task.c **** }
 1197              		.loc 1 1349 4 view .LVU451
1349:rtos/uCOS-III/Source/os_task.c **** }
 1198              		.loc 1 1349 23 is_stmt 0 view .LVU452
 1199 0026 0023     		movs	r3, #0
 1200 0028 3380     		strh	r3, [r6]	@ movhi
 1201 002a EFE7     		b	.L83
 1202              	.LVL121:
 1203              	.L88:
1345:rtos/uCOS-III/Source/os_task.c ****     }
 1204              		.loc 1 1345 9 is_stmt 1 view .LVU453
1345:rtos/uCOS-III/Source/os_task.c ****     }
 1205              		.loc 1 1345 15 is_stmt 0 view .LVU454
 1206 002c 014B     		ldr	r3, .L89
 1207 002e 1C68     		ldr	r4, [r3]
 1208              	.LVL122:
1345:rtos/uCOS-III/Source/os_task.c ****     }
 1209              		.loc 1 1345 15 view .LVU455
 1210 0030 F4E7     		b	.L86
 1211              	.L90:
 1212 0032 00BF     		.align	2
 1213              	.L89:
 1214 0034 00000000 		.word	OSTCBCurPtr
 1215              		.cfi_endproc
 1216              	.LFE9:
 1218              		.section	.text.OSTaskResume,"ax",%progbits
ARM GAS  /tmp/ccS1bHPU.s 			page 51


 1219              		.align	1
 1220              		.global	OSTaskResume
 1221              		.syntax unified
 1222              		.thumb
 1223              		.thumb_func
 1224              		.fpu fpv4-sp-d16
 1226              	OSTaskResume:
 1227              	.LVL123:
 1228              	.LFB10:
1351:rtos/uCOS-III/Source/os_task.c **** #endif
1352:rtos/uCOS-III/Source/os_task.c **** 
1353:rtos/uCOS-III/Source/os_task.c **** 
1354:rtos/uCOS-III/Source/os_task.c **** /*
1355:rtos/uCOS-III/Source/os_task.c **** ***************************************************************************************************
1356:rtos/uCOS-III/Source/os_task.c **** *                                               RESUME A SUSPENDED TASK
1357:rtos/uCOS-III/Source/os_task.c **** *
1358:rtos/uCOS-III/Source/os_task.c **** * Description: This function is called to resume a previously suspended task.  This is the only cal
1359:rtos/uCOS-III/Source/os_task.c **** *              explicit task suspension.
1360:rtos/uCOS-III/Source/os_task.c **** *
1361:rtos/uCOS-III/Source/os_task.c **** * Arguments  : p_tcb      Is a pointer to the task's OS_TCB to resume
1362:rtos/uCOS-III/Source/os_task.c **** *
1363:rtos/uCOS-III/Source/os_task.c **** *              p_err      Is a pointer to a variable that will contain an error code returned by th
1364:rtos/uCOS-III/Source/os_task.c **** *
1365:rtos/uCOS-III/Source/os_task.c **** *                             OS_ERR_NONE                  If the requested task is resumed
1366:rtos/uCOS-III/Source/os_task.c **** *                             OS_ERR_OS_NOT_RUNNING        If uC/OS-III is not running yet
1367:rtos/uCOS-III/Source/os_task.c **** *                             OS_ERR_STATE_INVALID         If the task is in an invalid state
1368:rtos/uCOS-III/Source/os_task.c **** *                             OS_ERR_TASK_NOT_SUSPENDED    If the task to resume has not been suspe
1369:rtos/uCOS-III/Source/os_task.c **** *                             OS_ERR_TASK_RESUME_ISR       If you called this function from an ISR
1370:rtos/uCOS-III/Source/os_task.c **** *                             OS_ERR_TASK_RESUME_SELF      You cannot resume 'self'
1371:rtos/uCOS-III/Source/os_task.c **** *
1372:rtos/uCOS-III/Source/os_task.c **** * Returns    : none
1373:rtos/uCOS-III/Source/os_task.c **** *
1374:rtos/uCOS-III/Source/os_task.c **** * Note(s)    : none
1375:rtos/uCOS-III/Source/os_task.c **** ***************************************************************************************************
1376:rtos/uCOS-III/Source/os_task.c **** */
1377:rtos/uCOS-III/Source/os_task.c **** 
1378:rtos/uCOS-III/Source/os_task.c **** #if (OS_CFG_TASK_SUSPEND_EN > 0u)
1379:rtos/uCOS-III/Source/os_task.c **** void  OSTaskResume (OS_TCB  *p_tcb,
1380:rtos/uCOS-III/Source/os_task.c ****                     OS_ERR  *p_err)
1381:rtos/uCOS-III/Source/os_task.c **** {
 1229              		.loc 1 1381 1 is_stmt 1 view -0
 1230              		.cfi_startproc
 1231              		@ args = 0, pretend = 0, frame = 0
 1232              		@ frame_needed = 0, uses_anonymous_args = 0
 1233              		.loc 1 1381 1 is_stmt 0 view .LVU457
 1234 0000 70B5     		push	{r4, r5, r6, lr}
 1235              	.LCFI10:
 1236              		.cfi_def_cfa_offset 16
 1237              		.cfi_offset 4, -16
 1238              		.cfi_offset 5, -12
 1239              		.cfi_offset 6, -8
 1240              		.cfi_offset 14, -4
 1241 0002 0C46     		mov	r4, r1
1382:rtos/uCOS-III/Source/os_task.c ****     CPU_SR_ALLOC();
 1242              		.loc 1 1382 5 is_stmt 1 view .LVU458
 1243              	.LVL124:
1383:rtos/uCOS-III/Source/os_task.c **** 
ARM GAS  /tmp/ccS1bHPU.s 			page 52


1384:rtos/uCOS-III/Source/os_task.c **** 
1385:rtos/uCOS-III/Source/os_task.c ****     OS_TRACE_TASK_RESUME_ENTER(p_tcb);
 1244              		.loc 1 1385 38 view .LVU459
1386:rtos/uCOS-III/Source/os_task.c **** 
1387:rtos/uCOS-III/Source/os_task.c **** #ifdef OS_SAFETY_CRITICAL
1388:rtos/uCOS-III/Source/os_task.c ****     if (p_err == (OS_ERR *)0) {
1389:rtos/uCOS-III/Source/os_task.c ****         OS_SAFETY_CRITICAL_EXCEPTION();
1390:rtos/uCOS-III/Source/os_task.c ****         return;
1391:rtos/uCOS-III/Source/os_task.c ****     }
1392:rtos/uCOS-III/Source/os_task.c **** #endif
1393:rtos/uCOS-III/Source/os_task.c **** 
1394:rtos/uCOS-III/Source/os_task.c **** #if (OS_CFG_CALLED_FROM_ISR_CHK_EN > 0u)
1395:rtos/uCOS-III/Source/os_task.c ****     if (OSIntNestingCtr > 0u) {                                 /* Not allowed to call from an ISR 
 1245              		.loc 1 1395 5 view .LVU460
 1246              		.loc 1 1395 25 is_stmt 0 view .LVU461
 1247 0004 3D4B     		ldr	r3, .L112
 1248 0006 1B78     		ldrb	r3, [r3]	@ zero_extendqisi2
 1249              		.loc 1 1395 8 view .LVU462
 1250 0008 43B9     		cbnz	r3, .L110
 1251 000a 0546     		mov	r5, r0
1396:rtos/uCOS-III/Source/os_task.c ****        *p_err = OS_ERR_TASK_RESUME_ISR;
1397:rtos/uCOS-III/Source/os_task.c ****         OS_TRACE_TASK_RESUME_EXIT(OS_ERR_TASK_RESUME_ISR);
1398:rtos/uCOS-III/Source/os_task.c ****         return;
1399:rtos/uCOS-III/Source/os_task.c ****     }
1400:rtos/uCOS-III/Source/os_task.c **** #endif
1401:rtos/uCOS-III/Source/os_task.c **** 
1402:rtos/uCOS-III/Source/os_task.c **** #if (OS_CFG_INVALID_OS_CALLS_CHK_EN > 0u)
1403:rtos/uCOS-III/Source/os_task.c ****     if (OSRunning != OS_STATE_OS_RUNNING) {                     /* Is the kernel running?          
 1252              		.loc 1 1403 5 is_stmt 1 view .LVU463
 1253              		.loc 1 1403 19 is_stmt 0 view .LVU464
 1254 000c 3C4B     		ldr	r3, .L112+4
 1255 000e 1B78     		ldrb	r3, [r3]	@ zero_extendqisi2
 1256              		.loc 1 1403 8 view .LVU465
 1257 0010 012B     		cmp	r3, #1
 1258 0012 07D0     		beq	.L94
1404:rtos/uCOS-III/Source/os_task.c ****        *p_err = OS_ERR_OS_NOT_RUNNING;
 1259              		.loc 1 1404 8 is_stmt 1 view .LVU466
 1260              		.loc 1 1404 15 is_stmt 0 view .LVU467
 1261 0014 45F68963 		movw	r3, #24201
 1262 0018 0B80     		strh	r3, [r1]	@ movhi
1405:rtos/uCOS-III/Source/os_task.c ****         OS_TRACE_TASK_RESUME_EXIT(OS_ERR_OS_NOT_RUNNING);
 1263              		.loc 1 1405 57 is_stmt 1 view .LVU468
1406:rtos/uCOS-III/Source/os_task.c ****         return;
 1264              		.loc 1 1406 9 view .LVU469
 1265              	.LVL125:
 1266              	.L91:
1407:rtos/uCOS-III/Source/os_task.c ****     }
1408:rtos/uCOS-III/Source/os_task.c **** #endif
1409:rtos/uCOS-III/Source/os_task.c **** 
1410:rtos/uCOS-III/Source/os_task.c **** 
1411:rtos/uCOS-III/Source/os_task.c **** #if (OS_CFG_ARG_CHK_EN > 0u)
1412:rtos/uCOS-III/Source/os_task.c ****     CPU_CRITICAL_ENTER();
1413:rtos/uCOS-III/Source/os_task.c ****     if ((p_tcb == (OS_TCB *)0) ||                               /* We cannot resume 'self'         
1414:rtos/uCOS-III/Source/os_task.c ****         (p_tcb == OSTCBCurPtr)) {
1415:rtos/uCOS-III/Source/os_task.c ****         CPU_CRITICAL_EXIT();
1416:rtos/uCOS-III/Source/os_task.c ****        *p_err = OS_ERR_TASK_RESUME_SELF;
1417:rtos/uCOS-III/Source/os_task.c ****         OS_TRACE_TASK_RESUME_EXIT(OS_ERR_TASK_RESUME_SELF);
ARM GAS  /tmp/ccS1bHPU.s 			page 53


1418:rtos/uCOS-III/Source/os_task.c ****         return;
1419:rtos/uCOS-III/Source/os_task.c ****     }
1420:rtos/uCOS-III/Source/os_task.c ****     CPU_CRITICAL_EXIT();
1421:rtos/uCOS-III/Source/os_task.c **** #endif
1422:rtos/uCOS-III/Source/os_task.c **** 
1423:rtos/uCOS-III/Source/os_task.c ****     CPU_CRITICAL_ENTER();
1424:rtos/uCOS-III/Source/os_task.c ****    *p_err = OS_ERR_NONE;
1425:rtos/uCOS-III/Source/os_task.c ****     switch (p_tcb->TaskState) {
1426:rtos/uCOS-III/Source/os_task.c ****         case OS_TASK_STATE_RDY:
1427:rtos/uCOS-III/Source/os_task.c ****         case OS_TASK_STATE_DLY:
1428:rtos/uCOS-III/Source/os_task.c ****         case OS_TASK_STATE_PEND:
1429:rtos/uCOS-III/Source/os_task.c ****         case OS_TASK_STATE_PEND_TIMEOUT:
1430:rtos/uCOS-III/Source/os_task.c ****              CPU_CRITICAL_EXIT();
1431:rtos/uCOS-III/Source/os_task.c ****             *p_err = OS_ERR_TASK_NOT_SUSPENDED;
1432:rtos/uCOS-III/Source/os_task.c ****              OS_TRACE_TASK_RESUME_EXIT(OS_ERR_TASK_NOT_SUSPENDED);
1433:rtos/uCOS-III/Source/os_task.c ****              break;
1434:rtos/uCOS-III/Source/os_task.c **** 
1435:rtos/uCOS-III/Source/os_task.c ****         case OS_TASK_STATE_SUSPENDED:
1436:rtos/uCOS-III/Source/os_task.c ****              p_tcb->SuspendCtr--;
1437:rtos/uCOS-III/Source/os_task.c ****              if (p_tcb->SuspendCtr == 0u) {
1438:rtos/uCOS-III/Source/os_task.c ****                  p_tcb->TaskState = OS_TASK_STATE_RDY;
1439:rtos/uCOS-III/Source/os_task.c ****                  OS_RdyListInsert(p_tcb);                       /* Insert the task in the ready lis
1440:rtos/uCOS-III/Source/os_task.c ****                  OS_TRACE_TASK_RESUME(p_tcb);
1441:rtos/uCOS-III/Source/os_task.c ****              }
1442:rtos/uCOS-III/Source/os_task.c ****              CPU_CRITICAL_EXIT();
1443:rtos/uCOS-III/Source/os_task.c ****              break;
1444:rtos/uCOS-III/Source/os_task.c **** 
1445:rtos/uCOS-III/Source/os_task.c ****         case OS_TASK_STATE_DLY_SUSPENDED:
1446:rtos/uCOS-III/Source/os_task.c ****              p_tcb->SuspendCtr--;
1447:rtos/uCOS-III/Source/os_task.c ****              if (p_tcb->SuspendCtr == 0u) {
1448:rtos/uCOS-III/Source/os_task.c ****                  p_tcb->TaskState = OS_TASK_STATE_DLY;
1449:rtos/uCOS-III/Source/os_task.c ****              }
1450:rtos/uCOS-III/Source/os_task.c ****              CPU_CRITICAL_EXIT();
1451:rtos/uCOS-III/Source/os_task.c ****              break;
1452:rtos/uCOS-III/Source/os_task.c **** 
1453:rtos/uCOS-III/Source/os_task.c ****         case OS_TASK_STATE_PEND_SUSPENDED:
1454:rtos/uCOS-III/Source/os_task.c ****              p_tcb->SuspendCtr--;
1455:rtos/uCOS-III/Source/os_task.c ****              if (p_tcb->SuspendCtr == 0u) {
1456:rtos/uCOS-III/Source/os_task.c ****                  p_tcb->TaskState = OS_TASK_STATE_PEND;
1457:rtos/uCOS-III/Source/os_task.c ****              }
1458:rtos/uCOS-III/Source/os_task.c ****              CPU_CRITICAL_EXIT();
1459:rtos/uCOS-III/Source/os_task.c ****              break;
1460:rtos/uCOS-III/Source/os_task.c **** 
1461:rtos/uCOS-III/Source/os_task.c ****         case OS_TASK_STATE_PEND_TIMEOUT_SUSPENDED:
1462:rtos/uCOS-III/Source/os_task.c ****              p_tcb->SuspendCtr--;
1463:rtos/uCOS-III/Source/os_task.c ****              if (p_tcb->SuspendCtr == 0u) {
1464:rtos/uCOS-III/Source/os_task.c ****                  p_tcb->TaskState = OS_TASK_STATE_PEND_TIMEOUT;
1465:rtos/uCOS-III/Source/os_task.c ****              }
1466:rtos/uCOS-III/Source/os_task.c ****              CPU_CRITICAL_EXIT();
1467:rtos/uCOS-III/Source/os_task.c ****              break;
1468:rtos/uCOS-III/Source/os_task.c **** 
1469:rtos/uCOS-III/Source/os_task.c ****         default:
1470:rtos/uCOS-III/Source/os_task.c ****              CPU_CRITICAL_EXIT();
1471:rtos/uCOS-III/Source/os_task.c ****             *p_err = OS_ERR_STATE_INVALID;
1472:rtos/uCOS-III/Source/os_task.c ****              OS_TRACE_TASK_RESUME_EXIT(OS_ERR_STATE_INVALID);
1473:rtos/uCOS-III/Source/os_task.c ****              break;
1474:rtos/uCOS-III/Source/os_task.c ****     }
ARM GAS  /tmp/ccS1bHPU.s 			page 54


1475:rtos/uCOS-III/Source/os_task.c **** 
1476:rtos/uCOS-III/Source/os_task.c ****     if (*p_err != OS_ERR_NONE) {                                /* Don't schedule if task wasn't in
1477:rtos/uCOS-III/Source/os_task.c ****         return;
1478:rtos/uCOS-III/Source/os_task.c ****     }
1479:rtos/uCOS-III/Source/os_task.c **** 
1480:rtos/uCOS-III/Source/os_task.c ****     OSSched();
1481:rtos/uCOS-III/Source/os_task.c ****     OS_TRACE_TASK_RESUME_EXIT(OS_ERR_NONE);
1482:rtos/uCOS-III/Source/os_task.c **** }
 1267              		.loc 1 1482 1 is_stmt 0 view .LVU470
 1268 001a 70BD     		pop	{r4, r5, r6, pc}
 1269              	.LVL126:
 1270              	.L110:
1396:rtos/uCOS-III/Source/os_task.c ****         OS_TRACE_TASK_RESUME_EXIT(OS_ERR_TASK_RESUME_ISR);
 1271              		.loc 1 1396 8 is_stmt 1 view .LVU471
1396:rtos/uCOS-III/Source/os_task.c ****         OS_TRACE_TASK_RESUME_EXIT(OS_ERR_TASK_RESUME_ISR);
 1272              		.loc 1 1396 15 is_stmt 0 view .LVU472
 1273 001c 47F25513 		movw	r3, #29013
 1274 0020 0B80     		strh	r3, [r1]	@ movhi
1397:rtos/uCOS-III/Source/os_task.c ****         return;
 1275              		.loc 1 1397 58 is_stmt 1 view .LVU473
1398:rtos/uCOS-III/Source/os_task.c ****     }
 1276              		.loc 1 1398 9 view .LVU474
 1277 0022 FAE7     		b	.L91
 1278              	.L94:
1412:rtos/uCOS-III/Source/os_task.c ****     if ((p_tcb == (OS_TCB *)0) ||                               /* We cannot resume 'self'         
 1279              		.loc 1 1412 5 view .LVU475
1412:rtos/uCOS-III/Source/os_task.c ****     if ((p_tcb == (OS_TCB *)0) ||                               /* We cannot resume 'self'         
 1280              		.loc 1 1412 5 view .LVU476
1412:rtos/uCOS-III/Source/os_task.c ****     if ((p_tcb == (OS_TCB *)0) ||                               /* We cannot resume 'self'         
 1281              		.loc 1 1412 5 view .LVU477
 1282 0024 4020     		movs	r0, #64
 1283              	.LVL127:
1412:rtos/uCOS-III/Source/os_task.c ****     if ((p_tcb == (OS_TCB *)0) ||                               /* We cannot resume 'self'         
 1284              		.loc 1 1412 5 is_stmt 0 view .LVU478
 1285 0026 FFF7FEFF 		bl	CPU_SR_Save
 1286              	.LVL128:
1412:rtos/uCOS-III/Source/os_task.c ****     if ((p_tcb == (OS_TCB *)0) ||                               /* We cannot resume 'self'         
 1287              		.loc 1 1412 5 is_stmt 1 view .LVU479
1412:rtos/uCOS-III/Source/os_task.c ****     if ((p_tcb == (OS_TCB *)0) ||                               /* We cannot resume 'self'         
 1288              		.loc 1 1412 5 view .LVU480
1413:rtos/uCOS-III/Source/os_task.c ****         (p_tcb == OSTCBCurPtr)) {
 1289              		.loc 1 1413 5 view .LVU481
1413:rtos/uCOS-III/Source/os_task.c ****         (p_tcb == OSTCBCurPtr)) {
 1290              		.loc 1 1413 8 is_stmt 0 view .LVU482
 1291 002a ADB1     		cbz	r5, .L95
1414:rtos/uCOS-III/Source/os_task.c ****         CPU_CRITICAL_EXIT();
 1292              		.loc 1 1414 16 discriminator 1 view .LVU483
 1293 002c 354B     		ldr	r3, .L112+8
 1294 002e 1B68     		ldr	r3, [r3]
1413:rtos/uCOS-III/Source/os_task.c ****         (p_tcb == OSTCBCurPtr)) {
 1295              		.loc 1 1413 32 discriminator 1 view .LVU484
 1296 0030 AB42     		cmp	r3, r5
 1297 0032 11D0     		beq	.L95
1420:rtos/uCOS-III/Source/os_task.c **** #endif
 1298              		.loc 1 1420 5 is_stmt 1 view .LVU485
1420:rtos/uCOS-III/Source/os_task.c **** #endif
 1299              		.loc 1 1420 5 view .LVU486
ARM GAS  /tmp/ccS1bHPU.s 			page 55


1420:rtos/uCOS-III/Source/os_task.c **** #endif
 1300              		.loc 1 1420 5 view .LVU487
 1301 0034 FFF7FEFF 		bl	CPU_SR_Restore
 1302              	.LVL129:
1420:rtos/uCOS-III/Source/os_task.c **** #endif
 1303              		.loc 1 1420 5 view .LVU488
1420:rtos/uCOS-III/Source/os_task.c **** #endif
 1304              		.loc 1 1420 5 view .LVU489
1423:rtos/uCOS-III/Source/os_task.c ****    *p_err = OS_ERR_NONE;
 1305              		.loc 1 1423 5 view .LVU490
1423:rtos/uCOS-III/Source/os_task.c ****    *p_err = OS_ERR_NONE;
 1306              		.loc 1 1423 5 view .LVU491
1423:rtos/uCOS-III/Source/os_task.c ****    *p_err = OS_ERR_NONE;
 1307              		.loc 1 1423 5 view .LVU492
 1308 0038 4020     		movs	r0, #64
 1309 003a FFF7FEFF 		bl	CPU_SR_Save
 1310              	.LVL130:
 1311 003e 0646     		mov	r6, r0
 1312              	.LVL131:
1423:rtos/uCOS-III/Source/os_task.c ****    *p_err = OS_ERR_NONE;
 1313              		.loc 1 1423 5 view .LVU493
1423:rtos/uCOS-III/Source/os_task.c ****    *p_err = OS_ERR_NONE;
 1314              		.loc 1 1423 5 view .LVU494
1424:rtos/uCOS-III/Source/os_task.c ****     switch (p_tcb->TaskState) {
 1315              		.loc 1 1424 4 view .LVU495
1424:rtos/uCOS-III/Source/os_task.c ****     switch (p_tcb->TaskState) {
 1316              		.loc 1 1424 11 is_stmt 0 view .LVU496
 1317 0040 0023     		movs	r3, #0
 1318 0042 2380     		strh	r3, [r4]	@ movhi
1425:rtos/uCOS-III/Source/os_task.c ****         case OS_TASK_STATE_RDY:
 1319              		.loc 1 1425 5 is_stmt 1 view .LVU497
1425:rtos/uCOS-III/Source/os_task.c ****         case OS_TASK_STATE_RDY:
 1320              		.loc 1 1425 18 is_stmt 0 view .LVU498
 1321 0044 95F82E30 		ldrb	r3, [r5, #46]	@ zero_extendqisi2
 1322 0048 072B     		cmp	r3, #7
 1323 004a 51D8     		bhi	.L97
 1324 004c DFE803F0 		tbb	[pc, r3]
 1325              	.L99:
 1326 0050 0A       		.byte	(.L103-.L99)/2
 1327 0051 0A       		.byte	(.L103-.L99)/2
 1328 0052 0A       		.byte	(.L103-.L99)/2
 1329 0053 0A       		.byte	(.L103-.L99)/2
 1330 0054 15       		.byte	(.L102-.L99)/2
 1331 0055 26       		.byte	(.L101-.L99)/2
 1332 0056 34       		.byte	(.L100-.L99)/2
 1333 0057 42       		.byte	(.L98-.L99)/2
 1334              		.p2align 1
 1335              	.L95:
1415:rtos/uCOS-III/Source/os_task.c ****        *p_err = OS_ERR_TASK_RESUME_SELF;
 1336              		.loc 1 1415 9 is_stmt 1 view .LVU499
1415:rtos/uCOS-III/Source/os_task.c ****        *p_err = OS_ERR_TASK_RESUME_SELF;
 1337              		.loc 1 1415 9 view .LVU500
1415:rtos/uCOS-III/Source/os_task.c ****        *p_err = OS_ERR_TASK_RESUME_SELF;
 1338              		.loc 1 1415 9 view .LVU501
 1339 0058 FFF7FEFF 		bl	CPU_SR_Restore
 1340              	.LVL132:
1415:rtos/uCOS-III/Source/os_task.c ****        *p_err = OS_ERR_TASK_RESUME_SELF;
ARM GAS  /tmp/ccS1bHPU.s 			page 56


 1341              		.loc 1 1415 9 view .LVU502
1415:rtos/uCOS-III/Source/os_task.c ****        *p_err = OS_ERR_TASK_RESUME_SELF;
 1342              		.loc 1 1415 9 view .LVU503
1416:rtos/uCOS-III/Source/os_task.c ****         OS_TRACE_TASK_RESUME_EXIT(OS_ERR_TASK_RESUME_SELF);
 1343              		.loc 1 1416 8 view .LVU504
1416:rtos/uCOS-III/Source/os_task.c ****         OS_TRACE_TASK_RESUME_EXIT(OS_ERR_TASK_RESUME_SELF);
 1344              		.loc 1 1416 15 is_stmt 0 view .LVU505
 1345 005c 47F25713 		movw	r3, #29015
 1346 0060 2380     		strh	r3, [r4]	@ movhi
1417:rtos/uCOS-III/Source/os_task.c ****         return;
 1347              		.loc 1 1417 59 is_stmt 1 view .LVU506
1418:rtos/uCOS-III/Source/os_task.c ****     }
 1348              		.loc 1 1418 9 view .LVU507
 1349 0062 DAE7     		b	.L91
 1350              	.LVL133:
 1351              	.L103:
1430:rtos/uCOS-III/Source/os_task.c ****             *p_err = OS_ERR_TASK_NOT_SUSPENDED;
 1352              		.loc 1 1430 14 view .LVU508
1430:rtos/uCOS-III/Source/os_task.c ****             *p_err = OS_ERR_TASK_NOT_SUSPENDED;
 1353              		.loc 1 1430 14 view .LVU509
1430:rtos/uCOS-III/Source/os_task.c ****             *p_err = OS_ERR_TASK_NOT_SUSPENDED;
 1354              		.loc 1 1430 14 view .LVU510
 1355 0064 FFF7FEFF 		bl	CPU_SR_Restore
 1356              	.LVL134:
1430:rtos/uCOS-III/Source/os_task.c ****             *p_err = OS_ERR_TASK_NOT_SUSPENDED;
 1357              		.loc 1 1430 14 view .LVU511
1430:rtos/uCOS-III/Source/os_task.c ****             *p_err = OS_ERR_TASK_NOT_SUSPENDED;
 1358              		.loc 1 1430 14 view .LVU512
1431:rtos/uCOS-III/Source/os_task.c ****              OS_TRACE_TASK_RESUME_EXIT(OS_ERR_TASK_NOT_SUSPENDED);
 1359              		.loc 1 1431 13 view .LVU513
1431:rtos/uCOS-III/Source/os_task.c ****              OS_TRACE_TASK_RESUME_EXIT(OS_ERR_TASK_NOT_SUSPENDED);
 1360              		.loc 1 1431 20 is_stmt 0 view .LVU514
 1361 0068 47F25313 		movw	r3, #29011
 1362 006c 2380     		strh	r3, [r4]	@ movhi
1432:rtos/uCOS-III/Source/os_task.c ****              break;
 1363              		.loc 1 1432 66 is_stmt 1 view .LVU515
1433:rtos/uCOS-III/Source/os_task.c **** 
 1364              		.loc 1 1433 14 view .LVU516
 1365              	.L104:
1476:rtos/uCOS-III/Source/os_task.c ****         return;
 1366              		.loc 1 1476 5 view .LVU517
1476:rtos/uCOS-III/Source/os_task.c ****         return;
 1367              		.loc 1 1476 9 is_stmt 0 view .LVU518
 1368 006e 2388     		ldrh	r3, [r4]
1476:rtos/uCOS-III/Source/os_task.c ****         return;
 1369              		.loc 1 1476 8 view .LVU519
 1370 0070 002B     		cmp	r3, #0
 1371 0072 D2D1     		bne	.L91
1480:rtos/uCOS-III/Source/os_task.c ****     OS_TRACE_TASK_RESUME_EXIT(OS_ERR_NONE);
 1372              		.loc 1 1480 5 is_stmt 1 view .LVU520
 1373 0074 FFF7FEFF 		bl	OSSched
 1374              	.LVL135:
1481:rtos/uCOS-III/Source/os_task.c **** }
 1375              		.loc 1 1481 43 view .LVU521
 1376 0078 CFE7     		b	.L91
 1377              	.LVL136:
 1378              	.L102:
ARM GAS  /tmp/ccS1bHPU.s 			page 57


1436:rtos/uCOS-III/Source/os_task.c ****              if (p_tcb->SuspendCtr == 0u) {
 1379              		.loc 1 1436 14 view .LVU522
1436:rtos/uCOS-III/Source/os_task.c ****              if (p_tcb->SuspendCtr == 0u) {
 1380              		.loc 1 1436 19 is_stmt 0 view .LVU523
 1381 007a 95F87E30 		ldrb	r3, [r5, #126]	@ zero_extendqisi2
1436:rtos/uCOS-III/Source/os_task.c ****              if (p_tcb->SuspendCtr == 0u) {
 1382              		.loc 1 1436 31 view .LVU524
 1383 007e 013B     		subs	r3, r3, #1
 1384 0080 DBB2     		uxtb	r3, r3
 1385 0082 85F87E30 		strb	r3, [r5, #126]
1437:rtos/uCOS-III/Source/os_task.c ****                  p_tcb->TaskState = OS_TASK_STATE_RDY;
 1386              		.loc 1 1437 14 is_stmt 1 view .LVU525
1437:rtos/uCOS-III/Source/os_task.c ****                  p_tcb->TaskState = OS_TASK_STATE_RDY;
 1387              		.loc 1 1437 17 is_stmt 0 view .LVU526
 1388 0086 1BB1     		cbz	r3, .L111
 1389              	.LVL137:
 1390              	.L105:
1440:rtos/uCOS-III/Source/os_task.c ****              }
 1391              		.loc 1 1440 45 is_stmt 1 view .LVU527
1442:rtos/uCOS-III/Source/os_task.c ****              break;
 1392              		.loc 1 1442 14 view .LVU528
1442:rtos/uCOS-III/Source/os_task.c ****              break;
 1393              		.loc 1 1442 14 view .LVU529
1442:rtos/uCOS-III/Source/os_task.c ****              break;
 1394              		.loc 1 1442 14 view .LVU530
 1395 0088 3046     		mov	r0, r6
 1396 008a FFF7FEFF 		bl	CPU_SR_Restore
 1397              	.LVL138:
1442:rtos/uCOS-III/Source/os_task.c ****              break;
 1398              		.loc 1 1442 14 view .LVU531
1442:rtos/uCOS-III/Source/os_task.c ****              break;
 1399              		.loc 1 1442 14 view .LVU532
1443:rtos/uCOS-III/Source/os_task.c **** 
 1400              		.loc 1 1443 14 view .LVU533
 1401 008e EEE7     		b	.L104
 1402              	.LVL139:
 1403              	.L111:
1438:rtos/uCOS-III/Source/os_task.c ****                  OS_RdyListInsert(p_tcb);                       /* Insert the task in the ready lis
 1404              		.loc 1 1438 18 view .LVU534
1438:rtos/uCOS-III/Source/os_task.c ****                  OS_RdyListInsert(p_tcb);                       /* Insert the task in the ready lis
 1405              		.loc 1 1438 35 is_stmt 0 view .LVU535
 1406 0090 85F82E30 		strb	r3, [r5, #46]
1439:rtos/uCOS-III/Source/os_task.c ****                  OS_TRACE_TASK_RESUME(p_tcb);
 1407              		.loc 1 1439 18 is_stmt 1 view .LVU536
 1408 0094 2846     		mov	r0, r5
 1409              	.LVL140:
1439:rtos/uCOS-III/Source/os_task.c ****                  OS_TRACE_TASK_RESUME(p_tcb);
 1410              		.loc 1 1439 18 is_stmt 0 view .LVU537
 1411 0096 FFF7FEFF 		bl	OS_RdyListInsert
 1412              	.LVL141:
 1413 009a F5E7     		b	.L105
 1414              	.LVL142:
 1415              	.L101:
1446:rtos/uCOS-III/Source/os_task.c ****              if (p_tcb->SuspendCtr == 0u) {
 1416              		.loc 1 1446 14 is_stmt 1 view .LVU538
1446:rtos/uCOS-III/Source/os_task.c ****              if (p_tcb->SuspendCtr == 0u) {
 1417              		.loc 1 1446 19 is_stmt 0 view .LVU539
ARM GAS  /tmp/ccS1bHPU.s 			page 58


 1418 009c 95F87E30 		ldrb	r3, [r5, #126]	@ zero_extendqisi2
1446:rtos/uCOS-III/Source/os_task.c ****              if (p_tcb->SuspendCtr == 0u) {
 1419              		.loc 1 1446 31 view .LVU540
 1420 00a0 013B     		subs	r3, r3, #1
 1421 00a2 DBB2     		uxtb	r3, r3
 1422 00a4 85F87E30 		strb	r3, [r5, #126]
1447:rtos/uCOS-III/Source/os_task.c ****                  p_tcb->TaskState = OS_TASK_STATE_DLY;
 1423              		.loc 1 1447 14 is_stmt 1 view .LVU541
1447:rtos/uCOS-III/Source/os_task.c ****                  p_tcb->TaskState = OS_TASK_STATE_DLY;
 1424              		.loc 1 1447 17 is_stmt 0 view .LVU542
 1425 00a8 13B9     		cbnz	r3, .L106
1448:rtos/uCOS-III/Source/os_task.c ****              }
 1426              		.loc 1 1448 18 is_stmt 1 view .LVU543
1448:rtos/uCOS-III/Source/os_task.c ****              }
 1427              		.loc 1 1448 35 is_stmt 0 view .LVU544
 1428 00aa 0123     		movs	r3, #1
 1429 00ac 85F82E30 		strb	r3, [r5, #46]
 1430              	.L106:
1450:rtos/uCOS-III/Source/os_task.c ****              break;
 1431              		.loc 1 1450 14 is_stmt 1 view .LVU545
1450:rtos/uCOS-III/Source/os_task.c ****              break;
 1432              		.loc 1 1450 14 view .LVU546
1450:rtos/uCOS-III/Source/os_task.c ****              break;
 1433              		.loc 1 1450 14 view .LVU547
 1434 00b0 3046     		mov	r0, r6
 1435              	.LVL143:
1450:rtos/uCOS-III/Source/os_task.c ****              break;
 1436              		.loc 1 1450 14 is_stmt 0 view .LVU548
 1437 00b2 FFF7FEFF 		bl	CPU_SR_Restore
 1438              	.LVL144:
1450:rtos/uCOS-III/Source/os_task.c ****              break;
 1439              		.loc 1 1450 14 is_stmt 1 view .LVU549
1450:rtos/uCOS-III/Source/os_task.c ****              break;
 1440              		.loc 1 1450 14 view .LVU550
1451:rtos/uCOS-III/Source/os_task.c **** 
 1441              		.loc 1 1451 14 view .LVU551
 1442 00b6 DAE7     		b	.L104
 1443              	.LVL145:
 1444              	.L100:
1454:rtos/uCOS-III/Source/os_task.c ****              if (p_tcb->SuspendCtr == 0u) {
 1445              		.loc 1 1454 14 view .LVU552
1454:rtos/uCOS-III/Source/os_task.c ****              if (p_tcb->SuspendCtr == 0u) {
 1446              		.loc 1 1454 19 is_stmt 0 view .LVU553
 1447 00b8 95F87E30 		ldrb	r3, [r5, #126]	@ zero_extendqisi2
1454:rtos/uCOS-III/Source/os_task.c ****              if (p_tcb->SuspendCtr == 0u) {
 1448              		.loc 1 1454 31 view .LVU554
 1449 00bc 013B     		subs	r3, r3, #1
 1450 00be DBB2     		uxtb	r3, r3
 1451 00c0 85F87E30 		strb	r3, [r5, #126]
1455:rtos/uCOS-III/Source/os_task.c ****                  p_tcb->TaskState = OS_TASK_STATE_PEND;
 1452              		.loc 1 1455 14 is_stmt 1 view .LVU555
1455:rtos/uCOS-III/Source/os_task.c ****                  p_tcb->TaskState = OS_TASK_STATE_PEND;
 1453              		.loc 1 1455 17 is_stmt 0 view .LVU556
 1454 00c4 13B9     		cbnz	r3, .L107
1456:rtos/uCOS-III/Source/os_task.c ****              }
 1455              		.loc 1 1456 18 is_stmt 1 view .LVU557
1456:rtos/uCOS-III/Source/os_task.c ****              }
ARM GAS  /tmp/ccS1bHPU.s 			page 59


 1456              		.loc 1 1456 35 is_stmt 0 view .LVU558
 1457 00c6 0223     		movs	r3, #2
 1458 00c8 85F82E30 		strb	r3, [r5, #46]
 1459              	.L107:
1458:rtos/uCOS-III/Source/os_task.c ****              break;
 1460              		.loc 1 1458 14 is_stmt 1 view .LVU559
1458:rtos/uCOS-III/Source/os_task.c ****              break;
 1461              		.loc 1 1458 14 view .LVU560
1458:rtos/uCOS-III/Source/os_task.c ****              break;
 1462              		.loc 1 1458 14 view .LVU561
 1463 00cc 3046     		mov	r0, r6
 1464              	.LVL146:
1458:rtos/uCOS-III/Source/os_task.c ****              break;
 1465              		.loc 1 1458 14 is_stmt 0 view .LVU562
 1466 00ce FFF7FEFF 		bl	CPU_SR_Restore
 1467              	.LVL147:
1458:rtos/uCOS-III/Source/os_task.c ****              break;
 1468              		.loc 1 1458 14 is_stmt 1 view .LVU563
1458:rtos/uCOS-III/Source/os_task.c ****              break;
 1469              		.loc 1 1458 14 view .LVU564
1459:rtos/uCOS-III/Source/os_task.c **** 
 1470              		.loc 1 1459 14 view .LVU565
 1471 00d2 CCE7     		b	.L104
 1472              	.LVL148:
 1473              	.L98:
1462:rtos/uCOS-III/Source/os_task.c ****              if (p_tcb->SuspendCtr == 0u) {
 1474              		.loc 1 1462 14 view .LVU566
1462:rtos/uCOS-III/Source/os_task.c ****              if (p_tcb->SuspendCtr == 0u) {
 1475              		.loc 1 1462 19 is_stmt 0 view .LVU567
 1476 00d4 95F87E30 		ldrb	r3, [r5, #126]	@ zero_extendqisi2
1462:rtos/uCOS-III/Source/os_task.c ****              if (p_tcb->SuspendCtr == 0u) {
 1477              		.loc 1 1462 31 view .LVU568
 1478 00d8 013B     		subs	r3, r3, #1
 1479 00da DBB2     		uxtb	r3, r3
 1480 00dc 85F87E30 		strb	r3, [r5, #126]
1463:rtos/uCOS-III/Source/os_task.c ****                  p_tcb->TaskState = OS_TASK_STATE_PEND_TIMEOUT;
 1481              		.loc 1 1463 14 is_stmt 1 view .LVU569
1463:rtos/uCOS-III/Source/os_task.c ****                  p_tcb->TaskState = OS_TASK_STATE_PEND_TIMEOUT;
 1482              		.loc 1 1463 17 is_stmt 0 view .LVU570
 1483 00e0 13B9     		cbnz	r3, .L108
1464:rtos/uCOS-III/Source/os_task.c ****              }
 1484              		.loc 1 1464 18 is_stmt 1 view .LVU571
1464:rtos/uCOS-III/Source/os_task.c ****              }
 1485              		.loc 1 1464 35 is_stmt 0 view .LVU572
 1486 00e2 0323     		movs	r3, #3
 1487 00e4 85F82E30 		strb	r3, [r5, #46]
 1488              	.L108:
1466:rtos/uCOS-III/Source/os_task.c ****              break;
 1489              		.loc 1 1466 14 is_stmt 1 view .LVU573
1466:rtos/uCOS-III/Source/os_task.c ****              break;
 1490              		.loc 1 1466 14 view .LVU574
1466:rtos/uCOS-III/Source/os_task.c ****              break;
 1491              		.loc 1 1466 14 view .LVU575
 1492 00e8 3046     		mov	r0, r6
 1493              	.LVL149:
1466:rtos/uCOS-III/Source/os_task.c ****              break;
 1494              		.loc 1 1466 14 is_stmt 0 view .LVU576
ARM GAS  /tmp/ccS1bHPU.s 			page 60


 1495 00ea FFF7FEFF 		bl	CPU_SR_Restore
 1496              	.LVL150:
1466:rtos/uCOS-III/Source/os_task.c ****              break;
 1497              		.loc 1 1466 14 is_stmt 1 view .LVU577
1466:rtos/uCOS-III/Source/os_task.c ****              break;
 1498              		.loc 1 1466 14 view .LVU578
1467:rtos/uCOS-III/Source/os_task.c **** 
 1499              		.loc 1 1467 14 view .LVU579
 1500 00ee BEE7     		b	.L104
 1501              	.LVL151:
 1502              	.L97:
1470:rtos/uCOS-III/Source/os_task.c ****             *p_err = OS_ERR_STATE_INVALID;
 1503              		.loc 1 1470 14 view .LVU580
1470:rtos/uCOS-III/Source/os_task.c ****             *p_err = OS_ERR_STATE_INVALID;
 1504              		.loc 1 1470 14 view .LVU581
1470:rtos/uCOS-III/Source/os_task.c ****             *p_err = OS_ERR_STATE_INVALID;
 1505              		.loc 1 1470 14 view .LVU582
 1506 00f0 FFF7FEFF 		bl	CPU_SR_Restore
 1507              	.LVL152:
1470:rtos/uCOS-III/Source/os_task.c ****             *p_err = OS_ERR_STATE_INVALID;
 1508              		.loc 1 1470 14 view .LVU583
1470:rtos/uCOS-III/Source/os_task.c ****             *p_err = OS_ERR_STATE_INVALID;
 1509              		.loc 1 1470 14 view .LVU584
1471:rtos/uCOS-III/Source/os_task.c ****              OS_TRACE_TASK_RESUME_EXIT(OS_ERR_STATE_INVALID);
 1510              		.loc 1 1471 13 view .LVU585
1471:rtos/uCOS-III/Source/os_task.c ****              OS_TRACE_TASK_RESUME_EXIT(OS_ERR_STATE_INVALID);
 1511              		.loc 1 1471 20 is_stmt 0 view .LVU586
 1512 00f4 46F62D63 		movw	r3, #28205
 1513 00f8 2380     		strh	r3, [r4]	@ movhi
1472:rtos/uCOS-III/Source/os_task.c ****              break;
 1514              		.loc 1 1472 61 is_stmt 1 view .LVU587
1473:rtos/uCOS-III/Source/os_task.c ****     }
 1515              		.loc 1 1473 14 view .LVU588
 1516 00fa B8E7     		b	.L104
 1517              	.L113:
 1518              		.align	2
 1519              	.L112:
 1520 00fc 00000000 		.word	OSIntNestingCtr
 1521 0100 00000000 		.word	OSRunning
 1522 0104 00000000 		.word	OSTCBCurPtr
 1523              		.cfi_endproc
 1524              	.LFE10:
 1526              		.section	.text.OSTaskSemPend,"ax",%progbits
 1527              		.align	1
 1528              		.global	OSTaskSemPend
 1529              		.syntax unified
 1530              		.thumb
 1531              		.thumb_func
 1532              		.fpu fpv4-sp-d16
 1534              	OSTaskSemPend:
 1535              	.LVL153:
 1536              	.LFB11:
1483:rtos/uCOS-III/Source/os_task.c **** #endif
1484:rtos/uCOS-III/Source/os_task.c **** 
1485:rtos/uCOS-III/Source/os_task.c **** 
1486:rtos/uCOS-III/Source/os_task.c **** /*
1487:rtos/uCOS-III/Source/os_task.c **** ***************************************************************************************************
ARM GAS  /tmp/ccS1bHPU.s 			page 61


1488:rtos/uCOS-III/Source/os_task.c **** *                                              WAIT FOR A TASK SEMAPHORE
1489:rtos/uCOS-III/Source/os_task.c **** *
1490:rtos/uCOS-III/Source/os_task.c **** * Description: This function is called to block the current task until a signal is sent by another 
1491:rtos/uCOS-III/Source/os_task.c **** *
1492:rtos/uCOS-III/Source/os_task.c **** * Arguments  : timeout       is the amount of time you are will to wait for the signal
1493:rtos/uCOS-III/Source/os_task.c **** *
1494:rtos/uCOS-III/Source/os_task.c **** *              opt           determines whether the user wants to block if a semaphore post was not
1495:rtos/uCOS-III/Source/os_task.c **** *
1496:rtos/uCOS-III/Source/os_task.c **** *                                OS_OPT_PEND_BLOCKING
1497:rtos/uCOS-III/Source/os_task.c **** *                                OS_OPT_PEND_NON_BLOCKING
1498:rtos/uCOS-III/Source/os_task.c **** *
1499:rtos/uCOS-III/Source/os_task.c **** *              p_ts          is a pointer to a variable that will receive the timestamp of when the
1500:rtos/uCOS-III/Source/os_task.c **** *                            or pend aborted.  If you pass a NULL pointer (i.e. (CPU_TS *)0) then y
1501:rtos/uCOS-III/Source/os_task.c **** *                            timestamp.  In other words, passing a NULL pointer is valid and indica
1502:rtos/uCOS-III/Source/os_task.c **** *                            need the timestamp.
1503:rtos/uCOS-III/Source/os_task.c **** *
1504:rtos/uCOS-III/Source/os_task.c **** *              p_err         is a pointer to an error code that will be set by this function
1505:rtos/uCOS-III/Source/os_task.c **** *
1506:rtos/uCOS-III/Source/os_task.c **** *                                OS_ERR_NONE                The call was successful and your task r
1507:rtos/uCOS-III/Source/os_task.c **** *                                OS_ERR_OPT_INVALID         You specified an invalid option
1508:rtos/uCOS-III/Source/os_task.c **** *                                OS_ERR_OS_NOT_RUNNING      If uC/OS-III is not running yet
1509:rtos/uCOS-III/Source/os_task.c **** *                                OS_ERR_PEND_ABORT          If the pend was aborted
1510:rtos/uCOS-III/Source/os_task.c **** *                                OS_ERR_PEND_ISR            If you called this function from an ISR
1511:rtos/uCOS-III/Source/os_task.c **** *                                OS_ERR_PEND_WOULD_BLOCK    If you specified non-blocking but no si
1512:rtos/uCOS-III/Source/os_task.c **** *                                OS_ERR_SCHED_LOCKED        If the scheduler is locked
1513:rtos/uCOS-III/Source/os_task.c **** *                                OS_ERR_STATUS_INVALID      If the pend status is invalid
1514:rtos/uCOS-III/Source/os_task.c **** *                                OS_ERR_TIMEOUT             A message was not received within the s
1515:rtos/uCOS-III/Source/os_task.c **** *
1516:rtos/uCOS-III/Source/os_task.c **** * Returns    : The current count of signals the task received, 0 if none.
1517:rtos/uCOS-III/Source/os_task.c **** *
1518:rtos/uCOS-III/Source/os_task.c **** * Note(s)    : This API 'MUST NOT' be called from a timer callback function.
1519:rtos/uCOS-III/Source/os_task.c **** ***************************************************************************************************
1520:rtos/uCOS-III/Source/os_task.c **** */
1521:rtos/uCOS-III/Source/os_task.c **** 
1522:rtos/uCOS-III/Source/os_task.c **** OS_SEM_CTR  OSTaskSemPend (OS_TICK   timeout,
1523:rtos/uCOS-III/Source/os_task.c ****                            OS_OPT    opt,
1524:rtos/uCOS-III/Source/os_task.c ****                            CPU_TS   *p_ts,
1525:rtos/uCOS-III/Source/os_task.c ****                            OS_ERR   *p_err)
1526:rtos/uCOS-III/Source/os_task.c **** {
 1537              		.loc 1 1526 1 view -0
 1538              		.cfi_startproc
 1539              		@ args = 0, pretend = 0, frame = 0
 1540              		@ frame_needed = 0, uses_anonymous_args = 0
 1541              		.loc 1 1526 1 is_stmt 0 view .LVU590
 1542 0000 2DE9F041 		push	{r4, r5, r6, r7, r8, lr}
 1543              	.LCFI11:
 1544              		.cfi_def_cfa_offset 24
 1545              		.cfi_offset 4, -24
 1546              		.cfi_offset 5, -20
 1547              		.cfi_offset 6, -16
 1548              		.cfi_offset 7, -12
 1549              		.cfi_offset 8, -8
 1550              		.cfi_offset 14, -4
 1551 0004 1D46     		mov	r5, r3
1527:rtos/uCOS-III/Source/os_task.c ****     OS_SEM_CTR    ctr;
 1552              		.loc 1 1527 5 is_stmt 1 view .LVU591
1528:rtos/uCOS-III/Source/os_task.c ****     CPU_SR_ALLOC();
ARM GAS  /tmp/ccS1bHPU.s 			page 62


 1553              		.loc 1 1528 5 view .LVU592
 1554              	.LVL154:
1529:rtos/uCOS-III/Source/os_task.c **** 
1530:rtos/uCOS-III/Source/os_task.c **** 
1531:rtos/uCOS-III/Source/os_task.c **** #if (OS_CFG_TS_EN == 0u)
1532:rtos/uCOS-III/Source/os_task.c ****     (void)p_ts;                                                 /* Prevent compiler warning for not
 1555              		.loc 1 1532 5 view .LVU593
1533:rtos/uCOS-III/Source/os_task.c **** #endif
1534:rtos/uCOS-III/Source/os_task.c **** 
1535:rtos/uCOS-III/Source/os_task.c **** #ifdef OS_SAFETY_CRITICAL
1536:rtos/uCOS-III/Source/os_task.c ****     if (p_err == (OS_ERR *)0) {
1537:rtos/uCOS-III/Source/os_task.c ****         OS_SAFETY_CRITICAL_EXCEPTION();
1538:rtos/uCOS-III/Source/os_task.c ****         return (0u);
1539:rtos/uCOS-III/Source/os_task.c ****     }
1540:rtos/uCOS-III/Source/os_task.c **** #endif
1541:rtos/uCOS-III/Source/os_task.c **** 
1542:rtos/uCOS-III/Source/os_task.c ****     OS_TRACE_TASK_SEM_PEND_ENTER(OSTCBCurPtr, timeout, opt, p_ts);
 1556              		.loc 1 1542 66 view .LVU594
1543:rtos/uCOS-III/Source/os_task.c **** 
1544:rtos/uCOS-III/Source/os_task.c **** #if (OS_CFG_TICK_EN == 0u)
1545:rtos/uCOS-III/Source/os_task.c ****     if (timeout != 0u) {
1546:rtos/uCOS-III/Source/os_task.c ****         OS_TRACE_TASK_SEM_PEND_FAILED(OSTCBCurPtr);
1547:rtos/uCOS-III/Source/os_task.c ****         OS_TRACE_TASK_SEM_PEND_EXIT(OS_ERR_TICK_DISABLED);
1548:rtos/uCOS-III/Source/os_task.c ****        *p_err = OS_ERR_TICK_DISABLED;
1549:rtos/uCOS-III/Source/os_task.c ****         return (0u);
1550:rtos/uCOS-III/Source/os_task.c ****     }
1551:rtos/uCOS-III/Source/os_task.c **** #endif
1552:rtos/uCOS-III/Source/os_task.c **** 
1553:rtos/uCOS-III/Source/os_task.c **** #if (OS_CFG_CALLED_FROM_ISR_CHK_EN > 0u)
1554:rtos/uCOS-III/Source/os_task.c ****     if (OSIntNestingCtr > 0u) {                                 /* Not allowed to call from an ISR 
 1557              		.loc 1 1554 5 view .LVU595
 1558              		.loc 1 1554 25 is_stmt 0 view .LVU596
 1559 0006 344A     		ldr	r2, .L132
 1560              	.LVL155:
 1561              		.loc 1 1554 25 view .LVU597
 1562 0008 1278     		ldrb	r2, [r2]	@ zero_extendqisi2
 1563              		.loc 1 1554 8 view .LVU598
 1564 000a 52B9     		cbnz	r2, .L127
 1565 000c 0746     		mov	r7, r0
 1566 000e 0E46     		mov	r6, r1
1555:rtos/uCOS-III/Source/os_task.c ****         OS_TRACE_TASK_SEM_PEND_FAILED(OSTCBCurPtr);
1556:rtos/uCOS-III/Source/os_task.c ****         OS_TRACE_TASK_SEM_PEND_EXIT(OS_ERR_PEND_ISR);
1557:rtos/uCOS-III/Source/os_task.c ****        *p_err = OS_ERR_PEND_ISR;
1558:rtos/uCOS-III/Source/os_task.c ****         return (0u);
1559:rtos/uCOS-III/Source/os_task.c ****     }
1560:rtos/uCOS-III/Source/os_task.c **** #endif
1561:rtos/uCOS-III/Source/os_task.c **** 
1562:rtos/uCOS-III/Source/os_task.c **** #if (OS_CFG_INVALID_OS_CALLS_CHK_EN > 0u)
1563:rtos/uCOS-III/Source/os_task.c ****     if (OSRunning != OS_STATE_OS_RUNNING) {                     /* Is the kernel running?          
 1567              		.loc 1 1563 5 is_stmt 1 view .LVU599
 1568              		.loc 1 1563 19 is_stmt 0 view .LVU600
 1569 0010 324B     		ldr	r3, .L132+4
 1570              	.LVL156:
 1571              		.loc 1 1563 19 view .LVU601
 1572 0012 1B78     		ldrb	r3, [r3]	@ zero_extendqisi2
 1573              		.loc 1 1563 8 view .LVU602
 1574 0014 012B     		cmp	r3, #1
ARM GAS  /tmp/ccS1bHPU.s 			page 63


 1575 0016 0BD0     		beq	.L117
1564:rtos/uCOS-III/Source/os_task.c ****         OS_TRACE_TASK_SEM_PEND_EXIT(OS_ERR_OS_NOT_RUNNING);
 1576              		.loc 1 1564 59 is_stmt 1 view .LVU603
1565:rtos/uCOS-III/Source/os_task.c ****        *p_err = OS_ERR_OS_NOT_RUNNING;
 1577              		.loc 1 1565 8 view .LVU604
 1578              		.loc 1 1565 15 is_stmt 0 view .LVU605
 1579 0018 45F68963 		movw	r3, #24201
 1580 001c 2B80     		strh	r3, [r5]	@ movhi
1566:rtos/uCOS-III/Source/os_task.c ****         return (0u);
 1581              		.loc 1 1566 9 is_stmt 1 view .LVU606
 1582              		.loc 1 1566 16 is_stmt 0 view .LVU607
 1583 001e 0024     		movs	r4, #0
 1584 0020 03E0     		b	.L114
 1585              	.LVL157:
 1586              	.L127:
1555:rtos/uCOS-III/Source/os_task.c ****         OS_TRACE_TASK_SEM_PEND_EXIT(OS_ERR_PEND_ISR);
 1587              		.loc 1 1555 51 is_stmt 1 view .LVU608
1556:rtos/uCOS-III/Source/os_task.c ****        *p_err = OS_ERR_PEND_ISR;
 1588              		.loc 1 1556 53 view .LVU609
1557:rtos/uCOS-III/Source/os_task.c ****         return (0u);
 1589              		.loc 1 1557 8 view .LVU610
1557:rtos/uCOS-III/Source/os_task.c ****         return (0u);
 1590              		.loc 1 1557 15 is_stmt 0 view .LVU611
 1591 0022 46F2AE13 		movw	r3, #25006
 1592              	.LVL158:
1557:rtos/uCOS-III/Source/os_task.c ****         return (0u);
 1593              		.loc 1 1557 15 view .LVU612
 1594 0026 2B80     		strh	r3, [r5]	@ movhi
1558:rtos/uCOS-III/Source/os_task.c ****     }
 1595              		.loc 1 1558 9 is_stmt 1 view .LVU613
1558:rtos/uCOS-III/Source/os_task.c ****     }
 1596              		.loc 1 1558 16 is_stmt 0 view .LVU614
 1597 0028 0024     		movs	r4, #0
 1598              	.LVL159:
 1599              	.L114:
1567:rtos/uCOS-III/Source/os_task.c ****     }
1568:rtos/uCOS-III/Source/os_task.c **** #endif
1569:rtos/uCOS-III/Source/os_task.c **** 
1570:rtos/uCOS-III/Source/os_task.c **** #if (OS_CFG_ARG_CHK_EN > 0u)
1571:rtos/uCOS-III/Source/os_task.c ****     switch (opt) {                                              /* Validate 'opt'                  
1572:rtos/uCOS-III/Source/os_task.c ****         case OS_OPT_PEND_BLOCKING:
1573:rtos/uCOS-III/Source/os_task.c ****         case OS_OPT_PEND_NON_BLOCKING:
1574:rtos/uCOS-III/Source/os_task.c ****              break;
1575:rtos/uCOS-III/Source/os_task.c **** 
1576:rtos/uCOS-III/Source/os_task.c ****         default:
1577:rtos/uCOS-III/Source/os_task.c ****              OS_TRACE_TASK_SEM_PEND_FAILED(OSTCBCurPtr);
1578:rtos/uCOS-III/Source/os_task.c ****              OS_TRACE_TASK_SEM_PEND_EXIT(OS_ERR_OPT_INVALID);
1579:rtos/uCOS-III/Source/os_task.c ****             *p_err = OS_ERR_OPT_INVALID;
1580:rtos/uCOS-III/Source/os_task.c ****              return (0u);
1581:rtos/uCOS-III/Source/os_task.c ****     }
1582:rtos/uCOS-III/Source/os_task.c **** #endif
1583:rtos/uCOS-III/Source/os_task.c **** 
1584:rtos/uCOS-III/Source/os_task.c ****     CPU_CRITICAL_ENTER();
1585:rtos/uCOS-III/Source/os_task.c ****     if (OSTCBCurPtr->SemCtr > 0u) {                             /* See if task already been signale
1586:rtos/uCOS-III/Source/os_task.c ****         OSTCBCurPtr->SemCtr--;
1587:rtos/uCOS-III/Source/os_task.c ****         ctr = OSTCBCurPtr->SemCtr;
1588:rtos/uCOS-III/Source/os_task.c **** #if (OS_CFG_TS_EN > 0u)
ARM GAS  /tmp/ccS1bHPU.s 			page 64


1589:rtos/uCOS-III/Source/os_task.c ****         if (p_ts != (CPU_TS *)0) {
1590:rtos/uCOS-III/Source/os_task.c ****            *p_ts  = OSTCBCurPtr->TS;
1591:rtos/uCOS-III/Source/os_task.c ****         }
1592:rtos/uCOS-III/Source/os_task.c **** #if (OS_CFG_TASK_PROFILE_EN > 0u)
1593:rtos/uCOS-III/Source/os_task.c **** #if (OS_CFG_TS_EN > 0u)
1594:rtos/uCOS-III/Source/os_task.c ****         OSTCBCurPtr->SemPendTime = OS_TS_GET() - OSTCBCurPtr->TS;
1595:rtos/uCOS-III/Source/os_task.c ****         if (OSTCBCurPtr->SemPendTimeMax < OSTCBCurPtr->SemPendTime) {
1596:rtos/uCOS-III/Source/os_task.c ****             OSTCBCurPtr->SemPendTimeMax = OSTCBCurPtr->SemPendTime;
1597:rtos/uCOS-III/Source/os_task.c ****         }
1598:rtos/uCOS-III/Source/os_task.c **** #endif
1599:rtos/uCOS-III/Source/os_task.c **** #endif
1600:rtos/uCOS-III/Source/os_task.c **** #endif
1601:rtos/uCOS-III/Source/os_task.c ****         OS_TRACE_TASK_SEM_PEND(OSTCBCurPtr);
1602:rtos/uCOS-III/Source/os_task.c ****         CPU_CRITICAL_EXIT();
1603:rtos/uCOS-III/Source/os_task.c ****         OS_TRACE_TASK_SEM_PEND_EXIT(OS_ERR_NONE);
1604:rtos/uCOS-III/Source/os_task.c ****        *p_err = OS_ERR_NONE;
1605:rtos/uCOS-III/Source/os_task.c ****         return (ctr);
1606:rtos/uCOS-III/Source/os_task.c ****     }
1607:rtos/uCOS-III/Source/os_task.c **** 
1608:rtos/uCOS-III/Source/os_task.c ****     if ((opt & OS_OPT_PEND_NON_BLOCKING) != 0u) {               /* Caller wants to block if not ava
1609:rtos/uCOS-III/Source/os_task.c ****         CPU_CRITICAL_EXIT();
1610:rtos/uCOS-III/Source/os_task.c **** #if (OS_CFG_TS_EN > 0u)
1611:rtos/uCOS-III/Source/os_task.c ****         if (p_ts != (CPU_TS *)0) {
1612:rtos/uCOS-III/Source/os_task.c ****             *p_ts  = 0u;
1613:rtos/uCOS-III/Source/os_task.c ****         }
1614:rtos/uCOS-III/Source/os_task.c **** #endif
1615:rtos/uCOS-III/Source/os_task.c ****         OS_TRACE_TASK_SEM_PEND_FAILED(OSTCBCurPtr);
1616:rtos/uCOS-III/Source/os_task.c ****         OS_TRACE_TASK_SEM_PEND_EXIT(OS_ERR_PEND_WOULD_BLOCK);
1617:rtos/uCOS-III/Source/os_task.c ****        *p_err = OS_ERR_PEND_WOULD_BLOCK;                        /* No                              
1618:rtos/uCOS-III/Source/os_task.c ****         return (0u);
1619:rtos/uCOS-III/Source/os_task.c ****     } else {                                                    /* Yes                             
1620:rtos/uCOS-III/Source/os_task.c ****         if (OSSchedLockNestingCtr > 0u) {                       /* Can't pend when the scheduler is
1621:rtos/uCOS-III/Source/os_task.c **** #if (OS_CFG_TS_EN > 0u)
1622:rtos/uCOS-III/Source/os_task.c ****             if (p_ts != (CPU_TS *)0) {
1623:rtos/uCOS-III/Source/os_task.c ****                *p_ts  = 0u;
1624:rtos/uCOS-III/Source/os_task.c ****             }
1625:rtos/uCOS-III/Source/os_task.c **** #endif
1626:rtos/uCOS-III/Source/os_task.c ****             CPU_CRITICAL_EXIT();
1627:rtos/uCOS-III/Source/os_task.c ****             OS_TRACE_TASK_SEM_PEND_FAILED(OSTCBCurPtr);
1628:rtos/uCOS-III/Source/os_task.c ****             OS_TRACE_TASK_SEM_PEND_EXIT(OS_ERR_SCHED_LOCKED);
1629:rtos/uCOS-III/Source/os_task.c ****            *p_err = OS_ERR_SCHED_LOCKED;
1630:rtos/uCOS-III/Source/os_task.c ****             return (0u);
1631:rtos/uCOS-III/Source/os_task.c ****         }
1632:rtos/uCOS-III/Source/os_task.c ****     }
1633:rtos/uCOS-III/Source/os_task.c **** 
1634:rtos/uCOS-III/Source/os_task.c ****     OS_Pend((OS_PEND_OBJ *)0,                                   /* Block task pending on Signal    
1635:rtos/uCOS-III/Source/os_task.c ****              OSTCBCurPtr,
1636:rtos/uCOS-III/Source/os_task.c ****              OS_TASK_PEND_ON_TASK_SEM,
1637:rtos/uCOS-III/Source/os_task.c ****              timeout);
1638:rtos/uCOS-III/Source/os_task.c ****     CPU_CRITICAL_EXIT();
1639:rtos/uCOS-III/Source/os_task.c ****     OS_TRACE_TASK_SEM_PEND_BLOCK(OSTCBCurPtr);
1640:rtos/uCOS-III/Source/os_task.c ****     OSSched();                                                  /* Find next highest priority task 
1641:rtos/uCOS-III/Source/os_task.c **** 
1642:rtos/uCOS-III/Source/os_task.c ****     CPU_CRITICAL_ENTER();
1643:rtos/uCOS-III/Source/os_task.c ****     switch (OSTCBCurPtr->PendStatus) {                          /* See if we timed-out or aborted  
1644:rtos/uCOS-III/Source/os_task.c ****         case OS_STATUS_PEND_OK:
1645:rtos/uCOS-III/Source/os_task.c **** #if (OS_CFG_TS_EN > 0u)
ARM GAS  /tmp/ccS1bHPU.s 			page 65


1646:rtos/uCOS-III/Source/os_task.c ****              if (p_ts != (CPU_TS *)0) {
1647:rtos/uCOS-III/Source/os_task.c ****                 *p_ts                    =  OSTCBCurPtr->TS;
1648:rtos/uCOS-III/Source/os_task.c **** #if (OS_CFG_TASK_PROFILE_EN > 0u)
1649:rtos/uCOS-III/Source/os_task.c **** #if (OS_CFG_TS_EN > 0u)
1650:rtos/uCOS-III/Source/os_task.c ****                 OSTCBCurPtr->SemPendTime = OS_TS_GET() - OSTCBCurPtr->TS;
1651:rtos/uCOS-III/Source/os_task.c ****                 if (OSTCBCurPtr->SemPendTimeMax < OSTCBCurPtr->SemPendTime) {
1652:rtos/uCOS-III/Source/os_task.c ****                     OSTCBCurPtr->SemPendTimeMax = OSTCBCurPtr->SemPendTime;
1653:rtos/uCOS-III/Source/os_task.c ****                 }
1654:rtos/uCOS-III/Source/os_task.c **** #endif
1655:rtos/uCOS-III/Source/os_task.c **** #endif
1656:rtos/uCOS-III/Source/os_task.c ****              }
1657:rtos/uCOS-III/Source/os_task.c **** #endif
1658:rtos/uCOS-III/Source/os_task.c ****              OS_TRACE_TASK_SEM_PEND(OSTCBCurPtr);
1659:rtos/uCOS-III/Source/os_task.c ****             *p_err = OS_ERR_NONE;
1660:rtos/uCOS-III/Source/os_task.c ****              break;
1661:rtos/uCOS-III/Source/os_task.c **** 
1662:rtos/uCOS-III/Source/os_task.c ****         case OS_STATUS_PEND_ABORT:
1663:rtos/uCOS-III/Source/os_task.c **** #if (OS_CFG_TS_EN > 0u)
1664:rtos/uCOS-III/Source/os_task.c ****              if (p_ts != (CPU_TS *)0) {
1665:rtos/uCOS-III/Source/os_task.c ****                 *p_ts = OSTCBCurPtr->TS;
1666:rtos/uCOS-III/Source/os_task.c ****              }
1667:rtos/uCOS-III/Source/os_task.c **** #endif
1668:rtos/uCOS-III/Source/os_task.c ****              OS_TRACE_TASK_SEM_PEND_FAILED(OSTCBCurPtr);
1669:rtos/uCOS-III/Source/os_task.c ****             *p_err = OS_ERR_PEND_ABORT;                         /* Indicate that we aborted        
1670:rtos/uCOS-III/Source/os_task.c ****              break;
1671:rtos/uCOS-III/Source/os_task.c **** 
1672:rtos/uCOS-III/Source/os_task.c ****         case OS_STATUS_PEND_TIMEOUT:
1673:rtos/uCOS-III/Source/os_task.c **** #if (OS_CFG_TS_EN > 0u)
1674:rtos/uCOS-III/Source/os_task.c ****              if (p_ts != (CPU_TS *)0) {
1675:rtos/uCOS-III/Source/os_task.c ****                 *p_ts = 0u;
1676:rtos/uCOS-III/Source/os_task.c ****              }
1677:rtos/uCOS-III/Source/os_task.c **** #endif
1678:rtos/uCOS-III/Source/os_task.c ****              OS_TRACE_TASK_SEM_PEND_FAILED(OSTCBCurPtr);
1679:rtos/uCOS-III/Source/os_task.c ****             *p_err = OS_ERR_TIMEOUT;                            /* Indicate that we didn't get even
1680:rtos/uCOS-III/Source/os_task.c ****              break;
1681:rtos/uCOS-III/Source/os_task.c **** 
1682:rtos/uCOS-III/Source/os_task.c ****         default:
1683:rtos/uCOS-III/Source/os_task.c ****              OS_TRACE_TASK_SEM_PEND_FAILED(OSTCBCurPtr);
1684:rtos/uCOS-III/Source/os_task.c ****             *p_err = OS_ERR_STATUS_INVALID;
1685:rtos/uCOS-III/Source/os_task.c ****              break;
1686:rtos/uCOS-III/Source/os_task.c ****     }
1687:rtos/uCOS-III/Source/os_task.c ****     ctr = OSTCBCurPtr->SemCtr;
1688:rtos/uCOS-III/Source/os_task.c ****     CPU_CRITICAL_EXIT();
1689:rtos/uCOS-III/Source/os_task.c ****     OS_TRACE_TASK_SEM_PEND_EXIT(*p_err);
1690:rtos/uCOS-III/Source/os_task.c ****     return (ctr);
1691:rtos/uCOS-III/Source/os_task.c **** }
 1600              		.loc 1 1691 1 view .LVU615
 1601 002a 2046     		mov	r0, r4
 1602 002c BDE8F081 		pop	{r4, r5, r6, r7, r8, pc}
 1603              	.LVL160:
 1604              	.L117:
1571:rtos/uCOS-III/Source/os_task.c ****         case OS_OPT_PEND_BLOCKING:
 1605              		.loc 1 1571 5 is_stmt 1 view .LVU616
 1606 0030 39B1     		cbz	r1, .L118
 1607 0032 B1F5004F 		cmp	r1, #32768
 1608 0036 04D0     		beq	.L118
1577:rtos/uCOS-III/Source/os_task.c ****              OS_TRACE_TASK_SEM_PEND_EXIT(OS_ERR_OPT_INVALID);
ARM GAS  /tmp/ccS1bHPU.s 			page 66


 1609              		.loc 1 1577 56 view .LVU617
1578:rtos/uCOS-III/Source/os_task.c ****             *p_err = OS_ERR_OPT_INVALID;
 1610              		.loc 1 1578 61 view .LVU618
1579:rtos/uCOS-III/Source/os_task.c ****              return (0u);
 1611              		.loc 1 1579 13 view .LVU619
1579:rtos/uCOS-III/Source/os_task.c ****              return (0u);
 1612              		.loc 1 1579 20 is_stmt 0 view .LVU620
 1613 0038 45F62563 		movw	r3, #24101
 1614 003c 2B80     		strh	r3, [r5]	@ movhi
1580:rtos/uCOS-III/Source/os_task.c ****     }
 1615              		.loc 1 1580 14 is_stmt 1 view .LVU621
1580:rtos/uCOS-III/Source/os_task.c ****     }
 1616              		.loc 1 1580 21 is_stmt 0 view .LVU622
 1617 003e 0024     		movs	r4, #0
 1618 0040 F3E7     		b	.L114
 1619              	.L118:
1574:rtos/uCOS-III/Source/os_task.c **** 
 1620              		.loc 1 1574 14 is_stmt 1 view .LVU623
1584:rtos/uCOS-III/Source/os_task.c ****     if (OSTCBCurPtr->SemCtr > 0u) {                             /* See if task already been signale
 1621              		.loc 1 1584 5 view .LVU624
1584:rtos/uCOS-III/Source/os_task.c ****     if (OSTCBCurPtr->SemCtr > 0u) {                             /* See if task already been signale
 1622              		.loc 1 1584 5 view .LVU625
1584:rtos/uCOS-III/Source/os_task.c ****     if (OSTCBCurPtr->SemCtr > 0u) {                             /* See if task already been signale
 1623              		.loc 1 1584 5 view .LVU626
 1624 0042 4020     		movs	r0, #64
 1625              	.LVL161:
1584:rtos/uCOS-III/Source/os_task.c ****     if (OSTCBCurPtr->SemCtr > 0u) {                             /* See if task already been signale
 1626              		.loc 1 1584 5 is_stmt 0 view .LVU627
 1627 0044 FFF7FEFF 		bl	CPU_SR_Save
 1628              	.LVL162:
1584:rtos/uCOS-III/Source/os_task.c ****     if (OSTCBCurPtr->SemCtr > 0u) {                             /* See if task already been signale
 1629              		.loc 1 1584 5 view .LVU628
 1630 0048 8046     		mov	r8, r0
 1631              	.LVL163:
1584:rtos/uCOS-III/Source/os_task.c ****     if (OSTCBCurPtr->SemCtr > 0u) {                             /* See if task already been signale
 1632              		.loc 1 1584 5 is_stmt 1 view .LVU629
1584:rtos/uCOS-III/Source/os_task.c ****     if (OSTCBCurPtr->SemCtr > 0u) {                             /* See if task already been signale
 1633              		.loc 1 1584 5 view .LVU630
1585:rtos/uCOS-III/Source/os_task.c ****         OSTCBCurPtr->SemCtr--;
 1634              		.loc 1 1585 5 view .LVU631
1585:rtos/uCOS-III/Source/os_task.c ****         OSTCBCurPtr->SemCtr--;
 1635              		.loc 1 1585 20 is_stmt 0 view .LVU632
 1636 004a 254B     		ldr	r3, .L132+8
 1637 004c 1968     		ldr	r1, [r3]
 1638 004e 0C6C     		ldr	r4, [r1, #64]
1585:rtos/uCOS-III/Source/os_task.c ****         OSTCBCurPtr->SemCtr--;
 1639              		.loc 1 1585 8 view .LVU633
 1640 0050 FCB9     		cbnz	r4, .L128
1608:rtos/uCOS-III/Source/os_task.c ****         CPU_CRITICAL_EXIT();
 1641              		.loc 1 1608 5 is_stmt 1 view .LVU634
1608:rtos/uCOS-III/Source/os_task.c ****         CPU_CRITICAL_EXIT();
 1642              		.loc 1 1608 8 is_stmt 0 view .LVU635
 1643 0052 16F4004F 		tst	r6, #32768
 1644 0056 23D1     		bne	.L129
1620:rtos/uCOS-III/Source/os_task.c **** #if (OS_CFG_TS_EN > 0u)
 1645              		.loc 1 1620 9 is_stmt 1 view .LVU636
1620:rtos/uCOS-III/Source/os_task.c **** #if (OS_CFG_TS_EN > 0u)
ARM GAS  /tmp/ccS1bHPU.s 			page 67


 1646              		.loc 1 1620 35 is_stmt 0 view .LVU637
 1647 0058 224B     		ldr	r3, .L132+12
 1648 005a 1B78     		ldrb	r3, [r3]	@ zero_extendqisi2
1620:rtos/uCOS-III/Source/os_task.c **** #if (OS_CFG_TS_EN > 0u)
 1649              		.loc 1 1620 12 view .LVU638
 1650 005c 33BB     		cbnz	r3, .L130
1634:rtos/uCOS-III/Source/os_task.c ****              OSTCBCurPtr,
 1651              		.loc 1 1634 5 is_stmt 1 view .LVU639
 1652 005e 3B46     		mov	r3, r7
 1653 0060 0722     		movs	r2, #7
 1654 0062 0020     		movs	r0, #0
 1655              	.LVL164:
1634:rtos/uCOS-III/Source/os_task.c ****              OSTCBCurPtr,
 1656              		.loc 1 1634 5 is_stmt 0 view .LVU640
 1657 0064 FFF7FEFF 		bl	OS_Pend
 1658              	.LVL165:
1638:rtos/uCOS-III/Source/os_task.c ****     OS_TRACE_TASK_SEM_PEND_BLOCK(OSTCBCurPtr);
 1659              		.loc 1 1638 5 is_stmt 1 view .LVU641
1638:rtos/uCOS-III/Source/os_task.c ****     OS_TRACE_TASK_SEM_PEND_BLOCK(OSTCBCurPtr);
 1660              		.loc 1 1638 5 view .LVU642
1638:rtos/uCOS-III/Source/os_task.c ****     OS_TRACE_TASK_SEM_PEND_BLOCK(OSTCBCurPtr);
 1661              		.loc 1 1638 5 view .LVU643
 1662 0068 4046     		mov	r0, r8
 1663 006a FFF7FEFF 		bl	CPU_SR_Restore
 1664              	.LVL166:
1638:rtos/uCOS-III/Source/os_task.c ****     OS_TRACE_TASK_SEM_PEND_BLOCK(OSTCBCurPtr);
 1665              		.loc 1 1638 5 view .LVU644
1638:rtos/uCOS-III/Source/os_task.c ****     OS_TRACE_TASK_SEM_PEND_BLOCK(OSTCBCurPtr);
 1666              		.loc 1 1638 5 view .LVU645
1639:rtos/uCOS-III/Source/os_task.c ****     OSSched();                                                  /* Find next highest priority task 
 1667              		.loc 1 1639 46 view .LVU646
1640:rtos/uCOS-III/Source/os_task.c **** 
 1668              		.loc 1 1640 5 view .LVU647
 1669 006e FFF7FEFF 		bl	OSSched
 1670              	.LVL167:
1642:rtos/uCOS-III/Source/os_task.c ****     switch (OSTCBCurPtr->PendStatus) {                          /* See if we timed-out or aborted  
 1671              		.loc 1 1642 5 view .LVU648
1642:rtos/uCOS-III/Source/os_task.c ****     switch (OSTCBCurPtr->PendStatus) {                          /* See if we timed-out or aborted  
 1672              		.loc 1 1642 5 view .LVU649
1642:rtos/uCOS-III/Source/os_task.c ****     switch (OSTCBCurPtr->PendStatus) {                          /* See if we timed-out or aborted  
 1673              		.loc 1 1642 5 view .LVU650
 1674 0072 4020     		movs	r0, #64
 1675 0074 FFF7FEFF 		bl	CPU_SR_Save
 1676              	.LVL168:
1642:rtos/uCOS-III/Source/os_task.c ****     switch (OSTCBCurPtr->PendStatus) {                          /* See if we timed-out or aborted  
 1677              		.loc 1 1642 5 view .LVU651
1642:rtos/uCOS-III/Source/os_task.c ****     switch (OSTCBCurPtr->PendStatus) {                          /* See if we timed-out or aborted  
 1678              		.loc 1 1642 5 view .LVU652
1643:rtos/uCOS-III/Source/os_task.c ****         case OS_STATUS_PEND_OK:
 1679              		.loc 1 1643 5 view .LVU653
1643:rtos/uCOS-III/Source/os_task.c ****         case OS_STATUS_PEND_OK:
 1680              		.loc 1 1643 24 is_stmt 0 view .LVU654
 1681 0078 194B     		ldr	r3, .L132+8
 1682 007a 1B68     		ldr	r3, [r3]
 1683 007c 93F82D30 		ldrb	r3, [r3, #45]	@ zero_extendqisi2
1643:rtos/uCOS-III/Source/os_task.c ****         case OS_STATUS_PEND_OK:
 1684              		.loc 1 1643 5 view .LVU655
ARM GAS  /tmp/ccS1bHPU.s 			page 68


 1685 0080 012B     		cmp	r3, #1
 1686 0082 20D0     		beq	.L122
 1687 0084 032B     		cmp	r3, #3
 1688 0086 22D0     		beq	.L123
 1689 0088 B3B1     		cbz	r3, .L131
1683:rtos/uCOS-III/Source/os_task.c ****             *p_err = OS_ERR_STATUS_INVALID;
 1690              		.loc 1 1683 56 is_stmt 1 view .LVU656
1684:rtos/uCOS-III/Source/os_task.c ****              break;
 1691              		.loc 1 1684 13 view .LVU657
1684:rtos/uCOS-III/Source/os_task.c ****              break;
 1692              		.loc 1 1684 20 is_stmt 0 view .LVU658
 1693 008a 46F62E63 		movw	r3, #28206
 1694 008e 2B80     		strh	r3, [r5]	@ movhi
1685:rtos/uCOS-III/Source/os_task.c ****     }
 1695              		.loc 1 1685 14 is_stmt 1 view .LVU659
 1696 0090 13E0     		b	.L125
 1697              	.L128:
1586:rtos/uCOS-III/Source/os_task.c ****         ctr = OSTCBCurPtr->SemCtr;
 1698              		.loc 1 1586 9 view .LVU660
1586:rtos/uCOS-III/Source/os_task.c ****         ctr = OSTCBCurPtr->SemCtr;
 1699              		.loc 1 1586 28 is_stmt 0 view .LVU661
 1700 0092 013C     		subs	r4, r4, #1
 1701 0094 0C64     		str	r4, [r1, #64]
1587:rtos/uCOS-III/Source/os_task.c **** #if (OS_CFG_TS_EN > 0u)
 1702              		.loc 1 1587 9 is_stmt 1 view .LVU662
 1703              	.LVL169:
1601:rtos/uCOS-III/Source/os_task.c ****         CPU_CRITICAL_EXIT();
 1704              		.loc 1 1601 44 view .LVU663
1602:rtos/uCOS-III/Source/os_task.c ****         OS_TRACE_TASK_SEM_PEND_EXIT(OS_ERR_NONE);
 1705              		.loc 1 1602 9 view .LVU664
1602:rtos/uCOS-III/Source/os_task.c ****         OS_TRACE_TASK_SEM_PEND_EXIT(OS_ERR_NONE);
 1706              		.loc 1 1602 9 view .LVU665
1602:rtos/uCOS-III/Source/os_task.c ****         OS_TRACE_TASK_SEM_PEND_EXIT(OS_ERR_NONE);
 1707              		.loc 1 1602 9 view .LVU666
 1708 0096 FFF7FEFF 		bl	CPU_SR_Restore
 1709              	.LVL170:
1602:rtos/uCOS-III/Source/os_task.c ****         OS_TRACE_TASK_SEM_PEND_EXIT(OS_ERR_NONE);
 1710              		.loc 1 1602 9 view .LVU667
1602:rtos/uCOS-III/Source/os_task.c ****         OS_TRACE_TASK_SEM_PEND_EXIT(OS_ERR_NONE);
 1711              		.loc 1 1602 9 view .LVU668
1603:rtos/uCOS-III/Source/os_task.c ****        *p_err = OS_ERR_NONE;
 1712              		.loc 1 1603 49 view .LVU669
1604:rtos/uCOS-III/Source/os_task.c ****         return (ctr);
 1713              		.loc 1 1604 8 view .LVU670
1604:rtos/uCOS-III/Source/os_task.c ****         return (ctr);
 1714              		.loc 1 1604 15 is_stmt 0 view .LVU671
 1715 009a 0023     		movs	r3, #0
 1716 009c 2B80     		strh	r3, [r5]	@ movhi
1605:rtos/uCOS-III/Source/os_task.c ****     }
 1717              		.loc 1 1605 9 is_stmt 1 view .LVU672
1605:rtos/uCOS-III/Source/os_task.c ****     }
 1718              		.loc 1 1605 16 is_stmt 0 view .LVU673
 1719 009e C4E7     		b	.L114
 1720              	.LVL171:
 1721              	.L129:
1609:rtos/uCOS-III/Source/os_task.c **** #if (OS_CFG_TS_EN > 0u)
 1722              		.loc 1 1609 9 is_stmt 1 view .LVU674
ARM GAS  /tmp/ccS1bHPU.s 			page 69


1609:rtos/uCOS-III/Source/os_task.c **** #if (OS_CFG_TS_EN > 0u)
 1723              		.loc 1 1609 9 view .LVU675
1609:rtos/uCOS-III/Source/os_task.c **** #if (OS_CFG_TS_EN > 0u)
 1724              		.loc 1 1609 9 view .LVU676
 1725 00a0 FFF7FEFF 		bl	CPU_SR_Restore
 1726              	.LVL172:
1609:rtos/uCOS-III/Source/os_task.c **** #if (OS_CFG_TS_EN > 0u)
 1727              		.loc 1 1609 9 view .LVU677
1609:rtos/uCOS-III/Source/os_task.c **** #if (OS_CFG_TS_EN > 0u)
 1728              		.loc 1 1609 9 view .LVU678
1615:rtos/uCOS-III/Source/os_task.c ****         OS_TRACE_TASK_SEM_PEND_EXIT(OS_ERR_PEND_WOULD_BLOCK);
 1729              		.loc 1 1615 51 view .LVU679
1616:rtos/uCOS-III/Source/os_task.c ****        *p_err = OS_ERR_PEND_WOULD_BLOCK;                        /* No                              
 1730              		.loc 1 1616 61 view .LVU680
1617:rtos/uCOS-III/Source/os_task.c ****         return (0u);
 1731              		.loc 1 1617 8 view .LVU681
1617:rtos/uCOS-III/Source/os_task.c ****         return (0u);
 1732              		.loc 1 1617 15 is_stmt 0 view .LVU682
 1733 00a4 46F2B013 		movw	r3, #25008
 1734 00a8 2B80     		strh	r3, [r5]	@ movhi
1618:rtos/uCOS-III/Source/os_task.c ****     } else {                                                    /* Yes                             
 1735              		.loc 1 1618 9 is_stmt 1 view .LVU683
1618:rtos/uCOS-III/Source/os_task.c ****     } else {                                                    /* Yes                             
 1736              		.loc 1 1618 16 is_stmt 0 view .LVU684
 1737 00aa BEE7     		b	.L114
 1738              	.LVL173:
 1739              	.L130:
1626:rtos/uCOS-III/Source/os_task.c ****             OS_TRACE_TASK_SEM_PEND_FAILED(OSTCBCurPtr);
 1740              		.loc 1 1626 13 is_stmt 1 view .LVU685
1626:rtos/uCOS-III/Source/os_task.c ****             OS_TRACE_TASK_SEM_PEND_FAILED(OSTCBCurPtr);
 1741              		.loc 1 1626 13 view .LVU686
1626:rtos/uCOS-III/Source/os_task.c ****             OS_TRACE_TASK_SEM_PEND_FAILED(OSTCBCurPtr);
 1742              		.loc 1 1626 13 view .LVU687
 1743 00ac FFF7FEFF 		bl	CPU_SR_Restore
 1744              	.LVL174:
1626:rtos/uCOS-III/Source/os_task.c ****             OS_TRACE_TASK_SEM_PEND_FAILED(OSTCBCurPtr);
 1745              		.loc 1 1626 13 view .LVU688
1626:rtos/uCOS-III/Source/os_task.c ****             OS_TRACE_TASK_SEM_PEND_FAILED(OSTCBCurPtr);
 1746              		.loc 1 1626 13 view .LVU689
1627:rtos/uCOS-III/Source/os_task.c ****             OS_TRACE_TASK_SEM_PEND_EXIT(OS_ERR_SCHED_LOCKED);
 1747              		.loc 1 1627 55 view .LVU690
1628:rtos/uCOS-III/Source/os_task.c ****            *p_err = OS_ERR_SCHED_LOCKED;
 1748              		.loc 1 1628 61 view .LVU691
1629:rtos/uCOS-III/Source/os_task.c ****             return (0u);
 1749              		.loc 1 1629 12 view .LVU692
1629:rtos/uCOS-III/Source/os_task.c ****             return (0u);
 1750              		.loc 1 1629 19 is_stmt 0 view .LVU693
 1751 00b0 46F66353 		movw	r3, #28003
 1752 00b4 2B80     		strh	r3, [r5]	@ movhi
1630:rtos/uCOS-III/Source/os_task.c ****         }
 1753              		.loc 1 1630 13 is_stmt 1 view .LVU694
1630:rtos/uCOS-III/Source/os_task.c ****         }
 1754              		.loc 1 1630 20 is_stmt 0 view .LVU695
 1755 00b6 B8E7     		b	.L114
 1756              	.LVL175:
 1757              	.L131:
1658:rtos/uCOS-III/Source/os_task.c ****             *p_err = OS_ERR_NONE;
ARM GAS  /tmp/ccS1bHPU.s 			page 70


 1758              		.loc 1 1658 49 is_stmt 1 view .LVU696
1659:rtos/uCOS-III/Source/os_task.c ****              break;
 1759              		.loc 1 1659 13 view .LVU697
1659:rtos/uCOS-III/Source/os_task.c ****              break;
 1760              		.loc 1 1659 20 is_stmt 0 view .LVU698
 1761 00b8 2B80     		strh	r3, [r5]	@ movhi
1660:rtos/uCOS-III/Source/os_task.c **** 
 1762              		.loc 1 1660 14 is_stmt 1 view .LVU699
 1763              	.L125:
1687:rtos/uCOS-III/Source/os_task.c ****     CPU_CRITICAL_EXIT();
 1764              		.loc 1 1687 5 view .LVU700
1687:rtos/uCOS-III/Source/os_task.c ****     CPU_CRITICAL_EXIT();
 1765              		.loc 1 1687 22 is_stmt 0 view .LVU701
 1766 00ba 094B     		ldr	r3, .L132+8
 1767 00bc 1B68     		ldr	r3, [r3]
1687:rtos/uCOS-III/Source/os_task.c ****     CPU_CRITICAL_EXIT();
 1768              		.loc 1 1687 9 view .LVU702
 1769 00be 1C6C     		ldr	r4, [r3, #64]
 1770              	.LVL176:
1688:rtos/uCOS-III/Source/os_task.c ****     OS_TRACE_TASK_SEM_PEND_EXIT(*p_err);
 1771              		.loc 1 1688 5 is_stmt 1 view .LVU703
1688:rtos/uCOS-III/Source/os_task.c ****     OS_TRACE_TASK_SEM_PEND_EXIT(*p_err);
