ARM GAS  /tmp/ccs5xMWk.s 			page 1


   1              		.cpu cortex-m4
   2              		.eabi_attribute 27, 1
   3              		.eabi_attribute 28, 1
   4              		.eabi_attribute 20, 1
   5              		.eabi_attribute 21, 1
   6              		.eabi_attribute 23, 3
   7              		.eabi_attribute 24, 1
   8              		.eabi_attribute 25, 1
   9              		.eabi_attribute 26, 1
  10              		.eabi_attribute 30, 1
  11              		.eabi_attribute 34, 1
  12              		.eabi_attribute 18, 4
  13              		.file	"os_time.c"
  14              		.text
  15              	.Ltext0:
  16              		.cfi_sections	.debug_frame
  17              		.section	.text.OSTimeDly,"ax",%progbits
  18              		.align	1
  19              		.global	OSTimeDly
  20              		.arch armv7e-m
  21              		.syntax unified
  22              		.thumb
  23              		.thumb_func
  24              		.fpu fpv4-sp-d16
  26              	OSTimeDly:
  27              	.LVL0:
  28              	.LFB0:
  29              		.file 1 "rtos/uCOS-III/Source/os_time.c"
   1:rtos/uCOS-III/Source/os_time.c **** /*
   2:rtos/uCOS-III/Source/os_time.c **** ***************************************************************************************************
   3:rtos/uCOS-III/Source/os_time.c **** *                                                uC/OS-III
   4:rtos/uCOS-III/Source/os_time.c **** *                                          The Real-Time Kernel
   5:rtos/uCOS-III/Source/os_time.c **** *
   6:rtos/uCOS-III/Source/os_time.c **** *                         (c) Copyright 2009-2019; Silicon Laboratories Inc.,
   7:rtos/uCOS-III/Source/os_time.c **** *                                400 W. Cesar Chavez, Austin, TX 78701
   8:rtos/uCOS-III/Source/os_time.c **** *
   9:rtos/uCOS-III/Source/os_time.c **** *                   All rights reserved. Protected by international copyright laws.
  10:rtos/uCOS-III/Source/os_time.c **** *
  11:rtos/uCOS-III/Source/os_time.c **** *                  Your use of this software is subject to your acceptance of the terms
  12:rtos/uCOS-III/Source/os_time.c **** *                  of a Silicon Labs Micrium software license, which can be obtained by
  13:rtos/uCOS-III/Source/os_time.c **** *                  contacting info@micrium.com. If you do not agree to the terms of this
  14:rtos/uCOS-III/Source/os_time.c **** *                  license, you may not use this software.
  15:rtos/uCOS-III/Source/os_time.c **** *
  16:rtos/uCOS-III/Source/os_time.c **** *                  Please help us continue to provide the Embedded community with the finest
  17:rtos/uCOS-III/Source/os_time.c **** *                  software available. Your honesty is greatly appreciated.
  18:rtos/uCOS-III/Source/os_time.c **** *
  19:rtos/uCOS-III/Source/os_time.c **** *                    You can find our product's documentation at: doc.micrium.com
  20:rtos/uCOS-III/Source/os_time.c **** *
  21:rtos/uCOS-III/Source/os_time.c **** *                          For more information visit us at: www.micrium.com
  22:rtos/uCOS-III/Source/os_time.c **** ***************************************************************************************************
  23:rtos/uCOS-III/Source/os_time.c **** */
  24:rtos/uCOS-III/Source/os_time.c **** 
  25:rtos/uCOS-III/Source/os_time.c **** /*
  26:rtos/uCOS-III/Source/os_time.c **** ***************************************************************************************************
  27:rtos/uCOS-III/Source/os_time.c **** *                                            TIME MANAGEMENT
  28:rtos/uCOS-III/Source/os_time.c **** *
  29:rtos/uCOS-III/Source/os_time.c **** * File    : os_time.c
ARM GAS  /tmp/ccs5xMWk.s 			page 2


  30:rtos/uCOS-III/Source/os_time.c **** * Version : V3.07.04
  31:rtos/uCOS-III/Source/os_time.c **** ***************************************************************************************************
  32:rtos/uCOS-III/Source/os_time.c **** */
  33:rtos/uCOS-III/Source/os_time.c **** 
  34:rtos/uCOS-III/Source/os_time.c **** #define  MICRIUM_SOURCE
  35:rtos/uCOS-III/Source/os_time.c **** #include "os.h"
  36:rtos/uCOS-III/Source/os_time.c **** 
  37:rtos/uCOS-III/Source/os_time.c **** #ifdef VSC_INCLUDE_SOURCE_FILE_NAMES
  38:rtos/uCOS-III/Source/os_time.c **** const  CPU_CHAR  *os_time__c = "$Id: $";
  39:rtos/uCOS-III/Source/os_time.c **** #endif
  40:rtos/uCOS-III/Source/os_time.c **** 
  41:rtos/uCOS-III/Source/os_time.c **** /*
  42:rtos/uCOS-III/Source/os_time.c **** ***************************************************************************************************
  43:rtos/uCOS-III/Source/os_time.c **** *                                                  DELAY TASK 'n' TICKS
  44:rtos/uCOS-III/Source/os_time.c **** *
  45:rtos/uCOS-III/Source/os_time.c **** * Description: This function is called to delay execution of the currently running task until the s
  46:rtos/uCOS-III/Source/os_time.c **** *              system ticks expires.  This, of course, directly equates to delaying the current tas
  47:rtos/uCOS-III/Source/os_time.c **** *              expire.  No delay will result if the specified delay is 0.  If the specified delay i
  48:rtos/uCOS-III/Source/os_time.c **** *              then, a context switch will result.
  49:rtos/uCOS-III/Source/os_time.c **** *
  50:rtos/uCOS-III/Source/os_time.c **** * Arguments  : dly       is a value in 'clock ticks' that the task will either delay for or, the ta
  51:rtos/uCOS-III/Source/os_time.c **** *                        of the tick counter (OSTickCtr).  Note that specifying 0 means the task is
  52:rtos/uCOS-III/Source/os_time.c **** *
  53:rtos/uCOS-III/Source/os_time.c **** *                        depending on the option argument, the task will wake up when OSTickCtr rea
  54:rtos/uCOS-III/Source/os_time.c **** *
  55:rtos/uCOS-III/Source/os_time.c **** *                            OS_OPT_TIME_DLY      : OSTickCtr + dly
  56:rtos/uCOS-III/Source/os_time.c **** *                            OS_OPT_TIME_TIMEOUT  : OSTickCtr + dly
  57:rtos/uCOS-III/Source/os_time.c **** *                            OS_OPT_TIME_MATCH    : dly
  58:rtos/uCOS-III/Source/os_time.c **** *                            OS_OPT_TIME_PERIODIC : OSTCBCurPtr->TickCtrPrev + dly
  59:rtos/uCOS-III/Source/os_time.c **** *
  60:rtos/uCOS-III/Source/os_time.c **** *              opt       specifies whether 'dly' represents absolute or relative time; default opti
  61:rtos/uCOS-III/Source/os_time.c **** *
  62:rtos/uCOS-III/Source/os_time.c **** *                        *** OS_OPT_TIME_DLY        specifies a relative time from the current valu
  63:rtos/uCOS-III/Source/os_time.c **** *                            OS_OPT_TIME_TIMEOUT    same as OS_OPT_TIME_DLY.
  64:rtos/uCOS-III/Source/os_time.c **** *                            OS_OPT_TIME_MATCH      indicates that 'dly' specifies the absolute val
  65:rtos/uCOS-III/Source/os_time.c **** *                                                   must reach before the task will be resumed.
  66:rtos/uCOS-III/Source/os_time.c **** *                            OS_OPT_TIME_PERIODIC   indicates that 'dly' specifies the periodic val
  67:rtos/uCOS-III/Source/os_time.c **** *                                                   must reach before the task will be resumed.
  68:rtos/uCOS-III/Source/os_time.c **** *
  69:rtos/uCOS-III/Source/os_time.c **** *              p_err     is a pointer to a variable that will contain an error code from this call.
  70:rtos/uCOS-III/Source/os_time.c **** *
  71:rtos/uCOS-III/Source/os_time.c **** *                            OS_ERR_NONE              The call was successful and the delay occurre
  72:rtos/uCOS-III/Source/os_time.c **** *                            OS_ERR_OPT_INVALID       If you specified an invalid option for this f
  73:rtos/uCOS-III/Source/os_time.c **** *                            OS_ERR_OS_NOT_RUNNING    If uC/OS-III is not running yet
  74:rtos/uCOS-III/Source/os_time.c **** *                            OS_ERR_SCHED_LOCKED      Can't delay when the scheduler is locked
  75:rtos/uCOS-III/Source/os_time.c **** *                            OS_ERR_TIME_DLY_ISR      If you called this function from an ISR
  76:rtos/uCOS-III/Source/os_time.c **** *                            OS_ERR_TIME_ZERO_DLY     If the effective delay is zero
  77:rtos/uCOS-III/Source/os_time.c **** *                            OS_ERR_TICK_DISABLED     If kernel ticks are disabled
  78:rtos/uCOS-III/Source/os_time.c **** *
  79:rtos/uCOS-III/Source/os_time.c **** * Returns    : none
  80:rtos/uCOS-III/Source/os_time.c **** *
  81:rtos/uCOS-III/Source/os_time.c **** * Note(s)    : none
  82:rtos/uCOS-III/Source/os_time.c **** ***************************************************************************************************
  83:rtos/uCOS-III/Source/os_time.c **** */
  84:rtos/uCOS-III/Source/os_time.c **** 
  85:rtos/uCOS-III/Source/os_time.c **** void  OSTimeDly (OS_TICK   dly,
  86:rtos/uCOS-III/Source/os_time.c ****                  OS_OPT    opt,
ARM GAS  /tmp/ccs5xMWk.s 			page 3


  87:rtos/uCOS-III/Source/os_time.c ****                  OS_ERR   *p_err)
  88:rtos/uCOS-III/Source/os_time.c **** {
  30              		.loc 1 88 1 view -0
  31              		.cfi_startproc
  32              		@ args = 0, pretend = 0, frame = 0
  33              		@ frame_needed = 0, uses_anonymous_args = 0
  34              		.loc 1 88 1 is_stmt 0 view .LVU1
  35 0000 F8B5     		push	{r3, r4, r5, r6, r7, lr}
  36              	.LCFI0:
  37              		.cfi_def_cfa_offset 24
  38              		.cfi_offset 3, -24
  39              		.cfi_offset 4, -20
  40              		.cfi_offset 5, -16
  41              		.cfi_offset 6, -12
  42              		.cfi_offset 7, -8
  43              		.cfi_offset 14, -4
  44 0002 1546     		mov	r5, r2
  89:rtos/uCOS-III/Source/os_time.c **** #if (OS_CFG_TICK_EN > 0u)
  90:rtos/uCOS-III/Source/os_time.c ****     CPU_SR_ALLOC();
  45              		.loc 1 90 5 is_stmt 1 view .LVU2
  46              	.LVL1:
  91:rtos/uCOS-III/Source/os_time.c **** #endif
  92:rtos/uCOS-III/Source/os_time.c **** 
  93:rtos/uCOS-III/Source/os_time.c **** 
  94:rtos/uCOS-III/Source/os_time.c **** #ifdef OS_SAFETY_CRITICAL
  95:rtos/uCOS-III/Source/os_time.c ****     if (p_err == (OS_ERR *)0) {
  96:rtos/uCOS-III/Source/os_time.c ****         OS_SAFETY_CRITICAL_EXCEPTION();
  97:rtos/uCOS-III/Source/os_time.c ****         return;
  98:rtos/uCOS-III/Source/os_time.c ****     }
  99:rtos/uCOS-III/Source/os_time.c **** #endif
 100:rtos/uCOS-III/Source/os_time.c **** 
 101:rtos/uCOS-III/Source/os_time.c **** #if (OS_CFG_TICK_EN == 0u)
 102:rtos/uCOS-III/Source/os_time.c ****     *p_err = OS_ERR_TICK_DISABLED;
 103:rtos/uCOS-III/Source/os_time.c ****     return;
 104:rtos/uCOS-III/Source/os_time.c **** #else
 105:rtos/uCOS-III/Source/os_time.c **** 
 106:rtos/uCOS-III/Source/os_time.c **** #if (OS_CFG_CALLED_FROM_ISR_CHK_EN > 0u)
 107:rtos/uCOS-III/Source/os_time.c ****     if (OSIntNestingCtr > 0u) {                                 /* Not allowed to call from an ISR 
  47              		.loc 1 107 5 view .LVU3
  48              		.loc 1 107 25 is_stmt 0 view .LVU4
  49 0004 1F4B     		ldr	r3, .L14
  50 0006 1B78     		ldrb	r3, [r3]	@ zero_extendqisi2
  51              		.loc 1 107 8 view .LVU5
  52 0008 4BB9     		cbnz	r3, .L11
  53 000a 0646     		mov	r6, r0
  54 000c 0C46     		mov	r4, r1
 108:rtos/uCOS-III/Source/os_time.c ****        *p_err = OS_ERR_TIME_DLY_ISR;
 109:rtos/uCOS-III/Source/os_time.c ****         return;
 110:rtos/uCOS-III/Source/os_time.c ****     }
 111:rtos/uCOS-III/Source/os_time.c **** #endif
 112:rtos/uCOS-III/Source/os_time.c **** 
 113:rtos/uCOS-III/Source/os_time.c **** #if (OS_CFG_INVALID_OS_CALLS_CHK_EN > 0u)
 114:rtos/uCOS-III/Source/os_time.c ****     if (OSRunning != OS_STATE_OS_RUNNING) {                     /* Is the kernel running?          
  55              		.loc 1 114 5 is_stmt 1 view .LVU6
  56              		.loc 1 114 19 is_stmt 0 view .LVU7
  57 000e 1E4B     		ldr	r3, .L14+4
  58 0010 1B78     		ldrb	r3, [r3]	@ zero_extendqisi2
ARM GAS  /tmp/ccs5xMWk.s 			page 4


  59              		.loc 1 114 8 view .LVU8
  60 0012 012B     		cmp	r3, #1
  61 0014 07D0     		beq	.L4
 115:rtos/uCOS-III/Source/os_time.c ****        *p_err = OS_ERR_OS_NOT_RUNNING;
  62              		.loc 1 115 8 is_stmt 1 view .LVU9
  63              		.loc 1 115 15 is_stmt 0 view .LVU10
  64 0016 45F68963 		movw	r3, #24201
  65 001a 1380     		strh	r3, [r2]	@ movhi
 116:rtos/uCOS-III/Source/os_time.c ****         return;
  66              		.loc 1 116 9 is_stmt 1 view .LVU11
  67 001c 02E0     		b	.L1
  68              	.L11:
 108:rtos/uCOS-III/Source/os_time.c ****        *p_err = OS_ERR_TIME_DLY_ISR;
  69              		.loc 1 108 8 view .LVU12
 108:rtos/uCOS-III/Source/os_time.c ****        *p_err = OS_ERR_TIME_DLY_ISR;
  70              		.loc 1 108 15 is_stmt 0 view .LVU13
  71 001e 47F27523 		movw	r3, #29301
  72 0022 1380     		strh	r3, [r2]	@ movhi
 109:rtos/uCOS-III/Source/os_time.c ****     }
  73              		.loc 1 109 9 is_stmt 1 view .LVU14
  74              	.LVL2:
  75              	.L1:
 117:rtos/uCOS-III/Source/os_time.c ****     }
 118:rtos/uCOS-III/Source/os_time.c **** #endif
 119:rtos/uCOS-III/Source/os_time.c **** 
 120:rtos/uCOS-III/Source/os_time.c ****     if (OSSchedLockNestingCtr > 0u) {                           /* Can't delay when the scheduler i
 121:rtos/uCOS-III/Source/os_time.c ****        *p_err = OS_ERR_SCHED_LOCKED;
 122:rtos/uCOS-III/Source/os_time.c ****         return;
 123:rtos/uCOS-III/Source/os_time.c ****     }
 124:rtos/uCOS-III/Source/os_time.c **** 
 125:rtos/uCOS-III/Source/os_time.c ****     switch (opt) {
 126:rtos/uCOS-III/Source/os_time.c ****         case OS_OPT_TIME_DLY:
 127:rtos/uCOS-III/Source/os_time.c ****         case OS_OPT_TIME_TIMEOUT:
 128:rtos/uCOS-III/Source/os_time.c ****         case OS_OPT_TIME_PERIODIC:
 129:rtos/uCOS-III/Source/os_time.c ****         case OS_OPT_TIME_MATCH:
 130:rtos/uCOS-III/Source/os_time.c ****              break;
 131:rtos/uCOS-III/Source/os_time.c **** 
 132:rtos/uCOS-III/Source/os_time.c ****         default:
 133:rtos/uCOS-III/Source/os_time.c ****             *p_err = OS_ERR_OPT_INVALID;
 134:rtos/uCOS-III/Source/os_time.c ****              return;
 135:rtos/uCOS-III/Source/os_time.c ****     }
 136:rtos/uCOS-III/Source/os_time.c **** 
 137:rtos/uCOS-III/Source/os_time.c **** #if (OS_CFG_TICK_EN > 0u)
 138:rtos/uCOS-III/Source/os_time.c ****     CPU_CRITICAL_ENTER();
 139:rtos/uCOS-III/Source/os_time.c ****     OS_TickListInsertDly(OSTCBCurPtr,
 140:rtos/uCOS-III/Source/os_time.c ****                          dly,
 141:rtos/uCOS-III/Source/os_time.c ****                          opt,
 142:rtos/uCOS-III/Source/os_time.c ****                          p_err);
 143:rtos/uCOS-III/Source/os_time.c ****     if (*p_err != OS_ERR_NONE) {
 144:rtos/uCOS-III/Source/os_time.c ****          CPU_CRITICAL_EXIT();
 145:rtos/uCOS-III/Source/os_time.c ****          return;
 146:rtos/uCOS-III/Source/os_time.c ****     }
 147:rtos/uCOS-III/Source/os_time.c **** 
 148:rtos/uCOS-III/Source/os_time.c ****     OS_RdyListRemove(OSTCBCurPtr);                              /* Remove current task from ready l
 149:rtos/uCOS-III/Source/os_time.c ****     CPU_CRITICAL_EXIT();
 150:rtos/uCOS-III/Source/os_time.c ****     OSSched();                                                  /* Find next task to run!          
 151:rtos/uCOS-III/Source/os_time.c **** #endif
ARM GAS  /tmp/ccs5xMWk.s 			page 5


 152:rtos/uCOS-III/Source/os_time.c **** #endif
 153:rtos/uCOS-III/Source/os_time.c **** }
  76              		.loc 1 153 1 is_stmt 0 view .LVU15
  77 0024 F8BD     		pop	{r3, r4, r5, r6, r7, pc}
  78              	.LVL3:
  79              	.L4:
 120:rtos/uCOS-III/Source/os_time.c ****        *p_err = OS_ERR_SCHED_LOCKED;
  80              		.loc 1 120 5 is_stmt 1 view .LVU16
 120:rtos/uCOS-III/Source/os_time.c ****        *p_err = OS_ERR_SCHED_LOCKED;
  81              		.loc 1 120 31 is_stmt 0 view .LVU17
  82 0026 194B     		ldr	r3, .L14+8
  83 0028 1B78     		ldrb	r3, [r3]	@ zero_extendqisi2
 120:rtos/uCOS-III/Source/os_time.c ****        *p_err = OS_ERR_SCHED_LOCKED;
  84              		.loc 1 120 8 view .LVU18
  85 002a 43B9     		cbnz	r3, .L12
 125:rtos/uCOS-III/Source/os_time.c ****         case OS_OPT_TIME_DLY:
  86              		.loc 1 125 5 is_stmt 1 view .LVU19
  87 002c 0829     		cmp	r1, #8
  88 002e 0AD8     		bhi	.L6
  89 0030 DFE801F0 		tbb	[pc, r1]
  90              	.L8:
  91 0034 0D       		.byte	(.L7-.L8)/2
  92 0035 09       		.byte	(.L6-.L8)/2
  93 0036 0D       		.byte	(.L7-.L8)/2
  94 0037 09       		.byte	(.L6-.L8)/2
  95 0038 0D       		.byte	(.L7-.L8)/2
  96 0039 09       		.byte	(.L6-.L8)/2
  97 003a 09       		.byte	(.L6-.L8)/2
  98 003b 09       		.byte	(.L6-.L8)/2
  99 003c 0D       		.byte	(.L7-.L8)/2
 100 003d 00       		.p2align 1
 101              	.L12:
 121:rtos/uCOS-III/Source/os_time.c ****         return;
 102              		.loc 1 121 8 view .LVU20
 121:rtos/uCOS-III/Source/os_time.c ****         return;
 103              		.loc 1 121 15 is_stmt 0 view .LVU21
 104 003e 46F66353 		movw	r3, #28003
 105 0042 1380     		strh	r3, [r2]	@ movhi
 122:rtos/uCOS-III/Source/os_time.c ****     }
 106              		.loc 1 122 9 is_stmt 1 view .LVU22
 107 0044 EEE7     		b	.L1
 108              	.L6:
 133:rtos/uCOS-III/Source/os_time.c ****              return;
 109              		.loc 1 133 13 view .LVU23
 133:rtos/uCOS-III/Source/os_time.c ****              return;
 110              		.loc 1 133 20 is_stmt 0 view .LVU24
 111 0046 45F62563 		movw	r3, #24101
 112 004a 1380     		strh	r3, [r2]	@ movhi
 134:rtos/uCOS-III/Source/os_time.c ****     }
 113              		.loc 1 134 14 is_stmt 1 view .LVU25
 114 004c EAE7     		b	.L1
 115              	.L7:
 130:rtos/uCOS-III/Source/os_time.c **** 
 116              		.loc 1 130 14 view .LVU26
 138:rtos/uCOS-III/Source/os_time.c ****     OS_TickListInsertDly(OSTCBCurPtr,
 117              		.loc 1 138 5 view .LVU27
 138:rtos/uCOS-III/Source/os_time.c ****     OS_TickListInsertDly(OSTCBCurPtr,
ARM GAS  /tmp/ccs5xMWk.s 			page 6


 118              		.loc 1 138 5 view .LVU28
 138:rtos/uCOS-III/Source/os_time.c ****     OS_TickListInsertDly(OSTCBCurPtr,
 119              		.loc 1 138 5 view .LVU29
 120 004e 4020     		movs	r0, #64
 121              	.LVL4:
 138:rtos/uCOS-III/Source/os_time.c ****     OS_TickListInsertDly(OSTCBCurPtr,
 122              		.loc 1 138 5 is_stmt 0 view .LVU30
 123 0050 FFF7FEFF 		bl	CPU_SR_Save
 124              	.LVL5:
 138:rtos/uCOS-III/Source/os_time.c ****     OS_TickListInsertDly(OSTCBCurPtr,
 125              		.loc 1 138 5 view .LVU31
 126 0054 0746     		mov	r7, r0
 127              	.LVL6:
 138:rtos/uCOS-III/Source/os_time.c ****     OS_TickListInsertDly(OSTCBCurPtr,
 128              		.loc 1 138 5 is_stmt 1 view .LVU32
 138:rtos/uCOS-III/Source/os_time.c ****     OS_TickListInsertDly(OSTCBCurPtr,
 129              		.loc 1 138 5 view .LVU33
 139:rtos/uCOS-III/Source/os_time.c ****                          dly,
 130              		.loc 1 139 5 view .LVU34
 131 0056 2B46     		mov	r3, r5
 132 0058 2246     		mov	r2, r4
 133 005a 3146     		mov	r1, r6
 134 005c 0C48     		ldr	r0, .L14+12
 135              	.LVL7:
 139:rtos/uCOS-III/Source/os_time.c ****                          dly,
 136              		.loc 1 139 5 is_stmt 0 view .LVU35
 137 005e 0068     		ldr	r0, [r0]
 138 0060 FFF7FEFF 		bl	OS_TickListInsertDly
 139              	.LVL8:
 143:rtos/uCOS-III/Source/os_time.c ****          CPU_CRITICAL_EXIT();
 140              		.loc 1 143 5 is_stmt 1 view .LVU36
 143:rtos/uCOS-III/Source/os_time.c ****          CPU_CRITICAL_EXIT();
 141              		.loc 1 143 9 is_stmt 0 view .LVU37
 142 0064 2B88     		ldrh	r3, [r5]
 143:rtos/uCOS-III/Source/os_time.c ****          CPU_CRITICAL_EXIT();
 143              		.loc 1 143 8 view .LVU38
 144 0066 4BB9     		cbnz	r3, .L13
 148:rtos/uCOS-III/Source/os_time.c ****     CPU_CRITICAL_EXIT();
 145              		.loc 1 148 5 is_stmt 1 view .LVU39
 146 0068 094B     		ldr	r3, .L14+12
 147 006a 1868     		ldr	r0, [r3]
 148 006c FFF7FEFF 		bl	OS_RdyListRemove
 149              	.LVL9:
 149:rtos/uCOS-III/Source/os_time.c ****     OSSched();                                                  /* Find next task to run!          
 150              		.loc 1 149 5 view .LVU40
 149:rtos/uCOS-III/Source/os_time.c ****     OSSched();                                                  /* Find next task to run!          
 151              		.loc 1 149 5 view .LVU41
 149:rtos/uCOS-III/Source/os_time.c ****     OSSched();                                                  /* Find next task to run!          
 152              		.loc 1 149 5 view .LVU42
 153 0070 3846     		mov	r0, r7
 154 0072 FFF7FEFF 		bl	CPU_SR_Restore
 155              	.LVL10:
 149:rtos/uCOS-III/Source/os_time.c ****     OSSched();                                                  /* Find next task to run!          
 156              		.loc 1 149 5 view .LVU43
 149:rtos/uCOS-III/Source/os_time.c ****     OSSched();                                                  /* Find next task to run!          
 157              		.loc 1 149 5 view .LVU44
 150:rtos/uCOS-III/Source/os_time.c **** #endif
ARM GAS  /tmp/ccs5xMWk.s 			page 7


 158              		.loc 1 150 5 view .LVU45
 159 0076 FFF7FEFF 		bl	OSSched
 160              	.LVL11:
 161 007a D3E7     		b	.L1
 162              	.L13:
 144:rtos/uCOS-III/Source/os_time.c ****          return;
 163              		.loc 1 144 10 view .LVU46
 144:rtos/uCOS-III/Source/os_time.c ****          return;
 164              		.loc 1 144 10 view .LVU47
 144:rtos/uCOS-III/Source/os_time.c ****          return;
 165              		.loc 1 144 10 view .LVU48
 166 007c 3846     		mov	r0, r7
 167 007e FFF7FEFF 		bl	CPU_SR_Restore
 168              	.LVL12:
 144:rtos/uCOS-III/Source/os_time.c ****          return;
 169              		.loc 1 144 10 view .LVU49
 144:rtos/uCOS-III/Source/os_time.c ****          return;
 170              		.loc 1 144 10 view .LVU50
 145:rtos/uCOS-III/Source/os_time.c ****     }
 171              		.loc 1 145 10 view .LVU51
 172 0082 CFE7     		b	.L1
 173              	.L15:
 174              		.align	2
 175              	.L14:
 176 0084 00000000 		.word	OSIntNestingCtr
 177 0088 00000000 		.word	OSRunning
 178 008c 00000000 		.word	OSSchedLockNestingCtr
 179 0090 00000000 		.word	OSTCBCurPtr
 180              		.cfi_endproc
 181              	.LFE0:
 183              		.section	.text.OSTimeDlyHMSM,"ax",%progbits
 184              		.align	1
 185              		.global	OSTimeDlyHMSM
 186              		.syntax unified
 187              		.thumb
 188              		.thumb_func
 189              		.fpu fpv4-sp-d16
 191              	OSTimeDlyHMSM:
 192              	.LVL13:
 193              	.LFB1:
 154:rtos/uCOS-III/Source/os_time.c **** 
 155:rtos/uCOS-III/Source/os_time.c **** 
 156:rtos/uCOS-III/Source/os_time.c **** /*
 157:rtos/uCOS-III/Source/os_time.c **** ***************************************************************************************************
 158:rtos/uCOS-III/Source/os_time.c **** *                                             DELAY TASK FOR SPECIFIED TIME
 159:rtos/uCOS-III/Source/os_time.c **** *
 160:rtos/uCOS-III/Source/os_time.c **** * Description: This function is called to delay execution of the currently running task until some 
 161:rtos/uCOS-III/Source/os_time.c **** *              call allows you to specify the delay time in HOURS, MINUTES, SECONDS and MILLISECOND
 162:rtos/uCOS-III/Source/os_time.c **** *
 163:rtos/uCOS-III/Source/os_time.c **** * Arguments  : hours     specifies the number of hours that the task will be delayed (max. is 999 i
 164:rtos/uCOS-III/Source/os_time.c **** *                        1000 Hz or less otherwise, a higher value would overflow a 32-bit unsigned
 165:rtos/uCOS-III/Source/os_time.c **** *
 166:rtos/uCOS-III/Source/os_time.c **** *              minutes   specifies the number of minutes (max. 59 if 'opt' is OS_OPT_TIME_HMSM_STRI
 167:rtos/uCOS-III/Source/os_time.c **** *
 168:rtos/uCOS-III/Source/os_time.c **** *              seconds   specifies the number of seconds (max. 59 if 'opt' is OS_OPT_TIME_HMSM_STRI
 169:rtos/uCOS-III/Source/os_time.c **** *
 170:rtos/uCOS-III/Source/os_time.c **** *              milli     specifies the number of milliseconds (max. 999 if 'opt' is OS_OPT_TIME_HMS
ARM GAS  /tmp/ccs5xMWk.s 			page 8


 171:rtos/uCOS-III/Source/os_time.c **** *
 172:rtos/uCOS-III/Source/os_time.c **** *              opt       specifies time delay bit-field options logically OR'd; default options mar
 173:rtos/uCOS-III/Source/os_time.c **** *
 174:rtos/uCOS-III/Source/os_time.c **** *                        *** OS_OPT_TIME_DLY        specifies a relative time from the current valu
 175:rtos/uCOS-III/Source/os_time.c **** *                            OS_OPT_TIME_TIMEOUT    same as OS_OPT_TIME_DLY.
 176:rtos/uCOS-III/Source/os_time.c **** *                            OS_OPT_TIME_MATCH      indicates that the delay specifies the absolute
 177:rtos/uCOS-III/Source/os_time.c **** *                                                   must reach before the task will be resumed.
 178:rtos/uCOS-III/Source/os_time.c **** *                            OS_OPT_TIME_PERIODIC   indicates that the delay specifies the periodic
 179:rtos/uCOS-III/Source/os_time.c **** *                                                   must reach before the task will be resumed.
 180:rtos/uCOS-III/Source/os_time.c **** *
 181:rtos/uCOS-III/Source/os_time.c **** *                        *** OS_OPT_TIME_HMSM_STRICT            strictly allow only hours        (0
 182:rtos/uCOS-III/Source/os_time.c **** *                                                                                   minutes      (0
 183:rtos/uCOS-III/Source/os_time.c **** *                                                                                   seconds      (0
 184:rtos/uCOS-III/Source/os_time.c **** *                                                                                   milliseconds (0
 185:rtos/uCOS-III/Source/os_time.c **** *                            OS_OPT_TIME_HMSM_NON_STRICT        allow any value of  hours        (0
 186:rtos/uCOS-III/Source/os_time.c **** *                                                                                   minutes      (0
 187:rtos/uCOS-III/Source/os_time.c **** *                                                                                   seconds      (0
 188:rtos/uCOS-III/Source/os_time.c **** *                                                                                   milliseconds (0
 189:rtos/uCOS-III/Source/os_time.c **** *
 190:rtos/uCOS-III/Source/os_time.c **** *              p_err     is a pointer to a variable that will receive an error code from this call.
 191:rtos/uCOS-III/Source/os_time.c **** *
 192:rtos/uCOS-III/Source/os_time.c **** *                            OS_ERR_NONE                        If the function returns from the de
 193:rtos/uCOS-III/Source/os_time.c **** *                            OS_ERR_OPT_INVALID                 If you specified an invalid option 
 194:rtos/uCOS-III/Source/os_time.c **** *                            OS_ERR_OS_NOT_RUNNING              If uC/OS-III is not running yet
 195:rtos/uCOS-III/Source/os_time.c **** *                            OS_ERR_SCHED_LOCKED                Can't delay when the scheduler is l
 196:rtos/uCOS-III/Source/os_time.c **** *                            OS_ERR_TIME_DLY_ISR                If called from an ISR
 197:rtos/uCOS-III/Source/os_time.c **** *                            OS_ERR_TIME_INVALID_HOURS          If you didn't specify a valid value
 198:rtos/uCOS-III/Source/os_time.c **** *                            OS_ERR_TIME_INVALID_MINUTES        If you didn't specify a valid value
 199:rtos/uCOS-III/Source/os_time.c **** *                            OS_ERR_TIME_INVALID_SECONDS        If you didn't specify a valid value
 200:rtos/uCOS-III/Source/os_time.c **** *                            OS_ERR_TIME_INVALID_MILLISECONDS   If you didn't specify a valid value
 201:rtos/uCOS-III/Source/os_time.c **** *                            OS_ERR_TIME_ZERO_DLY               If the effective delay is zero
 202:rtos/uCOS-III/Source/os_time.c **** *                            OS_ERR_TICK_DISABLED               If kernel ticks are disabled
 203:rtos/uCOS-III/Source/os_time.c **** *
 204:rtos/uCOS-III/Source/os_time.c **** * Returns    : none
 205:rtos/uCOS-III/Source/os_time.c **** *
 206:rtos/uCOS-III/Source/os_time.c **** * Note(s)    : 1) The resolution on the milliseconds depends on the tick rate.  For example, you ca
 207:rtos/uCOS-III/Source/os_time.c **** *                 if the ticker interrupts every 100 mS.  In this case, the delay would be set to 0
 208:rtos/uCOS-III/Source/os_time.c **** *                 is rounded to the nearest tick.
 209:rtos/uCOS-III/Source/os_time.c **** *
 210:rtos/uCOS-III/Source/os_time.c **** *              2) Although this function allows you to delay a task for many, many hours, it's not 
 211:rtos/uCOS-III/Source/os_time.c **** *                 a task to sleep for that long.
 212:rtos/uCOS-III/Source/os_time.c **** ***************************************************************************************************
 213:rtos/uCOS-III/Source/os_time.c **** */
 214:rtos/uCOS-III/Source/os_time.c **** 
 215:rtos/uCOS-III/Source/os_time.c **** #if (OS_CFG_TIME_DLY_HMSM_EN > 0u)
 216:rtos/uCOS-III/Source/os_time.c **** void  OSTimeDlyHMSM (CPU_INT16U   hours,
 217:rtos/uCOS-III/Source/os_time.c ****                      CPU_INT16U   minutes,
 218:rtos/uCOS-III/Source/os_time.c ****                      CPU_INT16U   seconds,
 219:rtos/uCOS-III/Source/os_time.c ****                      CPU_INT32U   milli,
 220:rtos/uCOS-III/Source/os_time.c ****                      OS_OPT       opt,
 221:rtos/uCOS-III/Source/os_time.c ****                      OS_ERR      *p_err)
 222:rtos/uCOS-III/Source/os_time.c **** {
 194              		.loc 1 222 1 view -0
 195              		.cfi_startproc
 196              		@ args = 8, pretend = 0, frame = 0
 197              		@ frame_needed = 0, uses_anonymous_args = 0
 198              		.loc 1 222 1 is_stmt 0 view .LVU53
ARM GAS  /tmp/ccs5xMWk.s 			page 9


 199 0000 F8B5     		push	{r3, r4, r5, r6, r7, lr}
 200              	.LCFI1:
 201              		.cfi_def_cfa_offset 24
 202              		.cfi_offset 3, -24
 203              		.cfi_offset 4, -20
 204              		.cfi_offset 5, -16
 205              		.cfi_offset 6, -12
 206              		.cfi_offset 7, -8
 207              		.cfi_offset 14, -4
 208 0002 BDF81860 		ldrh	r6, [sp, #24]
 209 0006 079D     		ldr	r5, [sp, #28]
 223:rtos/uCOS-III/Source/os_time.c **** #if (OS_CFG_TICK_EN > 0u)
 224:rtos/uCOS-III/Source/os_time.c **** #if (OS_CFG_ARG_CHK_EN > 0u)
 225:rtos/uCOS-III/Source/os_time.c ****     CPU_BOOLEAN  opt_invalid;
 210              		.loc 1 225 5 is_stmt 1 view .LVU54
 226:rtos/uCOS-III/Source/os_time.c ****     CPU_BOOLEAN  opt_non_strict;
 211              		.loc 1 226 5 view .LVU55
 227:rtos/uCOS-III/Source/os_time.c **** #endif
 228:rtos/uCOS-III/Source/os_time.c ****     OS_OPT       opt_time;
 212              		.loc 1 228 5 view .LVU56
 229:rtos/uCOS-III/Source/os_time.c ****     OS_RATE_HZ   tick_rate;
 213              		.loc 1 229 5 view .LVU57
 230:rtos/uCOS-III/Source/os_time.c ****     OS_TICK      ticks;
 214              		.loc 1 230 5 view .LVU58
 231:rtos/uCOS-III/Source/os_time.c ****     CPU_SR_ALLOC();
 215              		.loc 1 231 5 view .LVU59
 216              	.LVL14:
 232:rtos/uCOS-III/Source/os_time.c **** #endif
 233:rtos/uCOS-III/Source/os_time.c **** 
 234:rtos/uCOS-III/Source/os_time.c **** 
 235:rtos/uCOS-III/Source/os_time.c **** 
 236:rtos/uCOS-III/Source/os_time.c **** #ifdef OS_SAFETY_CRITICAL
 237:rtos/uCOS-III/Source/os_time.c ****     if (p_err == (OS_ERR *)0) {
 238:rtos/uCOS-III/Source/os_time.c ****         OS_SAFETY_CRITICAL_EXCEPTION();
 239:rtos/uCOS-III/Source/os_time.c ****         return;
 240:rtos/uCOS-III/Source/os_time.c ****     }
 241:rtos/uCOS-III/Source/os_time.c **** #endif
 242:rtos/uCOS-III/Source/os_time.c **** 
 243:rtos/uCOS-III/Source/os_time.c **** #if (OS_CFG_TICK_EN == 0u)
 244:rtos/uCOS-III/Source/os_time.c ****     *p_err = OS_ERR_TICK_DISABLED;
 245:rtos/uCOS-III/Source/os_time.c ****     return;
 246:rtos/uCOS-III/Source/os_time.c **** #else
 247:rtos/uCOS-III/Source/os_time.c **** #if (OS_CFG_CALLED_FROM_ISR_CHK_EN > 0u)
 248:rtos/uCOS-III/Source/os_time.c ****     if (OSIntNestingCtr > 0u) {                                 /* Not allowed to call from an ISR 
 217              		.loc 1 248 5 view .LVU60
 218              		.loc 1 248 25 is_stmt 0 view .LVU61
 219 0008 444C     		ldr	r4, .L42
 220 000a 2478     		ldrb	r4, [r4]	@ zero_extendqisi2
 221              		.loc 1 248 8 view .LVU62
 222 000c 3CB9     		cbnz	r4, .L33
 249:rtos/uCOS-III/Source/os_time.c ****        *p_err = OS_ERR_TIME_DLY_ISR;
 250:rtos/uCOS-III/Source/os_time.c ****         return;
 251:rtos/uCOS-III/Source/os_time.c ****     }
 252:rtos/uCOS-III/Source/os_time.c **** #endif
 253:rtos/uCOS-III/Source/os_time.c **** 
 254:rtos/uCOS-III/Source/os_time.c **** #if (OS_CFG_INVALID_OS_CALLS_CHK_EN > 0u)
 255:rtos/uCOS-III/Source/os_time.c ****     if (OSRunning != OS_STATE_OS_RUNNING) {                     /* Is the kernel running?          
ARM GAS  /tmp/ccs5xMWk.s 			page 10


 223              		.loc 1 255 5 is_stmt 1 view .LVU63
 224              		.loc 1 255 19 is_stmt 0 view .LVU64
 225 000e 444C     		ldr	r4, .L42+4
 226 0010 2478     		ldrb	r4, [r4]	@ zero_extendqisi2
 227              		.loc 1 255 8 view .LVU65
 228 0012 012C     		cmp	r4, #1
 229 0014 07D0     		beq	.L19
 256:rtos/uCOS-III/Source/os_time.c ****        *p_err = OS_ERR_OS_NOT_RUNNING;
 230              		.loc 1 256 8 is_stmt 1 view .LVU66
 231              		.loc 1 256 15 is_stmt 0 view .LVU67
 232 0016 45F68963 		movw	r3, #24201
 233              	.LVL15:
 234              		.loc 1 256 15 view .LVU68
 235 001a 2B80     		strh	r3, [r5]	@ movhi
 257:rtos/uCOS-III/Source/os_time.c ****         return;
 236              		.loc 1 257 9 is_stmt 1 view .LVU69
 237 001c 02E0     		b	.L16
 238              	.LVL16:
 239              	.L33:
 249:rtos/uCOS-III/Source/os_time.c ****        *p_err = OS_ERR_TIME_DLY_ISR;
 240              		.loc 1 249 8 view .LVU70
 249:rtos/uCOS-III/Source/os_time.c ****        *p_err = OS_ERR_TIME_DLY_ISR;
 241              		.loc 1 249 15 is_stmt 0 view .LVU71
 242 001e 47F27523 		movw	r3, #29301
 243              	.LVL17:
 249:rtos/uCOS-III/Source/os_time.c ****        *p_err = OS_ERR_TIME_DLY_ISR;
 244              		.loc 1 249 15 view .LVU72
 245 0022 2B80     		strh	r3, [r5]	@ movhi
 250:rtos/uCOS-III/Source/os_time.c ****     }
 246              		.loc 1 250 9 is_stmt 1 view .LVU73
 247              	.LVL18:
 248              	.L16:
 258:rtos/uCOS-III/Source/os_time.c ****     }
 259:rtos/uCOS-III/Source/os_time.c **** #endif
 260:rtos/uCOS-III/Source/os_time.c **** 
 261:rtos/uCOS-III/Source/os_time.c ****     if (OSSchedLockNestingCtr > 0u) {                           /* Can't delay when the scheduler i
 262:rtos/uCOS-III/Source/os_time.c ****        *p_err = OS_ERR_SCHED_LOCKED;
 263:rtos/uCOS-III/Source/os_time.c ****         return;
 264:rtos/uCOS-III/Source/os_time.c ****     }
 265:rtos/uCOS-III/Source/os_time.c **** 
 266:rtos/uCOS-III/Source/os_time.c ****     opt_time = opt & OS_OPT_TIME_MASK;                          /* Retrieve time options only.     
 267:rtos/uCOS-III/Source/os_time.c ****     switch (opt_time) {
 268:rtos/uCOS-III/Source/os_time.c ****         case OS_OPT_TIME_DLY:
 269:rtos/uCOS-III/Source/os_time.c ****         case OS_OPT_TIME_TIMEOUT:
 270:rtos/uCOS-III/Source/os_time.c ****         case OS_OPT_TIME_PERIODIC:
 271:rtos/uCOS-III/Source/os_time.c ****         case OS_OPT_TIME_MATCH:
 272:rtos/uCOS-III/Source/os_time.c ****              break;
 273:rtos/uCOS-III/Source/os_time.c **** 
 274:rtos/uCOS-III/Source/os_time.c ****         default:
 275:rtos/uCOS-III/Source/os_time.c ****             *p_err = OS_ERR_OPT_INVALID;
 276:rtos/uCOS-III/Source/os_time.c ****              return;
 277:rtos/uCOS-III/Source/os_time.c ****     }
 278:rtos/uCOS-III/Source/os_time.c **** 
 279:rtos/uCOS-III/Source/os_time.c **** #if (OS_CFG_ARG_CHK_EN > 0u)                                    /* Validate arguments to be within 
 280:rtos/uCOS-III/Source/os_time.c ****     opt_invalid = ((((opt) & (~OS_OPT_TIME_OPTS_MASK)) == 0u) ? (OS_FALSE) : (OS_TRUE));
 281:rtos/uCOS-III/Source/os_time.c ****     if (opt_invalid == OS_TRUE) {
 282:rtos/uCOS-III/Source/os_time.c ****        *p_err = OS_ERR_OPT_INVALID;
ARM GAS  /tmp/ccs5xMWk.s 			page 11


 283:rtos/uCOS-III/Source/os_time.c ****         return;
 284:rtos/uCOS-III/Source/os_time.c ****     }
 285:rtos/uCOS-III/Source/os_time.c **** 
 286:rtos/uCOS-III/Source/os_time.c ****     opt_non_strict = ((((opt) & (OS_OPT_TIME_HMSM_NON_STRICT)) == 0u) ? (OS_FALSE) : (OS_TRUE));
 287:rtos/uCOS-III/Source/os_time.c **** 
 288:rtos/uCOS-III/Source/os_time.c ****     if (opt_non_strict != OS_TRUE) {
 289:rtos/uCOS-III/Source/os_time.c ****          if (milli   > 999u) {
 290:rtos/uCOS-III/Source/os_time.c ****             *p_err = OS_ERR_TIME_INVALID_MILLISECONDS;
 291:rtos/uCOS-III/Source/os_time.c ****              return;
 292:rtos/uCOS-III/Source/os_time.c ****          }
 293:rtos/uCOS-III/Source/os_time.c ****          if (seconds > 59u) {
 294:rtos/uCOS-III/Source/os_time.c ****             *p_err = OS_ERR_TIME_INVALID_SECONDS;
 295:rtos/uCOS-III/Source/os_time.c ****              return;
 296:rtos/uCOS-III/Source/os_time.c ****          }
 297:rtos/uCOS-III/Source/os_time.c ****          if (minutes > 59u) {
 298:rtos/uCOS-III/Source/os_time.c ****             *p_err = OS_ERR_TIME_INVALID_MINUTES;
 299:rtos/uCOS-III/Source/os_time.c ****              return;
 300:rtos/uCOS-III/Source/os_time.c ****          }
 301:rtos/uCOS-III/Source/os_time.c ****          if (hours   > 99u) {
 302:rtos/uCOS-III/Source/os_time.c ****             *p_err = OS_ERR_TIME_INVALID_HOURS;
 303:rtos/uCOS-III/Source/os_time.c ****              return;
 304:rtos/uCOS-III/Source/os_time.c ****          }
 305:rtos/uCOS-III/Source/os_time.c ****     } else {
 306:rtos/uCOS-III/Source/os_time.c ****          if (minutes > 9999u) {
 307:rtos/uCOS-III/Source/os_time.c ****             *p_err = OS_ERR_TIME_INVALID_MINUTES;
 308:rtos/uCOS-III/Source/os_time.c ****              return;
 309:rtos/uCOS-III/Source/os_time.c ****          }
 310:rtos/uCOS-III/Source/os_time.c ****          if (hours   > 999u) {
 311:rtos/uCOS-III/Source/os_time.c ****             *p_err = OS_ERR_TIME_INVALID_HOURS;
 312:rtos/uCOS-III/Source/os_time.c ****              return;
 313:rtos/uCOS-III/Source/os_time.c ****          }
 314:rtos/uCOS-III/Source/os_time.c ****     }
 315:rtos/uCOS-III/Source/os_time.c **** #endif
 316:rtos/uCOS-III/Source/os_time.c **** 
 317:rtos/uCOS-III/Source/os_time.c ****                                                                 /* Compute the total number of cloc
 318:rtos/uCOS-III/Source/os_time.c ****                                                                 /* .. (rounded to the nearest tick)
 319:rtos/uCOS-III/Source/os_time.c ****     tick_rate = OSCfg_TickRate_Hz;
 320:rtos/uCOS-III/Source/os_time.c ****     ticks     = ((((OS_TICK)hours * (OS_TICK)3600u) + ((OS_TICK)minutes * (OS_TICK)60u) + (OS_TICK)
 321:rtos/uCOS-III/Source/os_time.c ****               + ((tick_rate * ((OS_TICK)milli + ((OS_TICK)500u / tick_rate))) / (OS_TICK)1000u);
 322:rtos/uCOS-III/Source/os_time.c **** 
 323:rtos/uCOS-III/Source/os_time.c **** 
 324:rtos/uCOS-III/Source/os_time.c ****     CPU_CRITICAL_ENTER();
 325:rtos/uCOS-III/Source/os_time.c ****     OS_TickListInsertDly(OSTCBCurPtr,
 326:rtos/uCOS-III/Source/os_time.c ****                          ticks,
 327:rtos/uCOS-III/Source/os_time.c ****                          opt_time,
 328:rtos/uCOS-III/Source/os_time.c ****                          p_err);
 329:rtos/uCOS-III/Source/os_time.c ****     if (*p_err != OS_ERR_NONE) {
 330:rtos/uCOS-III/Source/os_time.c ****          CPU_CRITICAL_EXIT();
 331:rtos/uCOS-III/Source/os_time.c ****          return;
 332:rtos/uCOS-III/Source/os_time.c ****     }
 333:rtos/uCOS-III/Source/os_time.c **** 
 334:rtos/uCOS-III/Source/os_time.c ****     OS_RdyListRemove(OSTCBCurPtr);                              /* Remove current task from ready l
 335:rtos/uCOS-III/Source/os_time.c ****     CPU_CRITICAL_EXIT();
 336:rtos/uCOS-III/Source/os_time.c ****     OSSched();                                                  /* Find next task to run!          
 337:rtos/uCOS-III/Source/os_time.c **** #endif
 338:rtos/uCOS-III/Source/os_time.c **** }
 249              		.loc 1 338 1 is_stmt 0 view .LVU74
ARM GAS  /tmp/ccs5xMWk.s 			page 12


 250 0024 F8BD     		pop	{r3, r4, r5, r6, r7, pc}
 251              	.LVL19:
 252              	.L19:
 261:rtos/uCOS-III/Source/os_time.c ****        *p_err = OS_ERR_SCHED_LOCKED;
 253              		.loc 1 261 5 is_stmt 1 view .LVU75
 261:rtos/uCOS-III/Source/os_time.c ****        *p_err = OS_ERR_SCHED_LOCKED;
 254              		.loc 1 261 31 is_stmt 0 view .LVU76
 255 0026 3F4C     		ldr	r4, .L42+8
 256 0028 2478     		ldrb	r4, [r4]	@ zero_extendqisi2
 261:rtos/uCOS-III/Source/os_time.c ****        *p_err = OS_ERR_SCHED_LOCKED;
 257              		.loc 1 261 8 view .LVU77
 258 002a 54B9     		cbnz	r4, .L34
 266:rtos/uCOS-III/Source/os_time.c ****     switch (opt_time) {
 259              		.loc 1 266 5 is_stmt 1 view .LVU78
 266:rtos/uCOS-III/Source/os_time.c ****     switch (opt_time) {
 260              		.loc 1 266 14 is_stmt 0 view .LVU79
 261 002c 06F00E07 		and	r7, r6, #14
 262              	.LVL20:
 267:rtos/uCOS-III/Source/os_time.c ****         case OS_OPT_TIME_DLY:
 263              		.loc 1 267 5 is_stmt 1 view .LVU80
 264 0030 082F     		cmp	r7, #8
 265 0032 0AD8     		bhi	.L21
 266 0034 DFE807F0 		tbb	[pc, r7]
 267              	.L23:
 268 0038 0D       		.byte	(.L22-.L23)/2
 269 0039 09       		.byte	(.L21-.L23)/2
 270 003a 0D       		.byte	(.L22-.L23)/2
 271 003b 09       		.byte	(.L21-.L23)/2
 272 003c 0D       		.byte	(.L22-.L23)/2
 273 003d 09       		.byte	(.L21-.L23)/2
 274 003e 09       		.byte	(.L21-.L23)/2
 275 003f 09       		.byte	(.L21-.L23)/2
 276 0040 0D       		.byte	(.L22-.L23)/2
 277              	.LVL21:
 278 0041 00       		.p2align 1
 279              	.L34:
 262:rtos/uCOS-III/Source/os_time.c ****         return;
 280              		.loc 1 262 8 view .LVU81
 262:rtos/uCOS-III/Source/os_time.c ****         return;
 281              		.loc 1 262 15 is_stmt 0 view .LVU82
 282 0042 46F66353 		movw	r3, #28003
 283              	.LVL22:
 262:rtos/uCOS-III/Source/os_time.c ****         return;
 284              		.loc 1 262 15 view .LVU83
 285 0046 2B80     		strh	r3, [r5]	@ movhi
 263:rtos/uCOS-III/Source/os_time.c ****     }
 286              		.loc 1 263 9 is_stmt 1 view .LVU84
 287 0048 ECE7     		b	.L16
 288              	.LVL23:
 289              	.L21:
 275:rtos/uCOS-III/Source/os_time.c ****              return;
 290              		.loc 1 275 13 view .LVU85
 275:rtos/uCOS-III/Source/os_time.c ****              return;
 291              		.loc 1 275 20 is_stmt 0 view .LVU86
 292 004a 45F62563 		movw	r3, #24101
 293              	.LVL24:
 275:rtos/uCOS-III/Source/os_time.c ****              return;
ARM GAS  /tmp/ccs5xMWk.s 			page 13


 294              		.loc 1 275 20 view .LVU87
 295 004e 2B80     		strh	r3, [r5]	@ movhi
 276:rtos/uCOS-III/Source/os_time.c ****     }
 296              		.loc 1 276 14 is_stmt 1 view .LVU88
 297 0050 E8E7     		b	.L16
 298              	.LVL25:
 299              	.L22:
 272:rtos/uCOS-III/Source/os_time.c **** 
 300              		.loc 1 272 14 view .LVU89
 280:rtos/uCOS-III/Source/os_time.c ****     if (opt_invalid == OS_TRUE) {
 301              		.loc 1 280 5 view .LVU90
 281:rtos/uCOS-III/Source/os_time.c ****        *p_err = OS_ERR_OPT_INVALID;
 302              		.loc 1 281 5 view .LVU91
 281:rtos/uCOS-III/Source/os_time.c ****        *p_err = OS_ERR_OPT_INVALID;
 303              		.loc 1 281 8 is_stmt 0 view .LVU92
 304 0052 36F01E04 		bics	r4, r6, #30
 305 0056 0FD1     		bne	.L35
 286:rtos/uCOS-III/Source/os_time.c **** 
 306              		.loc 1 286 5 is_stmt 1 view .LVU93
 307              	.LVL26:
 288:rtos/uCOS-III/Source/os_time.c ****          if (milli   > 999u) {
 308              		.loc 1 288 5 view .LVU94
 288:rtos/uCOS-III/Source/os_time.c ****          if (milli   > 999u) {
 309              		.loc 1 288 8 is_stmt 0 view .LVU95
 310 0058 16F0100F 		tst	r6, #16
 311 005c 1CD1     		bne	.L25
 289:rtos/uCOS-III/Source/os_time.c ****             *p_err = OS_ERR_TIME_INVALID_MILLISECONDS;
 312              		.loc 1 289 10 is_stmt 1 view .LVU96
 289:rtos/uCOS-III/Source/os_time.c ****             *p_err = OS_ERR_TIME_INVALID_MILLISECONDS;
 313              		.loc 1 289 13 is_stmt 0 view .LVU97
 314 005e B3F57A7F 		cmp	r3, #1000
 315 0062 0DD2     		bcs	.L36
 293:rtos/uCOS-III/Source/os_time.c ****             *p_err = OS_ERR_TIME_INVALID_SECONDS;
 316              		.loc 1 293 10 is_stmt 1 view .LVU98
 293:rtos/uCOS-III/Source/os_time.c ****             *p_err = OS_ERR_TIME_INVALID_SECONDS;
 317              		.loc 1 293 13 is_stmt 0 view .LVU99
 318 0064 3B2A     		cmp	r2, #59
 319 0066 0FD8     		bhi	.L37
 297:rtos/uCOS-III/Source/os_time.c ****             *p_err = OS_ERR_TIME_INVALID_MINUTES;
 320              		.loc 1 297 10 is_stmt 1 view .LVU100
 297:rtos/uCOS-III/Source/os_time.c ****             *p_err = OS_ERR_TIME_INVALID_MINUTES;
 321              		.loc 1 297 13 is_stmt 0 view .LVU101
 322 0068 3B29     		cmp	r1, #59
 323 006a 11D8     		bhi	.L38
 301:rtos/uCOS-III/Source/os_time.c ****             *p_err = OS_ERR_TIME_INVALID_HOURS;
 324              		.loc 1 301 10 is_stmt 1 view .LVU102
 301:rtos/uCOS-III/Source/os_time.c ****             *p_err = OS_ERR_TIME_INVALID_HOURS;
 325              		.loc 1 301 13 is_stmt 0 view .LVU103
 326 006c 6328     		cmp	r0, #99
 327 006e 1AD9     		bls	.L29
 302:rtos/uCOS-III/Source/os_time.c ****              return;
 328              		.loc 1 302 13 is_stmt 1 view .LVU104
 302:rtos/uCOS-III/Source/os_time.c ****              return;
 329              		.loc 1 302 20 is_stmt 0 view .LVU105
 330 0070 47F27823 		movw	r3, #29304
 331              	.LVL27:
 302:rtos/uCOS-III/Source/os_time.c ****              return;
ARM GAS  /tmp/ccs5xMWk.s 			page 14


 332              		.loc 1 302 20 view .LVU106
 333 0074 2B80     		strh	r3, [r5]	@ movhi
 303:rtos/uCOS-III/Source/os_time.c ****          }
 334              		.loc 1 303 14 is_stmt 1 view .LVU107
 335 0076 D5E7     		b	.L16
 336              	.LVL28:
 337              	.L35:
 282:rtos/uCOS-III/Source/os_time.c ****         return;
 338              		.loc 1 282 8 view .LVU108
 282:rtos/uCOS-III/Source/os_time.c ****         return;
 339              		.loc 1 282 15 is_stmt 0 view .LVU109
 340 0078 45F62563 		movw	r3, #24101
 341              	.LVL29:
 282:rtos/uCOS-III/Source/os_time.c ****         return;
 342              		.loc 1 282 15 view .LVU110
 343 007c 2B80     		strh	r3, [r5]	@ movhi
 283:rtos/uCOS-III/Source/os_time.c ****     }
 344              		.loc 1 283 9 is_stmt 1 view .LVU111
 345 007e D1E7     		b	.L16
 346              	.LVL30:
 347              	.L36:
 290:rtos/uCOS-III/Source/os_time.c ****              return;
 348              		.loc 1 290 13 view .LVU112
 290:rtos/uCOS-III/Source/os_time.c ****              return;
 349              		.loc 1 290 20 is_stmt 0 view .LVU113
 350 0080 47F27B23 		movw	r3, #29307
 351              	.LVL31:
 290:rtos/uCOS-III/Source/os_time.c ****              return;
 352              		.loc 1 290 20 view .LVU114
 353 0084 2B80     		strh	r3, [r5]	@ movhi
 291:rtos/uCOS-III/Source/os_time.c ****          }
 354              		.loc 1 291 14 is_stmt 1 view .LVU115
 355 0086 CDE7     		b	.L16
 356              	.LVL32:
 357              	.L37:
 294:rtos/uCOS-III/Source/os_time.c ****              return;
 358              		.loc 1 294 13 view .LVU116
 294:rtos/uCOS-III/Source/os_time.c ****              return;
 359              		.loc 1 294 20 is_stmt 0 view .LVU117
 360 0088 47F27A23 		movw	r3, #29306
 361              	.LVL33:
 294:rtos/uCOS-III/Source/os_time.c ****              return;
 362              		.loc 1 294 20 view .LVU118
 363 008c 2B80     		strh	r3, [r5]	@ movhi
 295:rtos/uCOS-III/Source/os_time.c ****          }
 364              		.loc 1 295 14 is_stmt 1 view .LVU119
 365 008e C9E7     		b	.L16
 366              	.LVL34:
 367              	.L38:
 298:rtos/uCOS-III/Source/os_time.c ****              return;
 368              		.loc 1 298 13 view .LVU120
 298:rtos/uCOS-III/Source/os_time.c ****              return;
 369              		.loc 1 298 20 is_stmt 0 view .LVU121
 370 0090 47F27923 		movw	r3, #29305
 371              	.LVL35:
 298:rtos/uCOS-III/Source/os_time.c ****              return;
 372              		.loc 1 298 20 view .LVU122
ARM GAS  /tmp/ccs5xMWk.s 			page 15


 373 0094 2B80     		strh	r3, [r5]	@ movhi
 299:rtos/uCOS-III/Source/os_time.c ****          }
 374              		.loc 1 299 14 is_stmt 1 view .LVU123
 375 0096 C5E7     		b	.L16
 376              	.LVL36:
 377              	.L25:
 306:rtos/uCOS-III/Source/os_time.c ****             *p_err = OS_ERR_TIME_INVALID_MINUTES;
 378              		.loc 1 306 10 view .LVU124
 306:rtos/uCOS-III/Source/os_time.c ****             *p_err = OS_ERR_TIME_INVALID_MINUTES;
 379              		.loc 1 306 13 is_stmt 0 view .LVU125
 380 0098 42F20F74 		movw	r4, #9999
 381 009c A142     		cmp	r1, r4
 382 009e 30D8     		bhi	.L39
 310:rtos/uCOS-III/Source/os_time.c ****             *p_err = OS_ERR_TIME_INVALID_HOURS;
 383              		.loc 1 310 10 is_stmt 1 view .LVU126
 310:rtos/uCOS-III/Source/os_time.c ****             *p_err = OS_ERR_TIME_INVALID_HOURS;
 384              		.loc 1 310 13 is_stmt 0 view .LVU127
 385 00a0 B0F57A7F 		cmp	r0, #1000
 386 00a4 31D2     		bcs	.L40
 387              	.L29:
 319:rtos/uCOS-III/Source/os_time.c ****     ticks     = ((((OS_TICK)hours * (OS_TICK)3600u) + ((OS_TICK)minutes * (OS_TICK)60u) + (OS_TICK)
 388              		.loc 1 319 5 is_stmt 1 view .LVU128
 319:rtos/uCOS-III/Source/os_time.c ****     ticks     = ((((OS_TICK)hours * (OS_TICK)3600u) + ((OS_TICK)minutes * (OS_TICK)60u) + (OS_TICK)
 389              		.loc 1 319 15 is_stmt 0 view .LVU129
 390 00a6 204C     		ldr	r4, .L42+12
 391 00a8 2668     		ldr	r6, [r4]
 392              	.LVL37:
 320:rtos/uCOS-III/Source/os_time.c ****               + ((tick_rate * ((OS_TICK)milli + ((OS_TICK)500u / tick_rate))) / (OS_TICK)1000u);
 393              		.loc 1 320 5 is_stmt 1 view .LVU130
 320:rtos/uCOS-III/Source/os_time.c ****               + ((tick_rate * ((OS_TICK)milli + ((OS_TICK)500u / tick_rate))) / (OS_TICK)1000u);
 394              		.loc 1 320 73 is_stmt 0 view .LVU131
 395 00aa C1EB0111 		rsb	r1, r1, r1, lsl #4
 396              	.LVL38:
 320:rtos/uCOS-III/Source/os_time.c ****               + ((tick_rate * ((OS_TICK)milli + ((OS_TICK)500u / tick_rate))) / (OS_TICK)1000u);
 397              		.loc 1 320 73 view .LVU132
 398 00ae 8900     		lsls	r1, r1, #2
 320:rtos/uCOS-III/Source/os_time.c ****               + ((tick_rate * ((OS_TICK)milli + ((OS_TICK)500u / tick_rate))) / (OS_TICK)1000u);
 399              		.loc 1 320 53 view .LVU133
 400 00b0 4FF46164 		mov	r4, #3600
 401 00b4 04FB0010 		mla	r0, r4, r0, r1
 402              	.LVL39:
 320:rtos/uCOS-III/Source/os_time.c ****               + ((tick_rate * ((OS_TICK)milli + ((OS_TICK)500u / tick_rate))) / (OS_TICK)1000u);
 403              		.loc 1 320 89 view .LVU134
 404 00b8 0244     		add	r2, r2, r0
 405              	.LVL40:
 321:rtos/uCOS-III/Source/os_time.c **** 
 406              		.loc 1 321 64 view .LVU135
 407 00ba 4FF4FA74 		mov	r4, #500
 408 00be B4FBF6F4 		udiv	r4, r4, r6
 321:rtos/uCOS-III/Source/os_time.c **** 
 409              		.loc 1 321 47 view .LVU136
 410 00c2 2344     		add	r3, r3, r4
 411              	.LVL41:
 321:rtos/uCOS-III/Source/os_time.c **** 
 412              		.loc 1 321 29 view .LVU137
 413 00c4 06FB03F4 		mul	r4, r6, r3
 321:rtos/uCOS-III/Source/os_time.c **** 
ARM GAS  /tmp/ccs5xMWk.s 			page 16


 414              		.loc 1 321 79 view .LVU138
 415 00c8 184B     		ldr	r3, .L42+16
 416 00ca A3FB0434 		umull	r3, r4, r3, r4
 417 00ce A409     		lsrs	r4, r4, #6
 320:rtos/uCOS-III/Source/os_time.c ****               + ((tick_rate * ((OS_TICK)milli + ((OS_TICK)500u / tick_rate))) / (OS_TICK)1000u);
 418              		.loc 1 320 15 view .LVU139
 419 00d0 06FB0244 		mla	r4, r6, r2, r4
 420              	.LVL42:
 324:rtos/uCOS-III/Source/os_time.c ****     OS_TickListInsertDly(OSTCBCurPtr,
 421              		.loc 1 324 5 is_stmt 1 view .LVU140
 324:rtos/uCOS-III/Source/os_time.c ****     OS_TickListInsertDly(OSTCBCurPtr,
 422              		.loc 1 324 5 view .LVU141
 324:rtos/uCOS-III/Source/os_time.c ****     OS_TickListInsertDly(OSTCBCurPtr,
 423              		.loc 1 324 5 view .LVU142
 424 00d4 4020     		movs	r0, #64
 425 00d6 FFF7FEFF 		bl	CPU_SR_Save
 426              	.LVL43:
 427 00da 0646     		mov	r6, r0
 428              	.LVL44:
 324:rtos/uCOS-III/Source/os_time.c ****     OS_TickListInsertDly(OSTCBCurPtr,
 429              		.loc 1 324 5 view .LVU143
 324:rtos/uCOS-III/Source/os_time.c ****     OS_TickListInsertDly(OSTCBCurPtr,
 430              		.loc 1 324 5 view .LVU144
 325:rtos/uCOS-III/Source/os_time.c ****                          ticks,
 431              		.loc 1 325 5 view .LVU145
 432 00dc 2B46     		mov	r3, r5
 433 00de 3A46     		mov	r2, r7
 434 00e0 2146     		mov	r1, r4
 435 00e2 1348     		ldr	r0, .L42+20
 436              	.LVL45:
 325:rtos/uCOS-III/Source/os_time.c ****                          ticks,
 437              		.loc 1 325 5 is_stmt 0 view .LVU146
 438 00e4 0068     		ldr	r0, [r0]
 439 00e6 FFF7FEFF 		bl	OS_TickListInsertDly
 440              	.LVL46:
 329:rtos/uCOS-III/Source/os_time.c ****          CPU_CRITICAL_EXIT();
 441              		.loc 1 329 5 is_stmt 1 view .LVU147
 329:rtos/uCOS-III/Source/os_time.c ****          CPU_CRITICAL_EXIT();
 442              		.loc 1 329 9 is_stmt 0 view .LVU148
 443 00ea 2B88     		ldrh	r3, [r5]
 329:rtos/uCOS-III/Source/os_time.c ****          CPU_CRITICAL_EXIT();
 444              		.loc 1 329 8 view .LVU149
 445 00ec 8BB9     		cbnz	r3, .L41
 334:rtos/uCOS-III/Source/os_time.c ****     CPU_CRITICAL_EXIT();
 446              		.loc 1 334 5 is_stmt 1 view .LVU150
 447 00ee 104B     		ldr	r3, .L42+20
 448 00f0 1868     		ldr	r0, [r3]
 449 00f2 FFF7FEFF 		bl	OS_RdyListRemove
 450              	.LVL47:
 335:rtos/uCOS-III/Source/os_time.c ****     OSSched();                                                  /* Find next task to run!          
 451              		.loc 1 335 5 view .LVU151
 335:rtos/uCOS-III/Source/os_time.c ****     OSSched();                                                  /* Find next task to run!          
 452              		.loc 1 335 5 view .LVU152
 335:rtos/uCOS-III/Source/os_time.c ****     OSSched();                                                  /* Find next task to run!          
 453              		.loc 1 335 5 view .LVU153
 454 00f6 3046     		mov	r0, r6
 455 00f8 FFF7FEFF 		bl	CPU_SR_Restore
ARM GAS  /tmp/ccs5xMWk.s 			page 17


 456              	.LVL48:
 335:rtos/uCOS-III/Source/os_time.c ****     OSSched();                                                  /* Find next task to run!          
 457              		.loc 1 335 5 view .LVU154
 335:rtos/uCOS-III/Source/os_time.c ****     OSSched();                                                  /* Find next task to run!          
 458              		.loc 1 335 5 view .LVU155
 336:rtos/uCOS-III/Source/os_time.c **** #endif
 459              		.loc 1 336 5 view .LVU156
 460 00fc FFF7FEFF 		bl	OSSched
 461              	.LVL49:
 462 0100 90E7     		b	.L16
 463              	.LVL50:
 464              	.L39:
 307:rtos/uCOS-III/Source/os_time.c ****              return;
 465              		.loc 1 307 13 view .LVU157
 307:rtos/uCOS-III/Source/os_time.c ****              return;
 466              		.loc 1 307 20 is_stmt 0 view .LVU158
 467 0102 47F27923 		movw	r3, #29305
 468              	.LVL51:
 307:rtos/uCOS-III/Source/os_time.c ****              return;
 469              		.loc 1 307 20 view .LVU159
 470 0106 2B80     		strh	r3, [r5]	@ movhi
 308:rtos/uCOS-III/Source/os_time.c ****          }
 471              		.loc 1 308 14 is_stmt 1 view .LVU160
 472 0108 8CE7     		b	.L16
 473              	.LVL52:
 474              	.L40:
 311:rtos/uCOS-III/Source/os_time.c ****              return;
 475              		.loc 1 311 13 view .LVU161
 311:rtos/uCOS-III/Source/os_time.c ****              return;
 476              		.loc 1 311 20 is_stmt 0 view .LVU162
 477 010a 47F27823 		movw	r3, #29304
 478              	.LVL53:
 311:rtos/uCOS-III/Source/os_time.c ****              return;
 479              		.loc 1 311 20 view .LVU163
 480 010e 2B80     		strh	r3, [r5]	@ movhi
 312:rtos/uCOS-III/Source/os_time.c ****          }
 481              		.loc 1 312 14 is_stmt 1 view .LVU164
 482 0110 88E7     		b	.L16
 483              	.LVL54:
 484              	.L41:
 330:rtos/uCOS-III/Source/os_time.c ****          return;
 485              		.loc 1 330 10 view .LVU165
 330:rtos/uCOS-III/Source/os_time.c ****          return;
 486              		.loc 1 330 10 view .LVU166
 330:rtos/uCOS-III/Source/os_time.c ****          return;
 487              		.loc 1 330 10 view .LVU167
 488 0112 3046     		mov	r0, r6
 489 0114 FFF7FEFF 		bl	CPU_SR_Restore
 490              	.LVL55:
 330:rtos/uCOS-III/Source/os_time.c ****          return;
 491              		.loc 1 330 10 view .LVU168
 330:rtos/uCOS-III/Source/os_time.c ****          return;
 492              		.loc 1 330 10 view .LVU169
 331:rtos/uCOS-III/Source/os_time.c ****     }
 493              		.loc 1 331 10 view .LVU170
 494 0118 84E7     		b	.L16
 495              	.L43:
ARM GAS  /tmp/ccs5xMWk.s 			page 18


 496 011a 00BF     		.align	2
 497              	.L42:
 498 011c 00000000 		.word	OSIntNestingCtr
 499 0120 00000000 		.word	OSRunning
 500 0124 00000000 		.word	OSSchedLockNestingCtr
 501 0128 00000000 		.word	OSCfg_TickRate_Hz
 502 012c D34D6210 		.word	274877907
 503 0130 00000000 		.word	OSTCBCurPtr
 504              		.cfi_endproc
 505              	.LFE1:
 507              		.section	.text.OSTimeDlyResume,"ax",%progbits
 508              		.align	1
 509              		.global	OSTimeDlyResume
 510              		.syntax unified
 511              		.thumb
 512              		.thumb_func
 513              		.fpu fpv4-sp-d16
 515              	OSTimeDlyResume:
 516              	.LVL56:
 517              	.LFB2:
 339:rtos/uCOS-III/Source/os_time.c **** #endif
 340:rtos/uCOS-III/Source/os_time.c **** 
 341:rtos/uCOS-III/Source/os_time.c **** /*
 342:rtos/uCOS-III/Source/os_time.c **** ***************************************************************************************************
 343:rtos/uCOS-III/Source/os_time.c **** *                                                RESUME A DELAYED TASK
 344:rtos/uCOS-III/Source/os_time.c **** *
 345:rtos/uCOS-III/Source/os_time.c **** * Description: This function is used resume a task that has been delayed through a call to either O
 346:rtos/uCOS-III/Source/os_time.c **** *              OSTimeDlyHMSM().  Note that you cannot call this function to resume a task that is w
 347:rtos/uCOS-III/Source/os_time.c **** *              with timeout.
 348:rtos/uCOS-III/Source/os_time.c **** *
 349:rtos/uCOS-III/Source/os_time.c **** * Arguments  : p_tcb    is a pointer to the TCB of the task to resume.
 350:rtos/uCOS-III/Source/os_time.c **** *
 351:rtos/uCOS-III/Source/os_time.c **** *              p_err    is a pointer to a variable that will receive an error code
 352:rtos/uCOS-III/Source/os_time.c **** *
 353:rtos/uCOS-III/Source/os_time.c **** *                           OS_ERR_NONE                  Task has been resumed
 354:rtos/uCOS-III/Source/os_time.c **** *                           OS_ERR_OS_NOT_RUNNING        If uC/OS-III is not running yet
 355:rtos/uCOS-III/Source/os_time.c **** *                           OS_ERR_STATE_INVALID         Task is in an invalid state
 356:rtos/uCOS-III/Source/os_time.c **** *                           OS_ERR_TASK_NOT_DLY          Task is not waiting for time to expire
 357:rtos/uCOS-III/Source/os_time.c **** *                           OS_ERR_TASK_SUSPENDED        Task cannot be resumed, it was suspended b
 358:rtos/uCOS-III/Source/os_time.c **** *                           OS_ERR_TCB_INVALID           If 'p_tcb' is a NULL pointer
 359:rtos/uCOS-III/Source/os_time.c **** *                           OS_ERR_TIME_DLY_RESUME_ISR   If called from an ISR
 360:rtos/uCOS-III/Source/os_time.c **** *
 361:rtos/uCOS-III/Source/os_time.c **** * Returns    : none
 362:rtos/uCOS-III/Source/os_time.c **** *
 363:rtos/uCOS-III/Source/os_time.c **** * Note(s)    : none
 364:rtos/uCOS-III/Source/os_time.c **** ***************************************************************************************************
 365:rtos/uCOS-III/Source/os_time.c **** */
 366:rtos/uCOS-III/Source/os_time.c **** 
 367:rtos/uCOS-III/Source/os_time.c **** #if (OS_CFG_TIME_DLY_RESUME_EN > 0u)
 368:rtos/uCOS-III/Source/os_time.c **** void  OSTimeDlyResume (OS_TCB  *p_tcb,
 369:rtos/uCOS-III/Source/os_time.c ****                        OS_ERR  *p_err)
 370:rtos/uCOS-III/Source/os_time.c **** {
 518              		.loc 1 370 1 view -0
 519              		.cfi_startproc
 520              		@ args = 0, pretend = 0, frame = 0
 521              		@ frame_needed = 0, uses_anonymous_args = 0
 522              		.loc 1 370 1 is_stmt 0 view .LVU172
ARM GAS  /tmp/ccs5xMWk.s 			page 19


 523 0000 F8B5     		push	{r3, r4, r5, r6, r7, lr}
 524              	.LCFI2:
 525              		.cfi_def_cfa_offset 24
 526              		.cfi_offset 3, -24
 527              		.cfi_offset 4, -20
 528              		.cfi_offset 5, -16
 529              		.cfi_offset 6, -12
 530              		.cfi_offset 7, -8
 531              		.cfi_offset 14, -4
 532 0002 0D46     		mov	r5, r1
 371:rtos/uCOS-III/Source/os_time.c ****     CPU_SR_ALLOC();
 533              		.loc 1 371 5 is_stmt 1 view .LVU173
 534              	.LVL57:
 372:rtos/uCOS-III/Source/os_time.c **** 
 373:rtos/uCOS-III/Source/os_time.c **** 
 374:rtos/uCOS-III/Source/os_time.c **** 
 375:rtos/uCOS-III/Source/os_time.c **** #ifdef OS_SAFETY_CRITICAL
 376:rtos/uCOS-III/Source/os_time.c ****     if (p_err == (OS_ERR *)0) {
 377:rtos/uCOS-III/Source/os_time.c ****         OS_SAFETY_CRITICAL_EXCEPTION();
 378:rtos/uCOS-III/Source/os_time.c ****         return;
 379:rtos/uCOS-III/Source/os_time.c ****     }
 380:rtos/uCOS-III/Source/os_time.c **** #endif
 381:rtos/uCOS-III/Source/os_time.c **** 
 382:rtos/uCOS-III/Source/os_time.c **** #if (OS_CFG_CALLED_FROM_ISR_CHK_EN > 0u)
 383:rtos/uCOS-III/Source/os_time.c ****     if (OSIntNestingCtr > 0u) {                                 /* Not allowed to call from an ISR 
 535              		.loc 1 383 5 view .LVU174
 536              		.loc 1 383 25 is_stmt 0 view .LVU175
 537 0004 254B     		ldr	r3, .L58
 538 0006 1B78     		ldrb	r3, [r3]	@ zero_extendqisi2
 539              		.loc 1 383 8 view .LVU176
 540 0008 4BB9     		cbnz	r3, .L56
 541 000a 0446     		mov	r4, r0
 384:rtos/uCOS-III/Source/os_time.c ****        *p_err = OS_ERR_TIME_DLY_RESUME_ISR;
 385:rtos/uCOS-III/Source/os_time.c ****         return;
 386:rtos/uCOS-III/Source/os_time.c ****     }
 387:rtos/uCOS-III/Source/os_time.c **** #endif
 388:rtos/uCOS-III/Source/os_time.c **** 
 389:rtos/uCOS-III/Source/os_time.c **** #if (OS_CFG_ARG_CHK_EN > 0u)                                    /* ---------------- VALIDATE ARGUME
 390:rtos/uCOS-III/Source/os_time.c ****     if (p_tcb == (OS_TCB *)0) {                                 /* User must supply a valid OS_TCB 
 542              		.loc 1 390 5 is_stmt 1 view .LVU177
 543              		.loc 1 390 8 is_stmt 0 view .LVU178
 544 000c 58B1     		cbz	r0, .L57
 391:rtos/uCOS-III/Source/os_time.c ****        *p_err = OS_ERR_TCB_INVALID;
 392:rtos/uCOS-III/Source/os_time.c ****         return;
 393:rtos/uCOS-III/Source/os_time.c ****     }
 394:rtos/uCOS-III/Source/os_time.c **** #endif
 395:rtos/uCOS-III/Source/os_time.c **** 
 396:rtos/uCOS-III/Source/os_time.c **** #if (OS_CFG_INVALID_OS_CALLS_CHK_EN > 0u)
 397:rtos/uCOS-III/Source/os_time.c ****     if (OSRunning != OS_STATE_OS_RUNNING) {                     /* Is the kernel running?          
 545              		.loc 1 397 5 is_stmt 1 view .LVU179
 546              		.loc 1 397 19 is_stmt 0 view .LVU180
 547 000e 244B     		ldr	r3, .L58+4
 548 0010 1B78     		ldrb	r3, [r3]	@ zero_extendqisi2
 549              		.loc 1 397 8 view .LVU181
 550 0012 012B     		cmp	r3, #1
 551 0014 0BD0     		beq	.L48
 398:rtos/uCOS-III/Source/os_time.c ****        *p_err = OS_ERR_OS_NOT_RUNNING;
ARM GAS  /tmp/ccs5xMWk.s 			page 20


 552              		.loc 1 398 8 is_stmt 1 view .LVU182
 553              		.loc 1 398 15 is_stmt 0 view .LVU183
 554 0016 45F68963 		movw	r3, #24201
 555 001a 0B80     		strh	r3, [r1]	@ movhi
 399:rtos/uCOS-III/Source/os_time.c ****         return;
 556              		.loc 1 399 9 is_stmt 1 view .LVU184
 557              	.LVL58:
 558              	.L44:
 400:rtos/uCOS-III/Source/os_time.c ****     }
 401:rtos/uCOS-III/Source/os_time.c **** #endif
 402:rtos/uCOS-III/Source/os_time.c **** 
 403:rtos/uCOS-III/Source/os_time.c ****     CPU_CRITICAL_ENTER();
 404:rtos/uCOS-III/Source/os_time.c ****     switch (p_tcb->TaskState) {
 405:rtos/uCOS-III/Source/os_time.c ****         case OS_TASK_STATE_RDY:                                 /* Cannot Abort delay if task is re
 406:rtos/uCOS-III/Source/os_time.c ****         case OS_TASK_STATE_PEND:
 407:rtos/uCOS-III/Source/os_time.c ****         case OS_TASK_STATE_PEND_TIMEOUT:
 408:rtos/uCOS-III/Source/os_time.c ****         case OS_TASK_STATE_SUSPENDED:
 409:rtos/uCOS-III/Source/os_time.c ****         case OS_TASK_STATE_PEND_SUSPENDED:
 410:rtos/uCOS-III/Source/os_time.c ****         case OS_TASK_STATE_PEND_TIMEOUT_SUSPENDED:
 411:rtos/uCOS-III/Source/os_time.c ****              CPU_CRITICAL_EXIT();
 412:rtos/uCOS-III/Source/os_time.c ****             *p_err = OS_ERR_TASK_NOT_DLY;
 413:rtos/uCOS-III/Source/os_time.c ****              break;
 414:rtos/uCOS-III/Source/os_time.c **** 
 415:rtos/uCOS-III/Source/os_time.c ****         case OS_TASK_STATE_DLY:
 416:rtos/uCOS-III/Source/os_time.c ****              p_tcb->TaskState = OS_TASK_STATE_RDY;
 417:rtos/uCOS-III/Source/os_time.c **** #if (OS_CFG_TICK_EN > 0u)
 418:rtos/uCOS-III/Source/os_time.c ****              OS_TickListRemove(p_tcb);                          /* Remove task from tick list      
 419:rtos/uCOS-III/Source/os_time.c ****              OS_RdyListInsert(p_tcb);                           /* Add to ready list               
 420:rtos/uCOS-III/Source/os_time.c **** #endif
 421:rtos/uCOS-III/Source/os_time.c ****              CPU_CRITICAL_EXIT();
 422:rtos/uCOS-III/Source/os_time.c ****             *p_err = OS_ERR_NONE;
 423:rtos/uCOS-III/Source/os_time.c ****              break;
 424:rtos/uCOS-III/Source/os_time.c **** 
 425:rtos/uCOS-III/Source/os_time.c ****         case OS_TASK_STATE_DLY_SUSPENDED:
 426:rtos/uCOS-III/Source/os_time.c ****              p_tcb->TaskState = OS_TASK_STATE_SUSPENDED;
 427:rtos/uCOS-III/Source/os_time.c **** #if (OS_CFG_TICK_EN > 0u)
 428:rtos/uCOS-III/Source/os_time.c ****              OS_TickListRemove(p_tcb);                          /* Remove task from tick list      
 429:rtos/uCOS-III/Source/os_time.c **** #endif
 430:rtos/uCOS-III/Source/os_time.c ****              CPU_CRITICAL_EXIT();
 431:rtos/uCOS-III/Source/os_time.c ****             *p_err            = OS_ERR_TASK_SUSPENDED;
 432:rtos/uCOS-III/Source/os_time.c ****              break;
 433:rtos/uCOS-III/Source/os_time.c **** 
 434:rtos/uCOS-III/Source/os_time.c ****         default:
 435:rtos/uCOS-III/Source/os_time.c ****              CPU_CRITICAL_EXIT();
 436:rtos/uCOS-III/Source/os_time.c ****             *p_err = OS_ERR_STATE_INVALID;
 437:rtos/uCOS-III/Source/os_time.c ****              break;
 438:rtos/uCOS-III/Source/os_time.c ****     }
 439:rtos/uCOS-III/Source/os_time.c **** 
 440:rtos/uCOS-III/Source/os_time.c ****     OSSched();
 441:rtos/uCOS-III/Source/os_time.c **** }
 559              		.loc 1 441 1 is_stmt 0 view .LVU185
 560 001c F8BD     		pop	{r3, r4, r5, r6, r7, pc}
 561              	.LVL59:
 562              	.L56:
 384:rtos/uCOS-III/Source/os_time.c ****         return;
 563              		.loc 1 384 8 is_stmt 1 view .LVU186
 384:rtos/uCOS-III/Source/os_time.c ****         return;
ARM GAS  /tmp/ccs5xMWk.s 			page 21


 564              		.loc 1 384 15 is_stmt 0 view .LVU187
 565 001e 47F27623 		movw	r3, #29302
 566 0022 0B80     		strh	r3, [r1]	@ movhi
 385:rtos/uCOS-III/Source/os_time.c ****     }
 567              		.loc 1 385 9 is_stmt 1 view .LVU188
 568 0024 FAE7     		b	.L44
 569              	.L57:
 391:rtos/uCOS-III/Source/os_time.c ****         return;
 570              		.loc 1 391 8 view .LVU189
 391:rtos/uCOS-III/Source/os_time.c ****         return;
 571              		.loc 1 391 15 is_stmt 0 view .LVU190
 572 0026 47F2AD13 		movw	r3, #29101
 573 002a 0B80     		strh	r3, [r1]	@ movhi
 392:rtos/uCOS-III/Source/os_time.c ****     }
 574              		.loc 1 392 9 is_stmt 1 view .LVU191
 575 002c F6E7     		b	.L44
 576              	.L48:
 403:rtos/uCOS-III/Source/os_time.c ****     switch (p_tcb->TaskState) {
 577              		.loc 1 403 5 view .LVU192
 403:rtos/uCOS-III/Source/os_time.c ****     switch (p_tcb->TaskState) {
 578              		.loc 1 403 5 view .LVU193
 403:rtos/uCOS-III/Source/os_time.c ****     switch (p_tcb->TaskState) {
 579              		.loc 1 403 5 view .LVU194
 580 002e 4020     		movs	r0, #64
 581              	.LVL60:
 403:rtos/uCOS-III/Source/os_time.c ****     switch (p_tcb->TaskState) {
 582              		.loc 1 403 5 is_stmt 0 view .LVU195
 583 0030 FFF7FEFF 		bl	CPU_SR_Save
 584              	.LVL61:
 403:rtos/uCOS-III/Source/os_time.c ****     switch (p_tcb->TaskState) {
 585              		.loc 1 403 5 view .LVU196
 586 0034 0646     		mov	r6, r0
 587              	.LVL62:
 403:rtos/uCOS-III/Source/os_time.c ****     switch (p_tcb->TaskState) {
 588              		.loc 1 403 5 is_stmt 1 view .LVU197
 403:rtos/uCOS-III/Source/os_time.c ****     switch (p_tcb->TaskState) {
 589              		.loc 1 403 5 view .LVU198
 404:rtos/uCOS-III/Source/os_time.c ****         case OS_TASK_STATE_RDY:                                 /* Cannot Abort delay if task is re
 590              		.loc 1 404 5 view .LVU199
 404:rtos/uCOS-III/Source/os_time.c ****         case OS_TASK_STATE_RDY:                                 /* Cannot Abort delay if task is re
 591              		.loc 1 404 18 is_stmt 0 view .LVU200
 592 0036 94F82E30 		ldrb	r3, [r4, #46]	@ zero_extendqisi2
 593 003a 072B     		cmp	r3, #7
 594 003c 28D8     		bhi	.L49
 595 003e DFE803F0 		tbb	[pc, r3]
 596              	.L51:
 597 0042 04       		.byte	(.L50-.L51)/2
 598 0043 0C       		.byte	(.L53-.L51)/2
 599 0044 04       		.byte	(.L50-.L51)/2
 600 0045 04       		.byte	(.L50-.L51)/2
 601 0046 04       		.byte	(.L50-.L51)/2
 602 0047 1A       		.byte	(.L52-.L51)/2
 603 0048 04       		.byte	(.L50-.L51)/2
 604 0049 04       		.byte	(.L50-.L51)/2
 605              		.p2align 1
 606              	.L50:
 411:rtos/uCOS-III/Source/os_time.c ****             *p_err = OS_ERR_TASK_NOT_DLY;
ARM GAS  /tmp/ccs5xMWk.s 			page 22


 607              		.loc 1 411 14 is_stmt 1 view .LVU201
 411:rtos/uCOS-III/Source/os_time.c ****             *p_err = OS_ERR_TASK_NOT_DLY;
 608              		.loc 1 411 14 view .LVU202
 411:rtos/uCOS-III/Source/os_time.c ****             *p_err = OS_ERR_TASK_NOT_DLY;
 609              		.loc 1 411 14 view .LVU203
 610 004a FFF7FEFF 		bl	CPU_SR_Restore
 611              	.LVL63:
 411:rtos/uCOS-III/Source/os_time.c ****             *p_err = OS_ERR_TASK_NOT_DLY;
 612              		.loc 1 411 14 view .LVU204
 411:rtos/uCOS-III/Source/os_time.c ****             *p_err = OS_ERR_TASK_NOT_DLY;
 613              		.loc 1 411 14 view .LVU205
 412:rtos/uCOS-III/Source/os_time.c ****              break;
 614              		.loc 1 412 13 view .LVU206
 412:rtos/uCOS-III/Source/os_time.c ****              break;
 615              		.loc 1 412 20 is_stmt 0 view .LVU207
 616 004e 47F25113 		movw	r3, #29009
 617 0052 2B80     		strh	r3, [r5]	@ movhi
 413:rtos/uCOS-III/Source/os_time.c **** 
 618              		.loc 1 413 14 is_stmt 1 view .LVU208
 619              	.L54:
 440:rtos/uCOS-III/Source/os_time.c **** }
 620              		.loc 1 440 5 view .LVU209
 621 0054 FFF7FEFF 		bl	OSSched
 622              	.LVL64:
 623 0058 E0E7     		b	.L44
 624              	.LVL65:
 625              	.L53:
 416:rtos/uCOS-III/Source/os_time.c **** #if (OS_CFG_TICK_EN > 0u)
 626              		.loc 1 416 14 view .LVU210
 416:rtos/uCOS-III/Source/os_time.c **** #if (OS_CFG_TICK_EN > 0u)
 627              		.loc 1 416 31 is_stmt 0 view .LVU211
 628 005a 0027     		movs	r7, #0
 629 005c 84F82E70 		strb	r7, [r4, #46]
 418:rtos/uCOS-III/Source/os_time.c ****              OS_RdyListInsert(p_tcb);                           /* Add to ready list               
 630              		.loc 1 418 14 is_stmt 1 view .LVU212
 631 0060 2046     		mov	r0, r4
 632              	.LVL66:
 418:rtos/uCOS-III/Source/os_time.c ****              OS_RdyListInsert(p_tcb);                           /* Add to ready list               
 633              		.loc 1 418 14 is_stmt 0 view .LVU213
 634 0062 FFF7FEFF 		bl	OS_TickListRemove
 635              	.LVL67:
 419:rtos/uCOS-III/Source/os_time.c **** #endif
 636              		.loc 1 419 14 is_stmt 1 view .LVU214
 637 0066 2046     		mov	r0, r4
 638 0068 FFF7FEFF 		bl	OS_RdyListInsert
 639              	.LVL68:
 421:rtos/uCOS-III/Source/os_time.c ****             *p_err = OS_ERR_NONE;
 640              		.loc 1 421 14 view .LVU215
 421:rtos/uCOS-III/Source/os_time.c ****             *p_err = OS_ERR_NONE;
 641              		.loc 1 421 14 view .LVU216
 421:rtos/uCOS-III/Source/os_time.c ****             *p_err = OS_ERR_NONE;
 642              		.loc 1 421 14 view .LVU217
 643 006c 3046     		mov	r0, r6
 644 006e FFF7FEFF 		bl	CPU_SR_Restore
 645              	.LVL69:
 421:rtos/uCOS-III/Source/os_time.c ****             *p_err = OS_ERR_NONE;
 646              		.loc 1 421 14 view .LVU218
ARM GAS  /tmp/ccs5xMWk.s 			page 23


 421:rtos/uCOS-III/Source/os_time.c ****             *p_err = OS_ERR_NONE;
 647              		.loc 1 421 14 view .LVU219
 422:rtos/uCOS-III/Source/os_time.c ****              break;
 648              		.loc 1 422 13 view .LVU220
 422:rtos/uCOS-III/Source/os_time.c ****              break;
 649              		.loc 1 422 20 is_stmt 0 view .LVU221
 650 0072 2F80     		strh	r7, [r5]	@ movhi
 423:rtos/uCOS-III/Source/os_time.c **** 
 651              		.loc 1 423 14 is_stmt 1 view .LVU222
 652 0074 EEE7     		b	.L54
 653              	.LVL70:
 654              	.L52:
 426:rtos/uCOS-III/Source/os_time.c **** #if (OS_CFG_TICK_EN > 0u)
 655              		.loc 1 426 14 view .LVU223
 426:rtos/uCOS-III/Source/os_time.c **** #if (OS_CFG_TICK_EN > 0u)
 656              		.loc 1 426 31 is_stmt 0 view .LVU224
 657 0076 0423     		movs	r3, #4
 658 0078 84F82E30 		strb	r3, [r4, #46]
 428:rtos/uCOS-III/Source/os_time.c **** #endif
 659              		.loc 1 428 14 is_stmt 1 view .LVU225
 660 007c 2046     		mov	r0, r4
 661              	.LVL71:
 428:rtos/uCOS-III/Source/os_time.c **** #endif
 662              		.loc 1 428 14 is_stmt 0 view .LVU226
 663 007e FFF7FEFF 		bl	OS_TickListRemove
 664              	.LVL72:
 430:rtos/uCOS-III/Source/os_time.c ****             *p_err            = OS_ERR_TASK_SUSPENDED;
 665              		.loc 1 430 14 is_stmt 1 view .LVU227
 430:rtos/uCOS-III/Source/os_time.c ****             *p_err            = OS_ERR_TASK_SUSPENDED;
 666              		.loc 1 430 14 view .LVU228
 430:rtos/uCOS-III/Source/os_time.c ****             *p_err            = OS_ERR_TASK_SUSPENDED;
 667              		.loc 1 430 14 view .LVU229
 668 0082 3046     		mov	r0, r6
 669 0084 FFF7FEFF 		bl	CPU_SR_Restore
 670              	.LVL73:
 430:rtos/uCOS-III/Source/os_time.c ****             *p_err            = OS_ERR_TASK_SUSPENDED;
 671              		.loc 1 430 14 view .LVU230
 430:rtos/uCOS-III/Source/os_time.c ****             *p_err            = OS_ERR_TASK_SUSPENDED;
 672              		.loc 1 430 14 view .LVU231
 431:rtos/uCOS-III/Source/os_time.c ****              break;
 673              		.loc 1 431 13 view .LVU232
 431:rtos/uCOS-III/Source/os_time.c ****              break;
 674              		.loc 1 431 31 is_stmt 0 view .LVU233
 675 0088 47F25A13 		movw	r3, #29018
 676 008c 2B80     		strh	r3, [r5]	@ movhi
 432:rtos/uCOS-III/Source/os_time.c **** 
 677              		.loc 1 432 14 is_stmt 1 view .LVU234
 678 008e E1E7     		b	.L54
 679              	.LVL74:
 680              	.L49:
 435:rtos/uCOS-III/Source/os_time.c ****             *p_err = OS_ERR_STATE_INVALID;
 681              		.loc 1 435 14 view .LVU235
 435:rtos/uCOS-III/Source/os_time.c ****             *p_err = OS_ERR_STATE_INVALID;
 682              		.loc 1 435 14 view .LVU236
 435:rtos/uCOS-III/Source/os_time.c ****             *p_err = OS_ERR_STATE_INVALID;
 683              		.loc 1 435 14 view .LVU237
 684 0090 FFF7FEFF 		bl	CPU_SR_Restore
ARM GAS  /tmp/ccs5xMWk.s 			page 24


 685              	.LVL75:
 435:rtos/uCOS-III/Source/os_time.c ****             *p_err = OS_ERR_STATE_INVALID;
 686              		.loc 1 435 14 view .LVU238
 435:rtos/uCOS-III/Source/os_time.c ****             *p_err = OS_ERR_STATE_INVALID;
 687              		.loc 1 435 14 view .LVU239
 436:rtos/uCOS-III/Source/os_time.c ****              break;
 688              		.loc 1 436 13 view .LVU240
 436:rtos/uCOS-III/Source/os_time.c ****              break;
 689              		.loc 1 436 20 is_stmt 0 view .LVU241
 690 0094 46F62D63 		movw	r3, #28205
 691 0098 2B80     		strh	r3, [r5]	@ movhi
 437:rtos/uCOS-III/Source/os_time.c ****     }
 692              		.loc 1 437 14 is_stmt 1 view .LVU242
 693 009a DBE7     		b	.L54
 694              	.L59:
 695              		.align	2
 696              	.L58:
 697 009c 00000000 		.word	OSIntNestingCtr
 698 00a0 00000000 		.word	OSRunning
 699              		.cfi_endproc
 700              	.LFE2:
 702              		.section	.text.OSTimeGet,"ax",%progbits
 703              		.align	1
 704              		.global	OSTimeGet
 705              		.syntax unified
 706              		.thumb
 707              		.thumb_func
 708              		.fpu fpv4-sp-d16
 710              	OSTimeGet:
 711              	.LVL76:
 712              	.LFB3:
 442:rtos/uCOS-III/Source/os_time.c **** #endif
 443:rtos/uCOS-III/Source/os_time.c **** 
 444:rtos/uCOS-III/Source/os_time.c **** /*
 445:rtos/uCOS-III/Source/os_time.c **** ***************************************************************************************************
 446:rtos/uCOS-III/Source/os_time.c **** *                                               GET CURRENT SYSTEM TIME
 447:rtos/uCOS-III/Source/os_time.c **** *
 448:rtos/uCOS-III/Source/os_time.c **** * Description: This function is used by your application to obtain the current value of the counter
 449:rtos/uCOS-III/Source/os_time.c **** *              the number of clock ticks.
 450:rtos/uCOS-III/Source/os_time.c **** *
 451:rtos/uCOS-III/Source/os_time.c **** * Arguments  : p_err    is a pointer to a variable that will receive an error code
 452:rtos/uCOS-III/Source/os_time.c **** *
 453:rtos/uCOS-III/Source/os_time.c **** *                           OS_ERR_NONE              If the call was successful
 454:rtos/uCOS-III/Source/os_time.c **** *                           OS_ERR_TICK_DISABLED     If kernel ticks are disabled
 455:rtos/uCOS-III/Source/os_time.c **** *
 456:rtos/uCOS-III/Source/os_time.c **** * Returns    : The current value of OSTickCtr
 457:rtos/uCOS-III/Source/os_time.c **** *
 458:rtos/uCOS-III/Source/os_time.c **** * Note(s)    : none
 459:rtos/uCOS-III/Source/os_time.c **** ***************************************************************************************************
 460:rtos/uCOS-III/Source/os_time.c **** */
 461:rtos/uCOS-III/Source/os_time.c **** 
 462:rtos/uCOS-III/Source/os_time.c **** OS_TICK  OSTimeGet (OS_ERR  *p_err)
 463:rtos/uCOS-III/Source/os_time.c **** {
 713              		.loc 1 463 1 view -0
 714              		.cfi_startproc
 715              		@ args = 0, pretend = 0, frame = 0
 716              		@ frame_needed = 0, uses_anonymous_args = 0
ARM GAS  /tmp/ccs5xMWk.s 			page 25


 717              		.loc 1 463 1 is_stmt 0 view .LVU244
 718 0000 38B5     		push	{r3, r4, r5, lr}
 719              	.LCFI3:
 720              		.cfi_def_cfa_offset 16
 721              		.cfi_offset 3, -16
 722              		.cfi_offset 4, -12
 723              		.cfi_offset 5, -8
 724              		.cfi_offset 14, -4
 725 0002 0446     		mov	r4, r0
 464:rtos/uCOS-III/Source/os_time.c ****     OS_TICK  ticks;
 726              		.loc 1 464 5 is_stmt 1 view .LVU245
 465:rtos/uCOS-III/Source/os_time.c **** #if (OS_CFG_TICK_EN > 0u)
 466:rtos/uCOS-III/Source/os_time.c ****     CPU_SR_ALLOC();
 727              		.loc 1 466 5 view .LVU246
 728              	.LVL77:
 467:rtos/uCOS-III/Source/os_time.c **** #endif
 468:rtos/uCOS-III/Source/os_time.c **** 
 469:rtos/uCOS-III/Source/os_time.c **** 
 470:rtos/uCOS-III/Source/os_time.c **** #ifdef OS_SAFETY_CRITICAL
 471:rtos/uCOS-III/Source/os_time.c ****     if (p_err == (OS_ERR *)0) {
 472:rtos/uCOS-III/Source/os_time.c ****         OS_SAFETY_CRITICAL_EXCEPTION();
 473:rtos/uCOS-III/Source/os_time.c ****         return (0u);
 474:rtos/uCOS-III/Source/os_time.c ****     }
 475:rtos/uCOS-III/Source/os_time.c **** #endif
 476:rtos/uCOS-III/Source/os_time.c **** 
 477:rtos/uCOS-III/Source/os_time.c **** 
 478:rtos/uCOS-III/Source/os_time.c **** #if (OS_CFG_TICK_EN > 0u)
 479:rtos/uCOS-III/Source/os_time.c ****     CPU_CRITICAL_ENTER();
 729              		.loc 1 479 5 view .LVU247
 730              		.loc 1 479 5 view .LVU248
 731              		.loc 1 479 5 view .LVU249
 732 0004 4020     		movs	r0, #64
 733              	.LVL78:
 734              		.loc 1 479 5 is_stmt 0 view .LVU250
 735 0006 FFF7FEFF 		bl	CPU_SR_Save
 736              	.LVL79:
 737              		.loc 1 479 5 is_stmt 1 view .LVU251
 738              		.loc 1 479 5 view .LVU252
 480:rtos/uCOS-III/Source/os_time.c **** #if (OS_CFG_DYN_TICK_EN > 0u)
 481:rtos/uCOS-III/Source/os_time.c ****     if (OSRunning == OS_STATE_OS_RUNNING) {
 482:rtos/uCOS-III/Source/os_time.c ****         ticks = OSTickCtr + OS_DynTickGet();
 483:rtos/uCOS-III/Source/os_time.c ****     } else {
 484:rtos/uCOS-III/Source/os_time.c ****         ticks = OSTickCtr;
 485:rtos/uCOS-III/Source/os_time.c ****     }
 486:rtos/uCOS-III/Source/os_time.c **** #else
 487:rtos/uCOS-III/Source/os_time.c ****     ticks = OSTickCtr;
 739              		.loc 1 487 5 view .LVU253
 740              		.loc 1 487 11 is_stmt 0 view .LVU254
 741 000a 044B     		ldr	r3, .L62
 742 000c 1D68     		ldr	r5, [r3]
 743              	.LVL80:
 488:rtos/uCOS-III/Source/os_time.c **** #endif
 489:rtos/uCOS-III/Source/os_time.c ****     CPU_CRITICAL_EXIT();
 744              		.loc 1 489 5 is_stmt 1 view .LVU255
 745              		.loc 1 489 5 view .LVU256
 746              		.loc 1 489 5 view .LVU257
 747 000e FFF7FEFF 		bl	CPU_SR_Restore
ARM GAS  /tmp/ccs5xMWk.s 			page 26


 748              	.LVL81:
 749              		.loc 1 489 5 view .LVU258
 750              		.loc 1 489 5 view .LVU259
 490:rtos/uCOS-III/Source/os_time.c ****    *p_err = OS_ERR_NONE;
 751              		.loc 1 490 4 view .LVU260
 752              		.loc 1 490 11 is_stmt 0 view .LVU261
 753 0012 0023     		movs	r3, #0
 754 0014 2380     		strh	r3, [r4]	@ movhi
 491:rtos/uCOS-III/Source/os_time.c **** #else
 492:rtos/uCOS-III/Source/os_time.c ****     ticks = 0u;
 493:rtos/uCOS-III/Source/os_time.c ****    *p_err = OS_ERR_TICK_DISABLED;
 494:rtos/uCOS-III/Source/os_time.c **** #endif
 495:rtos/uCOS-III/Source/os_time.c **** 
 496:rtos/uCOS-III/Source/os_time.c ****     return (ticks);
 755              		.loc 1 496 5 is_stmt 1 view .LVU262
 497:rtos/uCOS-III/Source/os_time.c **** }
 756              		.loc 1 497 1 is_stmt 0 view .LVU263
 757 0016 2846     		mov	r0, r5
 758 0018 38BD     		pop	{r3, r4, r5, pc}
 759              	.LVL82:
 760              	.L63:
 761              		.loc 1 497 1 view .LVU264
 762 001a 00BF     		.align	2
 763              	.L62:
 764 001c 00000000 		.word	OSTickCtr
 765              		.cfi_endproc
 766              	.LFE3:
 768              		.section	.text.OSTimeSet,"ax",%progbits
 769              		.align	1
 770              		.global	OSTimeSet
 771              		.syntax unified
 772              		.thumb
 773              		.thumb_func
 774              		.fpu fpv4-sp-d16
 776              	OSTimeSet:
 777              	.LVL83:
 778              	.LFB4:
 498:rtos/uCOS-III/Source/os_time.c **** 
 499:rtos/uCOS-III/Source/os_time.c **** /*
 500:rtos/uCOS-III/Source/os_time.c **** ***************************************************************************************************
 501:rtos/uCOS-III/Source/os_time.c **** *                                                   SET SYSTEM CLOCK
 502:rtos/uCOS-III/Source/os_time.c **** *
 503:rtos/uCOS-III/Source/os_time.c **** * Description: This function sets the counter which keeps track of the number of clock ticks.
 504:rtos/uCOS-III/Source/os_time.c **** *
 505:rtos/uCOS-III/Source/os_time.c **** * Arguments  : ticks    is the desired tick value
 506:rtos/uCOS-III/Source/os_time.c **** *
 507:rtos/uCOS-III/Source/os_time.c **** *              p_err    is a pointer to a variable that will receive an error code
 508:rtos/uCOS-III/Source/os_time.c **** *
 509:rtos/uCOS-III/Source/os_time.c **** *                           OS_ERR_NONE              If the call was successful
 510:rtos/uCOS-III/Source/os_time.c **** *                           OS_ERR_TICK_DISABLED     If kernel ticks are disabled
 511:rtos/uCOS-III/Source/os_time.c **** *
 512:rtos/uCOS-III/Source/os_time.c **** * Returns    : none
 513:rtos/uCOS-III/Source/os_time.c **** *
 514:rtos/uCOS-III/Source/os_time.c **** * Note(s)    : none
 515:rtos/uCOS-III/Source/os_time.c **** ***************************************************************************************************
 516:rtos/uCOS-III/Source/os_time.c **** */
 517:rtos/uCOS-III/Source/os_time.c **** 
ARM GAS  /tmp/ccs5xMWk.s 			page 27


 518:rtos/uCOS-III/Source/os_time.c **** void  OSTimeSet (OS_TICK   ticks,
 519:rtos/uCOS-III/Source/os_time.c ****                  OS_ERR   *p_err)
 520:rtos/uCOS-III/Source/os_time.c **** {
 779              		.loc 1 520 1 is_stmt 1 view -0
 780              		.cfi_startproc
 781              		@ args = 0, pretend = 0, frame = 0
 782              		@ frame_needed = 0, uses_anonymous_args = 0
 783              		.loc 1 520 1 is_stmt 0 view .LVU266
 784 0000 38B5     		push	{r3, r4, r5, lr}
 785              	.LCFI4:
 786              		.cfi_def_cfa_offset 16
 787              		.cfi_offset 3, -16
 788              		.cfi_offset 4, -12
 789              		.cfi_offset 5, -8
 790              		.cfi_offset 14, -4
 791 0002 0546     		mov	r5, r0
 792 0004 0C46     		mov	r4, r1
 521:rtos/uCOS-III/Source/os_time.c **** #if (OS_CFG_TICK_EN > 0u)
 522:rtos/uCOS-III/Source/os_time.c ****     CPU_SR_ALLOC();
 793              		.loc 1 522 5 is_stmt 1 view .LVU267
 794              	.LVL84:
 523:rtos/uCOS-III/Source/os_time.c **** 
 524:rtos/uCOS-III/Source/os_time.c **** #else
 525:rtos/uCOS-III/Source/os_time.c ****     (void)ticks;
 526:rtos/uCOS-III/Source/os_time.c **** #endif
 527:rtos/uCOS-III/Source/os_time.c **** 
 528:rtos/uCOS-III/Source/os_time.c **** 
 529:rtos/uCOS-III/Source/os_time.c **** #ifdef OS_SAFETY_CRITICAL
 530:rtos/uCOS-III/Source/os_time.c ****     if (p_err == (OS_ERR *)0) {
 531:rtos/uCOS-III/Source/os_time.c ****         OS_SAFETY_CRITICAL_EXCEPTION();
 532:rtos/uCOS-III/Source/os_time.c ****         return;
 533:rtos/uCOS-III/Source/os_time.c ****     }
 534:rtos/uCOS-III/Source/os_time.c **** #endif
 535:rtos/uCOS-III/Source/os_time.c **** 
 536:rtos/uCOS-III/Source/os_time.c **** #if (OS_CFG_TICK_EN > 0u)
 537:rtos/uCOS-III/Source/os_time.c ****     CPU_CRITICAL_ENTER();
 795              		.loc 1 537 5 view .LVU268
 796              		.loc 1 537 5 view .LVU269
 797              		.loc 1 537 5 view .LVU270
 798 0006 4020     		movs	r0, #64
 799              	.LVL85:
 800              		.loc 1 537 5 is_stmt 0 view .LVU271
 801 0008 FFF7FEFF 		bl	CPU_SR_Save
 802              	.LVL86:
 803              		.loc 1 537 5 is_stmt 1 view .LVU272
 804              		.loc 1 537 5 view .LVU273
 538:rtos/uCOS-III/Source/os_time.c ****     OSTickCtr = ticks;
 805              		.loc 1 538 5 view .LVU274
 806              		.loc 1 538 15 is_stmt 0 view .LVU275
 807 000c 034B     		ldr	r3, .L66
 808 000e 1D60     		str	r5, [r3]
 539:rtos/uCOS-III/Source/os_time.c ****     OS_TRACE_TICK_INCREMENT(OSTickCtr);
 809              		.loc 1 539 39 is_stmt 1 view .LVU276
 540:rtos/uCOS-III/Source/os_time.c ****     CPU_CRITICAL_EXIT();
 810              		.loc 1 540 5 view .LVU277
 811              		.loc 1 540 5 view .LVU278
 812              		.loc 1 540 5 view .LVU279
ARM GAS  /tmp/ccs5xMWk.s 			page 28


 813 0010 FFF7FEFF 		bl	CPU_SR_Restore
 814              	.LVL87:
 815              		.loc 1 540 5 view .LVU280
 816              		.loc 1 540 5 view .LVU281
 541:rtos/uCOS-III/Source/os_time.c ****    *p_err = OS_ERR_NONE;
 817              		.loc 1 541 4 view .LVU282
 818              		.loc 1 541 11 is_stmt 0 view .LVU283
 819 0014 0023     		movs	r3, #0
 820 0016 2380     		strh	r3, [r4]	@ movhi
 542:rtos/uCOS-III/Source/os_time.c **** #else
 543:rtos/uCOS-III/Source/os_time.c ****    *p_err = OS_ERR_TICK_DISABLED;
 544:rtos/uCOS-III/Source/os_time.c **** #endif
 545:rtos/uCOS-III/Source/os_time.c **** 
 546:rtos/uCOS-III/Source/os_time.c **** }
 821              		.loc 1 546 1 view .LVU284
 822 0018 38BD     		pop	{r3, r4, r5, pc}
 823              	.LVL88:
 824              	.L67:
 825              		.loc 1 546 1 view .LVU285
 826 001a 00BF     		.align	2
 827              	.L66:
 828 001c 00000000 		.word	OSTickCtr
 829              		.cfi_endproc
 830              	.LFE4:
 832              		.section	.text.OSTimeTick,"ax",%progbits
 833              		.align	1
 834              		.global	OSTimeTick
 835              		.syntax unified
 836              		.thumb
 837              		.thumb_func
 838              		.fpu fpv4-sp-d16
 840              	OSTimeTick:
 841              	.LFB5:
 547:rtos/uCOS-III/Source/os_time.c **** 
 548:rtos/uCOS-III/Source/os_time.c **** 
 549:rtos/uCOS-III/Source/os_time.c **** /*
 550:rtos/uCOS-III/Source/os_time.c **** ***************************************************************************************************
 551:rtos/uCOS-III/Source/os_time.c **** *                                                 PROCESS SYSTEM TICK
 552:rtos/uCOS-III/Source/os_time.c **** *
 553:rtos/uCOS-III/Source/os_time.c **** * Description: This function is used to signal to uC/OS-III the occurrence of a 'system tick' (also
 554:rtos/uCOS-III/Source/os_time.c **** *              'clock tick').  This function should be called by the tick ISR.
 555:rtos/uCOS-III/Source/os_time.c **** *
 556:rtos/uCOS-III/Source/os_time.c **** * Arguments  : none
 557:rtos/uCOS-III/Source/os_time.c **** *
 558:rtos/uCOS-III/Source/os_time.c **** * Returns    : none
 559:rtos/uCOS-III/Source/os_time.c **** *
 560:rtos/uCOS-III/Source/os_time.c **** * Note(s)    : none
 561:rtos/uCOS-III/Source/os_time.c **** ***************************************************************************************************
 562:rtos/uCOS-III/Source/os_time.c **** */
 563:rtos/uCOS-III/Source/os_time.c **** 
 564:rtos/uCOS-III/Source/os_time.c **** void  OSTimeTick (void)
 565:rtos/uCOS-III/Source/os_time.c **** {
 842              		.loc 1 565 1 is_stmt 1 view -0
 843              		.cfi_startproc
 844              		@ args = 0, pretend = 0, frame = 0
 845              		@ frame_needed = 0, uses_anonymous_args = 0
 846 0000 08B5     		push	{r3, lr}
ARM GAS  /tmp/ccs5xMWk.s 			page 29


 847              	.LCFI5:
 848              		.cfi_def_cfa_offset 8
 849              		.cfi_offset 3, -8
 850              		.cfi_offset 14, -4
 566:rtos/uCOS-III/Source/os_time.c ****     if (OSRunning != OS_STATE_OS_RUNNING) {
 851              		.loc 1 566 5 view .LVU287
 852              		.loc 1 566 19 is_stmt 0 view .LVU288
 853 0002 094B     		ldr	r3, .L72
 854 0004 1B78     		ldrb	r3, [r3]	@ zero_extendqisi2
 855              		.loc 1 566 8 view .LVU289
 856 0006 012B     		cmp	r3, #1
 857 0008 00D0     		beq	.L71
 858              	.L68:
 567:rtos/uCOS-III/Source/os_time.c ****         return;
 568:rtos/uCOS-III/Source/os_time.c ****     }
 569:rtos/uCOS-III/Source/os_time.c **** 
 570:rtos/uCOS-III/Source/os_time.c ****     OSTimeTickHook();                                           /* Call user definable hook        
 571:rtos/uCOS-III/Source/os_time.c **** 
 572:rtos/uCOS-III/Source/os_time.c **** #if (OS_CFG_SCHED_ROUND_ROBIN_EN > 0u)
 573:rtos/uCOS-III/Source/os_time.c ****     OS_SchedRoundRobin(&OSRdyList[OSPrioCur]);                  /* Update quanta ctr for the task w
 574:rtos/uCOS-III/Source/os_time.c **** #endif
 575:rtos/uCOS-III/Source/os_time.c **** 
 576:rtos/uCOS-III/Source/os_time.c **** #if (OS_CFG_TICK_EN > 0u)
 577:rtos/uCOS-III/Source/os_time.c ****     OS_TickUpdate(1u);                                          /* Update from the ISR             
 578:rtos/uCOS-III/Source/os_time.c **** #endif
 579:rtos/uCOS-III/Source/os_time.c **** }
 859              		.loc 1 579 1 view .LVU290
 860 000a 08BD     		pop	{r3, pc}
 861              	.L71:
 570:rtos/uCOS-III/Source/os_time.c **** 
 862              		.loc 1 570 5 is_stmt 1 view .LVU291
 863 000c FFF7FEFF 		bl	OSTimeTickHook
 864              	.LVL89:
 573:rtos/uCOS-III/Source/os_time.c **** #endif
 865              		.loc 1 573 5 view .LVU292
 573:rtos/uCOS-III/Source/os_time.c **** #endif
 866              		.loc 1 573 34 is_stmt 0 view .LVU293
 867 0010 064B     		ldr	r3, .L72+4
 868 0012 1878     		ldrb	r0, [r3]	@ zero_extendqisi2
 573:rtos/uCOS-III/Source/os_time.c **** #endif
 869              		.loc 1 573 5 view .LVU294
 870 0014 064B     		ldr	r3, .L72+8
 871 0016 03EBC000 		add	r0, r3, r0, lsl #3
 872 001a FFF7FEFF 		bl	OS_SchedRoundRobin
 873              	.LVL90:
 577:rtos/uCOS-III/Source/os_time.c **** #endif
 874              		.loc 1 577 5 is_stmt 1 view .LVU295
 875 001e 0120     		movs	r0, #1
 876 0020 FFF7FEFF 		bl	OS_TickUpdate
 877              	.LVL91:
 878 0024 F1E7     		b	.L68
 879              	.L73:
 880 0026 00BF     		.align	2
 881              	.L72:
 882 0028 00000000 		.word	OSRunning
 883 002c 00000000 		.word	OSPrioCur
 884 0030 00000000 		.word	OSRdyList
ARM GAS  /tmp/ccs5xMWk.s 			page 30


 885              		.cfi_endproc
 886              	.LFE5:
 888              		.text
 889              	.Letext0:
 890              		.file 2 "rtos/uC-CPU/ARM-Cortex-M/ARMv7-M/GNU/cpu.h"
 891              		.file 3 "rtos/uC-CPU/cpu_core.h"
 892              		.file 4 "rtos/uCOS-III/Source/os_type.h"
 893              		.file 5 "rtos/uCOS-III/Source/os.h"
 894              		.file 6 "rtos/uCOS-III/Ports/ARM-Cortex-M/ARMv7-M/GNU/os_cpu.h"
ARM GAS  /tmp/ccs5xMWk.s 			page 31

