ARM GAS  /tmp/ccpSqYXX.s 			page 1


   1              		.cpu cortex-m4
   2              		.eabi_attribute 27, 1
   3              		.eabi_attribute 28, 1
   4              		.eabi_attribute 20, 1
   5              		.eabi_attribute 21, 1
   6              		.eabi_attribute 23, 3
   7              		.eabi_attribute 24, 1
   8              		.eabi_attribute 25, 1
   9              		.eabi_attribute 26, 1
  10              		.eabi_attribute 30, 1
  11              		.eabi_attribute 34, 1
  12              		.eabi_attribute 18, 4
  13              		.file	"sh_shell.c"
  14              		.text
  15              	.Ltext0:
  16              		.cfi_sections	.debug_frame
  17              		.section	.rodata.ShShell_help.str1.4,"aMS",%progbits,1
  18              		.align	2
  19              	.LC0:
  20 0000 2D6800   		.ascii	"-h\000"
  21 0003 00       		.align	2
  22              	.LC1:
  23 0004 53685F68 		.ascii	"Sh_help: usage: Sh_help\015\012                Sh_h"
  23      656C703A 
  23      20757361 
  23      67653A20 
  23      53685F68 
  24 0031 656C7020 		.ascii	"elp [command]\000"
  24      5B636F6D 
  24      6D616E64 
  24      5D00
  25 003f 00       		.align	2
  26              	.LC2:
  27 0040 0D0A00   		.ascii	"\015\012\000"
  28 0043 00       		.align	2
  29              	.LC3:
  30 0044 20202020 		.ascii	"                Get list of commands, or informatio"
  30      20202020 
  30      20202020 
  30      20202020 
  30      47657420 
  31 0077 6E206162 		.ascii	"n about a command.\000"
  31      6F757420 
  31      6120636F 
  31      6D6D616E 
  31      642E00
  32 008a 0000     		.align	2
  33              	.LC4:
  34 008c 2000     		.ascii	" \000"
  35 008e 0000     		.align	2
  36              	.LC5:
  37 0090 436F6D6D 		.ascii	"Command not recognized: \000"
  37      616E6420 
  37      6E6F7420 
  37      7265636F 
  37      676E697A 
  38              		.section	.text.ShShell_help,"ax",%progbits
ARM GAS  /tmp/ccpSqYXX.s 			page 2


  39              		.align	1
  40              		.arch armv7e-m
  41              		.syntax unified
  42              		.thumb
  43              		.thumb_func
  44              		.fpu fpv4-sp-d16
  46              	ShShell_help:
  47              	.LVL0:
  48              	.LFB1:
  49              		.file 1 "rtos/uC-Shell/Cmd/General/sh_shell.c"
   1:rtos/uC-Shell/Cmd/General/sh_shell.c **** /*
   2:rtos/uC-Shell/Cmd/General/sh_shell.c **** ***************************************************************************************************
   3:rtos/uC-Shell/Cmd/General/sh_shell.c **** *                                               uC/Shell
   4:rtos/uC-Shell/Cmd/General/sh_shell.c **** *                                            Shell utility
   5:rtos/uC-Shell/Cmd/General/sh_shell.c **** *
   6:rtos/uC-Shell/Cmd/General/sh_shell.c **** *                           (c) Copyright 2007-2013; Micrium, Inc.; Weston, FL
   7:rtos/uC-Shell/Cmd/General/sh_shell.c **** *
   8:rtos/uC-Shell/Cmd/General/sh_shell.c **** *                   All rights reserved.  Protected by international copyright laws.
   9:rtos/uC-Shell/Cmd/General/sh_shell.c **** *                   Knowledge of the source code may not be used to write a similar
  10:rtos/uC-Shell/Cmd/General/sh_shell.c **** *                   product.  This file may only be used in accordance with a license
  11:rtos/uC-Shell/Cmd/General/sh_shell.c **** *                   and should not be redistributed in any way.
  12:rtos/uC-Shell/Cmd/General/sh_shell.c **** ***************************************************************************************************
  13:rtos/uC-Shell/Cmd/General/sh_shell.c **** */
  14:rtos/uC-Shell/Cmd/General/sh_shell.c **** 
  15:rtos/uC-Shell/Cmd/General/sh_shell.c **** /*
  16:rtos/uC-Shell/Cmd/General/sh_shell.c **** ***************************************************************************************************
  17:rtos/uC-Shell/Cmd/General/sh_shell.c **** *
  18:rtos/uC-Shell/Cmd/General/sh_shell.c **** *                                         GENERAL SHELL COMMANDS
  19:rtos/uC-Shell/Cmd/General/sh_shell.c **** *
  20:rtos/uC-Shell/Cmd/General/sh_shell.c **** * Filename      : sh_shell.c
  21:rtos/uC-Shell/Cmd/General/sh_shell.c **** * Version       : V1.03.01
  22:rtos/uC-Shell/Cmd/General/sh_shell.c **** * Programmer(s) : BAN
  23:rtos/uC-Shell/Cmd/General/sh_shell.c **** ***************************************************************************************************
  24:rtos/uC-Shell/Cmd/General/sh_shell.c **** */
  25:rtos/uC-Shell/Cmd/General/sh_shell.c **** 
  26:rtos/uC-Shell/Cmd/General/sh_shell.c **** /*
  27:rtos/uC-Shell/Cmd/General/sh_shell.c **** ***************************************************************************************************
  28:rtos/uC-Shell/Cmd/General/sh_shell.c **** *                                             INCLUDE FILES
  29:rtos/uC-Shell/Cmd/General/sh_shell.c **** ***************************************************************************************************
  30:rtos/uC-Shell/Cmd/General/sh_shell.c **** */
  31:rtos/uC-Shell/Cmd/General/sh_shell.c **** 
  32:rtos/uC-Shell/Cmd/General/sh_shell.c **** #define   SH_SHELL_MODULE
  33:rtos/uC-Shell/Cmd/General/sh_shell.c **** #include <sh_shell.h>
  34:rtos/uC-Shell/Cmd/General/sh_shell.c **** 
  35:rtos/uC-Shell/Cmd/General/sh_shell.c **** 
  36:rtos/uC-Shell/Cmd/General/sh_shell.c **** /*
  37:rtos/uC-Shell/Cmd/General/sh_shell.c **** ***************************************************************************************************
  38:rtos/uC-Shell/Cmd/General/sh_shell.c **** *                                              LOCAL DEFINES
  39:rtos/uC-Shell/Cmd/General/sh_shell.c **** ***************************************************************************************************
  40:rtos/uC-Shell/Cmd/General/sh_shell.c **** */
  41:rtos/uC-Shell/Cmd/General/sh_shell.c **** 
  42:rtos/uC-Shell/Cmd/General/sh_shell.c **** #define  SH_SHELL_NEW_LINE                      (CPU_CHAR *)"\r\n"
  43:rtos/uC-Shell/Cmd/General/sh_shell.c **** #define  SH_SHELL_BLANK_LINE                    (CPU_CHAR *)"\r\n\r\n"
  44:rtos/uC-Shell/Cmd/General/sh_shell.c **** #define  SH_SHELL_STR_HELP                      (CPU_CHAR *)"-h"
  45:rtos/uC-Shell/Cmd/General/sh_shell.c **** 
  46:rtos/uC-Shell/Cmd/General/sh_shell.c **** /*
  47:rtos/uC-Shell/Cmd/General/sh_shell.c **** ***************************************************************************************************
ARM GAS  /tmp/ccpSqYXX.s 			page 3


  48:rtos/uC-Shell/Cmd/General/sh_shell.c **** *                                        ARGUMENT ERROR MESSAGES
  49:rtos/uC-Shell/Cmd/General/sh_shell.c **** ***************************************************************************************************
  50:rtos/uC-Shell/Cmd/General/sh_shell.c **** */
  51:rtos/uC-Shell/Cmd/General/sh_shell.c **** 
  52:rtos/uC-Shell/Cmd/General/sh_shell.c **** #define  SH_SHELL_ARG_ERR_HELP                  (CPU_CHAR *)"Sh_help: usage: Sh_help\r\n           
  53:rtos/uC-Shell/Cmd/General/sh_shell.c **** 
  54:rtos/uC-Shell/Cmd/General/sh_shell.c **** /*
  55:rtos/uC-Shell/Cmd/General/sh_shell.c **** ***************************************************************************************************
  56:rtos/uC-Shell/Cmd/General/sh_shell.c **** *                                      COMMAND EXPLANATION MESSAGES
  57:rtos/uC-Shell/Cmd/General/sh_shell.c **** ***************************************************************************************************
  58:rtos/uC-Shell/Cmd/General/sh_shell.c **** */
  59:rtos/uC-Shell/Cmd/General/sh_shell.c **** 
  60:rtos/uC-Shell/Cmd/General/sh_shell.c **** #define  SH_SHELL_CMD_EXP_HELP                  (CPU_CHAR *)"                Get list of commands, 
  61:rtos/uC-Shell/Cmd/General/sh_shell.c **** 
  62:rtos/uC-Shell/Cmd/General/sh_shell.c **** 
  63:rtos/uC-Shell/Cmd/General/sh_shell.c **** /*
  64:rtos/uC-Shell/Cmd/General/sh_shell.c **** ***************************************************************************************************
  65:rtos/uC-Shell/Cmd/General/sh_shell.c **** *                                             LOCAL CONSTANTS
  66:rtos/uC-Shell/Cmd/General/sh_shell.c **** ***************************************************************************************************
  67:rtos/uC-Shell/Cmd/General/sh_shell.c **** */
  68:rtos/uC-Shell/Cmd/General/sh_shell.c **** 
  69:rtos/uC-Shell/Cmd/General/sh_shell.c **** 
  70:rtos/uC-Shell/Cmd/General/sh_shell.c **** /*
  71:rtos/uC-Shell/Cmd/General/sh_shell.c **** ***************************************************************************************************
  72:rtos/uC-Shell/Cmd/General/sh_shell.c **** *                                            LOCAL DATA TYPES
  73:rtos/uC-Shell/Cmd/General/sh_shell.c **** ***************************************************************************************************
  74:rtos/uC-Shell/Cmd/General/sh_shell.c **** */
  75:rtos/uC-Shell/Cmd/General/sh_shell.c **** 
  76:rtos/uC-Shell/Cmd/General/sh_shell.c **** 
  77:rtos/uC-Shell/Cmd/General/sh_shell.c **** /*
  78:rtos/uC-Shell/Cmd/General/sh_shell.c **** ***************************************************************************************************
  79:rtos/uC-Shell/Cmd/General/sh_shell.c **** *                                         LOCAL GLOBAL VARIABLES
  80:rtos/uC-Shell/Cmd/General/sh_shell.c **** ***************************************************************************************************
  81:rtos/uC-Shell/Cmd/General/sh_shell.c **** */
  82:rtos/uC-Shell/Cmd/General/sh_shell.c **** 
  83:rtos/uC-Shell/Cmd/General/sh_shell.c **** 
  84:rtos/uC-Shell/Cmd/General/sh_shell.c **** /*
  85:rtos/uC-Shell/Cmd/General/sh_shell.c **** ***************************************************************************************************
  86:rtos/uC-Shell/Cmd/General/sh_shell.c **** *                                        LOCAL FUNCTION PROTOTYPES
  87:rtos/uC-Shell/Cmd/General/sh_shell.c **** ***************************************************************************************************
  88:rtos/uC-Shell/Cmd/General/sh_shell.c **** */
  89:rtos/uC-Shell/Cmd/General/sh_shell.c **** 
  90:rtos/uC-Shell/Cmd/General/sh_shell.c **** 
  91:rtos/uC-Shell/Cmd/General/sh_shell.c **** static  CPU_INT16S  ShShell_help(CPU_INT16U        argc,
  92:rtos/uC-Shell/Cmd/General/sh_shell.c ****                                  CPU_CHAR         *argv[],
  93:rtos/uC-Shell/Cmd/General/sh_shell.c ****                                  SHELL_OUT_FNCT    out_fnct,
  94:rtos/uC-Shell/Cmd/General/sh_shell.c ****                                  SHELL_CMD_PARAM  *pcmd_param);
  95:rtos/uC-Shell/Cmd/General/sh_shell.c **** 
  96:rtos/uC-Shell/Cmd/General/sh_shell.c **** static  SHELL_CMD  ShShell_CmdTbl [] =
  97:rtos/uC-Shell/Cmd/General/sh_shell.c **** {
  98:rtos/uC-Shell/Cmd/General/sh_shell.c ****     {"Sh_help", ShShell_help},
  99:rtos/uC-Shell/Cmd/General/sh_shell.c ****     {0,         0           }
 100:rtos/uC-Shell/Cmd/General/sh_shell.c **** };
 101:rtos/uC-Shell/Cmd/General/sh_shell.c **** 
 102:rtos/uC-Shell/Cmd/General/sh_shell.c **** 
 103:rtos/uC-Shell/Cmd/General/sh_shell.c **** /*
 104:rtos/uC-Shell/Cmd/General/sh_shell.c **** ***************************************************************************************************
ARM GAS  /tmp/ccpSqYXX.s 			page 4


 105:rtos/uC-Shell/Cmd/General/sh_shell.c **** *                                       LOCAL CONFIGURATION ERRORS
 106:rtos/uC-Shell/Cmd/General/sh_shell.c **** ***************************************************************************************************
 107:rtos/uC-Shell/Cmd/General/sh_shell.c **** */
 108:rtos/uC-Shell/Cmd/General/sh_shell.c **** 
 109:rtos/uC-Shell/Cmd/General/sh_shell.c **** 
 110:rtos/uC-Shell/Cmd/General/sh_shell.c **** /*
 111:rtos/uC-Shell/Cmd/General/sh_shell.c **** ***************************************************************************************************
 112:rtos/uC-Shell/Cmd/General/sh_shell.c **** *                                             ShShell_Init()
 113:rtos/uC-Shell/Cmd/General/sh_shell.c **** *
 114:rtos/uC-Shell/Cmd/General/sh_shell.c **** * Description : Initialize Shell for general shell commands.
 115:rtos/uC-Shell/Cmd/General/sh_shell.c **** *
 116:rtos/uC-Shell/Cmd/General/sh_shell.c **** * Argument(s) : none.
 117:rtos/uC-Shell/Cmd/General/sh_shell.c **** *
 118:rtos/uC-Shell/Cmd/General/sh_shell.c **** * Return(s)   : DEF_OK,   if general shell commands were added.
 119:rtos/uC-Shell/Cmd/General/sh_shell.c **** *               DEF_FAIL, otherwise.
 120:rtos/uC-Shell/Cmd/General/sh_shell.c **** *
 121:rtos/uC-Shell/Cmd/General/sh_shell.c **** * Caller(s)   : Application.
 122:rtos/uC-Shell/Cmd/General/sh_shell.c **** *
 123:rtos/uC-Shell/Cmd/General/sh_shell.c **** * Note(s)     : none.
 124:rtos/uC-Shell/Cmd/General/sh_shell.c **** ***************************************************************************************************
 125:rtos/uC-Shell/Cmd/General/sh_shell.c **** */
 126:rtos/uC-Shell/Cmd/General/sh_shell.c **** 
 127:rtos/uC-Shell/Cmd/General/sh_shell.c **** CPU_BOOLEAN  ShShell_Init (void)
 128:rtos/uC-Shell/Cmd/General/sh_shell.c **** {
 129:rtos/uC-Shell/Cmd/General/sh_shell.c ****     SHELL_ERR    err;
 130:rtos/uC-Shell/Cmd/General/sh_shell.c ****     CPU_BOOLEAN  ok;
 131:rtos/uC-Shell/Cmd/General/sh_shell.c **** 
 132:rtos/uC-Shell/Cmd/General/sh_shell.c **** 
 133:rtos/uC-Shell/Cmd/General/sh_shell.c ****     Shell_CmdTblAdd((CPU_CHAR *)"Sh", ShShell_CmdTbl, &err);
 134:rtos/uC-Shell/Cmd/General/sh_shell.c **** 
 135:rtos/uC-Shell/Cmd/General/sh_shell.c ****     ok = (err == SHELL_ERR_NONE) ? DEF_OK : DEF_FAIL;
 136:rtos/uC-Shell/Cmd/General/sh_shell.c ****     return (ok);
 137:rtos/uC-Shell/Cmd/General/sh_shell.c **** }
 138:rtos/uC-Shell/Cmd/General/sh_shell.c **** 
 139:rtos/uC-Shell/Cmd/General/sh_shell.c **** 
 140:rtos/uC-Shell/Cmd/General/sh_shell.c **** /*
 141:rtos/uC-Shell/Cmd/General/sh_shell.c **** ***************************************************************************************************
 142:rtos/uC-Shell/Cmd/General/sh_shell.c **** ***************************************************************************************************
 143:rtos/uC-Shell/Cmd/General/sh_shell.c **** *                                           COMMAND FUNCTIONS
 144:rtos/uC-Shell/Cmd/General/sh_shell.c **** ***************************************************************************************************
 145:rtos/uC-Shell/Cmd/General/sh_shell.c **** ***************************************************************************************************
 146:rtos/uC-Shell/Cmd/General/sh_shell.c **** */
 147:rtos/uC-Shell/Cmd/General/sh_shell.c **** 
 148:rtos/uC-Shell/Cmd/General/sh_shell.c **** /*
 149:rtos/uC-Shell/Cmd/General/sh_shell.c **** ***************************************************************************************************
 150:rtos/uC-Shell/Cmd/General/sh_shell.c **** *                                             ShShell_help()
 151:rtos/uC-Shell/Cmd/General/sh_shell.c **** *
 152:rtos/uC-Shell/Cmd/General/sh_shell.c **** * Description : List all commands or invoke '--help' for another command.
 153:rtos/uC-Shell/Cmd/General/sh_shell.c **** *
 154:rtos/uC-Shell/Cmd/General/sh_shell.c **** * Argument(s) : argc            The number of arguments.
 155:rtos/uC-Shell/Cmd/General/sh_shell.c **** *
 156:rtos/uC-Shell/Cmd/General/sh_shell.c **** *               argv            Array of arguments.
 157:rtos/uC-Shell/Cmd/General/sh_shell.c **** *
 158:rtos/uC-Shell/Cmd/General/sh_shell.c **** *               out_fnct        The output function.
 159:rtos/uC-Shell/Cmd/General/sh_shell.c **** *
 160:rtos/uC-Shell/Cmd/General/sh_shell.c **** *               pcmd_param      Pointer to the command parameters.
 161:rtos/uC-Shell/Cmd/General/sh_shell.c **** *
ARM GAS  /tmp/ccpSqYXX.s 			page 5


 162:rtos/uC-Shell/Cmd/General/sh_shell.c **** * Return(s)   : SHELL_EXEC_ERR, if an error is encountered.
 163:rtos/uC-Shell/Cmd/General/sh_shell.c **** *               SHELL_ERR_NONE, otherwise.
 164:rtos/uC-Shell/Cmd/General/sh_shell.c **** *
 165:rtos/uC-Shell/Cmd/General/sh_shell.c **** * Caller(s)   : Shell, in response to command execution.
 166:rtos/uC-Shell/Cmd/General/sh_shell.c **** *
 167:rtos/uC-Shell/Cmd/General/sh_shell.c **** * Note(s)     : none.
 168:rtos/uC-Shell/Cmd/General/sh_shell.c **** ***************************************************************************************************
 169:rtos/uC-Shell/Cmd/General/sh_shell.c **** */
 170:rtos/uC-Shell/Cmd/General/sh_shell.c **** 
 171:rtos/uC-Shell/Cmd/General/sh_shell.c **** static  CPU_INT16S  ShShell_help (CPU_INT16U        argc,
 172:rtos/uC-Shell/Cmd/General/sh_shell.c ****                                   CPU_CHAR         *argv[],
 173:rtos/uC-Shell/Cmd/General/sh_shell.c ****                                   SHELL_OUT_FNCT    out_fnct,
 174:rtos/uC-Shell/Cmd/General/sh_shell.c ****                                   SHELL_CMD_PARAM  *pcmd_param)
 175:rtos/uC-Shell/Cmd/General/sh_shell.c **** {
  50              		.loc 1 175 1 view -0
  51              		.cfi_startproc
  52              		@ args = 0, pretend = 0, frame = 16
  53              		@ frame_needed = 0, uses_anonymous_args = 0
  54              		.loc 1 175 1 is_stmt 0 view .LVU1
  55 0000 2DE9F041 		push	{r4, r5, r6, r7, r8, lr}
  56              	.LCFI0:
  57              		.cfi_def_cfa_offset 24
  58              		.cfi_offset 4, -24
  59              		.cfi_offset 5, -20
  60              		.cfi_offset 6, -16
  61              		.cfi_offset 7, -12
  62              		.cfi_offset 8, -8
  63              		.cfi_offset 14, -4
  64 0004 84B0     		sub	sp, sp, #16
  65              	.LCFI1:
  66              		.cfi_def_cfa_offset 40
  67 0006 0446     		mov	r4, r0
  68 0008 0D46     		mov	r5, r1
  69 000a 1646     		mov	r6, r2
  70 000c 1F46     		mov	r7, r3
 176:rtos/uC-Shell/Cmd/General/sh_shell.c ****     CPU_CHAR           cmd_str[SHELL_CFG_MODULE_CMD_NAME_LEN_MAX + 4];
  71              		.loc 1 176 5 is_stmt 1 view .LVU2
 177:rtos/uC-Shell/Cmd/General/sh_shell.c ****     SHELL_ERR          err;
  72              		.loc 1 177 5 view .LVU3
 178:rtos/uC-Shell/Cmd/General/sh_shell.c ****     SHELL_CMD         *pcmd;
  73              		.loc 1 178 5 view .LVU4
 179:rtos/uC-Shell/Cmd/General/sh_shell.c ****     SHELL_MODULE_CMD  *pmodule_cmd;
  74              		.loc 1 179 5 view .LVU5
 180:rtos/uC-Shell/Cmd/General/sh_shell.c **** 
 181:rtos/uC-Shell/Cmd/General/sh_shell.c **** 
 182:rtos/uC-Shell/Cmd/General/sh_shell.c ****     if (argc == 2) {
  75              		.loc 1 182 5 view .LVU6
  76              		.loc 1 182 8 is_stmt 0 view .LVU7
  77 000e 0228     		cmp	r0, #2
  78 0010 0DD0     		beq	.L14
  79              	.LVL1:
  80              	.L2:
 183:rtos/uC-Shell/Cmd/General/sh_shell.c ****         if (Str_Cmp(argv[1], SH_SHELL_STR_HELP) == 0) {
 184:rtos/uC-Shell/Cmd/General/sh_shell.c ****             (void)out_fnct(SH_SHELL_ARG_ERR_HELP, (CPU_INT16U)Str_Len(SH_SHELL_ARG_ERR_HELP), pcmd_
 185:rtos/uC-Shell/Cmd/General/sh_shell.c ****             (void)out_fnct(SH_SHELL_NEW_LINE,     2,                                          pcmd_
 186:rtos/uC-Shell/Cmd/General/sh_shell.c ****             (void)out_fnct(SH_SHELL_CMD_EXP_HELP, (CPU_INT16U)Str_Len(SH_SHELL_CMD_EXP_HELP), pcmd_
 187:rtos/uC-Shell/Cmd/General/sh_shell.c ****             (void)out_fnct(SH_SHELL_NEW_LINE,     2,                                          pcmd_
ARM GAS  /tmp/ccpSqYXX.s 			page 6


 188:rtos/uC-Shell/Cmd/General/sh_shell.c ****             return (SHELL_ERR_NONE);
 189:rtos/uC-Shell/Cmd/General/sh_shell.c ****         }
 190:rtos/uC-Shell/Cmd/General/sh_shell.c ****     }
 191:rtos/uC-Shell/Cmd/General/sh_shell.c **** 
 192:rtos/uC-Shell/Cmd/General/sh_shell.c ****     if ((argc != 1) && (argc != 2)) {
  81              		.loc 1 192 5 is_stmt 1 view .LVU8
  82              		.loc 1 192 21 is_stmt 0 view .LVU9
  83 0012 631E     		subs	r3, r4, #1
  84 0014 9BB2     		uxth	r3, r3
  85              		.loc 1 192 8 view .LVU10
  86 0016 012B     		cmp	r3, #1
  87 0018 2AD8     		bhi	.L15
 193:rtos/uC-Shell/Cmd/General/sh_shell.c ****         (void)out_fnct(SH_SHELL_ARG_ERR_HELP, (CPU_INT16U)Str_Len(SH_SHELL_ARG_ERR_HELP), pcmd_para
 194:rtos/uC-Shell/Cmd/General/sh_shell.c ****         (void)out_fnct(SH_SHELL_NEW_LINE,     2,                                          pcmd_para
 195:rtos/uC-Shell/Cmd/General/sh_shell.c ****         return (SHELL_EXEC_ERR);
 196:rtos/uC-Shell/Cmd/General/sh_shell.c ****     }
 197:rtos/uC-Shell/Cmd/General/sh_shell.c **** 
 198:rtos/uC-Shell/Cmd/General/sh_shell.c ****     switch (argc) {
  88              		.loc 1 198 5 is_stmt 1 view .LVU11
  89 001a 012C     		cmp	r4, #1
  90 001c 37D0     		beq	.L5
  91 001e 022C     		cmp	r4, #2
  92 0020 53D0     		beq	.L6
  93 0022 4FF00008 		mov	r8, #0
  94              	.LVL2:
  95              	.L3:
 199:rtos/uC-Shell/Cmd/General/sh_shell.c ****         case 1:
 200:rtos/uC-Shell/Cmd/General/sh_shell.c ****              pmodule_cmd = Shell_ModuleCmdUsedPoolPtr;
 201:rtos/uC-Shell/Cmd/General/sh_shell.c ****              while (pmodule_cmd != (SHELL_MODULE_CMD *)0) {
 202:rtos/uC-Shell/Cmd/General/sh_shell.c ****                  pcmd = pmodule_cmd->CmdTblPtr;
 203:rtos/uC-Shell/Cmd/General/sh_shell.c ****                  if (pcmd != (SHELL_CMD *)0) {
 204:rtos/uC-Shell/Cmd/General/sh_shell.c ****                      while (pcmd->Fnct != (SHELL_CMD_FNCT)0) {
 205:rtos/uC-Shell/Cmd/General/sh_shell.c ****                          (void)out_fnct((CPU_CHAR *)pcmd->Name,
 206:rtos/uC-Shell/Cmd/General/sh_shell.c ****                                         (CPU_INT16U)Str_Len(pcmd->Name),
 207:rtos/uC-Shell/Cmd/General/sh_shell.c ****                                                     pcmd_param->pout_opt);
 208:rtos/uC-Shell/Cmd/General/sh_shell.c ****                          (void)out_fnct(SH_SHELL_NEW_LINE, 2,                               pcmd_pa
 209:rtos/uC-Shell/Cmd/General/sh_shell.c ****                          pcmd++;
 210:rtos/uC-Shell/Cmd/General/sh_shell.c ****                      }
 211:rtos/uC-Shell/Cmd/General/sh_shell.c ****                  }
 212:rtos/uC-Shell/Cmd/General/sh_shell.c ****                  pmodule_cmd = pmodule_cmd->NextModuleCmdPtr;
 213:rtos/uC-Shell/Cmd/General/sh_shell.c ****              }
 214:rtos/uC-Shell/Cmd/General/sh_shell.c ****              break;
 215:rtos/uC-Shell/Cmd/General/sh_shell.c **** 
 216:rtos/uC-Shell/Cmd/General/sh_shell.c ****         case 2:
 217:rtos/uC-Shell/Cmd/General/sh_shell.c ****              Str_Copy(cmd_str, argv[1]);
 218:rtos/uC-Shell/Cmd/General/sh_shell.c ****              Str_Cat(cmd_str, (CPU_CHAR *)" ");
 219:rtos/uC-Shell/Cmd/General/sh_shell.c ****              Str_Cat(cmd_str, SH_SHELL_STR_HELP);
 220:rtos/uC-Shell/Cmd/General/sh_shell.c **** 
 221:rtos/uC-Shell/Cmd/General/sh_shell.c ****              Shell_Exec(cmd_str, out_fnct, pcmd_param, &err);
 222:rtos/uC-Shell/Cmd/General/sh_shell.c **** 
 223:rtos/uC-Shell/Cmd/General/sh_shell.c ****              switch (err) {
 224:rtos/uC-Shell/Cmd/General/sh_shell.c ****                 case SHELL_ERR_CMD_NOT_FOUND:
 225:rtos/uC-Shell/Cmd/General/sh_shell.c ****                 case SHELL_ERR_CMD_SEARCH:
 226:rtos/uC-Shell/Cmd/General/sh_shell.c ****                 case SHELL_ERR_ARG_TBL_FULL:
 227:rtos/uC-Shell/Cmd/General/sh_shell.c ****                      (void)out_fnct((CPU_CHAR *)"Command not recognized: ", 25,                    
 228:rtos/uC-Shell/Cmd/General/sh_shell.c ****                      (void)out_fnct(argv[1],                                (CPU_INT16U)Str_Len(arg
 229:rtos/uC-Shell/Cmd/General/sh_shell.c ****                      (void)out_fnct(SH_SHELL_NEW_LINE,                      2,                     
ARM GAS  /tmp/ccpSqYXX.s 			page 7


 230:rtos/uC-Shell/Cmd/General/sh_shell.c ****                      break;
 231:rtos/uC-Shell/Cmd/General/sh_shell.c **** 
 232:rtos/uC-Shell/Cmd/General/sh_shell.c ****                 case SHELL_ERR_NONE:
 233:rtos/uC-Shell/Cmd/General/sh_shell.c ****                 case SHELL_ERR_NULL_PTR:
 234:rtos/uC-Shell/Cmd/General/sh_shell.c ****                 case SHELL_ERR_CMD_EXEC:
 235:rtos/uC-Shell/Cmd/General/sh_shell.c ****                 default:
 236:rtos/uC-Shell/Cmd/General/sh_shell.c ****                      break;
 237:rtos/uC-Shell/Cmd/General/sh_shell.c ****              }
 238:rtos/uC-Shell/Cmd/General/sh_shell.c ****              break;
 239:rtos/uC-Shell/Cmd/General/sh_shell.c **** 
 240:rtos/uC-Shell/Cmd/General/sh_shell.c ****         default:
 241:rtos/uC-Shell/Cmd/General/sh_shell.c ****              break;
 242:rtos/uC-Shell/Cmd/General/sh_shell.c ****     }
 243:rtos/uC-Shell/Cmd/General/sh_shell.c **** 
 244:rtos/uC-Shell/Cmd/General/sh_shell.c ****     return (SHELL_ERR_NONE);
 245:rtos/uC-Shell/Cmd/General/sh_shell.c **** }
  96              		.loc 1 245 1 is_stmt 0 view .LVU12
  97 0026 4046     		mov	r0, r8
  98 0028 04B0     		add	sp, sp, #16
  99              	.LCFI2:
 100              		.cfi_remember_state
 101              		.cfi_def_cfa_offset 24
 102              		@ sp needed
 103 002a BDE8F081 		pop	{r4, r5, r6, r7, r8, pc}
 104              	.LVL3:
 105              	.L14:
 106              	.LCFI3:
 107              		.cfi_restore_state
 183:rtos/uC-Shell/Cmd/General/sh_shell.c ****             (void)out_fnct(SH_SHELL_ARG_ERR_HELP, (CPU_INT16U)Str_Len(SH_SHELL_ARG_ERR_HELP), pcmd_
 108              		.loc 1 183 9 is_stmt 1 view .LVU13
 183:rtos/uC-Shell/Cmd/General/sh_shell.c ****             (void)out_fnct(SH_SHELL_ARG_ERR_HELP, (CPU_INT16U)Str_Len(SH_SHELL_ARG_ERR_HELP), pcmd_
 109              		.loc 1 183 13 is_stmt 0 view .LVU14
 110 002e 3E49     		ldr	r1, .L16
 111              	.LVL4:
 183:rtos/uC-Shell/Cmd/General/sh_shell.c ****             (void)out_fnct(SH_SHELL_ARG_ERR_HELP, (CPU_INT16U)Str_Len(SH_SHELL_ARG_ERR_HELP), pcmd_
 112              		.loc 1 183 13 view .LVU15
 113 0030 6868     		ldr	r0, [r5, #4]
 114              	.LVL5:
 183:rtos/uC-Shell/Cmd/General/sh_shell.c ****             (void)out_fnct(SH_SHELL_ARG_ERR_HELP, (CPU_INT16U)Str_Len(SH_SHELL_ARG_ERR_HELP), pcmd_
 115              		.loc 1 183 13 view .LVU16
 116 0032 FFF7FEFF 		bl	Str_Cmp
 117              	.LVL6:
 183:rtos/uC-Shell/Cmd/General/sh_shell.c ****             (void)out_fnct(SH_SHELL_ARG_ERR_HELP, (CPU_INT16U)Str_Len(SH_SHELL_ARG_ERR_HELP), pcmd_
 118              		.loc 1 183 12 view .LVU17
 119 0036 8046     		mov	r8, r0
 120 0038 0028     		cmp	r0, #0
 121 003a EAD1     		bne	.L2
 184:rtos/uC-Shell/Cmd/General/sh_shell.c ****             (void)out_fnct(SH_SHELL_NEW_LINE,     2,                                          pcmd_
 122              		.loc 1 184 13 is_stmt 1 view .LVU18
 184:rtos/uC-Shell/Cmd/General/sh_shell.c ****             (void)out_fnct(SH_SHELL_NEW_LINE,     2,                                          pcmd_
 123              		.loc 1 184 63 is_stmt 0 view .LVU19
 124 003c 3B4C     		ldr	r4, .L16+4
 125 003e 2046     		mov	r0, r4
 126 0040 FFF7FEFF 		bl	Str_Len
 127              	.LVL7:
 184:rtos/uC-Shell/Cmd/General/sh_shell.c ****             (void)out_fnct(SH_SHELL_NEW_LINE,     2,                                          pcmd_
 128              		.loc 1 184 19 view .LVU20
ARM GAS  /tmp/ccpSqYXX.s 			page 8


 129 0044 7A68     		ldr	r2, [r7, #4]
 130 0046 81B2     		uxth	r1, r0
 131 0048 2046     		mov	r0, r4
 132 004a B047     		blx	r6
 133              	.LVL8:
 185:rtos/uC-Shell/Cmd/General/sh_shell.c ****             (void)out_fnct(SH_SHELL_CMD_EXP_HELP, (CPU_INT16U)Str_Len(SH_SHELL_CMD_EXP_HELP), pcmd_
 134              		.loc 1 185 13 is_stmt 1 view .LVU21
 185:rtos/uC-Shell/Cmd/General/sh_shell.c ****             (void)out_fnct(SH_SHELL_CMD_EXP_HELP, (CPU_INT16U)Str_Len(SH_SHELL_CMD_EXP_HELP), pcmd_
 135              		.loc 1 185 19 is_stmt 0 view .LVU22
 136 004c 384C     		ldr	r4, .L16+8
 137 004e 7A68     		ldr	r2, [r7, #4]
 138 0050 0221     		movs	r1, #2
 139 0052 2046     		mov	r0, r4
 140 0054 B047     		blx	r6
 141              	.LVL9:
 186:rtos/uC-Shell/Cmd/General/sh_shell.c ****             (void)out_fnct(SH_SHELL_NEW_LINE,     2,                                          pcmd_
 142              		.loc 1 186 13 is_stmt 1 view .LVU23
 186:rtos/uC-Shell/Cmd/General/sh_shell.c ****             (void)out_fnct(SH_SHELL_NEW_LINE,     2,                                          pcmd_
 143              		.loc 1 186 63 is_stmt 0 view .LVU24
 144 0056 374D     		ldr	r5, .L16+12
 145              	.LVL10:
 186:rtos/uC-Shell/Cmd/General/sh_shell.c ****             (void)out_fnct(SH_SHELL_NEW_LINE,     2,                                          pcmd_
 146              		.loc 1 186 63 view .LVU25
 147 0058 2846     		mov	r0, r5
 148 005a FFF7FEFF 		bl	Str_Len
 149              	.LVL11:
 186:rtos/uC-Shell/Cmd/General/sh_shell.c ****             (void)out_fnct(SH_SHELL_NEW_LINE,     2,                                          pcmd_
 150              		.loc 1 186 19 view .LVU26
 151 005e 7A68     		ldr	r2, [r7, #4]
 152 0060 81B2     		uxth	r1, r0
 153 0062 2846     		mov	r0, r5
 154 0064 B047     		blx	r6
 155              	.LVL12:
 187:rtos/uC-Shell/Cmd/General/sh_shell.c ****             return (SHELL_ERR_NONE);
 156              		.loc 1 187 13 is_stmt 1 view .LVU27
 187:rtos/uC-Shell/Cmd/General/sh_shell.c ****             return (SHELL_ERR_NONE);
 157              		.loc 1 187 19 is_stmt 0 view .LVU28
 158 0066 7A68     		ldr	r2, [r7, #4]
 159 0068 0221     		movs	r1, #2
 160 006a 2046     		mov	r0, r4
 161 006c B047     		blx	r6
 162              	.LVL13:
 188:rtos/uC-Shell/Cmd/General/sh_shell.c ****         }
 163              		.loc 1 188 13 is_stmt 1 view .LVU29
 188:rtos/uC-Shell/Cmd/General/sh_shell.c ****         }
 164              		.loc 1 188 20 is_stmt 0 view .LVU30
 165 006e DAE7     		b	.L3
 166              	.LVL14:
 167              	.L15:
 193:rtos/uC-Shell/Cmd/General/sh_shell.c ****         (void)out_fnct(SH_SHELL_NEW_LINE,     2,                                          pcmd_para
 168              		.loc 1 193 9 is_stmt 1 view .LVU31
 193:rtos/uC-Shell/Cmd/General/sh_shell.c ****         (void)out_fnct(SH_SHELL_NEW_LINE,     2,                                          pcmd_para
 169              		.loc 1 193 59 is_stmt 0 view .LVU32
 170 0070 2E4C     		ldr	r4, .L16+4
 171 0072 2046     		mov	r0, r4
 172 0074 FFF7FEFF 		bl	Str_Len
 173              	.LVL15:
ARM GAS  /tmp/ccpSqYXX.s 			page 9


 193:rtos/uC-Shell/Cmd/General/sh_shell.c ****         (void)out_fnct(SH_SHELL_NEW_LINE,     2,                                          pcmd_para
 174              		.loc 1 193 15 view .LVU33
 175 0078 7A68     		ldr	r2, [r7, #4]
 176 007a 81B2     		uxth	r1, r0
 177 007c 2046     		mov	r0, r4
 178 007e B047     		blx	r6
 179              	.LVL16:
 194:rtos/uC-Shell/Cmd/General/sh_shell.c ****         return (SHELL_EXEC_ERR);
 180              		.loc 1 194 9 is_stmt 1 view .LVU34
 194:rtos/uC-Shell/Cmd/General/sh_shell.c ****         return (SHELL_EXEC_ERR);
 181              		.loc 1 194 15 is_stmt 0 view .LVU35
 182 0080 7A68     		ldr	r2, [r7, #4]
 183 0082 0221     		movs	r1, #2
 184 0084 2A48     		ldr	r0, .L16+8
 185 0086 B047     		blx	r6
 186              	.LVL17:
 195:rtos/uC-Shell/Cmd/General/sh_shell.c ****     }
 187              		.loc 1 195 9 is_stmt 1 view .LVU36
 195:rtos/uC-Shell/Cmd/General/sh_shell.c ****     }
 188              		.loc 1 195 16 is_stmt 0 view .LVU37
 189 0088 4FF0FF38 		mov	r8, #-1
 190 008c CBE7     		b	.L3
 191              	.L5:
 200:rtos/uC-Shell/Cmd/General/sh_shell.c ****              while (pmodule_cmd != (SHELL_MODULE_CMD *)0) {
 192              		.loc 1 200 14 is_stmt 1 view .LVU38
 200:rtos/uC-Shell/Cmd/General/sh_shell.c ****              while (pmodule_cmd != (SHELL_MODULE_CMD *)0) {
 193              		.loc 1 200 26 is_stmt 0 view .LVU39
 194 008e 2A4B     		ldr	r3, .L16+16
 195 0090 D3F80080 		ldr	r8, [r3]
 196              	.LVL18:
 201:rtos/uC-Shell/Cmd/General/sh_shell.c ****                  pcmd = pmodule_cmd->CmdTblPtr;
 197              		.loc 1 201 14 is_stmt 1 view .LVU40
 201:rtos/uC-Shell/Cmd/General/sh_shell.c ****                  pcmd = pmodule_cmd->CmdTblPtr;
 198              		.loc 1 201 20 is_stmt 0 view .LVU41
 199 0094 11E0     		b	.L7
 200              	.LVL19:
 201              	.L10:
 205:rtos/uC-Shell/Cmd/General/sh_shell.c ****                                         (CPU_INT16U)Str_Len(pcmd->Name),
 202              		.loc 1 205 26 is_stmt 1 view .LVU42
 205:rtos/uC-Shell/Cmd/General/sh_shell.c ****                                         (CPU_INT16U)Str_Len(pcmd->Name),
 203              		.loc 1 205 57 is_stmt 0 view .LVU43
 204 0096 54F8085B 		ldr	r5, [r4], #8
 205              	.LVL20:
 206:rtos/uC-Shell/Cmd/General/sh_shell.c ****                                                     pcmd_param->pout_opt);
 206              		.loc 1 206 53 view .LVU44
 207 009a 2846     		mov	r0, r5
 208 009c FFF7FEFF 		bl	Str_Len
 209              	.LVL21:
 205:rtos/uC-Shell/Cmd/General/sh_shell.c ****                                         (CPU_INT16U)Str_Len(pcmd->Name),
 210              		.loc 1 205 32 view .LVU45
 211 00a0 7A68     		ldr	r2, [r7, #4]
 212 00a2 81B2     		uxth	r1, r0
 213 00a4 2846     		mov	r0, r5
 214 00a6 B047     		blx	r6
 215              	.LVL22:
 208:rtos/uC-Shell/Cmd/General/sh_shell.c ****                          pcmd++;
 216              		.loc 1 208 26 is_stmt 1 view .LVU46
ARM GAS  /tmp/ccpSqYXX.s 			page 10


 208:rtos/uC-Shell/Cmd/General/sh_shell.c ****                          pcmd++;
 217              		.loc 1 208 32 is_stmt 0 view .LVU47
 218 00a8 7A68     		ldr	r2, [r7, #4]
 219 00aa 0221     		movs	r1, #2
 220 00ac 2048     		ldr	r0, .L16+8
 221 00ae B047     		blx	r6
 222              	.LVL23:
 209:rtos/uC-Shell/Cmd/General/sh_shell.c ****                      }
 223              		.loc 1 209 26 is_stmt 1 view .LVU48
 224              	.L8:
 204:rtos/uC-Shell/Cmd/General/sh_shell.c ****                          (void)out_fnct((CPU_CHAR *)pcmd->Name,
 225              		.loc 1 204 28 view .LVU49
 204:rtos/uC-Shell/Cmd/General/sh_shell.c ****                          (void)out_fnct((CPU_CHAR *)pcmd->Name,
 226              		.loc 1 204 33 is_stmt 0 view .LVU50
 227 00b0 6368     		ldr	r3, [r4, #4]
 204:rtos/uC-Shell/Cmd/General/sh_shell.c ****                          (void)out_fnct((CPU_CHAR *)pcmd->Name,
 228              		.loc 1 204 28 view .LVU51
 229 00b2 002B     		cmp	r3, #0
 230 00b4 EFD1     		bne	.L10
 231              	.L9:
 212:rtos/uC-Shell/Cmd/General/sh_shell.c ****              }
 232              		.loc 1 212 18 is_stmt 1 view .LVU52
 212:rtos/uC-Shell/Cmd/General/sh_shell.c ****              }
 233              		.loc 1 212 30 is_stmt 0 view .LVU53
 234 00b6 D8F80C80 		ldr	r8, [r8, #12]
 235              	.LVL24:
 236              	.L7:
 201:rtos/uC-Shell/Cmd/General/sh_shell.c ****                  pcmd = pmodule_cmd->CmdTblPtr;
 237              		.loc 1 201 20 is_stmt 1 view .LVU54
 238 00ba B8F1000F 		cmp	r8, #0
 239 00be B2D0     		beq	.L3
 202:rtos/uC-Shell/Cmd/General/sh_shell.c ****                  if (pcmd != (SHELL_CMD *)0) {
 240              		.loc 1 202 18 view .LVU55
 202:rtos/uC-Shell/Cmd/General/sh_shell.c ****                  if (pcmd != (SHELL_CMD *)0) {
 241              		.loc 1 202 23 is_stmt 0 view .LVU56
 242 00c0 D8F81040 		ldr	r4, [r8, #16]
 243              	.LVL25:
 203:rtos/uC-Shell/Cmd/General/sh_shell.c ****                      while (pcmd->Fnct != (SHELL_CMD_FNCT)0) {
 244              		.loc 1 203 18 is_stmt 1 view .LVU57
 203:rtos/uC-Shell/Cmd/General/sh_shell.c ****                      while (pcmd->Fnct != (SHELL_CMD_FNCT)0) {
 245              		.loc 1 203 21 is_stmt 0 view .LVU58
 246 00c4 002C     		cmp	r4, #0
 247 00c6 F6D0     		beq	.L9
 248 00c8 F2E7     		b	.L8
 249              	.LVL26:
 250              	.L6:
 217:rtos/uC-Shell/Cmd/General/sh_shell.c ****              Str_Cat(cmd_str, (CPU_CHAR *)" ");
 251              		.loc 1 217 14 is_stmt 1 view .LVU59
 252 00ca 6968     		ldr	r1, [r5, #4]
 253 00cc 01A8     		add	r0, sp, #4
 254 00ce FFF7FEFF 		bl	Str_Copy
 255              	.LVL27:
 218:rtos/uC-Shell/Cmd/General/sh_shell.c ****              Str_Cat(cmd_str, SH_SHELL_STR_HELP);
 256              		.loc 1 218 14 view .LVU60
 257 00d2 1A49     		ldr	r1, .L16+20
 258 00d4 01A8     		add	r0, sp, #4
 259 00d6 FFF7FEFF 		bl	Str_Cat
ARM GAS  /tmp/ccpSqYXX.s 			page 11


 260              	.LVL28:
 219:rtos/uC-Shell/Cmd/General/sh_shell.c **** 
 261              		.loc 1 219 14 view .LVU61
 262 00da 1349     		ldr	r1, .L16
 263 00dc 01A8     		add	r0, sp, #4
 264 00de FFF7FEFF 		bl	Str_Cat
 265              	.LVL29:
 221:rtos/uC-Shell/Cmd/General/sh_shell.c **** 
 266              		.loc 1 221 14 view .LVU62
 267 00e2 0DF10203 		add	r3, sp, #2
 268 00e6 3A46     		mov	r2, r7
 269 00e8 3146     		mov	r1, r6
 270 00ea 01A8     		add	r0, sp, #4
 271 00ec FFF7FEFF 		bl	Shell_Exec
 272              	.LVL30:
 223:rtos/uC-Shell/Cmd/General/sh_shell.c ****                 case SHELL_ERR_CMD_NOT_FOUND:
 273              		.loc 1 223 14 view .LVU63
 274 00f0 BDF80230 		ldrh	r3, [sp, #2]
 275 00f4 0A3B     		subs	r3, r3, #10
 276 00f6 022B     		cmp	r3, #2
 277 00f8 12D8     		bhi	.L12
 227:rtos/uC-Shell/Cmd/General/sh_shell.c ****                      (void)out_fnct(argv[1],                                (CPU_INT16U)Str_Len(arg
 278              		.loc 1 227 22 view .LVU64
 227:rtos/uC-Shell/Cmd/General/sh_shell.c ****                      (void)out_fnct(argv[1],                                (CPU_INT16U)Str_Len(arg
 279              		.loc 1 227 28 is_stmt 0 view .LVU65
 280 00fa 7A68     		ldr	r2, [r7, #4]
 281 00fc 1921     		movs	r1, #25
 282 00fe 1048     		ldr	r0, .L16+24
 283 0100 B047     		blx	r6
 284              	.LVL31:
 228:rtos/uC-Shell/Cmd/General/sh_shell.c ****                      (void)out_fnct(SH_SHELL_NEW_LINE,                      2,                     
 285              		.loc 1 228 22 is_stmt 1 view .LVU66
 228:rtos/uC-Shell/Cmd/General/sh_shell.c ****                      (void)out_fnct(SH_SHELL_NEW_LINE,                      2,                     
 286              		.loc 1 228 28 is_stmt 0 view .LVU67
 287 0102 6C68     		ldr	r4, [r5, #4]
 228:rtos/uC-Shell/Cmd/General/sh_shell.c ****                      (void)out_fnct(SH_SHELL_NEW_LINE,                      2,                     
 288              		.loc 1 228 89 view .LVU68
 289 0104 2046     		mov	r0, r4
 290 0106 FFF7FEFF 		bl	Str_Len
 291              	.LVL32:
 228:rtos/uC-Shell/Cmd/General/sh_shell.c ****                      (void)out_fnct(SH_SHELL_NEW_LINE,                      2,                     
 292              		.loc 1 228 28 view .LVU69
 293 010a 7A68     		ldr	r2, [r7, #4]
 294 010c 81B2     		uxth	r1, r0
 295 010e 2046     		mov	r0, r4
 296 0110 B047     		blx	r6
 297              	.LVL33:
 229:rtos/uC-Shell/Cmd/General/sh_shell.c ****                      break;
 298              		.loc 1 229 22 is_stmt 1 view .LVU70
 229:rtos/uC-Shell/Cmd/General/sh_shell.c ****                      break;
 299              		.loc 1 229 28 is_stmt 0 view .LVU71
 300 0112 7A68     		ldr	r2, [r7, #4]
 301 0114 0221     		movs	r1, #2
 302 0116 0648     		ldr	r0, .L16+8
 303 0118 B047     		blx	r6
 304              	.LVL34:
 230:rtos/uC-Shell/Cmd/General/sh_shell.c **** 
ARM GAS  /tmp/ccpSqYXX.s 			page 12


 305              		.loc 1 230 22 is_stmt 1 view .LVU72
 244:rtos/uC-Shell/Cmd/General/sh_shell.c **** }
 306              		.loc 1 244 12 is_stmt 0 view .LVU73
 307 011a 4FF00008 		mov	r8, #0
 230:rtos/uC-Shell/Cmd/General/sh_shell.c **** 
 308              		.loc 1 230 22 view .LVU74
 309 011e 82E7     		b	.L3
 310              	.L12:
 244:rtos/uC-Shell/Cmd/General/sh_shell.c **** }
 311              		.loc 1 244 12 view .LVU75
 312 0120 4FF00008 		mov	r8, #0
 313 0124 7FE7     		b	.L3
 314              	.L17:
 315 0126 00BF     		.align	2
 316              	.L16:
 317 0128 00000000 		.word	.LC0
 318 012c 04000000 		.word	.LC1
 319 0130 40000000 		.word	.LC2
 320 0134 44000000 		.word	.LC3
 321 0138 00000000 		.word	Shell_ModuleCmdUsedPoolPtr
 322 013c 8C000000 		.word	.LC4
 323 0140 90000000 		.word	.LC5
 324              		.cfi_endproc
 325              	.LFE1:
 327              		.section	.rodata.ShShell_Init.str1.4,"aMS",%progbits,1
 328              		.align	2
 329              	.LC6:
 330 0000 536800   		.ascii	"Sh\000"
 331              		.section	.text.ShShell_Init,"ax",%progbits
 332              		.align	1
 333              		.global	ShShell_Init
 334              		.syntax unified
 335              		.thumb
 336              		.thumb_func
 337              		.fpu fpv4-sp-d16
 339              	ShShell_Init:
 340              	.LFB0:
 128:rtos/uC-Shell/Cmd/General/sh_shell.c ****     SHELL_ERR    err;
 341              		.loc 1 128 1 is_stmt 1 view -0
 342              		.cfi_startproc
 343              		@ args = 0, pretend = 0, frame = 8
 344              		@ frame_needed = 0, uses_anonymous_args = 0
 345 0000 00B5     		push	{lr}
 346              	.LCFI4:
 347              		.cfi_def_cfa_offset 4
 348              		.cfi_offset 14, -4
 349 0002 83B0     		sub	sp, sp, #12
 350              	.LCFI5:
 351              		.cfi_def_cfa_offset 16
 129:rtos/uC-Shell/Cmd/General/sh_shell.c ****     CPU_BOOLEAN  ok;
 352              		.loc 1 129 5 view .LVU77
 130:rtos/uC-Shell/Cmd/General/sh_shell.c **** 
 353              		.loc 1 130 5 view .LVU78
 133:rtos/uC-Shell/Cmd/General/sh_shell.c **** 
 354              		.loc 1 133 5 view .LVU79
 355 0004 0DF10602 		add	r2, sp, #6
 356 0008 0649     		ldr	r1, .L22
ARM GAS  /tmp/ccpSqYXX.s 			page 13


 357 000a 0748     		ldr	r0, .L22+4
 358 000c FFF7FEFF 		bl	Shell_CmdTblAdd
 359              	.LVL35:
 135:rtos/uC-Shell/Cmd/General/sh_shell.c ****     return (ok);
 360              		.loc 1 135 5 view .LVU80
 135:rtos/uC-Shell/Cmd/General/sh_shell.c ****     return (ok);
 361              		.loc 1 135 15 is_stmt 0 view .LVU81
 362 0010 BDF80630 		ldrh	r3, [sp, #6]
 135:rtos/uC-Shell/Cmd/General/sh_shell.c ****     return (ok);
 363              		.loc 1 135 8 view .LVU82
 364 0014 1BB9     		cbnz	r3, .L20
 365 0016 0120     		movs	r0, #1
 366              	.L19:
 367              	.LVL36:
 136:rtos/uC-Shell/Cmd/General/sh_shell.c **** }
 368              		.loc 1 136 5 is_stmt 1 discriminator 4 view .LVU83
 137:rtos/uC-Shell/Cmd/General/sh_shell.c **** 
 369              		.loc 1 137 1 is_stmt 0 discriminator 4 view .LVU84
 370 0018 03B0     		add	sp, sp, #12
 371              	.LCFI6:
 372              		.cfi_remember_state
 373              		.cfi_def_cfa_offset 4
 374              		@ sp needed
 375 001a 5DF804FB 		ldr	pc, [sp], #4
 376              	.LVL37:
 377              	.L20:
 378              	.LCFI7:
 379              		.cfi_restore_state
 135:rtos/uC-Shell/Cmd/General/sh_shell.c ****     return (ok);
 380              		.loc 1 135 8 view .LVU85
 381 001e 0020     		movs	r0, #0
 382 0020 FAE7     		b	.L19
 383              	.L23:
 384 0022 00BF     		.align	2
 385              	.L22:
 386 0024 00000000 		.word	.LANCHOR0
 387 0028 00000000 		.word	.LC6
 388              		.cfi_endproc
 389              	.LFE0:
 391              		.section	.rodata.str1.4,"aMS",%progbits,1
 392              		.align	2
 393              	.LC7:
 394 0000 53685F68 		.ascii	"Sh_help\000"
 394      656C7000 
 395              		.section	.data.ShShell_CmdTbl,"aw"
 396              		.align	2
 397              		.set	.LANCHOR0,. + 0
 400              	ShShell_CmdTbl:
 401 0000 00000000 		.word	.LC7
 402 0004 00000000 		.word	ShShell_help
 403 0008 00000000 		.word	0
 404 000c 00000000 		.word	0
 405              		.text
 406              	.Letext0:
 407              		.file 2 "rtos/uC-CPU/ARM-Cortex-M/ARMv7-M/GNU/cpu.h"
 408              		.file 3 "rtos/uC-Shell/Source/shell.h"
 409              		.file 4 "rtos/uC-LIB/lib_str.h"
ARM GAS  /tmp/ccpSqYXX.s 			page 14


ARM GAS  /tmp/ccpSqYXX.s 			page 15

