ARM GAS  /tmp/cciSp153.s 			page 1


   1              		.cpu cortex-m4
   2              		.eabi_attribute 27, 1
   3              		.eabi_attribute 28, 1
   4              		.eabi_attribute 20, 1
   5              		.eabi_attribute 21, 1
   6              		.eabi_attribute 23, 3
   7              		.eabi_attribute 24, 1
   8              		.eabi_attribute 25, 1
   9              		.eabi_attribute 26, 1
  10              		.eabi_attribute 30, 1
  11              		.eabi_attribute 34, 1
  12              		.eabi_attribute 18, 4
  13              		.file	"shell.c"
  14              		.text
  15              	.Ltext0:
  16              		.cfi_sections	.debug_frame
  17              		.section	.text.Shell_Scanner,"ax",%progbits
  18              		.align	1
  19              		.arch armv7e-m
  20              		.syntax unified
  21              		.thumb
  22              		.thumb_func
  23              		.fpu fpv4-sp-d16
  25              	Shell_Scanner:
  26              	.LVL0:
  27              	.LFB4:
  28              		.file 1 "rtos/uC-Shell/Source/shell.c"
   1:rtos/uC-Shell/Source/shell.c **** /*
   2:rtos/uC-Shell/Source/shell.c **** ***************************************************************************************************
   3:rtos/uC-Shell/Source/shell.c **** *                                              uC/Shell
   4:rtos/uC-Shell/Source/shell.c **** *                                            Shell Utility
   5:rtos/uC-Shell/Source/shell.c **** *
   6:rtos/uC-Shell/Source/shell.c **** *                          (c) Copyright 2007-2013; Micrium, Inc.; Weston, FL
   7:rtos/uC-Shell/Source/shell.c **** *
   8:rtos/uC-Shell/Source/shell.c **** *               All rights reserved.  Protected by international copyright laws.
   9:rtos/uC-Shell/Source/shell.c **** *
  10:rtos/uC-Shell/Source/shell.c **** *               uC/Shell is provided in source form to registered licensees ONLY.  It is
  11:rtos/uC-Shell/Source/shell.c **** *               illegal to distribute this source code to any third party unless you receive
  12:rtos/uC-Shell/Source/shell.c **** *               written permission by an authorized Micrium representative.  Knowledge of
  13:rtos/uC-Shell/Source/shell.c **** *               the source code may NOT be used to develop a similar product.
  14:rtos/uC-Shell/Source/shell.c **** *
  15:rtos/uC-Shell/Source/shell.c **** *               Please help us continue to provide the Embedded community with the finest
  16:rtos/uC-Shell/Source/shell.c **** *               software available.  Your honesty is greatly appreciated.
  17:rtos/uC-Shell/Source/shell.c **** *
  18:rtos/uC-Shell/Source/shell.c **** *               You can contact us at www.micrium.com.
  19:rtos/uC-Shell/Source/shell.c **** ***************************************************************************************************
  20:rtos/uC-Shell/Source/shell.c **** */
  21:rtos/uC-Shell/Source/shell.c **** 
  22:rtos/uC-Shell/Source/shell.c **** /*
  23:rtos/uC-Shell/Source/shell.c **** ***************************************************************************************************
  24:rtos/uC-Shell/Source/shell.c **** *
  25:rtos/uC-Shell/Source/shell.c **** *                                            SHELL UTILITY
  26:rtos/uC-Shell/Source/shell.c **** *
  27:rtos/uC-Shell/Source/shell.c **** * Filename      : shell.c
  28:rtos/uC-Shell/Source/shell.c **** * Version       : V1.03.01
  29:rtos/uC-Shell/Source/shell.c **** * Programmer(s) : SR
  30:rtos/uC-Shell/Source/shell.c **** *                 FBJ
ARM GAS  /tmp/cciSp153.s 			page 2


  31:rtos/uC-Shell/Source/shell.c **** ***************************************************************************************************
  32:rtos/uC-Shell/Source/shell.c **** * 
  33:rtos/uC-Shell/Source/shell.c **** *
  34:rtos/uC-Shell/Source/shell.c **** *
  35:rtos/uC-Shell/Source/shell.c **** ***************************************************************************************************
  36:rtos/uC-Shell/Source/shell.c **** */
  37:rtos/uC-Shell/Source/shell.c **** 
  38:rtos/uC-Shell/Source/shell.c **** /*
  39:rtos/uC-Shell/Source/shell.c **** ***************************************************************************************************
  40:rtos/uC-Shell/Source/shell.c **** *                                             INCLUDE FILES
  41:rtos/uC-Shell/Source/shell.c **** ***************************************************************************************************
  42:rtos/uC-Shell/Source/shell.c **** */
  43:rtos/uC-Shell/Source/shell.c **** 
  44:rtos/uC-Shell/Source/shell.c **** #define    SHELL_MODULE
  45:rtos/uC-Shell/Source/shell.c **** #include  <shell.h>
  46:rtos/uC-Shell/Source/shell.c **** 
  47:rtos/uC-Shell/Source/shell.c **** #include  <lib_def.h>
  48:rtos/uC-Shell/Source/shell.c **** 
  49:rtos/uC-Shell/Source/shell.c **** 
  50:rtos/uC-Shell/Source/shell.c **** /*
  51:rtos/uC-Shell/Source/shell.c **** ***************************************************************************************************
  52:rtos/uC-Shell/Source/shell.c **** *                                            LOCAL DEFINES
  53:rtos/uC-Shell/Source/shell.c **** ***************************************************************************************************
  54:rtos/uC-Shell/Source/shell.c **** */
  55:rtos/uC-Shell/Source/shell.c **** 
  56:rtos/uC-Shell/Source/shell.c **** 
  57:rtos/uC-Shell/Source/shell.c **** /*
  58:rtos/uC-Shell/Source/shell.c **** ***************************************************************************************************
  59:rtos/uC-Shell/Source/shell.c **** *                                           LOCAL CONSTANTS
  60:rtos/uC-Shell/Source/shell.c **** ***************************************************************************************************
  61:rtos/uC-Shell/Source/shell.c **** */
  62:rtos/uC-Shell/Source/shell.c **** 
  63:rtos/uC-Shell/Source/shell.c **** 
  64:rtos/uC-Shell/Source/shell.c **** /*
  65:rtos/uC-Shell/Source/shell.c **** ***************************************************************************************************
  66:rtos/uC-Shell/Source/shell.c **** *                                          LOCAL DATA TYPES
  67:rtos/uC-Shell/Source/shell.c **** ***************************************************************************************************
  68:rtos/uC-Shell/Source/shell.c **** */
  69:rtos/uC-Shell/Source/shell.c **** 
  70:rtos/uC-Shell/Source/shell.c **** 
  71:rtos/uC-Shell/Source/shell.c **** /*
  72:rtos/uC-Shell/Source/shell.c **** ***************************************************************************************************
  73:rtos/uC-Shell/Source/shell.c **** *                                            LOCAL TABLES
  74:rtos/uC-Shell/Source/shell.c **** ***************************************************************************************************
  75:rtos/uC-Shell/Source/shell.c **** */
  76:rtos/uC-Shell/Source/shell.c **** 
  77:rtos/uC-Shell/Source/shell.c **** 
  78:rtos/uC-Shell/Source/shell.c **** /*
  79:rtos/uC-Shell/Source/shell.c **** ***************************************************************************************************
  80:rtos/uC-Shell/Source/shell.c **** *                                       LOCAL GLOBAL VARIABLES
  81:rtos/uC-Shell/Source/shell.c **** ***************************************************************************************************
  82:rtos/uC-Shell/Source/shell.c **** */
  83:rtos/uC-Shell/Source/shell.c **** 
  84:rtos/uC-Shell/Source/shell.c **** 
  85:rtos/uC-Shell/Source/shell.c **** /*
  86:rtos/uC-Shell/Source/shell.c **** ***************************************************************************************************
  87:rtos/uC-Shell/Source/shell.c **** *                                           INITIALIZED DATA
ARM GAS  /tmp/cciSp153.s 			page 3


  88:rtos/uC-Shell/Source/shell.c **** ***************************************************************************************************
  89:rtos/uC-Shell/Source/shell.c **** */
  90:rtos/uC-Shell/Source/shell.c **** 
  91:rtos/uC-Shell/Source/shell.c **** 
  92:rtos/uC-Shell/Source/shell.c **** /*
  93:rtos/uC-Shell/Source/shell.c **** ***************************************************************************************************
  94:rtos/uC-Shell/Source/shell.c **** *                                      LOCAL FUNCTION PROTOTYPES
  95:rtos/uC-Shell/Source/shell.c **** ***************************************************************************************************
  96:rtos/uC-Shell/Source/shell.c **** */
  97:rtos/uC-Shell/Source/shell.c **** 
  98:rtos/uC-Shell/Source/shell.c **** static  CPU_INT16U      Shell_Scanner          (CPU_CHAR           *in,
  99:rtos/uC-Shell/Source/shell.c ****                                                 CPU_CHAR           *arg_tbl[],
 100:rtos/uC-Shell/Source/shell.c ****                                                 CPU_INT16U          arg_tbl_size,
 101:rtos/uC-Shell/Source/shell.c ****                                                 SHELL_ERR          *perr);
 102:rtos/uC-Shell/Source/shell.c **** 
 103:rtos/uC-Shell/Source/shell.c **** static  SHELL_CMD_FNCT  Shell_CmdSearch        (CPU_CHAR           *cmd_name,
 104:rtos/uC-Shell/Source/shell.c ****                                                 SHELL_ERR          *perr);
 105:rtos/uC-Shell/Source/shell.c **** 
 106:rtos/uC-Shell/Source/shell.c **** static  void            Shell_ModuleCmdNameGet (CPU_CHAR           *cmd_name,
 107:rtos/uC-Shell/Source/shell.c ****                                                 CPU_CHAR            module_cmd_name[],
 108:rtos/uC-Shell/Source/shell.c ****                                                 CPU_INT16U          len,
 109:rtos/uC-Shell/Source/shell.c ****                                                 SHELL_ERR          *perr);
 110:rtos/uC-Shell/Source/shell.c **** 
 111:rtos/uC-Shell/Source/shell.c **** static  void            Shell_ModuleCmdClr      (SHELL_MODULE_CMD  *pmodule_cmd);
 112:rtos/uC-Shell/Source/shell.c **** 
 113:rtos/uC-Shell/Source/shell.c **** 
 114:rtos/uC-Shell/Source/shell.c **** /*
 115:rtos/uC-Shell/Source/shell.c **** ***************************************************************************************************
 116:rtos/uC-Shell/Source/shell.c **** *                                     LOCAL CONFIGURATION ERRORS
 117:rtos/uC-Shell/Source/shell.c **** ***************************************************************************************************
 118:rtos/uC-Shell/Source/shell.c **** */
 119:rtos/uC-Shell/Source/shell.c **** 
 120:rtos/uC-Shell/Source/shell.c **** 
 121:rtos/uC-Shell/Source/shell.c **** /*
 122:rtos/uC-Shell/Source/shell.c **** ***************************************************************************************************
 123:rtos/uC-Shell/Source/shell.c **** *                                             Shell_Init()
 124:rtos/uC-Shell/Source/shell.c **** *
 125:rtos/uC-Shell/Source/shell.c **** * Description : Initialize the shell.
 126:rtos/uC-Shell/Source/shell.c **** *
 127:rtos/uC-Shell/Source/shell.c **** * Arguments   : none.
 128:rtos/uC-Shell/Source/shell.c **** *
 129:rtos/uC-Shell/Source/shell.c **** * Returns     : DEF_OK          Shell initialization successful.
 130:rtos/uC-Shell/Source/shell.c **** *               DEF_FAIL        Shell server initialization failed.
 131:rtos/uC-Shell/Source/shell.c **** *
 132:rtos/uC-Shell/Source/shell.c **** * Caller(s)   : Your Product's Application.
 133:rtos/uC-Shell/Source/shell.c **** *
 134:rtos/uC-Shell/Source/shell.c **** *               This function is a Shell initialization function & MAY be called by
 135:rtos/uC-Shell/Source/shell.c **** *               application/initialization function(s).
 136:rtos/uC-Shell/Source/shell.c **** *
 137:rtos/uC-Shell/Source/shell.c **** * Note(s)     : (1) Shell_Init() MUST be called ...
 138:rtos/uC-Shell/Source/shell.c **** *
 139:rtos/uC-Shell/Source/shell.c **** *                   (a) BEFORE the other Shell function are invoked.
 140:rtos/uC-Shell/Source/shell.c **** *
 141:rtos/uC-Shell/Source/shell.c **** *               (2) Shell_Init() MUST ONLY be called ONCE from product's application.
 142:rtos/uC-Shell/Source/shell.c **** *
 143:rtos/uC-Shell/Source/shell.c **** *               (3) Module command pools MUST be initialized PRIOR to initializing the pool with 
 144:rtos/uC-Shell/Source/shell.c **** *                   pointers to module commands.
ARM GAS  /tmp/cciSp153.s 			page 4


 145:rtos/uC-Shell/Source/shell.c **** ***************************************************************************************************
 146:rtos/uC-Shell/Source/shell.c **** */
 147:rtos/uC-Shell/Source/shell.c **** 
 148:rtos/uC-Shell/Source/shell.c **** CPU_BOOLEAN  Shell_Init (void)
 149:rtos/uC-Shell/Source/shell.c **** {
 150:rtos/uC-Shell/Source/shell.c ****     CPU_INT16U         i;
 151:rtos/uC-Shell/Source/shell.c ****     SHELL_MODULE_CMD  *pmodule_cmd;
 152:rtos/uC-Shell/Source/shell.c **** 
 153:rtos/uC-Shell/Source/shell.c **** 
 154:rtos/uC-Shell/Source/shell.c ****                                                                 /* ---------------- INIT SHELL CMD 
 155:rtos/uC-Shell/Source/shell.c ****     Shell_ModuleCmdUsedPoolPtr = DEF_NULL;                      /* Init-clr module cmd pools    (se
 156:rtos/uC-Shell/Source/shell.c ****     Shell_ModuleCmdFreePoolPtr = DEF_NULL;
 157:rtos/uC-Shell/Source/shell.c ****     
 158:rtos/uC-Shell/Source/shell.c ****     pmodule_cmd = &Shell_ModuleCmdTbl[0];
 159:rtos/uC-Shell/Source/shell.c ****     for (i = 0; i < SHELL_CFG_CMD_TBL_SIZE; i++) {              /* Free each module cmd to pool (se
 160:rtos/uC-Shell/Source/shell.c ****         Shell_ModuleCmdClr(pmodule_cmd);
 161:rtos/uC-Shell/Source/shell.c **** 
 162:rtos/uC-Shell/Source/shell.c ****                                                                 /* Init doubly-linked list.        
 163:rtos/uC-Shell/Source/shell.c ****         pmodule_cmd->PrevModuleCmdPtr = DEF_NULL;
 164:rtos/uC-Shell/Source/shell.c ****         pmodule_cmd->NextModuleCmdPtr = Shell_ModuleCmdFreePoolPtr;
 165:rtos/uC-Shell/Source/shell.c **** 
 166:rtos/uC-Shell/Source/shell.c ****         if (Shell_ModuleCmdFreePoolPtr != DEF_NULL) {
 167:rtos/uC-Shell/Source/shell.c ****             Shell_ModuleCmdFreePoolPtr->PrevModuleCmdPtr = pmodule_cmd;
 168:rtos/uC-Shell/Source/shell.c ****         }
 169:rtos/uC-Shell/Source/shell.c **** 
 170:rtos/uC-Shell/Source/shell.c ****         Shell_ModuleCmdFreePoolPtr = pmodule_cmd;
 171:rtos/uC-Shell/Source/shell.c **** 
 172:rtos/uC-Shell/Source/shell.c **** 
 173:rtos/uC-Shell/Source/shell.c ****         pmodule_cmd++;
 174:rtos/uC-Shell/Source/shell.c ****     }
 175:rtos/uC-Shell/Source/shell.c ****     
 176:rtos/uC-Shell/Source/shell.c ****     return (DEF_OK);
 177:rtos/uC-Shell/Source/shell.c **** }
 178:rtos/uC-Shell/Source/shell.c **** 
 179:rtos/uC-Shell/Source/shell.c **** 
 180:rtos/uC-Shell/Source/shell.c **** /*
 181:rtos/uC-Shell/Source/shell.c **** ***************************************************************************************************
 182:rtos/uC-Shell/Source/shell.c **** *                                             Shell_Exec()
 183:rtos/uC-Shell/Source/shell.c **** *
 184:rtos/uC-Shell/Source/shell.c **** * Description : (1) Parse and execute command passed in parameter :
 185:rtos/uC-Shell/Source/shell.c **** *
 186:rtos/uC-Shell/Source/shell.c **** *                   (a) Parse input string
 187:rtos/uC-Shell/Source/shell.c **** *                   (b) Search  command
 188:rtos/uC-Shell/Source/shell.c **** *                   (c) Execute command
 189:rtos/uC-Shell/Source/shell.c **** *
 190:rtos/uC-Shell/Source/shell.c **** *
 191:rtos/uC-Shell/Source/shell.c **** * Argument(s) : in              Pointer to a CPU_CHAR string holding a complete command and its arg
 192:rtos/uC-Shell/Source/shell.c **** *               out_funt        Pointer to 'output' function used by command (see Note #1).
 193:rtos/uC-Shell/Source/shell.c **** *               pcmd_param      Pointer to command additional parameters.
 194:rtos/uC-Shell/Source/shell.c **** *               perr            Pointer to variable that will receive the return error code from th
 195:rtos/uC-Shell/Source/shell.c **** *                               function :
 196:rtos/uC-Shell/Source/shell.c **** *
 197:rtos/uC-Shell/Source/shell.c **** *                               SHELL_ERR_NONE              No error. 
 198:rtos/uC-Shell/Source/shell.c **** *                               SHELL_ERR_NULL_PTR          Argument 'in'       passed a NULL point
 199:rtos/uC-Shell/Source/shell.c **** *                               SHELL_ERR_CMD_NOT_FOUND     Command NOT found.
 200:rtos/uC-Shell/Source/shell.c **** *                               SHELL_ERR_CMD_SEARCH        Error searching for command.
 201:rtos/uC-Shell/Source/shell.c **** *                               SHELL_ERR_CMD_EXEC          Error executing     command.
ARM GAS  /tmp/cciSp153.s 			page 5


 202:rtos/uC-Shell/Source/shell.c **** *
 203:rtos/uC-Shell/Source/shell.c **** *                                                                       ----- RETURNED BY Shell_Sca
 204:rtos/uC-Shell/Source/shell.c **** *                               SHELL_ERR_ARG_TBL_FULL      Argument table full and token still to 
 205:rtos/uC-Shell/Source/shell.c **** *
 206:rtos/uC-Shell/Source/shell.c **** * Return(s)   : Command specific return value.
 207:rtos/uC-Shell/Source/shell.c **** *
 208:rtos/uC-Shell/Source/shell.c **** * Caller(s)   : Application.
 209:rtos/uC-Shell/Source/shell.c **** *
 210:rtos/uC-Shell/Source/shell.c **** * Note(s)     : (1) The command may generate some output that should be transmitted to some device 
 211:rtos/uC-Shell/Source/shell.c **** *                   RS-232 link, ...).  The caller of this function is hence responsible for the
 212:rtos/uC-Shell/Source/shell.c **** *                   implementation of such function, if output is desired.
 213:rtos/uC-Shell/Source/shell.c **** ***************************************************************************************************
 214:rtos/uC-Shell/Source/shell.c **** */
 215:rtos/uC-Shell/Source/shell.c **** 
 216:rtos/uC-Shell/Source/shell.c **** CPU_INT16S  Shell_Exec (CPU_CHAR         *in,
 217:rtos/uC-Shell/Source/shell.c ****                         SHELL_OUT_FNCT    out_fnct,
 218:rtos/uC-Shell/Source/shell.c ****                         SHELL_CMD_PARAM  *pcmd_param,
 219:rtos/uC-Shell/Source/shell.c ****                         SHELL_ERR        *perr)
 220:rtos/uC-Shell/Source/shell.c **** {
 221:rtos/uC-Shell/Source/shell.c ****     CPU_INT16U      argc;    
 222:rtos/uC-Shell/Source/shell.c ****     CPU_CHAR       *argv[SHELL_CFG_CMD_ARG_NBR_MAX];
 223:rtos/uC-Shell/Source/shell.c ****     SHELL_CMD_FNCT  cmd_fnct;
 224:rtos/uC-Shell/Source/shell.c ****     CPU_INT16S      ret_val;
 225:rtos/uC-Shell/Source/shell.c **** 
 226:rtos/uC-Shell/Source/shell.c **** 
 227:rtos/uC-Shell/Source/shell.c ****                                                                 /* ------------------- VALIDATE PTR
 228:rtos/uC-Shell/Source/shell.c ****     if (in == DEF_NULL) {
 229:rtos/uC-Shell/Source/shell.c ****        *perr = SHELL_ERR_NULL_PTR;
 230:rtos/uC-Shell/Source/shell.c ****         return (0);
 231:rtos/uC-Shell/Source/shell.c ****     }
 232:rtos/uC-Shell/Source/shell.c **** 
 233:rtos/uC-Shell/Source/shell.c **** 
 234:rtos/uC-Shell/Source/shell.c ****                                                                 /* ------------------ PARSE INPUT S
 235:rtos/uC-Shell/Source/shell.c ****     argc = Shell_Scanner(in,
 236:rtos/uC-Shell/Source/shell.c ****                          argv,
 237:rtos/uC-Shell/Source/shell.c ****                          SHELL_CFG_CMD_ARG_NBR_MAX,
 238:rtos/uC-Shell/Source/shell.c ****                          perr);
 239:rtos/uC-Shell/Source/shell.c **** 
 240:rtos/uC-Shell/Source/shell.c ****     if (*perr != SHELL_ERR_NONE) {
 241:rtos/uC-Shell/Source/shell.c ****         return (0);
 242:rtos/uC-Shell/Source/shell.c ****     } else if (argc == 0) {
 243:rtos/uC-Shell/Source/shell.c ****        *perr = SHELL_ERR_MODULE_CMD_EMPTY;
 244:rtos/uC-Shell/Source/shell.c ****         return (0);
 245:rtos/uC-Shell/Source/shell.c ****     }
 246:rtos/uC-Shell/Source/shell.c **** 
 247:rtos/uC-Shell/Source/shell.c **** 
 248:rtos/uC-Shell/Source/shell.c ****                                                                 /* -------------------- SEARCH CMD 
 249:rtos/uC-Shell/Source/shell.c ****     cmd_fnct = Shell_CmdSearch(argv[0], perr);
 250:rtos/uC-Shell/Source/shell.c ****     switch (*perr) {
 251:rtos/uC-Shell/Source/shell.c ****         case SHELL_ERR_NONE:
 252:rtos/uC-Shell/Source/shell.c ****              break;
 253:rtos/uC-Shell/Source/shell.c **** 
 254:rtos/uC-Shell/Source/shell.c ****         case SHELL_ERR_MODULE_CMD_NOT_FOUND:
 255:rtos/uC-Shell/Source/shell.c ****         case SHELL_ERR_CMD_NOT_FOUND:
 256:rtos/uC-Shell/Source/shell.c ****         case SHELL_ERR_MODULE_CMD_NAME_NONE:
 257:rtos/uC-Shell/Source/shell.c ****         case SHELL_ERR_MODULE_CMD_NAME_TOO_LONG:
 258:rtos/uC-Shell/Source/shell.c ****             *perr = SHELL_ERR_CMD_NOT_FOUND;
ARM GAS  /tmp/cciSp153.s 			page 6


 259:rtos/uC-Shell/Source/shell.c ****              return (0);
 260:rtos/uC-Shell/Source/shell.c **** 
 261:rtos/uC-Shell/Source/shell.c ****         case SHELL_ERR_MODULE_CMD_NAME_COPY:
 262:rtos/uC-Shell/Source/shell.c ****         default:
 263:rtos/uC-Shell/Source/shell.c ****             *perr = SHELL_ERR_CMD_SEARCH;
 264:rtos/uC-Shell/Source/shell.c ****              return (0);
 265:rtos/uC-Shell/Source/shell.c ****     }
 266:rtos/uC-Shell/Source/shell.c **** 
 267:rtos/uC-Shell/Source/shell.c **** 
 268:rtos/uC-Shell/Source/shell.c ****                                                                 /* -------------------- EXECUTE CMD
 269:rtos/uC-Shell/Source/shell.c ****     ret_val = cmd_fnct(argc, argv, out_fnct, pcmd_param);
 270:rtos/uC-Shell/Source/shell.c ****     
 271:rtos/uC-Shell/Source/shell.c ****     if (ret_val == SHELL_EXEC_ERR) {
 272:rtos/uC-Shell/Source/shell.c ****        *perr = SHELL_ERR_CMD_EXEC;
 273:rtos/uC-Shell/Source/shell.c ****     }
 274:rtos/uC-Shell/Source/shell.c **** 
 275:rtos/uC-Shell/Source/shell.c ****     return (ret_val);
 276:rtos/uC-Shell/Source/shell.c **** }
 277:rtos/uC-Shell/Source/shell.c **** 
 278:rtos/uC-Shell/Source/shell.c **** 
 279:rtos/uC-Shell/Source/shell.c **** /*
 280:rtos/uC-Shell/Source/shell.c **** ***************************************************************************************************
 281:rtos/uC-Shell/Source/shell.c **** *                                           Shell_CmdTblAdd()
 282:rtos/uC-Shell/Source/shell.c **** *
 283:rtos/uC-Shell/Source/shell.c **** * Description : (1) Allocate & initialize a module command :
 284:rtos/uC-Shell/Source/shell.c **** *
 285:rtos/uC-Shell/Source/shell.c **** *                   (a) Validate   module command
 286:rtos/uC-Shell/Source/shell.c **** *                   (b) Get a free module command
 287:rtos/uC-Shell/Source/shell.c **** *                   (c) Initialize module command
 288:rtos/uC-Shell/Source/shell.c **** *                   (d) Add to     module command used pool.
 289:rtos/uC-Shell/Source/shell.c **** *
 290:rtos/uC-Shell/Source/shell.c **** *               (2) The module command pools are implemented as doubly-linked lists :
 291:rtos/uC-Shell/Source/shell.c **** *
 292:rtos/uC-Shell/Source/shell.c **** *                   (a) 'Shell_ModuleCmdUsedPoolPtr' and 'Shell_ModuleCmdFreePoolPtr' point to the 
 293:rtos/uC-Shell/Source/shell.c **** *                       their module command pool.
 294:rtos/uC-Shell/Source/shell.c **** *
 295:rtos/uC-Shell/Source/shell.c **** *                   (b) Module command NextModuleCmdPtr's and PrevModuleCmdPtr's link each command 
 296:rtos/uC-Shell/Source/shell.c **** *                       the module command pool doubly-linked list.
 297:rtos/uC-Shell/Source/shell.c **** *
 298:rtos/uC-Shell/Source/shell.c **** *                   (c) Module command are inserted & removed at the head of the module command poo
 299:rtos/uC-Shell/Source/shell.c **** *
 300:rtos/uC-Shell/Source/shell.c **** *
 301:rtos/uC-Shell/Source/shell.c **** *                                    Module commands are
 302:rtos/uC-Shell/Source/shell.c **** *                                    inserted & removed
 303:rtos/uC-Shell/Source/shell.c **** *                                        at the head
 304:rtos/uC-Shell/Source/shell.c **** *                                      (see Note #2c)
 305:rtos/uC-Shell/Source/shell.c **** *
 306:rtos/uC-Shell/Source/shell.c **** *                                             |            NextModuleCmdPtr
 307:rtos/uC-Shell/Source/shell.c **** *                                             |             (see Note #2b)
 308:rtos/uC-Shell/Source/shell.c **** *                                             v                    |
 309:rtos/uC-Shell/Source/shell.c **** *                                                                  |
 310:rtos/uC-Shell/Source/shell.c **** *                                          -------       -------   v   -------       -------
 311:rtos/uC-Shell/Source/shell.c **** *                 Module command Pool ---->|     |------>|     |------>|     |------>|     |
 312:rtos/uC-Shell/Source/shell.c **** *                      Pointer             |     |       |     |       |     |       |     |
 313:rtos/uC-Shell/Source/shell.c **** *                                          |     |<------|     |<------|     |<------|     |
 314:rtos/uC-Shell/Source/shell.c **** *                   (see Note #2a)         -------       -------       -------   ^    -------
 315:rtos/uC-Shell/Source/shell.c **** *                                                                                |
ARM GAS  /tmp/cciSp153.s 			page 7


 316:rtos/uC-Shell/Source/shell.c **** *                                                                                |
 317:rtos/uC-Shell/Source/shell.c **** *                                                                         PrevModuleCmdPtr
 318:rtos/uC-Shell/Source/shell.c **** *                                                                          (see Note #2b)
 319:rtos/uC-Shell/Source/shell.c **** *
 320:rtos/uC-Shell/Source/shell.c **** *                                          |                                               |
 321:rtos/uC-Shell/Source/shell.c **** *                                          |<-----Pool of Free/Used Module Commands ------>|
 322:rtos/uC-Shell/Source/shell.c **** *                                          |                (see Note #2)                  |
 323:rtos/uC-Shell/Source/shell.c **** *
 324:rtos/uC-Shell/Source/shell.c **** *
 325:rtos/uC-Shell/Source/shell.c **** *
 326:rtos/uC-Shell/Source/shell.c **** * Argument(s) : cmd_tbl_name    Pointer to character string representing the name of the command ta
 327:rtos/uC-Shell/Source/shell.c **** *               cmd_tbl         Command table to add.
 328:rtos/uC-Shell/Source/shell.c **** *               perr            Pointer to variable that will receive the return error code from th
 329:rtos/uC-Shell/Source/shell.c **** *                               function :
 330:rtos/uC-Shell/Source/shell.c **** *
 331:rtos/uC-Shell/Source/shell.c **** *                               SHELL_ERR_NONE                      No error.
 332:rtos/uC-Shell/Source/shell.c **** *                               SHELL_ERR_NULL_PTR                  Argument 'cmd_tbl' passed a NUL
 333:rtos/uC-Shell/Source/shell.c **** *                               SHELL_ERR_MODULE_CMD_EMPTY          Command table empty.
 334:rtos/uC-Shell/Source/shell.c **** *                               SHELL_ERR_MODULE_CMD_ALREADY_IN     Command table already added, or
 335:rtos/uC-Shell/Source/shell.c **** *                                                                   table name already used.
 336:rtos/uC-Shell/Source/shell.c **** *                               SHELL_ERR_MODULE_CMD_NONE_AVAIL     NO available module command to 
 337:rtos/uC-Shell/Source/shell.c **** *
 338:rtos/uC-Shell/Source/shell.c **** *                                                                       ----- RETURNED BY Shell_Mod
 339:rtos/uC-Shell/Source/shell.c **** *                               SHELL_ERR_MODULE_CMD_NAME_NONE      NO module command name found.
 340:rtos/uC-Shell/Source/shell.c **** *                               SHELL_ERR_MODULE_CMD_NAME_TOO_LONG  Module command name too long.
 341:rtos/uC-Shell/Source/shell.c **** *                               SHELL_ERR_MODULE_CMD_NAME_COPY      Copy error.
 342:rtos/uC-Shell/Source/shell.c **** *
 343:rtos/uC-Shell/Source/shell.c **** * Return(s)   : none.
 344:rtos/uC-Shell/Source/shell.c **** *
 345:rtos/uC-Shell/Source/shell.c **** * Caller(s)   : Application.
 346:rtos/uC-Shell/Source/shell.c **** *
 347:rtos/uC-Shell/Source/shell.c **** * Note(s)     : (3) The 'name' argument is the prefix of the commands in 'cmd_tbl'.  In order to sp
 348:rtos/uC-Shell/Source/shell.c **** *                   the command search, the shell first locate the appropriate table based on the p
 349:rtos/uC-Shell/Source/shell.c **** *                   of the command.  Hence, it is mandatory that all commands in a table be named w
 350:rtos/uC-Shell/Source/shell.c **** *                   the same prefix.  For instance, uC/TCP-IP related command displaying statistics
 351:rtos/uC-Shell/Source/shell.c **** *                   look like :
 352:rtos/uC-Shell/Source/shell.c **** *
 353:rtos/uC-Shell/Source/shell.c **** *                       Net_stats
 354:rtos/uC-Shell/Source/shell.c **** *
 355:rtos/uC-Shell/Source/shell.c **** *                   while a file system command listing the current directory would be :
 356:rtos/uC-Shell/Source/shell.c **** *
 357:rtos/uC-Shell/Source/shell.c **** *                       FS_ls
 358:rtos/uC-Shell/Source/shell.c **** *
 359:rtos/uC-Shell/Source/shell.c **** *                   The names of those module commands are respectively 'Net' and 'FS'.
 360:rtos/uC-Shell/Source/shell.c **** *
 361:rtos/uC-Shell/Source/shell.c **** *               (4) #### The 'cmd_tbl_name' parameter is not mandatory in the current implementatio
 362:rtos/uC-Shell/Source/shell.c **** *                   Although you could pass a 'NULL' value for this parameter, it is recommended to
 363:rtos/uC-Shell/Source/shell.c **** *                   the prefix of the commands in 'cmd_tbl' for future compatibility.
 364:rtos/uC-Shell/Source/shell.c **** *
 365:rtos/uC-Shell/Source/shell.c **** *                   However, passing NULL for this parameter will result in the first command prefi
 366:rtos/uC-Shell/Source/shell.c **** *                   be extracted and used as the command table name.
 367:rtos/uC-Shell/Source/shell.c **** *
 368:rtos/uC-Shell/Source/shell.c **** *               (5) If an empty character array is passed in the cmd_tbl_name parameter, the functi
 369:rtos/uC-Shell/Source/shell.c **** *                   will extract the first command prefix to use as the command table name.
 370:rtos/uC-Shell/Source/shell.c **** ***************************************************************************************************
 371:rtos/uC-Shell/Source/shell.c **** */
 372:rtos/uC-Shell/Source/shell.c **** 
ARM GAS  /tmp/cciSp153.s 			page 8


 373:rtos/uC-Shell/Source/shell.c **** void  Shell_CmdTblAdd (CPU_CHAR   *cmd_tbl_name,
 374:rtos/uC-Shell/Source/shell.c ****                        SHELL_CMD   cmd_tbl[],
 375:rtos/uC-Shell/Source/shell.c ****                        SHELL_ERR  *perr)
 376:rtos/uC-Shell/Source/shell.c **** {
 377:rtos/uC-Shell/Source/shell.c ****     SHELL_CMD         *pcmd;
 378:rtos/uC-Shell/Source/shell.c ****     CPU_SIZE_T         name_len;
 379:rtos/uC-Shell/Source/shell.c ****     CPU_CHAR           tbl_name[SHELL_CFG_MODULE_CMD_NAME_LEN_MAX];
 380:rtos/uC-Shell/Source/shell.c ****     CPU_CHAR          *ptbl_name;
 381:rtos/uC-Shell/Source/shell.c ****     SHELL_MODULE_CMD  *pmodule_cmd;
 382:rtos/uC-Shell/Source/shell.c ****     CPU_INT16S         name_compare;
 383:rtos/uC-Shell/Source/shell.c **** 
 384:rtos/uC-Shell/Source/shell.c **** 
 385:rtos/uC-Shell/Source/shell.c ****                                                                 /* ------------------- VALIDATE PTR
 386:rtos/uC-Shell/Source/shell.c ****     if (cmd_tbl == DEF_NULL) {
 387:rtos/uC-Shell/Source/shell.c ****        *perr = SHELL_ERR_NULL_PTR;
 388:rtos/uC-Shell/Source/shell.c ****         return;
 389:rtos/uC-Shell/Source/shell.c ****     }
 390:rtos/uC-Shell/Source/shell.c **** 
 391:rtos/uC-Shell/Source/shell.c ****     if (cmd_tbl[0].Fnct == (SHELL_CMD_FNCT)0) {                 /* If cmd tbl empty ...            
 392:rtos/uC-Shell/Source/shell.c ****        *perr = SHELL_ERR_MODULE_CMD_EMPTY;                      /* ... rtn err.                    
 393:rtos/uC-Shell/Source/shell.c ****         return;
 394:rtos/uC-Shell/Source/shell.c ****     }
 395:rtos/uC-Shell/Source/shell.c **** 
 396:rtos/uC-Shell/Source/shell.c **** 
 397:rtos/uC-Shell/Source/shell.c ****     ptbl_name = DEF_NULL;
 398:rtos/uC-Shell/Source/shell.c **** 
 399:rtos/uC-Shell/Source/shell.c ****     if (cmd_tbl_name != DEF_NULL) {                        /* If cmd_tbl_name not null ...         
 400:rtos/uC-Shell/Source/shell.c ****         name_len = Str_Len(cmd_tbl_name);
 401:rtos/uC-Shell/Source/shell.c ****         if (name_len >= SHELL_CFG_MODULE_CMD_NAME_LEN_MAX) {    /* ... If name too long ...        
 402:rtos/uC-Shell/Source/shell.c ****            *perr = SHELL_ERR_MODULE_CMD_NAME_TOO_LONG;          /*     ... rtn err.                
 403:rtos/uC-Shell/Source/shell.c ****             return;
 404:rtos/uC-Shell/Source/shell.c ****         
 405:rtos/uC-Shell/Source/shell.c ****         } else if (name_len > 0) {                              /*     ... else if name greater of 
 406:rtos/uC-Shell/Source/shell.c ****             ptbl_name = cmd_tbl_name;                           /*     ... use as tbl name.        
 407:rtos/uC-Shell/Source/shell.c ****         }
 408:rtos/uC-Shell/Source/shell.c ****     }
 409:rtos/uC-Shell/Source/shell.c **** 
 410:rtos/uC-Shell/Source/shell.c ****     if (ptbl_name == DEF_NULL) {                           /* If cmd tbl name not gotten from param
 411:rtos/uC-Shell/Source/shell.c ****         pcmd = &cmd_tbl[0];
 412:rtos/uC-Shell/Source/shell.c ****         Shell_ModuleCmdNameGet((CPU_CHAR *)pcmd->Name,          /* ... get name from first command.
 413:rtos/uC-Shell/Source/shell.c ****                                            tbl_name,
 414:rtos/uC-Shell/Source/shell.c ****                                            SHELL_CFG_MODULE_CMD_NAME_LEN_MAX,
 415:rtos/uC-Shell/Source/shell.c ****                                            perr);
 416:rtos/uC-Shell/Source/shell.c **** 
 417:rtos/uC-Shell/Source/shell.c ****         if (*perr != SHELL_ERR_NONE) {
 418:rtos/uC-Shell/Source/shell.c ****             return;
 419:rtos/uC-Shell/Source/shell.c ****         }
 420:rtos/uC-Shell/Source/shell.c ****         ptbl_name = tbl_name;
 421:rtos/uC-Shell/Source/shell.c ****     }
 422:rtos/uC-Shell/Source/shell.c **** 
 423:rtos/uC-Shell/Source/shell.c **** 
 424:rtos/uC-Shell/Source/shell.c ****                                                                 /* -------------- CHK FOR DUPLICATE
 425:rtos/uC-Shell/Source/shell.c ****     pmodule_cmd = Shell_ModuleCmdUsedPoolPtr;
 426:rtos/uC-Shell/Source/shell.c ****     while (pmodule_cmd != DEF_NULL) {
 427:rtos/uC-Shell/Source/shell.c ****         name_compare = Str_Cmp(pmodule_cmd->Name, ptbl_name);
 428:rtos/uC-Shell/Source/shell.c **** 
 429:rtos/uC-Shell/Source/shell.c ****         if ((pmodule_cmd->CmdTblPtr == cmd_tbl) ||              /* If module name already used ... 
ARM GAS  /tmp/cciSp153.s 			page 9


 430:rtos/uC-Shell/Source/shell.c ****             (name_compare           == 0      )) {
 431:rtos/uC-Shell/Source/shell.c **** 
 432:rtos/uC-Shell/Source/shell.c ****            *perr = SHELL_ERR_MODULE_CMD_ALREADY_IN;             /* ... rtn err.                    
 433:rtos/uC-Shell/Source/shell.c ****             return;
 434:rtos/uC-Shell/Source/shell.c ****         } 
 435:rtos/uC-Shell/Source/shell.c **** 
 436:rtos/uC-Shell/Source/shell.c ****         pmodule_cmd = pmodule_cmd->NextModuleCmdPtr;
 437:rtos/uC-Shell/Source/shell.c ****     }
 438:rtos/uC-Shell/Source/shell.c **** 
 439:rtos/uC-Shell/Source/shell.c **** 
 440:rtos/uC-Shell/Source/shell.c ****                                                                 /* ------------------ GET MODULE CM
 441:rtos/uC-Shell/Source/shell.c ****     if (Shell_ModuleCmdFreePoolPtr != DEF_NULL) {               /* If module cmd pool NOT empty ...
 442:rtos/uC-Shell/Source/shell.c ****                                                                 /* ... get one from pool.          
 443:rtos/uC-Shell/Source/shell.c ****         pmodule_cmd                 = Shell_ModuleCmdFreePoolPtr;
 444:rtos/uC-Shell/Source/shell.c ****         Shell_ModuleCmdFreePoolPtr  = pmodule_cmd->NextModuleCmdPtr;
 445:rtos/uC-Shell/Source/shell.c **** 
 446:rtos/uC-Shell/Source/shell.c ****     } else {                                                    /* If none avail ...               
 447:rtos/uC-Shell/Source/shell.c ****        *perr =  SHELL_ERR_MODULE_CMD_NONE_AVAIL;                /* ... rtn err.                    
 448:rtos/uC-Shell/Source/shell.c ****         return;
 449:rtos/uC-Shell/Source/shell.c ****     }
 450:rtos/uC-Shell/Source/shell.c **** 
 451:rtos/uC-Shell/Source/shell.c **** 
 452:rtos/uC-Shell/Source/shell.c ****                                                                 /* ----------------- INIT MODULE CM
 453:rtos/uC-Shell/Source/shell.c ****     Str_Copy(pmodule_cmd->Name, ptbl_name);
 454:rtos/uC-Shell/Source/shell.c ****     pmodule_cmd->CmdTblPtr = cmd_tbl;
 455:rtos/uC-Shell/Source/shell.c **** 
 456:rtos/uC-Shell/Source/shell.c **** 
 457:rtos/uC-Shell/Source/shell.c ****                                                                 /* ---------- ADD TO MODULE CMD TBL
 458:rtos/uC-Shell/Source/shell.c ****                                                                 /* Update doubly-linked list.      
 459:rtos/uC-Shell/Source/shell.c ****     pmodule_cmd->PrevModuleCmdPtr = DEF_NULL;
 460:rtos/uC-Shell/Source/shell.c ****     pmodule_cmd->NextModuleCmdPtr = Shell_ModuleCmdUsedPoolPtr;
 461:rtos/uC-Shell/Source/shell.c **** 
 462:rtos/uC-Shell/Source/shell.c ****     if (Shell_ModuleCmdUsedPoolPtr != DEF_NULL) {
 463:rtos/uC-Shell/Source/shell.c ****         Shell_ModuleCmdUsedPoolPtr->PrevModuleCmdPtr = pmodule_cmd;
 464:rtos/uC-Shell/Source/shell.c ****     }
 465:rtos/uC-Shell/Source/shell.c **** 
 466:rtos/uC-Shell/Source/shell.c ****     Shell_ModuleCmdUsedPoolPtr = pmodule_cmd;
 467:rtos/uC-Shell/Source/shell.c **** 
 468:rtos/uC-Shell/Source/shell.c **** 
 469:rtos/uC-Shell/Source/shell.c ****    *perr = SHELL_ERR_NONE;
 470:rtos/uC-Shell/Source/shell.c **** }
 471:rtos/uC-Shell/Source/shell.c **** 
 472:rtos/uC-Shell/Source/shell.c **** 
 473:rtos/uC-Shell/Source/shell.c **** /*
 474:rtos/uC-Shell/Source/shell.c **** ***************************************************************************************************
 475:rtos/uC-Shell/Source/shell.c **** *                                           Shell_CmdTblRem()
 476:rtos/uC-Shell/Source/shell.c **** *
 477:rtos/uC-Shell/Source/shell.c **** * Description : (1) Remove a module command  :
 478:rtos/uC-Shell/Source/shell.c **** *
 479:rtos/uC-Shell/Source/shell.c **** *                   (a) Search module command
 480:rtos/uC-Shell/Source/shell.c **** *                   (b) Remove module command
 481:rtos/uC-Shell/Source/shell.c **** *                   (c) Update module command pools
 482:rtos/uC-Shell/Source/shell.c **** *
 483:rtos/uC-Shell/Source/shell.c **** *
 484:rtos/uC-Shell/Source/shell.c **** * Argument(s) : cmd_tbl_name    Pointer to character string representing the name of the command ta
 485:rtos/uC-Shell/Source/shell.c **** *               perr            Pointer to variable that will receive the return error code from th
 486:rtos/uC-Shell/Source/shell.c **** *                               function :
ARM GAS  /tmp/cciSp153.s 			page 10


 487:rtos/uC-Shell/Source/shell.c **** *
 488:rtos/uC-Shell/Source/shell.c **** *                               SHELL_ERR_NONE                  No error.
 489:rtos/uC-Shell/Source/shell.c **** *                               SHELL_ERR_NULL_PTR              Argument 'cmd_tbl_name' passed a NU
 490:rtos/uC-Shell/Source/shell.c **** *                               SHELL_ERR_MODULE_CMD_NOT_FOUND  Module command NOT found.
 491:rtos/uC-Shell/Source/shell.c **** *
 492:rtos/uC-Shell/Source/shell.c **** * Return(s)   : none.
 493:rtos/uC-Shell/Source/shell.c **** *
 494:rtos/uC-Shell/Source/shell.c **** * Caller(s)   : Application.
 495:rtos/uC-Shell/Source/shell.c **** *
 496:rtos/uC-Shell/Source/shell.c **** * Note(s)     : none.
 497:rtos/uC-Shell/Source/shell.c **** ***************************************************************************************************
 498:rtos/uC-Shell/Source/shell.c **** */
 499:rtos/uC-Shell/Source/shell.c **** 
 500:rtos/uC-Shell/Source/shell.c **** void  Shell_CmdTblRem (CPU_CHAR   *cmd_tbl_name,
 501:rtos/uC-Shell/Source/shell.c ****                        SHELL_ERR  *perr)
 502:rtos/uC-Shell/Source/shell.c **** {
 503:rtos/uC-Shell/Source/shell.c ****     SHELL_MODULE_CMD  *pmodule_cmd_list;
 504:rtos/uC-Shell/Source/shell.c ****     SHELL_MODULE_CMD  *pmodule_cmd;
 505:rtos/uC-Shell/Source/shell.c ****     CPU_INT16S         name_compare;
 506:rtos/uC-Shell/Source/shell.c **** 
 507:rtos/uC-Shell/Source/shell.c **** 
 508:rtos/uC-Shell/Source/shell.c ****                                                                 /* ------------------- VALIDATE PTR
 509:rtos/uC-Shell/Source/shell.c ****     if (cmd_tbl_name == DEF_NULL) {
 510:rtos/uC-Shell/Source/shell.c ****        *perr = SHELL_ERR_NULL_PTR;
 511:rtos/uC-Shell/Source/shell.c ****         return;
 512:rtos/uC-Shell/Source/shell.c ****     }
 513:rtos/uC-Shell/Source/shell.c **** 
 514:rtos/uC-Shell/Source/shell.c ****                                                                 /* ----------------- SEARCH MODULE 
 515:rtos/uC-Shell/Source/shell.c ****     pmodule_cmd_list = Shell_ModuleCmdUsedPoolPtr;
 516:rtos/uC-Shell/Source/shell.c ****     pmodule_cmd      = DEF_NULL;
 517:rtos/uC-Shell/Source/shell.c **** 
 518:rtos/uC-Shell/Source/shell.c ****     while (pmodule_cmd_list != DEF_NULL) {
 519:rtos/uC-Shell/Source/shell.c ****         name_compare = Str_Cmp(cmd_tbl_name, pmodule_cmd_list->Name);
 520:rtos/uC-Shell/Source/shell.c ****         if (name_compare == 0) {
 521:rtos/uC-Shell/Source/shell.c ****             pmodule_cmd = pmodule_cmd_list;
 522:rtos/uC-Shell/Source/shell.c ****             break;
 523:rtos/uC-Shell/Source/shell.c ****         }
 524:rtos/uC-Shell/Source/shell.c ****         pmodule_cmd_list = pmodule_cmd_list->NextModuleCmdPtr;
 525:rtos/uC-Shell/Source/shell.c ****     }
 526:rtos/uC-Shell/Source/shell.c **** 
 527:rtos/uC-Shell/Source/shell.c ****     if (pmodule_cmd == DEF_NULL) {
 528:rtos/uC-Shell/Source/shell.c ****        *perr = SHELL_ERR_MODULE_CMD_NOT_FOUND;
 529:rtos/uC-Shell/Source/shell.c ****         return;
 530:rtos/uC-Shell/Source/shell.c ****     }
 531:rtos/uC-Shell/Source/shell.c **** 
 532:rtos/uC-Shell/Source/shell.c **** 
 533:rtos/uC-Shell/Source/shell.c ****                                                                 /* ----------- REM MODULE CMD & UPD
 534:rtos/uC-Shell/Source/shell.c ****                                                                 /* Update used module cmd pool.    
 535:rtos/uC-Shell/Source/shell.c ****     if (pmodule_cmd->PrevModuleCmdPtr != DEF_NULL) {           /* If prev NOT NULL ... set prev's n
 536:rtos/uC-Shell/Source/shell.c ****         (pmodule_cmd->PrevModuleCmdPtr)->NextModuleCmdPtr = pmodule_cmd->NextModuleCmdPtr;
 537:rtos/uC-Shell/Source/shell.c ****     } else {                                                    /* Else ...             set used po
 538:rtos/uC-Shell/Source/shell.c ****         Shell_ModuleCmdUsedPoolPtr = pmodule_cmd->NextModuleCmdPtr;
 539:rtos/uC-Shell/Source/shell.c ****     }
 540:rtos/uC-Shell/Source/shell.c **** 
 541:rtos/uC-Shell/Source/shell.c ****     if (pmodule_cmd->NextModuleCmdPtr != DEF_NULL) {           /* If next NOT NULL ... set next's p
 542:rtos/uC-Shell/Source/shell.c ****         (pmodule_cmd->NextModuleCmdPtr)->PrevModuleCmdPtr = pmodule_cmd->PrevModuleCmdPtr;
 543:rtos/uC-Shell/Source/shell.c ****     }
ARM GAS  /tmp/cciSp153.s 			page 11


 544:rtos/uC-Shell/Source/shell.c **** 
 545:rtos/uC-Shell/Source/shell.c ****                                                                 /* Update free module cmd pool.    
 546:rtos/uC-Shell/Source/shell.c ****     Shell_ModuleCmdClr(pmodule_cmd);
 547:rtos/uC-Shell/Source/shell.c ****     pmodule_cmd->NextModuleCmdPtr = Shell_ModuleCmdFreePoolPtr;
 548:rtos/uC-Shell/Source/shell.c **** 
 549:rtos/uC-Shell/Source/shell.c ****     if (Shell_ModuleCmdFreePoolPtr != DEF_NULL) {
 550:rtos/uC-Shell/Source/shell.c ****         Shell_ModuleCmdFreePoolPtr->PrevModuleCmdPtr = pmodule_cmd;
 551:rtos/uC-Shell/Source/shell.c ****     }
 552:rtos/uC-Shell/Source/shell.c **** 
 553:rtos/uC-Shell/Source/shell.c ****     Shell_ModuleCmdFreePoolPtr = pmodule_cmd;
 554:rtos/uC-Shell/Source/shell.c **** 
 555:rtos/uC-Shell/Source/shell.c **** 
 556:rtos/uC-Shell/Source/shell.c ****    *perr = SHELL_ERR_NONE;
 557:rtos/uC-Shell/Source/shell.c **** }
 558:rtos/uC-Shell/Source/shell.c **** 
 559:rtos/uC-Shell/Source/shell.c **** 
 560:rtos/uC-Shell/Source/shell.c **** /*
 561:rtos/uC-Shell/Source/shell.c **** ***************************************************************************************************
 562:rtos/uC-Shell/Source/shell.c **** ***************************************************************************************************
 563:rtos/uC-Shell/Source/shell.c **** *                                           LOCAL FUNCTIONS
 564:rtos/uC-Shell/Source/shell.c **** ***************************************************************************************************
 565:rtos/uC-Shell/Source/shell.c **** ***************************************************************************************************
 566:rtos/uC-Shell/Source/shell.c **** */
 567:rtos/uC-Shell/Source/shell.c **** 
 568:rtos/uC-Shell/Source/shell.c **** /*
 569:rtos/uC-Shell/Source/shell.c **** ***************************************************************************************************
 570:rtos/uC-Shell/Source/shell.c **** *                                           Shell_Scanner()
 571:rtos/uC-Shell/Source/shell.c **** *
 572:rtos/uC-Shell/Source/shell.c **** * Description : Scan and parse the command line.
 573:rtos/uC-Shell/Source/shell.c **** *
 574:rtos/uC-Shell/Source/shell.c **** * Argument(s) : in              Pointer to a NUL terminated string holding a complete command and i
 575:rtos/uC-Shell/Source/shell.c **** *                               argument(s).
 576:rtos/uC-Shell/Source/shell.c **** *               arg_tbl         Array of pointer that will receive pointers to token.
 577:rtos/uC-Shell/Source/shell.c **** *               arg_tbl_size    Size of arg_tbl array.
 578:rtos/uC-Shell/Source/shell.c **** *               perr            Pointer to variable that will receive the return error code from th
 579:rtos/uC-Shell/Source/shell.c **** *                               function :
 580:rtos/uC-Shell/Source/shell.c **** *
 581:rtos/uC-Shell/Source/shell.c **** *                               SHELL_ERR_NONE              No error. 
 582:rtos/uC-Shell/Source/shell.c **** *                               SHELL_ERR_ARG_TBL_FULL      Argument table full and token still to 
 583:rtos/uC-Shell/Source/shell.c **** *
 584:rtos/uC-Shell/Source/shell.c **** * Return(s)   : Number of token(s) (command name and argument(s)).
 585:rtos/uC-Shell/Source/shell.c **** *
 586:rtos/uC-Shell/Source/shell.c **** * Caller(s)   : Shell_Exec().
 587:rtos/uC-Shell/Source/shell.c **** *
 588:rtos/uC-Shell/Source/shell.c **** * Note(s)     : (1) The first token is always the command name itself.
 589:rtos/uC-Shell/Source/shell.c **** *
 590:rtos/uC-Shell/Source/shell.c **** *               (2) This function modify the 'in' arguments by replacing token's delimiter characte
 591:rtos/uC-Shell/Source/shell.c **** *                   termination character ('\0').
 592:rtos/uC-Shell/Source/shell.c **** ***************************************************************************************************
 593:rtos/uC-Shell/Source/shell.c **** */
 594:rtos/uC-Shell/Source/shell.c **** 
 595:rtos/uC-Shell/Source/shell.c **** static  CPU_INT16U  Shell_Scanner (CPU_CHAR   *in,
 596:rtos/uC-Shell/Source/shell.c ****                                    CPU_CHAR   *arg_tbl[],
 597:rtos/uC-Shell/Source/shell.c ****                                    CPU_INT16U  arg_tbl_size,
 598:rtos/uC-Shell/Source/shell.c ****                                    SHELL_ERR  *perr)
 599:rtos/uC-Shell/Source/shell.c **** {
  29              		.loc 1 599 1 view -0
ARM GAS  /tmp/cciSp153.s 			page 12


  30              		.cfi_startproc
  31              		@ args = 0, pretend = 0, frame = 0
  32              		@ frame_needed = 0, uses_anonymous_args = 0
  33              		@ link register save eliminated.
  34              		.loc 1 599 1 is_stmt 0 view .LVU1
  35 0000 F0B4     		push	{r4, r5, r6, r7}
  36              	.LCFI0:
  37              		.cfi_def_cfa_offset 16
  38              		.cfi_offset 4, -16
  39              		.cfi_offset 5, -12
  40              		.cfi_offset 6, -8
  41              		.cfi_offset 7, -4
  42 0002 0546     		mov	r5, r0
 600:rtos/uC-Shell/Source/shell.c ****     CPU_CHAR    *in_rd;
  43              		.loc 1 600 5 is_stmt 1 view .LVU2
 601:rtos/uC-Shell/Source/shell.c ****     CPU_INT16U   tok_ix;
  44              		.loc 1 601 5 view .LVU3
 602:rtos/uC-Shell/Source/shell.c ****     CPU_BOOLEAN  end_tok_found;
  45              		.loc 1 602 5 view .LVU4
 603:rtos/uC-Shell/Source/shell.c ****     CPU_BOOLEAN  quote_opened;
  46              		.loc 1 603 5 view .LVU5
 604:rtos/uC-Shell/Source/shell.c **** 
 605:rtos/uC-Shell/Source/shell.c **** 
 606:rtos/uC-Shell/Source/shell.c ****     in_rd            = in;
  47              		.loc 1 606 5 view .LVU6
  48              	.LVL1:
 607:rtos/uC-Shell/Source/shell.c ****     tok_ix           = 0;
  49              		.loc 1 607 5 view .LVU7
 608:rtos/uC-Shell/Source/shell.c ****     end_tok_found    = DEF_YES;
  50              		.loc 1 608 5 view .LVU8
 609:rtos/uC-Shell/Source/shell.c ****     quote_opened     = DEF_NO;    
  51              		.loc 1 609 5 view .LVU9
 610:rtos/uC-Shell/Source/shell.c **** 
 611:rtos/uC-Shell/Source/shell.c ****                                                                 /* ------------------ SCAN CMD LINE
 612:rtos/uC-Shell/Source/shell.c ****     while (*in_rd) {
  52              		.loc 1 612 5 view .LVU10
 609:rtos/uC-Shell/Source/shell.c ****     quote_opened     = DEF_NO;    
  53              		.loc 1 609 22 is_stmt 0 view .LVU11
  54 0004 0026     		movs	r6, #0
 608:rtos/uC-Shell/Source/shell.c ****     quote_opened     = DEF_NO;    
  55              		.loc 1 608 22 view .LVU12
  56 0006 0127     		movs	r7, #1
 607:rtos/uC-Shell/Source/shell.c ****     end_tok_found    = DEF_YES;
  57              		.loc 1 607 22 view .LVU13
  58 0008 3046     		mov	r0, r6
  59              	.LVL2:
  60              		.loc 1 612 11 view .LVU14
  61 000a 0DE0     		b	.L2
  62              	.LVL3:
  63              	.L13:
 613:rtos/uC-Shell/Source/shell.c ****         switch (*in_rd) {
 614:rtos/uC-Shell/Source/shell.c ****             case SHELL_ASCII_QUOTE:                             /* Quote char found.               
 615:rtos/uC-Shell/Source/shell.c ****                  if (quote_opened == DEF_YES) {
 616:rtos/uC-Shell/Source/shell.c ****                       quote_opened  = DEF_NO;
  64              		.loc 1 616 23 is_stmt 1 view .LVU15
 617:rtos/uC-Shell/Source/shell.c ****                      *in_rd         = (CPU_CHAR)0;
  65              		.loc 1 617 22 view .LVU16
ARM GAS  /tmp/cciSp153.s 			page 13


  66              		.loc 1 617 37 is_stmt 0 view .LVU17
  67 000c 0024     		movs	r4, #0
  68 000e 2C70     		strb	r4, [r5]
 618:rtos/uC-Shell/Source/shell.c ****                       end_tok_found = DEF_YES;
  69              		.loc 1 618 23 is_stmt 1 view .LVU18
  70              	.LVL4:
  71              		.loc 1 618 37 is_stmt 0 view .LVU19
  72 0010 3746     		mov	r7, r6
 616:rtos/uC-Shell/Source/shell.c ****                      *in_rd         = (CPU_CHAR)0;
  73              		.loc 1 616 37 view .LVU20
  74 0012 2646     		mov	r6, r4
  75 0014 07E0     		b	.L5
  76              	.LVL5:
  77              	.L3:
 619:rtos/uC-Shell/Source/shell.c ****                  } else {
 620:rtos/uC-Shell/Source/shell.c ****                       quote_opened   = DEF_YES;
 621:rtos/uC-Shell/Source/shell.c ****                  }
 622:rtos/uC-Shell/Source/shell.c ****                  
 623:rtos/uC-Shell/Source/shell.c ****                  break;
 624:rtos/uC-Shell/Source/shell.c **** 
 625:rtos/uC-Shell/Source/shell.c ****             case SHELL_ASCII_SPACE:                             /* Space char found.               
 626:rtos/uC-Shell/Source/shell.c ****                  if ((end_tok_found == DEF_NO) &&               /* If first space between tok && qu
  78              		.loc 1 626 18 is_stmt 1 view .LVU21
  79              		.loc 1 626 21 is_stmt 0 view .LVU22
  80 0016 37B9     		cbnz	r7, .L5
  81              		.loc 1 626 48 discriminator 1 view .LVU23
  82 0018 2EB9     		cbnz	r6, .L5
 627:rtos/uC-Shell/Source/shell.c ****                      (quote_opened  == DEF_NO)) {                           
 628:rtos/uC-Shell/Source/shell.c ****                      *in_rd         =  SHELL_ASCII_ARG_END;   /* ... put termination char.         
  83              		.loc 1 628 22 is_stmt 1 view .LVU24
  84              		.loc 1 628 37 is_stmt 0 view .LVU25
  85 001a 0024     		movs	r4, #0
  86 001c 2C70     		strb	r4, [r5]
 629:rtos/uC-Shell/Source/shell.c ****                       end_tok_found =  DEF_YES;   
  87              		.loc 1 629 23 is_stmt 1 view .LVU26
  88              	.LVL6:
  89              		.loc 1 629 37 is_stmt 0 view .LVU27
  90 001e 0127     		movs	r7, #1
  91 0020 01E0     		b	.L5
  92              	.LVL7:
  93              	.L4:
 630:rtos/uC-Shell/Source/shell.c ****                  }
 631:rtos/uC-Shell/Source/shell.c **** 
 632:rtos/uC-Shell/Source/shell.c ****                  break;
 633:rtos/uC-Shell/Source/shell.c **** 
 634:rtos/uC-Shell/Source/shell.c ****             default:                                            /* Other char found ...            
 635:rtos/uC-Shell/Source/shell.c ****                  if (end_tok_found == DEF_YES) {
  94              		.loc 1 635 18 is_stmt 1 view .LVU28
  95              		.loc 1 635 21 is_stmt 0 view .LVU29
  96 0022 012F     		cmp	r7, #1
  97 0024 0AD0     		beq	.L11
  98              	.LVL8:
  99              	.L5:
 636:rtos/uC-Shell/Source/shell.c ****                      if (tok_ix < arg_tbl_size) {
 637:rtos/uC-Shell/Source/shell.c ****                          arg_tbl[tok_ix] = in_rd;               /* Set arg_tbl ptr to tok location.
 638:rtos/uC-Shell/Source/shell.c ****                          tok_ix++;
 639:rtos/uC-Shell/Source/shell.c ****                          end_tok_found = DEF_NO;
ARM GAS  /tmp/cciSp153.s 			page 14


 640:rtos/uC-Shell/Source/shell.c ****                      } else {
 641:rtos/uC-Shell/Source/shell.c ****                         *perr = SHELL_ERR_ARG_TBL_FULL;
 642:rtos/uC-Shell/Source/shell.c ****                          return (0);
 643:rtos/uC-Shell/Source/shell.c ****                      }
 644:rtos/uC-Shell/Source/shell.c ****                  }
 645:rtos/uC-Shell/Source/shell.c **** 
 646:rtos/uC-Shell/Source/shell.c ****                  break;
 647:rtos/uC-Shell/Source/shell.c ****         }
 648:rtos/uC-Shell/Source/shell.c ****         in_rd++;
 100              		.loc 1 648 9 is_stmt 1 view .LVU30
 101              		.loc 1 648 14 is_stmt 0 view .LVU31
 102 0026 0135     		adds	r5, r5, #1
 103              	.LVL9:
 104              	.L2:
 612:rtos/uC-Shell/Source/shell.c ****         switch (*in_rd) {
 105              		.loc 1 612 11 is_stmt 1 view .LVU32
 612:rtos/uC-Shell/Source/shell.c ****         switch (*in_rd) {
 106              		.loc 1 612 12 is_stmt 0 view .LVU33
 107 0028 2C78     		ldrb	r4, [r5]	@ zero_extendqisi2
 612:rtos/uC-Shell/Source/shell.c ****         switch (*in_rd) {
 108              		.loc 1 612 11 view .LVU34
 109 002a 9CB1     		cbz	r4, .L12
 613:rtos/uC-Shell/Source/shell.c ****             case SHELL_ASCII_QUOTE:                             /* Quote char found.               
 110              		.loc 1 613 9 is_stmt 1 view .LVU35
 111 002c 202C     		cmp	r4, #32
 112 002e F2D0     		beq	.L3
 113 0030 222C     		cmp	r4, #34
 114 0032 F6D1     		bne	.L4
 615:rtos/uC-Shell/Source/shell.c ****                       quote_opened  = DEF_NO;
 115              		.loc 1 615 18 view .LVU36
 615:rtos/uC-Shell/Source/shell.c ****                       quote_opened  = DEF_NO;
 116              		.loc 1 615 21 is_stmt 0 view .LVU37
 117 0034 002E     		cmp	r6, #0
 118 0036 E9D1     		bne	.L13
 620:rtos/uC-Shell/Source/shell.c ****                  }
 119              		.loc 1 620 38 view .LVU38
 120 0038 0126     		movs	r6, #1
 121              	.LVL10:
 620:rtos/uC-Shell/Source/shell.c ****                  }
 122              		.loc 1 620 38 view .LVU39
 123 003a F4E7     		b	.L5
 124              	.LVL11:
 125              	.L11:
 636:rtos/uC-Shell/Source/shell.c ****                          arg_tbl[tok_ix] = in_rd;               /* Set arg_tbl ptr to tok location.
 126              		.loc 1 636 22 is_stmt 1 view .LVU40
 636:rtos/uC-Shell/Source/shell.c ****                          arg_tbl[tok_ix] = in_rd;               /* Set arg_tbl ptr to tok location.
 127              		.loc 1 636 25 is_stmt 0 view .LVU41
 128 003c 9042     		cmp	r0, r2
 129 003e 05D2     		bcs	.L6
 637:rtos/uC-Shell/Source/shell.c ****                          tok_ix++;
 130              		.loc 1 637 26 is_stmt 1 view .LVU42
 637:rtos/uC-Shell/Source/shell.c ****                          tok_ix++;
 131              		.loc 1 637 42 is_stmt 0 view .LVU43
 132 0040 41F82050 		str	r5, [r1, r0, lsl #2]
 638:rtos/uC-Shell/Source/shell.c ****                          end_tok_found = DEF_NO;
 133              		.loc 1 638 26 is_stmt 1 view .LVU44
 638:rtos/uC-Shell/Source/shell.c ****                          end_tok_found = DEF_NO;
ARM GAS  /tmp/cciSp153.s 			page 15


 134              		.loc 1 638 32 is_stmt 0 view .LVU45
 135 0044 0130     		adds	r0, r0, #1
 136              	.LVL12:
 638:rtos/uC-Shell/Source/shell.c ****                          end_tok_found = DEF_NO;
 137              		.loc 1 638 32 view .LVU46
 138 0046 80B2     		uxth	r0, r0
 139              	.LVL13:
 639:rtos/uC-Shell/Source/shell.c ****                      } else {
 140              		.loc 1 639 26 is_stmt 1 view .LVU47
 639:rtos/uC-Shell/Source/shell.c ****                      } else {
 141              		.loc 1 639 40 is_stmt 0 view .LVU48
 142 0048 0027     		movs	r7, #0
 143 004a ECE7     		b	.L5
 144              	.LVL14:
 145              	.L6:
 641:rtos/uC-Shell/Source/shell.c ****                          return (0);
 146              		.loc 1 641 25 is_stmt 1 view .LVU49
 641:rtos/uC-Shell/Source/shell.c ****                          return (0);
 147              		.loc 1 641 31 is_stmt 0 view .LVU50
 148 004c 0B22     		movs	r2, #11
 149              	.LVL15:
 641:rtos/uC-Shell/Source/shell.c ****                          return (0);
 150              		.loc 1 641 31 view .LVU51
 151 004e 1A80     		strh	r2, [r3]	@ movhi
 642:rtos/uC-Shell/Source/shell.c ****                      }
 152              		.loc 1 642 26 is_stmt 1 view .LVU52
 642:rtos/uC-Shell/Source/shell.c ****                      }
 153              		.loc 1 642 33 is_stmt 0 view .LVU53
 154 0050 0020     		movs	r0, #0
 155              	.LVL16:
 642:rtos/uC-Shell/Source/shell.c ****                      }
 156              		.loc 1 642 33 view .LVU54
 157 0052 01E0     		b	.L7
 158              	.LVL17:
 159              	.L12:
 649:rtos/uC-Shell/Source/shell.c ****     }
 650:rtos/uC-Shell/Source/shell.c **** 
 651:rtos/uC-Shell/Source/shell.c **** 
 652:rtos/uC-Shell/Source/shell.c ****    *perr = SHELL_ERR_NONE;
 160              		.loc 1 652 4 is_stmt 1 view .LVU55
 161              		.loc 1 652 10 is_stmt 0 view .LVU56
 162 0054 0022     		movs	r2, #0
 163              	.LVL18:
 164              		.loc 1 652 10 view .LVU57
 165 0056 1A80     		strh	r2, [r3]	@ movhi
 653:rtos/uC-Shell/Source/shell.c ****     
 654:rtos/uC-Shell/Source/shell.c ****     return (tok_ix);
 166              		.loc 1 654 5 is_stmt 1 view .LVU58
 167              	.LVL19:
 168              	.L7:
 655:rtos/uC-Shell/Source/shell.c **** }
 169              		.loc 1 655 1 is_stmt 0 view .LVU59
 170 0058 F0BC     		pop	{r4, r5, r6, r7}
 171              	.LCFI1:
 172              		.cfi_restore 7
 173              		.cfi_restore 6
 174              		.cfi_restore 5
ARM GAS  /tmp/cciSp153.s 			page 16


 175              		.cfi_restore 4
 176              		.cfi_def_cfa_offset 0
 177              	.LVL20:
 178              		.loc 1 655 1 view .LVU60
 179 005a 7047     		bx	lr
 180              		.cfi_endproc
 181              	.LFE4:
 183              		.section	.rodata.Shell_ModuleCmdClr.str1.4,"aMS",%progbits,1
 184              		.align	2
 185              	.LC0:
 186 0000 00       		.ascii	"\000"
 187              		.section	.text.Shell_ModuleCmdClr,"ax",%progbits
 188              		.align	1
 189              		.syntax unified
 190              		.thumb
 191              		.thumb_func
 192              		.fpu fpv4-sp-d16
 194              	Shell_ModuleCmdClr:
 195              	.LVL21:
 196              	.LFB7:
 656:rtos/uC-Shell/Source/shell.c **** 
 657:rtos/uC-Shell/Source/shell.c **** 
 658:rtos/uC-Shell/Source/shell.c **** /*
 659:rtos/uC-Shell/Source/shell.c **** ***************************************************************************************************
 660:rtos/uC-Shell/Source/shell.c **** *                                           Shell_CmdSearch()
 661:rtos/uC-Shell/Source/shell.c **** *
 662:rtos/uC-Shell/Source/shell.c **** * Description : (1) Search for specified command :
 663:rtos/uC-Shell/Source/shell.c **** *
 664:rtos/uC-Shell/Source/shell.c **** *                   (a) Extract module command name
 665:rtos/uC-Shell/Source/shell.c **** *                   (b) Search  module command
 666:rtos/uC-Shell/Source/shell.c **** *                   (c) Search  command in table
 667:rtos/uC-Shell/Source/shell.c **** *
 668:rtos/uC-Shell/Source/shell.c **** *
 669:rtos/uC-Shell/Source/shell.c **** * Argument(s) : cmd_name        Pointer to command name.
 670:rtos/uC-Shell/Source/shell.c **** *               perr            Pointer to variable that will receive the return error code from th
 671:rtos/uC-Shell/Source/shell.c **** *                               function :
 672:rtos/uC-Shell/Source/shell.c **** *
 673:rtos/uC-Shell/Source/shell.c **** *                               SHELL_ERR_NONE                      No error. 
 674:rtos/uC-Shell/Source/shell.c **** *                               SHELL_ERR_MODULE_CMD_NOT_FOUND      Module command NOT found.
 675:rtos/uC-Shell/Source/shell.c **** *                               SHELL_ERR_CMD_NOT_FOUND             Command        NOT found.
 676:rtos/uC-Shell/Source/shell.c **** *
 677:rtos/uC-Shell/Source/shell.c **** *                                                                       ----- RETURNED BY Shell_Mod
 678:rtos/uC-Shell/Source/shell.c **** *                               SHELL_ERR_MODULE_CMD_NAME_NONE      No module command name found.
 679:rtos/uC-Shell/Source/shell.c **** *                               SHELL_ERR_MODULE_CMD_NAME_TOO_LONG  Module command name too long.
 680:rtos/uC-Shell/Source/shell.c **** *                               SHELL_ERR_MODULE_CMD_NAME_COPY      Copy error.
 681:rtos/uC-Shell/Source/shell.c **** *
 682:rtos/uC-Shell/Source/shell.c **** * Return(s)   : Pointer to command function.
 683:rtos/uC-Shell/Source/shell.c **** *
 684:rtos/uC-Shell/Source/shell.c **** * Caller(s)   : Shell_Exec().
 685:rtos/uC-Shell/Source/shell.c **** *
 686:rtos/uC-Shell/Source/shell.c **** * Note(s)     : none. 
 687:rtos/uC-Shell/Source/shell.c **** ***************************************************************************************************
 688:rtos/uC-Shell/Source/shell.c **** */
 689:rtos/uC-Shell/Source/shell.c **** 
 690:rtos/uC-Shell/Source/shell.c **** static  SHELL_CMD_FNCT  Shell_CmdSearch (CPU_CHAR   *cmd_name,
 691:rtos/uC-Shell/Source/shell.c ****                                          SHELL_ERR  *perr)
 692:rtos/uC-Shell/Source/shell.c **** {
ARM GAS  /tmp/cciSp153.s 			page 17


 693:rtos/uC-Shell/Source/shell.c ****     CPU_CHAR           module_cmd_name[SHELL_CFG_MODULE_CMD_NAME_LEN_MAX];    
 694:rtos/uC-Shell/Source/shell.c ****     SHELL_MODULE_CMD  *pmodule_cmd_list;
 695:rtos/uC-Shell/Source/shell.c ****     SHELL_MODULE_CMD  *pmodule_cmd;
 696:rtos/uC-Shell/Source/shell.c ****     SHELL_CMD         *pcmd_list;
 697:rtos/uC-Shell/Source/shell.c ****     SHELL_CMD         *pcmd;
 698:rtos/uC-Shell/Source/shell.c ****     CPU_INT16S         name_compare;
 699:rtos/uC-Shell/Source/shell.c ****     CPU_INT16U         i; 
 700:rtos/uC-Shell/Source/shell.c ****     SHELL_CMD_FNCT     fnct;
 701:rtos/uC-Shell/Source/shell.c **** 
 702:rtos/uC-Shell/Source/shell.c ****                                                                 /* ------------- INIT RECEIVE CMD N
 703:rtos/uC-Shell/Source/shell.c ****     for (i = 0; i < SHELL_CFG_MODULE_CMD_NAME_LEN_MAX; i++) {
 704:rtos/uC-Shell/Source/shell.c ****         module_cmd_name[i] = SHELL_ASCII_ARG_END;   
 705:rtos/uC-Shell/Source/shell.c ****     }
 706:rtos/uC-Shell/Source/shell.c **** 
 707:rtos/uC-Shell/Source/shell.c ****                                                                 /* -------------- EXTRACT MODULE CM
 708:rtos/uC-Shell/Source/shell.c ****     Shell_ModuleCmdNameGet(cmd_name,
 709:rtos/uC-Shell/Source/shell.c ****                            module_cmd_name,
 710:rtos/uC-Shell/Source/shell.c ****                            SHELL_CFG_MODULE_CMD_NAME_LEN_MAX,
 711:rtos/uC-Shell/Source/shell.c ****                            perr);
 712:rtos/uC-Shell/Source/shell.c **** 
 713:rtos/uC-Shell/Source/shell.c ****     if (*perr !=  SHELL_ERR_NONE) {
 714:rtos/uC-Shell/Source/shell.c ****          return ((SHELL_CMD_FNCT)0);
 715:rtos/uC-Shell/Source/shell.c ****     }
 716:rtos/uC-Shell/Source/shell.c **** 
 717:rtos/uC-Shell/Source/shell.c ****                                                                 /* ----------------- SEARCH MODULE 
 718:rtos/uC-Shell/Source/shell.c ****     pmodule_cmd_list = Shell_ModuleCmdUsedPoolPtr;
 719:rtos/uC-Shell/Source/shell.c ****     pmodule_cmd      = DEF_NULL;
 720:rtos/uC-Shell/Source/shell.c **** 
 721:rtos/uC-Shell/Source/shell.c ****     while (pmodule_cmd_list != DEF_NULL) {
 722:rtos/uC-Shell/Source/shell.c ****         name_compare = Str_Cmp(module_cmd_name, pmodule_cmd_list->Name);
 723:rtos/uC-Shell/Source/shell.c ****         if (name_compare == 0) {
 724:rtos/uC-Shell/Source/shell.c ****             pmodule_cmd = pmodule_cmd_list;
 725:rtos/uC-Shell/Source/shell.c ****             break;
 726:rtos/uC-Shell/Source/shell.c ****         }
 727:rtos/uC-Shell/Source/shell.c ****         pmodule_cmd_list = pmodule_cmd_list->NextModuleCmdPtr;
 728:rtos/uC-Shell/Source/shell.c ****     }
 729:rtos/uC-Shell/Source/shell.c **** 
 730:rtos/uC-Shell/Source/shell.c ****     if (pmodule_cmd == DEF_NULL) {
 731:rtos/uC-Shell/Source/shell.c ****        *perr = SHELL_ERR_MODULE_CMD_NOT_FOUND;
 732:rtos/uC-Shell/Source/shell.c ****         return ((SHELL_CMD_FNCT)0);
 733:rtos/uC-Shell/Source/shell.c ****     }
 734:rtos/uC-Shell/Source/shell.c **** 
 735:rtos/uC-Shell/Source/shell.c **** 
 736:rtos/uC-Shell/Source/shell.c ****                                                                 /* -------------------- SEARCH CMD 
 737:rtos/uC-Shell/Source/shell.c ****     pcmd_list = pmodule_cmd->CmdTblPtr;
 738:rtos/uC-Shell/Source/shell.c ****     pcmd      = DEF_NULL;
 739:rtos/uC-Shell/Source/shell.c **** 
 740:rtos/uC-Shell/Source/shell.c ****     while (pcmd_list->Fnct != (SHELL_CMD_FNCT)0) {
 741:rtos/uC-Shell/Source/shell.c ****         name_compare = Str_Cmp(cmd_name, pcmd_list->Name);
 742:rtos/uC-Shell/Source/shell.c ****         if (name_compare == 0) {
 743:rtos/uC-Shell/Source/shell.c ****             pcmd  = pcmd_list;
 744:rtos/uC-Shell/Source/shell.c ****             break;
 745:rtos/uC-Shell/Source/shell.c ****         }
 746:rtos/uC-Shell/Source/shell.c ****         pcmd_list++;
 747:rtos/uC-Shell/Source/shell.c ****     }
 748:rtos/uC-Shell/Source/shell.c **** 
 749:rtos/uC-Shell/Source/shell.c ****     if (pcmd == DEF_NULL) {
ARM GAS  /tmp/cciSp153.s 			page 18


 750:rtos/uC-Shell/Source/shell.c ****        *perr = SHELL_ERR_CMD_NOT_FOUND;
 751:rtos/uC-Shell/Source/shell.c ****         return ((SHELL_CMD_FNCT)0);
 752:rtos/uC-Shell/Source/shell.c ****     }
 753:rtos/uC-Shell/Source/shell.c **** 
 754:rtos/uC-Shell/Source/shell.c ****                                                                 /* ---------------------- RTN CMD -
 755:rtos/uC-Shell/Source/shell.c ****    *perr =  SHELL_ERR_NONE;
 756:rtos/uC-Shell/Source/shell.c ****     fnct = (SHELL_CMD_FNCT)pcmd->Fnct;
 757:rtos/uC-Shell/Source/shell.c **** 
 758:rtos/uC-Shell/Source/shell.c ****     return (fnct);
 759:rtos/uC-Shell/Source/shell.c **** }
 760:rtos/uC-Shell/Source/shell.c **** 
 761:rtos/uC-Shell/Source/shell.c **** 
 762:rtos/uC-Shell/Source/shell.c **** /*
 763:rtos/uC-Shell/Source/shell.c **** ***************************************************************************************************
 764:rtos/uC-Shell/Source/shell.c **** *                                          Shell_ModuleCmdNameGet()
 765:rtos/uC-Shell/Source/shell.c **** *
 766:rtos/uC-Shell/Source/shell.c **** * Description : (1) Get the command module name (prefix) from a command string :
 767:rtos/uC-Shell/Source/shell.c **** *
 768:rtos/uC-Shell/Source/shell.c **** *                   (a) Search for module command name delimiter
 769:rtos/uC-Shell/Source/shell.c **** *                   (b) Copy       module command name
 770:rtos/uC-Shell/Source/shell.c **** *
 771:rtos/uC-Shell/Source/shell.c **** *
 772:rtos/uC-Shell/Source/shell.c **** * Argument(s) : cmd_str          Pointer to command string holding the command module name.
 773:rtos/uC-Shell/Source/shell.c **** *               module_cmd_name  Pointer to a preallocated variable that will receive the module
 774:rtos/uC-Shell/Source/shell.c **** *                                command name.
 775:rtos/uC-Shell/Source/shell.c **** *               len              Length of the array pointed by 'module_cmd_name'.
 776:rtos/uC-Shell/Source/shell.c **** *               perr             Pointer to variable that will receive the return error code from t
 777:rtos/uC-Shell/Source/shell.c **** *                                function :
 778:rtos/uC-Shell/Source/shell.c **** *
 779:rtos/uC-Shell/Source/shell.c **** *                                SHELL_ERR_NONE                      No error. 
 780:rtos/uC-Shell/Source/shell.c **** *                                SHELL_ERR_MODULE_CMD_NAME_NONE      No module command name found.
 781:rtos/uC-Shell/Source/shell.c **** *                                SHELL_ERR_MODULE_CMD_NAME_TOO_LONG  Module command name too long.
 782:rtos/uC-Shell/Source/shell.c **** *                                SHELL_ERR_MODULE_CMD_NAME_COPY      Copy error.
 783:rtos/uC-Shell/Source/shell.c **** *
 784:rtos/uC-Shell/Source/shell.c **** * Return(s)   : none.
 785:rtos/uC-Shell/Source/shell.c **** *
 786:rtos/uC-Shell/Source/shell.c **** * Caller(s)   : Shell_CmdTblAdd(),
 787:rtos/uC-Shell/Source/shell.c **** *               Shell_CmdSearch().
 788:rtos/uC-Shell/Source/shell.c **** *
 789:rtos/uC-Shell/Source/shell.c **** * Note(s)     : (2) The command module name consists in the first part of a command part, that is t
 790:rtos/uC-Shell/Source/shell.c **** *                   part preceding the underscore ('_') character. If there is no underscored chara
 791:rtos/uC-Shell/Source/shell.c **** *                   the command name is interpreted as the commande module name.
 792:rtos/uC-Shell/Source/shell.c **** ***************************************************************************************************
 793:rtos/uC-Shell/Source/shell.c **** */
 794:rtos/uC-Shell/Source/shell.c **** 
 795:rtos/uC-Shell/Source/shell.c **** static  void  Shell_ModuleCmdNameGet (CPU_CHAR    *cmd_str,
 796:rtos/uC-Shell/Source/shell.c ****                                       CPU_CHAR     module_cmd_name[],
 797:rtos/uC-Shell/Source/shell.c ****                                       CPU_INT16U   len,
 798:rtos/uC-Shell/Source/shell.c ****                                       SHELL_ERR   *perr)
 799:rtos/uC-Shell/Source/shell.c **** {
 800:rtos/uC-Shell/Source/shell.c ****     CPU_CHAR     *pcmd;
 801:rtos/uC-Shell/Source/shell.c ****     CPU_BOOLEAN   found;
 802:rtos/uC-Shell/Source/shell.c ****     CPU_INT16U    name_len;
 803:rtos/uC-Shell/Source/shell.c ****     CPU_CHAR     *copy_ret_val;
 804:rtos/uC-Shell/Source/shell.c **** 
 805:rtos/uC-Shell/Source/shell.c **** 
 806:rtos/uC-Shell/Source/shell.c ****     pcmd  = cmd_str;
ARM GAS  /tmp/cciSp153.s 			page 19


 807:rtos/uC-Shell/Source/shell.c ****     found = DEF_NO;
 808:rtos/uC-Shell/Source/shell.c **** 
 809:rtos/uC-Shell/Source/shell.c ****                                                                 /* --------- SEARCH MODULE CMD NAME
 810:rtos/uC-Shell/Source/shell.c ****     while ((pcmd  != DEF_NULL) &&
 811:rtos/uC-Shell/Source/shell.c ****            (found ==  DEF_NO)) {
 812:rtos/uC-Shell/Source/shell.c **** 
 813:rtos/uC-Shell/Source/shell.c ****         if (*pcmd ==  SHELL_ASCII_CDM_NAME_DELIMITER) {
 814:rtos/uC-Shell/Source/shell.c ****              found =  DEF_YES;
 815:rtos/uC-Shell/Source/shell.c ****              break;
 816:rtos/uC-Shell/Source/shell.c ****         } else if (*pcmd == SHELL_ASCII_ARG_END) {
 817:rtos/uC-Shell/Source/shell.c ****              found =  DEF_YES;
 818:rtos/uC-Shell/Source/shell.c ****              break;
 819:rtos/uC-Shell/Source/shell.c ****         }
 820:rtos/uC-Shell/Source/shell.c ****         pcmd++;
 821:rtos/uC-Shell/Source/shell.c ****     }
 822:rtos/uC-Shell/Source/shell.c **** 
 823:rtos/uC-Shell/Source/shell.c ****     if (found == DEF_NO) {
 824:rtos/uC-Shell/Source/shell.c ****        *perr = SHELL_ERR_MODULE_CMD_NAME_NONE;
 825:rtos/uC-Shell/Source/shell.c ****         return;
 826:rtos/uC-Shell/Source/shell.c ****     }
 827:rtos/uC-Shell/Source/shell.c **** 
 828:rtos/uC-Shell/Source/shell.c ****  
 829:rtos/uC-Shell/Source/shell.c ****                                                                 /* --------------- COPY MODULE CMD 
 830:rtos/uC-Shell/Source/shell.c ****     name_len = (pcmd - cmd_str);
 831:rtos/uC-Shell/Source/shell.c ****     if (name_len >= len) {                                      /* If module cmd name too long ... 
 832:rtos/uC-Shell/Source/shell.c ****        *perr = SHELL_ERR_MODULE_CMD_NAME_TOO_LONG;              /* ... rtn with error.             
 833:rtos/uC-Shell/Source/shell.c ****         return;
 834:rtos/uC-Shell/Source/shell.c ****     }
 835:rtos/uC-Shell/Source/shell.c **** 
 836:rtos/uC-Shell/Source/shell.c ****     copy_ret_val = Str_Copy_N(module_cmd_name, cmd_str, name_len);
 837:rtos/uC-Shell/Source/shell.c ****     if (copy_ret_val == (CPU_CHAR)0) {
 838:rtos/uC-Shell/Source/shell.c ****        *perr = SHELL_ERR_MODULE_CMD_NAME_COPY;
 839:rtos/uC-Shell/Source/shell.c ****         return;
 840:rtos/uC-Shell/Source/shell.c ****     }
 841:rtos/uC-Shell/Source/shell.c **** 
 842:rtos/uC-Shell/Source/shell.c **** 
 843:rtos/uC-Shell/Source/shell.c ****    *perr = SHELL_ERR_NONE;
 844:rtos/uC-Shell/Source/shell.c **** }
 845:rtos/uC-Shell/Source/shell.c **** 
 846:rtos/uC-Shell/Source/shell.c **** 
 847:rtos/uC-Shell/Source/shell.c **** /*
 848:rtos/uC-Shell/Source/shell.c **** ***************************************************************************************************
 849:rtos/uC-Shell/Source/shell.c **** *                                            Shell_ModuleCmdClr()
 850:rtos/uC-Shell/Source/shell.c **** *
 851:rtos/uC-Shell/Source/shell.c **** * Description : Clear module command.
 852:rtos/uC-Shell/Source/shell.c **** *
 853:rtos/uC-Shell/Source/shell.c **** * Argument(s) : pmodule_cmd      Pointer to module command.
 854:rtos/uC-Shell/Source/shell.c **** *
 855:rtos/uC-Shell/Source/shell.c **** * Return(s)   : none.
 856:rtos/uC-Shell/Source/shell.c **** *
 857:rtos/uC-Shell/Source/shell.c **** * Caller(s)   : Shell_Init(),
 858:rtos/uC-Shell/Source/shell.c **** *               Shell_CmdTblRem().
 859:rtos/uC-Shell/Source/shell.c **** *
 860:rtos/uC-Shell/Source/shell.c **** * Note(s)     : none.
 861:rtos/uC-Shell/Source/shell.c **** ***************************************************************************************************
 862:rtos/uC-Shell/Source/shell.c **** */
 863:rtos/uC-Shell/Source/shell.c **** 
ARM GAS  /tmp/cciSp153.s 			page 20


 864:rtos/uC-Shell/Source/shell.c **** static  void  Shell_ModuleCmdClr (SHELL_MODULE_CMD  *pmodule_cmd)
 865:rtos/uC-Shell/Source/shell.c **** {
 197              		.loc 1 865 1 is_stmt 1 view -0
 198              		.cfi_startproc
 199              		@ args = 0, pretend = 0, frame = 0
 200              		@ frame_needed = 0, uses_anonymous_args = 0
 201              		.loc 1 865 1 is_stmt 0 view .LVU62
 202 0000 10B5     		push	{r4, lr}
 203              	.LCFI2:
 204              		.cfi_def_cfa_offset 8
 205              		.cfi_offset 4, -8
 206              		.cfi_offset 14, -4
 207 0002 0446     		mov	r4, r0
 866:rtos/uC-Shell/Source/shell.c ****     Str_Copy(pmodule_cmd->Name, "");
 208              		.loc 1 866 5 is_stmt 1 view .LVU63
 209 0004 0349     		ldr	r1, .L16
 210 0006 FFF7FEFF 		bl	Str_Copy
 211              	.LVL22:
 867:rtos/uC-Shell/Source/shell.c **** 
 868:rtos/uC-Shell/Source/shell.c ****     pmodule_cmd->PrevModuleCmdPtr = DEF_NULL;
 212              		.loc 1 868 5 view .LVU64
 213              		.loc 1 868 35 is_stmt 0 view .LVU65
 214 000a 0023     		movs	r3, #0
 215 000c A360     		str	r3, [r4, #8]
 869:rtos/uC-Shell/Source/shell.c ****     pmodule_cmd->NextModuleCmdPtr = DEF_NULL;
 216              		.loc 1 869 5 is_stmt 1 view .LVU66
 217              		.loc 1 869 35 is_stmt 0 view .LVU67
 218 000e E360     		str	r3, [r4, #12]
 870:rtos/uC-Shell/Source/shell.c **** 
 871:rtos/uC-Shell/Source/shell.c ****     pmodule_cmd->CmdTblPtr        = DEF_NULL;
 219              		.loc 1 871 5 is_stmt 1 view .LVU68
 220              		.loc 1 871 35 is_stmt 0 view .LVU69
 221 0010 2361     		str	r3, [r4, #16]
 872:rtos/uC-Shell/Source/shell.c **** }
 222              		.loc 1 872 1 view .LVU70
 223 0012 10BD     		pop	{r4, pc}
 224              	.LVL23:
 225              	.L17:
 226              		.loc 1 872 1 view .LVU71
 227              		.align	2
 228              	.L16:
 229 0014 00000000 		.word	.LC0
 230              		.cfi_endproc
 231              	.LFE7:
 233              		.section	.text.Shell_ModuleCmdNameGet,"ax",%progbits
 234              		.align	1
 235              		.syntax unified
 236              		.thumb
 237              		.thumb_func
 238              		.fpu fpv4-sp-d16
 240              	Shell_ModuleCmdNameGet:
 241              	.LVL24:
 242              	.LFB6:
 799:rtos/uC-Shell/Source/shell.c ****     CPU_CHAR     *pcmd;
 243              		.loc 1 799 1 is_stmt 1 view -0
 244              		.cfi_startproc
 245              		@ args = 0, pretend = 0, frame = 0
ARM GAS  /tmp/cciSp153.s 			page 21


 246              		@ frame_needed = 0, uses_anonymous_args = 0
 799:rtos/uC-Shell/Source/shell.c ****     CPU_CHAR     *pcmd;
 247              		.loc 1 799 1 is_stmt 0 view .LVU73
 248 0000 F8B5     		push	{r3, r4, r5, r6, r7, lr}
 249              	.LCFI3:
 250              		.cfi_def_cfa_offset 24
 251              		.cfi_offset 3, -24
 252              		.cfi_offset 4, -20
 253              		.cfi_offset 5, -16
 254              		.cfi_offset 6, -12
 255              		.cfi_offset 7, -8
 256              		.cfi_offset 14, -4
 257 0002 0646     		mov	r6, r0
 258 0004 0846     		mov	r0, r1
 259              	.LVL25:
 799:rtos/uC-Shell/Source/shell.c ****     CPU_CHAR     *pcmd;
 260              		.loc 1 799 1 view .LVU74
 261 0006 1F46     		mov	r7, r3
 800:rtos/uC-Shell/Source/shell.c ****     CPU_BOOLEAN   found;
 262              		.loc 1 800 5 is_stmt 1 view .LVU75
 801:rtos/uC-Shell/Source/shell.c ****     CPU_INT16U    name_len;
 263              		.loc 1 801 5 view .LVU76
 802:rtos/uC-Shell/Source/shell.c ****     CPU_CHAR     *copy_ret_val;
 264              		.loc 1 802 5 view .LVU77
 803:rtos/uC-Shell/Source/shell.c **** 
 265              		.loc 1 803 5 view .LVU78
 806:rtos/uC-Shell/Source/shell.c ****     found = DEF_NO;
 266              		.loc 1 806 5 view .LVU79
 267              	.LVL26:
 807:rtos/uC-Shell/Source/shell.c **** 
 268              		.loc 1 807 5 view .LVU80
 810:rtos/uC-Shell/Source/shell.c ****            (found ==  DEF_NO)) {
 269              		.loc 1 810 5 view .LVU81
 806:rtos/uC-Shell/Source/shell.c ****     found = DEF_NO;
 270              		.loc 1 806 11 is_stmt 0 view .LVU82
 271 0008 3446     		mov	r4, r6
 810:rtos/uC-Shell/Source/shell.c ****            (found ==  DEF_NO)) {
 272              		.loc 1 810 11 view .LVU83
 273 000a 00E0     		b	.L19
 274              	.LVL27:
 275              	.L30:
 820:rtos/uC-Shell/Source/shell.c ****     }
 276              		.loc 1 820 9 is_stmt 1 view .LVU84
 820:rtos/uC-Shell/Source/shell.c ****     }
 277              		.loc 1 820 13 is_stmt 0 view .LVU85
 278 000c 0134     		adds	r4, r4, #1
 279              	.LVL28:
 280              	.L19:
 810:rtos/uC-Shell/Source/shell.c ****            (found ==  DEF_NO)) {
 281              		.loc 1 810 11 is_stmt 1 view .LVU86
 282 000e 34B1     		cbz	r4, .L29
 813:rtos/uC-Shell/Source/shell.c ****              found =  DEF_YES;
 283              		.loc 1 813 9 view .LVU87
 813:rtos/uC-Shell/Source/shell.c ****              found =  DEF_YES;
 284              		.loc 1 813 13 is_stmt 0 view .LVU88
 285 0010 2578     		ldrb	r5, [r4]	@ zero_extendqisi2
 813:rtos/uC-Shell/Source/shell.c ****              found =  DEF_YES;
ARM GAS  /tmp/cciSp153.s 			page 22


 286              		.loc 1 813 12 view .LVU89
 287 0012 5F2D     		cmp	r5, #95
 288 0014 0CD0     		beq	.L26
 816:rtos/uC-Shell/Source/shell.c ****              found =  DEF_YES;
 289              		.loc 1 816 16 is_stmt 1 view .LVU90
 816:rtos/uC-Shell/Source/shell.c ****              found =  DEF_YES;
 290              		.loc 1 816 19 is_stmt 0 view .LVU91
 291 0016 002D     		cmp	r5, #0
 292 0018 F8D1     		bne	.L30
 817:rtos/uC-Shell/Source/shell.c ****              break;
 293              		.loc 1 817 20 view .LVU92
 294 001a 0123     		movs	r3, #1
 295              	.LVL29:
 817:rtos/uC-Shell/Source/shell.c ****              break;
 296              		.loc 1 817 20 view .LVU93
 297 001c 00E0     		b	.L20
 298              	.LVL30:
 299              	.L29:
 807:rtos/uC-Shell/Source/shell.c **** 
 300              		.loc 1 807 11 view .LVU94
 301 001e 0023     		movs	r3, #0
 302              	.LVL31:
 303              	.L20:
 823:rtos/uC-Shell/Source/shell.c ****        *perr = SHELL_ERR_MODULE_CMD_NAME_NONE;
 304              		.loc 1 823 5 is_stmt 1 view .LVU95
 823:rtos/uC-Shell/Source/shell.c ****        *perr = SHELL_ERR_MODULE_CMD_NAME_NONE;
 305              		.loc 1 823 8 is_stmt 0 view .LVU96
 306 0020 43B1     		cbz	r3, .L31
 830:rtos/uC-Shell/Source/shell.c ****     if (name_len >= len) {                                      /* If module cmd name too long ... 
 307              		.loc 1 830 5 is_stmt 1 view .LVU97
 830:rtos/uC-Shell/Source/shell.c ****     if (name_len >= len) {                                      /* If module cmd name too long ... 
 308              		.loc 1 830 22 is_stmt 0 view .LVU98
 309 0022 A41B     		subs	r4, r4, r6
 310              	.LVL32:
 830:rtos/uC-Shell/Source/shell.c ****     if (name_len >= len) {                                      /* If module cmd name too long ... 
 311              		.loc 1 830 14 view .LVU99
 312 0024 A3B2     		uxth	r3, r4
 313              	.LVL33:
 831:rtos/uC-Shell/Source/shell.c ****        *perr = SHELL_ERR_MODULE_CMD_NAME_TOO_LONG;              /* ... rtn with error.             
 314              		.loc 1 831 5 is_stmt 1 view .LVU100
 831:rtos/uC-Shell/Source/shell.c ****        *perr = SHELL_ERR_MODULE_CMD_NAME_TOO_LONG;              /* ... rtn with error.             
 315              		.loc 1 831 8 is_stmt 0 view .LVU101
 316 0026 9342     		cmp	r3, r2
 317 0028 07D3     		bcc	.L24
 832:rtos/uC-Shell/Source/shell.c ****         return;
 318              		.loc 1 832 8 is_stmt 1 view .LVU102
 832:rtos/uC-Shell/Source/shell.c ****         return;
 319              		.loc 1 832 14 is_stmt 0 view .LVU103
 320 002a 0323     		movs	r3, #3
 321              	.LVL34:
 832:rtos/uC-Shell/Source/shell.c ****         return;
 322              		.loc 1 832 14 view .LVU104
 323 002c 3B80     		strh	r3, [r7]	@ movhi
 833:rtos/uC-Shell/Source/shell.c ****     }
 324              		.loc 1 833 9 is_stmt 1 view .LVU105
 325 002e 03E0     		b	.L18
 326              	.LVL35:
ARM GAS  /tmp/cciSp153.s 			page 23


 327              	.L26:
 814:rtos/uC-Shell/Source/shell.c ****              break;
 328              		.loc 1 814 20 is_stmt 0 view .LVU106
 329 0030 0123     		movs	r3, #1
 330              	.LVL36:
 814:rtos/uC-Shell/Source/shell.c ****              break;
 331              		.loc 1 814 20 view .LVU107
 332 0032 F5E7     		b	.L20
 333              	.LVL37:
 334              	.L31:
 824:rtos/uC-Shell/Source/shell.c ****         return;
 335              		.loc 1 824 8 is_stmt 1 view .LVU108
 824:rtos/uC-Shell/Source/shell.c ****         return;
 336              		.loc 1 824 14 is_stmt 0 view .LVU109
 337 0034 0423     		movs	r3, #4
 338              	.LVL38:
 824:rtos/uC-Shell/Source/shell.c ****         return;
 339              		.loc 1 824 14 view .LVU110
 340 0036 3B80     		strh	r3, [r7]	@ movhi
 825:rtos/uC-Shell/Source/shell.c ****     }
 341              		.loc 1 825 9 is_stmt 1 view .LVU111
 342              	.LVL39:
 343              	.L18:
 844:rtos/uC-Shell/Source/shell.c **** 
 344              		.loc 1 844 1 is_stmt 0 view .LVU112
 345 0038 F8BD     		pop	{r3, r4, r5, r6, r7, pc}
 346              	.LVL40:
 347              	.L24:
 836:rtos/uC-Shell/Source/shell.c ****     if (copy_ret_val == (CPU_CHAR)0) {
 348              		.loc 1 836 5 is_stmt 1 view .LVU113
 836:rtos/uC-Shell/Source/shell.c ****     if (copy_ret_val == (CPU_CHAR)0) {
 349              		.loc 1 836 20 is_stmt 0 view .LVU114
 350 003a A2B2     		uxth	r2, r4
 351              	.LVL41:
 836:rtos/uC-Shell/Source/shell.c ****     if (copy_ret_val == (CPU_CHAR)0) {
 352              		.loc 1 836 20 view .LVU115
 353 003c 3146     		mov	r1, r6
 354 003e FFF7FEFF 		bl	Str_Copy_N
 355              	.LVL42:
 837:rtos/uC-Shell/Source/shell.c ****        *perr = SHELL_ERR_MODULE_CMD_NAME_COPY;
 356              		.loc 1 837 5 is_stmt 1 view .LVU116
 837:rtos/uC-Shell/Source/shell.c ****        *perr = SHELL_ERR_MODULE_CMD_NAME_COPY;
 357              		.loc 1 837 8 is_stmt 0 view .LVU117
 358 0042 10B1     		cbz	r0, .L32
 843:rtos/uC-Shell/Source/shell.c **** }
 359              		.loc 1 843 4 is_stmt 1 view .LVU118
 843:rtos/uC-Shell/Source/shell.c **** }
 360              		.loc 1 843 10 is_stmt 0 view .LVU119
 361 0044 0023     		movs	r3, #0
 362 0046 3B80     		strh	r3, [r7]	@ movhi
 363 0048 F6E7     		b	.L18
 364              	.L32:
 838:rtos/uC-Shell/Source/shell.c ****         return;
 365              		.loc 1 838 8 is_stmt 1 view .LVU120
 838:rtos/uC-Shell/Source/shell.c ****         return;
 366              		.loc 1 838 14 is_stmt 0 view .LVU121
 367 004a 0523     		movs	r3, #5
ARM GAS  /tmp/cciSp153.s 			page 24


 368 004c 3B80     		strh	r3, [r7]	@ movhi
 839:rtos/uC-Shell/Source/shell.c ****     }
 369              		.loc 1 839 9 is_stmt 1 view .LVU122
 370 004e F3E7     		b	.L18
 371              		.cfi_endproc
 372              	.LFE6:
 374              		.section	.text.Shell_CmdSearch,"ax",%progbits
 375              		.align	1
 376              		.syntax unified
 377              		.thumb
 378              		.thumb_func
 379              		.fpu fpv4-sp-d16
 381              	Shell_CmdSearch:
 382              	.LVL43:
 383              	.LFB5:
 692:rtos/uC-Shell/Source/shell.c ****     CPU_CHAR           module_cmd_name[SHELL_CFG_MODULE_CMD_NAME_LEN_MAX];    
 384              		.loc 1 692 1 view -0
 385              		.cfi_startproc
 386              		@ args = 0, pretend = 0, frame = 8
 387              		@ frame_needed = 0, uses_anonymous_args = 0
 692:rtos/uC-Shell/Source/shell.c ****     CPU_CHAR           module_cmd_name[SHELL_CFG_MODULE_CMD_NAME_LEN_MAX];    
 388              		.loc 1 692 1 is_stmt 0 view .LVU124
 389 0000 70B5     		push	{r4, r5, r6, lr}
 390              	.LCFI4:
 391              		.cfi_def_cfa_offset 16
 392              		.cfi_offset 4, -16
 393              		.cfi_offset 5, -12
 394              		.cfi_offset 6, -8
 395              		.cfi_offset 14, -4
 396 0002 82B0     		sub	sp, sp, #8
 397              	.LCFI5:
 398              		.cfi_def_cfa_offset 24
 399 0004 0546     		mov	r5, r0
 400 0006 0E46     		mov	r6, r1
 693:rtos/uC-Shell/Source/shell.c ****     SHELL_MODULE_CMD  *pmodule_cmd_list;
 401              		.loc 1 693 5 is_stmt 1 view .LVU125
 694:rtos/uC-Shell/Source/shell.c ****     SHELL_MODULE_CMD  *pmodule_cmd;
 402              		.loc 1 694 5 view .LVU126
 695:rtos/uC-Shell/Source/shell.c ****     SHELL_CMD         *pcmd_list;
 403              		.loc 1 695 5 view .LVU127
 696:rtos/uC-Shell/Source/shell.c ****     SHELL_CMD         *pcmd;
 404              		.loc 1 696 5 view .LVU128
 697:rtos/uC-Shell/Source/shell.c ****     CPU_INT16S         name_compare;
 405              		.loc 1 697 5 view .LVU129
 698:rtos/uC-Shell/Source/shell.c ****     CPU_INT16U         i; 
 406              		.loc 1 698 5 view .LVU130
 699:rtos/uC-Shell/Source/shell.c ****     SHELL_CMD_FNCT     fnct;
 407              		.loc 1 699 5 view .LVU131
 700:rtos/uC-Shell/Source/shell.c **** 
 408              		.loc 1 700 5 view .LVU132
 703:rtos/uC-Shell/Source/shell.c ****         module_cmd_name[i] = SHELL_ASCII_ARG_END;   
 409              		.loc 1 703 5 view .LVU133
 410              	.LVL44:
 703:rtos/uC-Shell/Source/shell.c ****         module_cmd_name[i] = SHELL_ASCII_ARG_END;   
 411              		.loc 1 703 12 is_stmt 0 view .LVU134
 412 0008 0023     		movs	r3, #0
 413              	.LVL45:
ARM GAS  /tmp/cciSp153.s 			page 25


 414              	.L34:
 703:rtos/uC-Shell/Source/shell.c ****         module_cmd_name[i] = SHELL_ASCII_ARG_END;   
 415              		.loc 1 703 17 is_stmt 1 discriminator 1 view .LVU135
 703:rtos/uC-Shell/Source/shell.c ****         module_cmd_name[i] = SHELL_ASCII_ARG_END;   
 416              		.loc 1 703 5 is_stmt 0 discriminator 1 view .LVU136
 417 000a 052B     		cmp	r3, #5
 418 000c 07D8     		bhi	.L47
 704:rtos/uC-Shell/Source/shell.c ****     }
 419              		.loc 1 704 9 is_stmt 1 discriminator 3 view .LVU137
 704:rtos/uC-Shell/Source/shell.c ****     }
 420              		.loc 1 704 28 is_stmt 0 discriminator 3 view .LVU138
 421 000e 02AA     		add	r2, sp, #8
 422 0010 1A44     		add	r2, r2, r3
 423 0012 0021     		movs	r1, #0
 424 0014 02F8081C 		strb	r1, [r2, #-8]
 703:rtos/uC-Shell/Source/shell.c ****         module_cmd_name[i] = SHELL_ASCII_ARG_END;   
 425              		.loc 1 703 56 is_stmt 1 discriminator 3 view .LVU139
 703:rtos/uC-Shell/Source/shell.c ****         module_cmd_name[i] = SHELL_ASCII_ARG_END;   
 426              		.loc 1 703 57 is_stmt 0 discriminator 3 view .LVU140
 427 0018 0133     		adds	r3, r3, #1
 428              	.LVL46:
 703:rtos/uC-Shell/Source/shell.c ****         module_cmd_name[i] = SHELL_ASCII_ARG_END;   
 429              		.loc 1 703 57 discriminator 3 view .LVU141
 430 001a 9BB2     		uxth	r3, r3
 431              	.LVL47:
 703:rtos/uC-Shell/Source/shell.c ****         module_cmd_name[i] = SHELL_ASCII_ARG_END;   
 432              		.loc 1 703 57 discriminator 3 view .LVU142
 433 001c F5E7     		b	.L34
 434              	.L47:
 708:rtos/uC-Shell/Source/shell.c ****                            module_cmd_name,
 435              		.loc 1 708 5 is_stmt 1 view .LVU143
 436 001e 3346     		mov	r3, r6
 437              	.LVL48:
 708:rtos/uC-Shell/Source/shell.c ****                            module_cmd_name,
 438              		.loc 1 708 5 is_stmt 0 view .LVU144
 439 0020 0622     		movs	r2, #6
 440 0022 6946     		mov	r1, sp
 441 0024 2846     		mov	r0, r5
 442              	.LVL49:
 708:rtos/uC-Shell/Source/shell.c ****                            module_cmd_name,
 443              		.loc 1 708 5 view .LVU145
 444 0026 FFF7FEFF 		bl	Shell_ModuleCmdNameGet
 445              	.LVL50:
 713:rtos/uC-Shell/Source/shell.c ****          return ((SHELL_CMD_FNCT)0);
 446              		.loc 1 713 5 is_stmt 1 view .LVU146
 713:rtos/uC-Shell/Source/shell.c ****          return ((SHELL_CMD_FNCT)0);
 447              		.loc 1 713 9 is_stmt 0 view .LVU147
 448 002a 3388     		ldrh	r3, [r6]
 713:rtos/uC-Shell/Source/shell.c ****          return ((SHELL_CMD_FNCT)0);
 449              		.loc 1 713 8 view .LVU148
 450 002c 1BBB     		cbnz	r3, .L45
 718:rtos/uC-Shell/Source/shell.c ****     pmodule_cmd      = DEF_NULL;
 451              		.loc 1 718 5 is_stmt 1 view .LVU149
 718:rtos/uC-Shell/Source/shell.c ****     pmodule_cmd      = DEF_NULL;
 452              		.loc 1 718 22 is_stmt 0 view .LVU150
 453 002e 134B     		ldr	r3, .L51
 454 0030 1C68     		ldr	r4, [r3]
ARM GAS  /tmp/cciSp153.s 			page 26


 455              	.LVL51:
 719:rtos/uC-Shell/Source/shell.c **** 
 456              		.loc 1 719 5 is_stmt 1 view .LVU151
 721:rtos/uC-Shell/Source/shell.c ****         name_compare = Str_Cmp(module_cmd_name, pmodule_cmd_list->Name);
 457              		.loc 1 721 5 view .LVU152
 458              	.L37:
 721:rtos/uC-Shell/Source/shell.c ****         name_compare = Str_Cmp(module_cmd_name, pmodule_cmd_list->Name);
 459              		.loc 1 721 11 view .LVU153
 460 0032 34B1     		cbz	r4, .L38
 722:rtos/uC-Shell/Source/shell.c ****         if (name_compare == 0) {
 461              		.loc 1 722 9 view .LVU154
 722:rtos/uC-Shell/Source/shell.c ****         if (name_compare == 0) {
 462              		.loc 1 722 24 is_stmt 0 view .LVU155
 463 0034 2146     		mov	r1, r4
 464 0036 6846     		mov	r0, sp
 465 0038 FFF7FEFF 		bl	Str_Cmp
 466              	.LVL52:
 723:rtos/uC-Shell/Source/shell.c ****             pmodule_cmd = pmodule_cmd_list;
 467              		.loc 1 723 9 is_stmt 1 view .LVU156
 723:rtos/uC-Shell/Source/shell.c ****             pmodule_cmd = pmodule_cmd_list;
 468              		.loc 1 723 12 is_stmt 0 view .LVU157
 469 003c 08B1     		cbz	r0, .L38
 727:rtos/uC-Shell/Source/shell.c ****     }
 470              		.loc 1 727 9 is_stmt 1 view .LVU158
 727:rtos/uC-Shell/Source/shell.c ****     }
 471              		.loc 1 727 26 is_stmt 0 view .LVU159
 472 003e E468     		ldr	r4, [r4, #12]
 473              	.LVL53:
 727:rtos/uC-Shell/Source/shell.c ****     }
 474              		.loc 1 727 26 view .LVU160
 475 0040 F7E7     		b	.L37
 476              	.LVL54:
 477              	.L38:
 730:rtos/uC-Shell/Source/shell.c ****        *perr = SHELL_ERR_MODULE_CMD_NOT_FOUND;
 478              		.loc 1 730 5 is_stmt 1 view .LVU161
 730:rtos/uC-Shell/Source/shell.c ****        *perr = SHELL_ERR_MODULE_CMD_NOT_FOUND;
 479              		.loc 1 730 8 is_stmt 0 view .LVU162
 480 0042 4CB1     		cbz	r4, .L48
 737:rtos/uC-Shell/Source/shell.c ****     pcmd      = DEF_NULL;
 481              		.loc 1 737 5 is_stmt 1 view .LVU163
 737:rtos/uC-Shell/Source/shell.c ****     pcmd      = DEF_NULL;
 482              		.loc 1 737 15 is_stmt 0 view .LVU164
 483 0044 2469     		ldr	r4, [r4, #16]
 484              	.LVL55:
 738:rtos/uC-Shell/Source/shell.c **** 
 485              		.loc 1 738 5 is_stmt 1 view .LVU165
 740:rtos/uC-Shell/Source/shell.c ****         name_compare = Str_Cmp(cmd_name, pcmd_list->Name);
 486              		.loc 1 740 5 view .LVU166
 487              	.L41:
 740:rtos/uC-Shell/Source/shell.c ****         name_compare = Str_Cmp(cmd_name, pcmd_list->Name);
 488              		.loc 1 740 11 view .LVU167
 740:rtos/uC-Shell/Source/shell.c ****         name_compare = Str_Cmp(cmd_name, pcmd_list->Name);
 489              		.loc 1 740 21 is_stmt 0 view .LVU168
 490 0046 6368     		ldr	r3, [r4, #4]
 740:rtos/uC-Shell/Source/shell.c ****         name_compare = Str_Cmp(cmd_name, pcmd_list->Name);
 491              		.loc 1 740 11 view .LVU169
 492 0048 53B1     		cbz	r3, .L49
ARM GAS  /tmp/cciSp153.s 			page 27


 741:rtos/uC-Shell/Source/shell.c ****         if (name_compare == 0) {
 493              		.loc 1 741 9 is_stmt 1 view .LVU170
 741:rtos/uC-Shell/Source/shell.c ****         if (name_compare == 0) {
 494              		.loc 1 741 24 is_stmt 0 view .LVU171
 495 004a 2168     		ldr	r1, [r4]
 496 004c 2846     		mov	r0, r5
 497 004e FFF7FEFF 		bl	Str_Cmp
 498              	.LVL56:
 742:rtos/uC-Shell/Source/shell.c ****             pcmd  = pcmd_list;
 499              		.loc 1 742 9 is_stmt 1 view .LVU172
 742:rtos/uC-Shell/Source/shell.c ****             pcmd  = pcmd_list;
 500              		.loc 1 742 12 is_stmt 0 view .LVU173
 501 0052 30B1     		cbz	r0, .L42
 746:rtos/uC-Shell/Source/shell.c ****     }
 502              		.loc 1 746 9 is_stmt 1 view .LVU174
 746:rtos/uC-Shell/Source/shell.c ****     }
 503              		.loc 1 746 18 is_stmt 0 view .LVU175
 504 0054 0834     		adds	r4, r4, #8
 505              	.LVL57:
 746:rtos/uC-Shell/Source/shell.c ****     }
 506              		.loc 1 746 18 view .LVU176
 507 0056 F6E7     		b	.L41
 508              	.LVL58:
 509              	.L48:
 731:rtos/uC-Shell/Source/shell.c ****         return ((SHELL_CMD_FNCT)0);
 510              		.loc 1 731 8 is_stmt 1 view .LVU177
 731:rtos/uC-Shell/Source/shell.c ****         return ((SHELL_CMD_FNCT)0);
 511              		.loc 1 731 14 is_stmt 0 view .LVU178
 512 0058 0823     		movs	r3, #8
 513 005a 3380     		strh	r3, [r6]	@ movhi
 732:rtos/uC-Shell/Source/shell.c ****     }
 514              		.loc 1 732 9 is_stmt 1 view .LVU179
 732:rtos/uC-Shell/Source/shell.c ****     }
 515              		.loc 1 732 16 is_stmt 0 view .LVU180
 516 005c 0020     		movs	r0, #0
 517 005e 04E0     		b	.L33
 518              	.LVL59:
 519              	.L49:
 738:rtos/uC-Shell/Source/shell.c **** 
 520              		.loc 1 738 15 view .LVU181
 521 0060 0024     		movs	r4, #0
 522              	.LVL60:
 523              	.L42:
 749:rtos/uC-Shell/Source/shell.c ****        *perr = SHELL_ERR_CMD_NOT_FOUND;
 524              		.loc 1 749 5 is_stmt 1 view .LVU182
 749:rtos/uC-Shell/Source/shell.c ****        *perr = SHELL_ERR_CMD_NOT_FOUND;
 525              		.loc 1 749 8 is_stmt 0 view .LVU183
 526 0062 24B1     		cbz	r4, .L50
 755:rtos/uC-Shell/Source/shell.c ****     fnct = (SHELL_CMD_FNCT)pcmd->Fnct;
 527              		.loc 1 755 4 is_stmt 1 view .LVU184
 755:rtos/uC-Shell/Source/shell.c ****     fnct = (SHELL_CMD_FNCT)pcmd->Fnct;
 528              		.loc 1 755 10 is_stmt 0 view .LVU185
 529 0064 0023     		movs	r3, #0
 530 0066 3380     		strh	r3, [r6]	@ movhi
 756:rtos/uC-Shell/Source/shell.c **** 
 531              		.loc 1 756 5 is_stmt 1 view .LVU186
 756:rtos/uC-Shell/Source/shell.c **** 
ARM GAS  /tmp/cciSp153.s 			page 28


 532              		.loc 1 756 10 is_stmt 0 view .LVU187
 533 0068 6068     		ldr	r0, [r4, #4]
 534              	.LVL61:
 758:rtos/uC-Shell/Source/shell.c **** }
 535              		.loc 1 758 5 is_stmt 1 view .LVU188
 536              	.L33:
 759:rtos/uC-Shell/Source/shell.c **** 
 537              		.loc 1 759 1 is_stmt 0 view .LVU189
 538 006a 02B0     		add	sp, sp, #8
 539              	.LCFI6:
 540              		.cfi_remember_state
 541              		.cfi_def_cfa_offset 16
 542              		@ sp needed
 543 006c 70BD     		pop	{r4, r5, r6, pc}
 544              	.LVL62:
 545              	.L50:
 546              	.LCFI7:
 547              		.cfi_restore_state
 750:rtos/uC-Shell/Source/shell.c ****         return ((SHELL_CMD_FNCT)0);
 548              		.loc 1 750 8 is_stmt 1 view .LVU190
 750:rtos/uC-Shell/Source/shell.c ****         return ((SHELL_CMD_FNCT)0);
 549              		.loc 1 750 14 is_stmt 0 view .LVU191
 550 006e 0A23     		movs	r3, #10
 551 0070 3380     		strh	r3, [r6]	@ movhi
 751:rtos/uC-Shell/Source/shell.c ****     }
 552              		.loc 1 751 9 is_stmt 1 view .LVU192
 751:rtos/uC-Shell/Source/shell.c ****     }
 553              		.loc 1 751 16 is_stmt 0 view .LVU193
 554 0072 0020     		movs	r0, #0
 555 0074 F9E7     		b	.L33
 556              	.LVL63:
 557              	.L45:
 714:rtos/uC-Shell/Source/shell.c ****     }
 558              		.loc 1 714 17 view .LVU194
 559 0076 0020     		movs	r0, #0
 560 0078 F7E7     		b	.L33
 561              	.L52:
 562 007a 00BF     		.align	2
 563              	.L51:
 564 007c 00000000 		.word	Shell_ModuleCmdUsedPoolPtr
 565              		.cfi_endproc
 566              	.LFE5:
 568              		.section	.text.Shell_Init,"ax",%progbits
 569              		.align	1
 570              		.global	Shell_Init
 571              		.syntax unified
 572              		.thumb
 573              		.thumb_func
 574              		.fpu fpv4-sp-d16
 576              	Shell_Init:
 577              	.LFB0:
 149:rtos/uC-Shell/Source/shell.c ****     CPU_INT16U         i;
 578              		.loc 1 149 1 is_stmt 1 view -0
 579              		.cfi_startproc
 580              		@ args = 0, pretend = 0, frame = 0
 581              		@ frame_needed = 0, uses_anonymous_args = 0
 582 0000 38B5     		push	{r3, r4, r5, lr}
ARM GAS  /tmp/cciSp153.s 			page 29


 583              	.LCFI8:
 584              		.cfi_def_cfa_offset 16
 585              		.cfi_offset 3, -16
 586              		.cfi_offset 4, -12
 587              		.cfi_offset 5, -8
 588              		.cfi_offset 14, -4
 150:rtos/uC-Shell/Source/shell.c ****     SHELL_MODULE_CMD  *pmodule_cmd;
 589              		.loc 1 150 5 view .LVU196
 151:rtos/uC-Shell/Source/shell.c **** 
 590              		.loc 1 151 5 view .LVU197
 155:rtos/uC-Shell/Source/shell.c ****     Shell_ModuleCmdFreePoolPtr = DEF_NULL;
 591              		.loc 1 155 5 view .LVU198
 155:rtos/uC-Shell/Source/shell.c ****     Shell_ModuleCmdFreePoolPtr = DEF_NULL;
 592              		.loc 1 155 32 is_stmt 0 view .LVU199
 593 0002 0025     		movs	r5, #0
 594 0004 0D4B     		ldr	r3, .L59
 595 0006 1D60     		str	r5, [r3]
 156:rtos/uC-Shell/Source/shell.c ****     
 596              		.loc 1 156 5 is_stmt 1 view .LVU200
 156:rtos/uC-Shell/Source/shell.c ****     
 597              		.loc 1 156 32 is_stmt 0 view .LVU201
 598 0008 0D4B     		ldr	r3, .L59+4
 599 000a 1D60     		str	r5, [r3]
 158:rtos/uC-Shell/Source/shell.c ****     for (i = 0; i < SHELL_CFG_CMD_TBL_SIZE; i++) {              /* Free each module cmd to pool (se
 600              		.loc 1 158 5 is_stmt 1 view .LVU202
 601              	.LVL64:
 159:rtos/uC-Shell/Source/shell.c ****         Shell_ModuleCmdClr(pmodule_cmd);
 602              		.loc 1 159 5 view .LVU203
 158:rtos/uC-Shell/Source/shell.c ****     for (i = 0; i < SHELL_CFG_CMD_TBL_SIZE; i++) {              /* Free each module cmd to pool (se
 603              		.loc 1 158 17 is_stmt 0 view .LVU204
 604 000c 0D4C     		ldr	r4, .L59+8
 159:rtos/uC-Shell/Source/shell.c ****         Shell_ModuleCmdClr(pmodule_cmd);
 605              		.loc 1 159 5 view .LVU205
 606 000e 04E0     		b	.L54
 607              	.LVL65:
 608              	.L55:
 170:rtos/uC-Shell/Source/shell.c **** 
 609              		.loc 1 170 9 is_stmt 1 discriminator 2 view .LVU206
 170:rtos/uC-Shell/Source/shell.c **** 
 610              		.loc 1 170 36 is_stmt 0 discriminator 2 view .LVU207
 611 0010 0B4B     		ldr	r3, .L59+4
 612 0012 1C60     		str	r4, [r3]
 173:rtos/uC-Shell/Source/shell.c ****     }
 613              		.loc 1 173 9 is_stmt 1 discriminator 2 view .LVU208
 173:rtos/uC-Shell/Source/shell.c ****     }
 614              		.loc 1 173 20 is_stmt 0 discriminator 2 view .LVU209
 615 0014 1434     		adds	r4, r4, #20
 616              	.LVL66:
 159:rtos/uC-Shell/Source/shell.c ****         Shell_ModuleCmdClr(pmodule_cmd);
 617              		.loc 1 159 45 is_stmt 1 discriminator 2 view .LVU210
 159:rtos/uC-Shell/Source/shell.c ****         Shell_ModuleCmdClr(pmodule_cmd);
 618              		.loc 1 159 46 is_stmt 0 discriminator 2 view .LVU211
 619 0016 0135     		adds	r5, r5, #1
 620              	.LVL67:
 159:rtos/uC-Shell/Source/shell.c ****         Shell_ModuleCmdClr(pmodule_cmd);
 621              		.loc 1 159 46 discriminator 2 view .LVU212
 622 0018 ADB2     		uxth	r5, r5
ARM GAS  /tmp/cciSp153.s 			page 30


 623              	.LVL68:
 624              	.L54:
 159:rtos/uC-Shell/Source/shell.c ****         Shell_ModuleCmdClr(pmodule_cmd);
 625              		.loc 1 159 17 is_stmt 1 discriminator 1 view .LVU213
 159:rtos/uC-Shell/Source/shell.c ****         Shell_ModuleCmdClr(pmodule_cmd);
 626              		.loc 1 159 5 is_stmt 0 discriminator 1 view .LVU214
 627 001a 022D     		cmp	r5, #2
 628 001c 0BD8     		bhi	.L58
 160:rtos/uC-Shell/Source/shell.c **** 
 629              		.loc 1 160 9 is_stmt 1 view .LVU215
 630 001e 2046     		mov	r0, r4
 631 0020 FFF7FEFF 		bl	Shell_ModuleCmdClr
 632              	.LVL69:
 163:rtos/uC-Shell/Source/shell.c ****         pmodule_cmd->NextModuleCmdPtr = Shell_ModuleCmdFreePoolPtr;
 633              		.loc 1 163 9 view .LVU216
 163:rtos/uC-Shell/Source/shell.c ****         pmodule_cmd->NextModuleCmdPtr = Shell_ModuleCmdFreePoolPtr;
 634              		.loc 1 163 39 is_stmt 0 view .LVU217
 635 0024 0023     		movs	r3, #0
 636 0026 A360     		str	r3, [r4, #8]
 164:rtos/uC-Shell/Source/shell.c **** 
 637              		.loc 1 164 9 is_stmt 1 view .LVU218
 164:rtos/uC-Shell/Source/shell.c **** 
 638              		.loc 1 164 39 is_stmt 0 view .LVU219
 639 0028 054B     		ldr	r3, .L59+4
 640 002a 1B68     		ldr	r3, [r3]
 641 002c E360     		str	r3, [r4, #12]
 166:rtos/uC-Shell/Source/shell.c ****             Shell_ModuleCmdFreePoolPtr->PrevModuleCmdPtr = pmodule_cmd;
 642              		.loc 1 166 9 is_stmt 1 view .LVU220
 166:rtos/uC-Shell/Source/shell.c ****             Shell_ModuleCmdFreePoolPtr->PrevModuleCmdPtr = pmodule_cmd;
 643              		.loc 1 166 12 is_stmt 0 view .LVU221
 644 002e 002B     		cmp	r3, #0
 645 0030 EED0     		beq	.L55
 167:rtos/uC-Shell/Source/shell.c ****         }
 646              		.loc 1 167 13 is_stmt 1 view .LVU222
 167:rtos/uC-Shell/Source/shell.c ****         }
 647              		.loc 1 167 58 is_stmt 0 view .LVU223
 648 0032 9C60     		str	r4, [r3, #8]
 649 0034 ECE7     		b	.L55
 650              	.L58:
 176:rtos/uC-Shell/Source/shell.c **** }
 651              		.loc 1 176 5 is_stmt 1 view .LVU224
 177:rtos/uC-Shell/Source/shell.c **** 
 652              		.loc 1 177 1 is_stmt 0 view .LVU225
 653 0036 0120     		movs	r0, #1
 654 0038 38BD     		pop	{r3, r4, r5, pc}
 655              	.LVL70:
 656              	.L60:
 177:rtos/uC-Shell/Source/shell.c **** 
 657              		.loc 1 177 1 view .LVU226
 658 003a 00BF     		.align	2
 659              	.L59:
 660 003c 00000000 		.word	Shell_ModuleCmdUsedPoolPtr
 661 0040 00000000 		.word	Shell_ModuleCmdFreePoolPtr
 662 0044 00000000 		.word	Shell_ModuleCmdTbl
 663              		.cfi_endproc
 664              	.LFE0:
 666              		.section	.text.Shell_Exec,"ax",%progbits
ARM GAS  /tmp/cciSp153.s 			page 31


 667              		.align	1
 668              		.global	Shell_Exec
 669              		.syntax unified
 670              		.thumb
 671              		.thumb_func
 672              		.fpu fpv4-sp-d16
 674              	Shell_Exec:
 675              	.LVL71:
 676              	.LFB1:
 220:rtos/uC-Shell/Source/shell.c ****     CPU_INT16U      argc;    
 677              		.loc 1 220 1 is_stmt 1 view -0
 678              		.cfi_startproc
 679              		@ args = 0, pretend = 0, frame = 24
 680              		@ frame_needed = 0, uses_anonymous_args = 0
 220:rtos/uC-Shell/Source/shell.c ****     CPU_INT16U      argc;    
 681              		.loc 1 220 1 is_stmt 0 view .LVU228
 682 0000 2DE9F041 		push	{r4, r5, r6, r7, r8, lr}
 683              	.LCFI9:
 684              		.cfi_def_cfa_offset 24
 685              		.cfi_offset 4, -24
 686              		.cfi_offset 5, -20
 687              		.cfi_offset 6, -16
 688              		.cfi_offset 7, -12
 689              		.cfi_offset 8, -8
 690              		.cfi_offset 14, -4
 691 0004 86B0     		sub	sp, sp, #24
 692              	.LCFI10:
 693              		.cfi_def_cfa_offset 48
 694 0006 1C46     		mov	r4, r3
 221:rtos/uC-Shell/Source/shell.c ****     CPU_CHAR       *argv[SHELL_CFG_CMD_ARG_NBR_MAX];
 695              		.loc 1 221 5 is_stmt 1 view .LVU229
 222:rtos/uC-Shell/Source/shell.c ****     SHELL_CMD_FNCT  cmd_fnct;
 696              		.loc 1 222 5 view .LVU230
 223:rtos/uC-Shell/Source/shell.c ****     CPU_INT16S      ret_val;
 697              		.loc 1 223 5 view .LVU231
 224:rtos/uC-Shell/Source/shell.c **** 
 698              		.loc 1 224 5 view .LVU232
 228:rtos/uC-Shell/Source/shell.c ****        *perr = SHELL_ERR_NULL_PTR;
 699              		.loc 1 228 5 view .LVU233
 228:rtos/uC-Shell/Source/shell.c ****        *perr = SHELL_ERR_NULL_PTR;
 700              		.loc 1 228 8 is_stmt 0 view .LVU234
 701 0008 68B1     		cbz	r0, .L71
 702 000a 0F46     		mov	r7, r1
 703 000c 1646     		mov	r6, r2
 235:rtos/uC-Shell/Source/shell.c ****                          argv,
 704              		.loc 1 235 5 is_stmt 1 view .LVU235
 235:rtos/uC-Shell/Source/shell.c ****                          argv,
 705              		.loc 1 235 12 is_stmt 0 view .LVU236
 706 000e 0522     		movs	r2, #5
 707              	.LVL72:
 235:rtos/uC-Shell/Source/shell.c ****                          argv,
 708              		.loc 1 235 12 view .LVU237
 709 0010 01A9     		add	r1, sp, #4
 710              	.LVL73:
 235:rtos/uC-Shell/Source/shell.c ****                          argv,
 711              		.loc 1 235 12 view .LVU238
 712 0012 FFF7FEFF 		bl	Shell_Scanner
ARM GAS  /tmp/cciSp153.s 			page 32


 713              	.LVL74:
 235:rtos/uC-Shell/Source/shell.c ****                          argv,
 714              		.loc 1 235 12 view .LVU239
 715 0016 0546     		mov	r5, r0
 716              	.LVL75:
 240:rtos/uC-Shell/Source/shell.c ****         return (0);
 717              		.loc 1 240 5 is_stmt 1 view .LVU240
 240:rtos/uC-Shell/Source/shell.c ****         return (0);
 718              		.loc 1 240 9 is_stmt 0 view .LVU241
 719 0018 2388     		ldrh	r3, [r4]
 240:rtos/uC-Shell/Source/shell.c ****         return (0);
 720              		.loc 1 240 8 view .LVU242
 721 001a 63BB     		cbnz	r3, .L69
 242:rtos/uC-Shell/Source/shell.c ****        *perr = SHELL_ERR_MODULE_CMD_EMPTY;
 722              		.loc 1 242 12 is_stmt 1 view .LVU243
 242:rtos/uC-Shell/Source/shell.c ****        *perr = SHELL_ERR_MODULE_CMD_EMPTY;
 723              		.loc 1 242 15 is_stmt 0 view .LVU244
 724 001c 40B9     		cbnz	r0, .L64
 243:rtos/uC-Shell/Source/shell.c ****         return (0);
 725              		.loc 1 243 8 is_stmt 1 view .LVU245
 243:rtos/uC-Shell/Source/shell.c ****         return (0);
 726              		.loc 1 243 14 is_stmt 0 view .LVU246
 727 001e 0223     		movs	r3, #2
 728 0020 2380     		strh	r3, [r4]	@ movhi
 244:rtos/uC-Shell/Source/shell.c ****     }
 729              		.loc 1 244 9 is_stmt 1 view .LVU247
 244:rtos/uC-Shell/Source/shell.c ****     }
 730              		.loc 1 244 16 is_stmt 0 view .LVU248
 731 0022 0020     		movs	r0, #0
 732              	.LVL76:
 244:rtos/uC-Shell/Source/shell.c ****     }
 733              		.loc 1 244 16 view .LVU249
 734 0024 01E0     		b	.L63
 735              	.LVL77:
 736              	.L71:
 229:rtos/uC-Shell/Source/shell.c ****         return (0);
 737              		.loc 1 229 8 is_stmt 1 view .LVU250
 229:rtos/uC-Shell/Source/shell.c ****         return (0);
 738              		.loc 1 229 14 is_stmt 0 view .LVU251
 739 0026 0123     		movs	r3, #1
 740              	.LVL78:
 229:rtos/uC-Shell/Source/shell.c ****         return (0);
 741              		.loc 1 229 14 view .LVU252
 742 0028 2380     		strh	r3, [r4]	@ movhi
 230:rtos/uC-Shell/Source/shell.c ****     }
 743              		.loc 1 230 9 is_stmt 1 view .LVU253
 744              	.LVL79:
 745              	.L63:
 276:rtos/uC-Shell/Source/shell.c **** 
 746              		.loc 1 276 1 is_stmt 0 view .LVU254
 747 002a 06B0     		add	sp, sp, #24
 748              	.LCFI11:
 749              		.cfi_remember_state
 750              		.cfi_def_cfa_offset 24
 751              		@ sp needed
 752 002c BDE8F081 		pop	{r4, r5, r6, r7, r8, pc}
 753              	.LVL80:
ARM GAS  /tmp/cciSp153.s 			page 33


 754              	.L64:
 755              	.LCFI12:
 756              		.cfi_restore_state
 249:rtos/uC-Shell/Source/shell.c ****     switch (*perr) {
 757              		.loc 1 249 5 is_stmt 1 view .LVU255
 249:rtos/uC-Shell/Source/shell.c ****     switch (*perr) {
 758              		.loc 1 249 16 is_stmt 0 view .LVU256
 759 0030 2146     		mov	r1, r4
 760 0032 0198     		ldr	r0, [sp, #4]
 761              	.LVL81:
 249:rtos/uC-Shell/Source/shell.c ****     switch (*perr) {
 762              		.loc 1 249 16 view .LVU257
 763 0034 FFF7FEFF 		bl	Shell_CmdSearch
 764              	.LVL82:
 765 0038 8046     		mov	r8, r0
 766              	.LVL83:
 250:rtos/uC-Shell/Source/shell.c ****         case SHELL_ERR_NONE:
 767              		.loc 1 250 5 is_stmt 1 view .LVU258
 250:rtos/uC-Shell/Source/shell.c ****         case SHELL_ERR_NONE:
 768              		.loc 1 250 13 is_stmt 0 view .LVU259
 769 003a 2388     		ldrh	r3, [r4]
 770 003c 0A2B     		cmp	r3, #10
 771 003e 0BD8     		bhi	.L65
 772 0040 DFE803F0 		tbb	[pc, r3]
 773              	.L67:
 774 0044 0E       		.byte	(.L68-.L67)/2
 775 0045 0A       		.byte	(.L65-.L67)/2
 776 0046 0A       		.byte	(.L65-.L67)/2
 777 0047 06       		.byte	(.L66-.L67)/2
 778 0048 06       		.byte	(.L66-.L67)/2
 779 0049 0A       		.byte	(.L65-.L67)/2
 780 004a 0A       		.byte	(.L65-.L67)/2
 781 004b 0A       		.byte	(.L65-.L67)/2
 782 004c 06       		.byte	(.L66-.L67)/2
 783 004d 0A       		.byte	(.L65-.L67)/2
 784 004e 06       		.byte	(.L66-.L67)/2
 785 004f 00       		.p2align 1
 786              	.L66:
 258:rtos/uC-Shell/Source/shell.c ****              return (0);
 787              		.loc 1 258 13 is_stmt 1 view .LVU260
 258:rtos/uC-Shell/Source/shell.c ****              return (0);
 788              		.loc 1 258 19 is_stmt 0 view .LVU261
 789 0050 0A23     		movs	r3, #10
 790 0052 2380     		strh	r3, [r4]	@ movhi
 259:rtos/uC-Shell/Source/shell.c **** 
 791              		.loc 1 259 14 is_stmt 1 view .LVU262
 259:rtos/uC-Shell/Source/shell.c **** 
 792              		.loc 1 259 21 is_stmt 0 view .LVU263
 793 0054 0020     		movs	r0, #0
 794              	.LVL84:
 259:rtos/uC-Shell/Source/shell.c **** 
 795              		.loc 1 259 21 view .LVU264
 796 0056 E8E7     		b	.L63
 797              	.LVL85:
 798              	.L65:
 263:rtos/uC-Shell/Source/shell.c ****              return (0);
 799              		.loc 1 263 13 is_stmt 1 view .LVU265
ARM GAS  /tmp/cciSp153.s 			page 34


 263:rtos/uC-Shell/Source/shell.c ****              return (0);
 800              		.loc 1 263 19 is_stmt 0 view .LVU266
 801 0058 0C23     		movs	r3, #12
 802 005a 2380     		strh	r3, [r4]	@ movhi
 264:rtos/uC-Shell/Source/shell.c ****     }
 803              		.loc 1 264 14 is_stmt 1 view .LVU267
 264:rtos/uC-Shell/Source/shell.c ****     }
 804              		.loc 1 264 21 is_stmt 0 view .LVU268
 805 005c 0020     		movs	r0, #0
 806              	.LVL86:
 264:rtos/uC-Shell/Source/shell.c ****     }
 807              		.loc 1 264 21 view .LVU269
 808 005e E4E7     		b	.L63
 809              	.LVL87:
 810              	.L68:
 252:rtos/uC-Shell/Source/shell.c **** 
 811              		.loc 1 252 14 is_stmt 1 view .LVU270
 269:rtos/uC-Shell/Source/shell.c ****     
 812              		.loc 1 269 5 view .LVU271
 269:rtos/uC-Shell/Source/shell.c ****     
 813              		.loc 1 269 15 is_stmt 0 view .LVU272
 814 0060 3346     		mov	r3, r6
 815 0062 3A46     		mov	r2, r7
 816 0064 01A9     		add	r1, sp, #4
 817 0066 2846     		mov	r0, r5
 818              	.LVL88:
 269:rtos/uC-Shell/Source/shell.c ****     
 819              		.loc 1 269 15 view .LVU273
 820 0068 C047     		blx	r8
 821              	.LVL89:
 271:rtos/uC-Shell/Source/shell.c ****        *perr = SHELL_ERR_CMD_EXEC;
 822              		.loc 1 271 5 is_stmt 1 view .LVU274
 271:rtos/uC-Shell/Source/shell.c ****        *perr = SHELL_ERR_CMD_EXEC;
 823              		.loc 1 271 8 is_stmt 0 view .LVU275
 824 006a B0F1FF3F 		cmp	r0, #-1
 825 006e DCD1     		bne	.L63
 272:rtos/uC-Shell/Source/shell.c ****     }
 826              		.loc 1 272 8 is_stmt 1 view .LVU276
 272:rtos/uC-Shell/Source/shell.c ****     }
 827              		.loc 1 272 14 is_stmt 0 view .LVU277
 828 0070 0923     		movs	r3, #9
 829 0072 2380     		strh	r3, [r4]	@ movhi
 830 0074 D9E7     		b	.L63
 831              	.LVL90:
 832              	.L69:
 241:rtos/uC-Shell/Source/shell.c ****     } else if (argc == 0) {
 833              		.loc 1 241 16 view .LVU278
 834 0076 0020     		movs	r0, #0
 835              	.LVL91:
 241:rtos/uC-Shell/Source/shell.c ****     } else if (argc == 0) {
 836              		.loc 1 241 16 view .LVU279
 837 0078 D7E7     		b	.L63
 838              		.cfi_endproc
 839              	.LFE1:
 841              		.section	.text.Shell_CmdTblAdd,"ax",%progbits
 842              		.align	1
 843              		.global	Shell_CmdTblAdd
ARM GAS  /tmp/cciSp153.s 			page 35


 844              		.syntax unified
 845              		.thumb
 846              		.thumb_func
 847              		.fpu fpv4-sp-d16
 849              	Shell_CmdTblAdd:
 850              	.LVL92:
 851              	.LFB2:
 376:rtos/uC-Shell/Source/shell.c ****     SHELL_CMD         *pcmd;
 852              		.loc 1 376 1 is_stmt 1 view -0
 853              		.cfi_startproc
 854              		@ args = 0, pretend = 0, frame = 8
 855              		@ frame_needed = 0, uses_anonymous_args = 0
 376:rtos/uC-Shell/Source/shell.c ****     SHELL_CMD         *pcmd;
 856              		.loc 1 376 1 is_stmt 0 view .LVU281
 857 0000 F0B5     		push	{r4, r5, r6, r7, lr}
 858              	.LCFI13:
 859              		.cfi_def_cfa_offset 20
 860              		.cfi_offset 4, -20
 861              		.cfi_offset 5, -16
 862              		.cfi_offset 6, -12
 863              		.cfi_offset 7, -8
 864              		.cfi_offset 14, -4
 865 0002 83B0     		sub	sp, sp, #12
 866              	.LCFI14:
 867              		.cfi_def_cfa_offset 32
 868 0004 1746     		mov	r7, r2
 377:rtos/uC-Shell/Source/shell.c ****     CPU_SIZE_T         name_len;
 869              		.loc 1 377 5 is_stmt 1 view .LVU282
 378:rtos/uC-Shell/Source/shell.c ****     CPU_CHAR           tbl_name[SHELL_CFG_MODULE_CMD_NAME_LEN_MAX];
 870              		.loc 1 378 5 view .LVU283
 379:rtos/uC-Shell/Source/shell.c ****     CPU_CHAR          *ptbl_name;
 871              		.loc 1 379 5 view .LVU284
 380:rtos/uC-Shell/Source/shell.c ****     SHELL_MODULE_CMD  *pmodule_cmd;
 872              		.loc 1 380 5 view .LVU285
 381:rtos/uC-Shell/Source/shell.c ****     CPU_INT16S         name_compare;
 873              		.loc 1 381 5 view .LVU286
 382:rtos/uC-Shell/Source/shell.c **** 
 874              		.loc 1 382 5 view .LVU287
 386:rtos/uC-Shell/Source/shell.c ****        *perr = SHELL_ERR_NULL_PTR;
 875              		.loc 1 386 5 view .LVU288
 386:rtos/uC-Shell/Source/shell.c ****        *perr = SHELL_ERR_NULL_PTR;
 876              		.loc 1 386 8 is_stmt 0 view .LVU289
 877 0006 A9B1     		cbz	r1, .L88
 878 0008 0546     		mov	r5, r0
 879 000a 0E46     		mov	r6, r1
 391:rtos/uC-Shell/Source/shell.c ****        *perr = SHELL_ERR_MODULE_CMD_EMPTY;                      /* ... rtn err.                    
 880              		.loc 1 391 5 is_stmt 1 view .LVU290
 391:rtos/uC-Shell/Source/shell.c ****        *perr = SHELL_ERR_MODULE_CMD_EMPTY;                      /* ... rtn err.                    
 881              		.loc 1 391 19 is_stmt 0 view .LVU291
 882 000c 4B68     		ldr	r3, [r1, #4]
 391:rtos/uC-Shell/Source/shell.c ****        *perr = SHELL_ERR_MODULE_CMD_EMPTY;                      /* ... rtn err.                    
 883              		.loc 1 391 8 view .LVU292
 884 000e A3B1     		cbz	r3, .L89
 397:rtos/uC-Shell/Source/shell.c **** 
 885              		.loc 1 397 5 is_stmt 1 view .LVU293
 886              	.LVL93:
 399:rtos/uC-Shell/Source/shell.c ****         name_len = Str_Len(cmd_tbl_name);
ARM GAS  /tmp/cciSp153.s 			page 36


 887              		.loc 1 399 5 view .LVU294
 399:rtos/uC-Shell/Source/shell.c ****         name_len = Str_Len(cmd_tbl_name);
 888              		.loc 1 399 8 is_stmt 0 view .LVU295
 889 0010 20B1     		cbz	r0, .L76
 400:rtos/uC-Shell/Source/shell.c ****         if (name_len >= SHELL_CFG_MODULE_CMD_NAME_LEN_MAX) {    /* ... If name too long ...        
 890              		.loc 1 400 9 is_stmt 1 view .LVU296
 400:rtos/uC-Shell/Source/shell.c ****         if (name_len >= SHELL_CFG_MODULE_CMD_NAME_LEN_MAX) {    /* ... If name too long ...        
 891              		.loc 1 400 20 is_stmt 0 view .LVU297
 892 0012 FFF7FEFF 		bl	Str_Len
 893              	.LVL94:
 401:rtos/uC-Shell/Source/shell.c ****            *perr = SHELL_ERR_MODULE_CMD_NAME_TOO_LONG;          /*     ... rtn err.                
 894              		.loc 1 401 9 is_stmt 1 view .LVU298
 401:rtos/uC-Shell/Source/shell.c ****            *perr = SHELL_ERR_MODULE_CMD_NAME_TOO_LONG;          /*     ... rtn err.                
 895              		.loc 1 401 12 is_stmt 0 view .LVU299
 896 0016 0528     		cmp	r0, #5
 897 0018 12D8     		bhi	.L90
 405:rtos/uC-Shell/Source/shell.c ****             ptbl_name = cmd_tbl_name;                           /*     ... use as tbl name.        
 898              		.loc 1 405 16 is_stmt 1 view .LVU300
 405:rtos/uC-Shell/Source/shell.c ****             ptbl_name = cmd_tbl_name;                           /*     ... use as tbl name.        
 899              		.loc 1 405 19 is_stmt 0 view .LVU301
 900 001a 40B9     		cbnz	r0, .L78
 901              	.LVL95:
 902              	.L76:
 411:rtos/uC-Shell/Source/shell.c ****         Shell_ModuleCmdNameGet((CPU_CHAR *)pcmd->Name,          /* ... get name from first command.
 903              		.loc 1 411 9 is_stmt 1 view .LVU302
 412:rtos/uC-Shell/Source/shell.c ****                                            tbl_name,
 904              		.loc 1 412 9 view .LVU303
 905 001c 3B46     		mov	r3, r7
 906 001e 0622     		movs	r2, #6
 907 0020 6946     		mov	r1, sp
 908 0022 3068     		ldr	r0, [r6]
 909 0024 FFF7FEFF 		bl	Shell_ModuleCmdNameGet
 910              	.LVL96:
 417:rtos/uC-Shell/Source/shell.c ****             return;
 911              		.loc 1 417 9 view .LVU304
 417:rtos/uC-Shell/Source/shell.c ****             return;
 912              		.loc 1 417 13 is_stmt 0 view .LVU305
 913 0028 3B88     		ldrh	r3, [r7]
 417:rtos/uC-Shell/Source/shell.c ****             return;
 914              		.loc 1 417 12 view .LVU306
 915 002a CBB9     		cbnz	r3, .L72
 420:rtos/uC-Shell/Source/shell.c ****     }
 916              		.loc 1 420 19 view .LVU307
 917 002c 6D46     		mov	r5, sp
 918              	.LVL97:
 919              	.L78:
 425:rtos/uC-Shell/Source/shell.c ****     while (pmodule_cmd != DEF_NULL) {
 920              		.loc 1 425 5 is_stmt 1 view .LVU308
 425:rtos/uC-Shell/Source/shell.c ****     while (pmodule_cmd != DEF_NULL) {
 921              		.loc 1 425 17 is_stmt 0 view .LVU309
 922 002e 1A4B     		ldr	r3, .L92
 923 0030 1C68     		ldr	r4, [r3]
 924              	.LVL98:
 426:rtos/uC-Shell/Source/shell.c ****         name_compare = Str_Cmp(pmodule_cmd->Name, ptbl_name);
 925              		.loc 1 426 5 is_stmt 1 view .LVU310
 426:rtos/uC-Shell/Source/shell.c ****         name_compare = Str_Cmp(pmodule_cmd->Name, ptbl_name);
 926              		.loc 1 426 11 is_stmt 0 view .LVU311
ARM GAS  /tmp/cciSp153.s 			page 37


 927 0032 09E0     		b	.L79
 928              	.LVL99:
 929              	.L88:
 387:rtos/uC-Shell/Source/shell.c ****         return;
 930              		.loc 1 387 8 is_stmt 1 view .LVU312
 387:rtos/uC-Shell/Source/shell.c ****         return;
 931              		.loc 1 387 14 is_stmt 0 view .LVU313
 932 0034 0123     		movs	r3, #1
 933 0036 1380     		strh	r3, [r2]	@ movhi
 388:rtos/uC-Shell/Source/shell.c ****     }
 934              		.loc 1 388 9 is_stmt 1 view .LVU314
 935 0038 12E0     		b	.L72
 936              	.L89:
 392:rtos/uC-Shell/Source/shell.c ****         return;
 937              		.loc 1 392 8 view .LVU315
 392:rtos/uC-Shell/Source/shell.c ****         return;
 938              		.loc 1 392 14 is_stmt 0 view .LVU316
 939 003a 0223     		movs	r3, #2
 940 003c 1380     		strh	r3, [r2]	@ movhi
 393:rtos/uC-Shell/Source/shell.c ****     }
 941              		.loc 1 393 9 is_stmt 1 view .LVU317
 942 003e 0FE0     		b	.L72
 943              	.LVL100:
 944              	.L90:
 402:rtos/uC-Shell/Source/shell.c ****             return;
 945              		.loc 1 402 12 view .LVU318
 402:rtos/uC-Shell/Source/shell.c ****             return;
 946              		.loc 1 402 18 is_stmt 0 view .LVU319
 947 0040 0323     		movs	r3, #3
 948 0042 3B80     		strh	r3, [r7]	@ movhi
 403:rtos/uC-Shell/Source/shell.c ****         
 949              		.loc 1 403 13 is_stmt 1 view .LVU320
 950 0044 0CE0     		b	.L72
 951              	.LVL101:
 952              	.L81:
 436:rtos/uC-Shell/Source/shell.c ****     }
 953              		.loc 1 436 9 view .LVU321
 436:rtos/uC-Shell/Source/shell.c ****     }
 954              		.loc 1 436 21 is_stmt 0 view .LVU322
 955 0046 E468     		ldr	r4, [r4, #12]
 956              	.LVL102:
 957              	.L79:
 426:rtos/uC-Shell/Source/shell.c ****         name_compare = Str_Cmp(pmodule_cmd->Name, ptbl_name);
 958              		.loc 1 426 11 is_stmt 1 view .LVU323
 959 0048 64B1     		cbz	r4, .L91
 427:rtos/uC-Shell/Source/shell.c **** 
 960              		.loc 1 427 9 view .LVU324
 427:rtos/uC-Shell/Source/shell.c **** 
 961              		.loc 1 427 24 is_stmt 0 view .LVU325
 962 004a 2946     		mov	r1, r5
 963 004c 2046     		mov	r0, r4
 964 004e FFF7FEFF 		bl	Str_Cmp
 965              	.LVL103:
 429:rtos/uC-Shell/Source/shell.c ****             (name_compare           == 0      )) {
 966              		.loc 1 429 9 is_stmt 1 view .LVU326
 429:rtos/uC-Shell/Source/shell.c ****             (name_compare           == 0      )) {
 967              		.loc 1 429 25 is_stmt 0 view .LVU327
ARM GAS  /tmp/cciSp153.s 			page 38


 968 0052 2369     		ldr	r3, [r4, #16]
 429:rtos/uC-Shell/Source/shell.c ****             (name_compare           == 0      )) {
 969              		.loc 1 429 12 view .LVU328
 970 0054 B342     		cmp	r3, r6
 971 0056 01D0     		beq	.L80
 429:rtos/uC-Shell/Source/shell.c ****             (name_compare           == 0      )) {
 972              		.loc 1 429 49 discriminator 1 view .LVU329
 973 0058 0028     		cmp	r0, #0
 974 005a F4D1     		bne	.L81
 975              	.L80:
 432:rtos/uC-Shell/Source/shell.c ****             return;
 976              		.loc 1 432 12 is_stmt 1 view .LVU330
 432:rtos/uC-Shell/Source/shell.c ****             return;
 977              		.loc 1 432 18 is_stmt 0 view .LVU331
 978 005c 0723     		movs	r3, #7
 979 005e 3B80     		strh	r3, [r7]	@ movhi
 433:rtos/uC-Shell/Source/shell.c ****         } 
 980              		.loc 1 433 13 is_stmt 1 view .LVU332
 981              	.LVL104:
 982              	.L72:
 470:rtos/uC-Shell/Source/shell.c **** 
 983              		.loc 1 470 1 is_stmt 0 view .LVU333
 984 0060 03B0     		add	sp, sp, #12
 985              	.LCFI15:
 986              		.cfi_remember_state
 987              		.cfi_def_cfa_offset 20
 988              		@ sp needed
 989 0062 F0BD     		pop	{r4, r5, r6, r7, pc}
 990              	.LVL105:
 991              	.L91:
 992              	.LCFI16:
 993              		.cfi_restore_state
 441:rtos/uC-Shell/Source/shell.c ****                                                                 /* ... get one from pool.          
 994              		.loc 1 441 5 is_stmt 1 view .LVU334
 441:rtos/uC-Shell/Source/shell.c ****                                                                 /* ... get one from pool.          
 995              		.loc 1 441 36 is_stmt 0 view .LVU335
 996 0064 0D4B     		ldr	r3, .L92+4
 997 0066 1C68     		ldr	r4, [r3]
 998              	.LVL106:
 441:rtos/uC-Shell/Source/shell.c ****                                                                 /* ... get one from pool.          
 999              		.loc 1 441 8 view .LVU336
 1000 0068 94B1     		cbz	r4, .L83
 443:rtos/uC-Shell/Source/shell.c ****         Shell_ModuleCmdFreePoolPtr  = pmodule_cmd->NextModuleCmdPtr;
 1001              		.loc 1 443 9 is_stmt 1 view .LVU337
 1002              	.LVL107:
 444:rtos/uC-Shell/Source/shell.c **** 
 1003              		.loc 1 444 9 view .LVU338
 444:rtos/uC-Shell/Source/shell.c **** 
 1004              		.loc 1 444 50 is_stmt 0 view .LVU339
 1005 006a E268     		ldr	r2, [r4, #12]
 444:rtos/uC-Shell/Source/shell.c **** 
 1006              		.loc 1 444 37 view .LVU340
 1007 006c 1A60     		str	r2, [r3]
 453:rtos/uC-Shell/Source/shell.c ****     pmodule_cmd->CmdTblPtr = cmd_tbl;
 1008              		.loc 1 453 5 is_stmt 1 view .LVU341
 1009 006e 2946     		mov	r1, r5
 1010 0070 2046     		mov	r0, r4
ARM GAS  /tmp/cciSp153.s 			page 39


 1011 0072 FFF7FEFF 		bl	Str_Copy
 1012              	.LVL108:
 454:rtos/uC-Shell/Source/shell.c **** 
 1013              		.loc 1 454 5 view .LVU342
 454:rtos/uC-Shell/Source/shell.c **** 
 1014              		.loc 1 454 28 is_stmt 0 view .LVU343
 1015 0076 2661     		str	r6, [r4, #16]
 459:rtos/uC-Shell/Source/shell.c ****     pmodule_cmd->NextModuleCmdPtr = Shell_ModuleCmdUsedPoolPtr;
 1016              		.loc 1 459 5 is_stmt 1 view .LVU344
 459:rtos/uC-Shell/Source/shell.c ****     pmodule_cmd->NextModuleCmdPtr = Shell_ModuleCmdUsedPoolPtr;
 1017              		.loc 1 459 35 is_stmt 0 view .LVU345
 1018 0078 0023     		movs	r3, #0
 1019 007a A360     		str	r3, [r4, #8]
 460:rtos/uC-Shell/Source/shell.c **** 
 1020              		.loc 1 460 5 is_stmt 1 view .LVU346
 460:rtos/uC-Shell/Source/shell.c **** 
 1021              		.loc 1 460 35 is_stmt 0 view .LVU347
 1022 007c 064B     		ldr	r3, .L92
 1023 007e 1B68     		ldr	r3, [r3]
 1024 0080 E360     		str	r3, [r4, #12]
 462:rtos/uC-Shell/Source/shell.c ****         Shell_ModuleCmdUsedPoolPtr->PrevModuleCmdPtr = pmodule_cmd;
 1025              		.loc 1 462 5 is_stmt 1 view .LVU348
 462:rtos/uC-Shell/Source/shell.c ****         Shell_ModuleCmdUsedPoolPtr->PrevModuleCmdPtr = pmodule_cmd;
 1026              		.loc 1 462 8 is_stmt 0 view .LVU349
 1027 0082 03B1     		cbz	r3, .L85
 463:rtos/uC-Shell/Source/shell.c ****     }
 1028              		.loc 1 463 9 is_stmt 1 view .LVU350
 463:rtos/uC-Shell/Source/shell.c ****     }
 1029              		.loc 1 463 54 is_stmt 0 view .LVU351
 1030 0084 9C60     		str	r4, [r3, #8]
 1031              	.L85:
 466:rtos/uC-Shell/Source/shell.c **** 
 1032              		.loc 1 466 5 is_stmt 1 view .LVU352
 466:rtos/uC-Shell/Source/shell.c **** 
 1033              		.loc 1 466 32 is_stmt 0 view .LVU353
 1034 0086 044B     		ldr	r3, .L92
 1035 0088 1C60     		str	r4, [r3]
 469:rtos/uC-Shell/Source/shell.c **** }
 1036              		.loc 1 469 4 is_stmt 1 view .LVU354
 469:rtos/uC-Shell/Source/shell.c **** }
 1037              		.loc 1 469 10 is_stmt 0 view .LVU355
 1038 008a 0023     		movs	r3, #0
 1039 008c 3B80     		strh	r3, [r7]	@ movhi
 1040 008e E7E7     		b	.L72
 1041              	.LVL109:
 1042              	.L83:
 447:rtos/uC-Shell/Source/shell.c ****         return;
 1043              		.loc 1 447 8 is_stmt 1 view .LVU356
 447:rtos/uC-Shell/Source/shell.c ****         return;
 1044              		.loc 1 447 14 is_stmt 0 view .LVU357
 1045 0090 0623     		movs	r3, #6
 1046 0092 3B80     		strh	r3, [r7]	@ movhi
 448:rtos/uC-Shell/Source/shell.c ****     }
 1047              		.loc 1 448 9 is_stmt 1 view .LVU358
 1048 0094 E4E7     		b	.L72
 1049              	.L93:
 1050 0096 00BF     		.align	2
ARM GAS  /tmp/cciSp153.s 			page 40


 1051              	.L92:
 1052 0098 00000000 		.word	Shell_ModuleCmdUsedPoolPtr
 1053 009c 00000000 		.word	Shell_ModuleCmdFreePoolPtr
 1054              		.cfi_endproc
 1055              	.LFE2:
 1057              		.section	.text.Shell_CmdTblRem,"ax",%progbits
 1058              		.align	1
 1059              		.global	Shell_CmdTblRem
 1060              		.syntax unified
 1061              		.thumb
 1062              		.thumb_func
 1063              		.fpu fpv4-sp-d16
 1065              	Shell_CmdTblRem:
 1066              	.LVL110:
 1067              	.LFB3:
 502:rtos/uC-Shell/Source/shell.c ****     SHELL_MODULE_CMD  *pmodule_cmd_list;
 1068              		.loc 1 502 1 view -0
 1069              		.cfi_startproc
 1070              		@ args = 0, pretend = 0, frame = 0
 1071              		@ frame_needed = 0, uses_anonymous_args = 0
 502:rtos/uC-Shell/Source/shell.c ****     SHELL_MODULE_CMD  *pmodule_cmd_list;
 1072              		.loc 1 502 1 is_stmt 0 view .LVU360
 1073 0000 70B5     		push	{r4, r5, r6, lr}
 1074              	.LCFI17:
 1075              		.cfi_def_cfa_offset 16
 1076              		.cfi_offset 4, -16
 1077              		.cfi_offset 5, -12
 1078              		.cfi_offset 6, -8
 1079              		.cfi_offset 14, -4
 1080 0002 0E46     		mov	r6, r1
 503:rtos/uC-Shell/Source/shell.c ****     SHELL_MODULE_CMD  *pmodule_cmd;
 1081              		.loc 1 503 5 is_stmt 1 view .LVU361
 504:rtos/uC-Shell/Source/shell.c ****     CPU_INT16S         name_compare;
 1082              		.loc 1 504 5 view .LVU362
 505:rtos/uC-Shell/Source/shell.c **** 
 1083              		.loc 1 505 5 view .LVU363
 509:rtos/uC-Shell/Source/shell.c ****        *perr = SHELL_ERR_NULL_PTR;
 1084              		.loc 1 509 5 view .LVU364
 509:rtos/uC-Shell/Source/shell.c ****        *perr = SHELL_ERR_NULL_PTR;
 1085              		.loc 1 509 8 is_stmt 0 view .LVU365
 1086 0004 50B1     		cbz	r0, .L106
 1087 0006 0546     		mov	r5, r0
 515:rtos/uC-Shell/Source/shell.c ****     pmodule_cmd      = DEF_NULL;
 1088              		.loc 1 515 5 is_stmt 1 view .LVU366
 515:rtos/uC-Shell/Source/shell.c ****     pmodule_cmd      = DEF_NULL;
 1089              		.loc 1 515 22 is_stmt 0 view .LVU367
 1090 0008 144B     		ldr	r3, .L108
 1091 000a 1C68     		ldr	r4, [r3]
 1092              	.LVL111:
 516:rtos/uC-Shell/Source/shell.c **** 
 1093              		.loc 1 516 5 is_stmt 1 view .LVU368
 518:rtos/uC-Shell/Source/shell.c ****         name_compare = Str_Cmp(cmd_tbl_name, pmodule_cmd_list->Name);
 1094              		.loc 1 518 5 view .LVU369
 1095              	.L97:
 518:rtos/uC-Shell/Source/shell.c ****         name_compare = Str_Cmp(cmd_tbl_name, pmodule_cmd_list->Name);
 1096              		.loc 1 518 11 view .LVU370
 1097 000c 4CB1     		cbz	r4, .L98
ARM GAS  /tmp/cciSp153.s 			page 41


 519:rtos/uC-Shell/Source/shell.c ****         if (name_compare == 0) {
 1098              		.loc 1 519 9 view .LVU371
 519:rtos/uC-Shell/Source/shell.c ****         if (name_compare == 0) {
 1099              		.loc 1 519 24 is_stmt 0 view .LVU372
 1100 000e 2146     		mov	r1, r4
 1101 0010 2846     		mov	r0, r5
 1102 0012 FFF7FEFF 		bl	Str_Cmp
 1103              	.LVL112:
 520:rtos/uC-Shell/Source/shell.c ****             pmodule_cmd = pmodule_cmd_list;
 1104              		.loc 1 520 9 is_stmt 1 view .LVU373
 520:rtos/uC-Shell/Source/shell.c ****             pmodule_cmd = pmodule_cmd_list;
 1105              		.loc 1 520 12 is_stmt 0 view .LVU374
 1106 0016 20B1     		cbz	r0, .L98
 524:rtos/uC-Shell/Source/shell.c ****     }
 1107              		.loc 1 524 9 is_stmt 1 view .LVU375
 524:rtos/uC-Shell/Source/shell.c ****     }
 1108              		.loc 1 524 26 is_stmt 0 view .LVU376
 1109 0018 E468     		ldr	r4, [r4, #12]
 1110              	.LVL113:
 524:rtos/uC-Shell/Source/shell.c ****     }
 1111              		.loc 1 524 26 view .LVU377
 1112 001a F7E7     		b	.L97
 1113              	.LVL114:
 1114              	.L106:
 510:rtos/uC-Shell/Source/shell.c ****         return;
 1115              		.loc 1 510 8 is_stmt 1 view .LVU378
 510:rtos/uC-Shell/Source/shell.c ****         return;
 1116              		.loc 1 510 14 is_stmt 0 view .LVU379
 1117 001c 0123     		movs	r3, #1
 1118 001e 0B80     		strh	r3, [r1]	@ movhi
 511:rtos/uC-Shell/Source/shell.c ****     }
 1119              		.loc 1 511 9 is_stmt 1 view .LVU380
 1120 0020 14E0     		b	.L94
 1121              	.LVL115:
 1122              	.L98:
 527:rtos/uC-Shell/Source/shell.c ****        *perr = SHELL_ERR_MODULE_CMD_NOT_FOUND;
 1123              		.loc 1 527 5 view .LVU381
 527:rtos/uC-Shell/Source/shell.c ****        *perr = SHELL_ERR_MODULE_CMD_NOT_FOUND;
 1124              		.loc 1 527 8 is_stmt 0 view .LVU382
 1125 0022 A4B1     		cbz	r4, .L107
 535:rtos/uC-Shell/Source/shell.c ****         (pmodule_cmd->PrevModuleCmdPtr)->NextModuleCmdPtr = pmodule_cmd->NextModuleCmdPtr;
 1126              		.loc 1 535 5 is_stmt 1 view .LVU383
 535:rtos/uC-Shell/Source/shell.c ****         (pmodule_cmd->PrevModuleCmdPtr)->NextModuleCmdPtr = pmodule_cmd->NextModuleCmdPtr;
 1127              		.loc 1 535 20 is_stmt 0 view .LVU384
 1128 0024 A368     		ldr	r3, [r4, #8]
 535:rtos/uC-Shell/Source/shell.c ****         (pmodule_cmd->PrevModuleCmdPtr)->NextModuleCmdPtr = pmodule_cmd->NextModuleCmdPtr;
 1129              		.loc 1 535 8 view .LVU385
 1130 0026 ABB1     		cbz	r3, .L101
 536:rtos/uC-Shell/Source/shell.c ****     } else {                                                    /* Else ...             set used po
 1131              		.loc 1 536 9 is_stmt 1 view .LVU386
 536:rtos/uC-Shell/Source/shell.c ****     } else {                                                    /* Else ...             set used po
 1132              		.loc 1 536 72 is_stmt 0 view .LVU387
 1133 0028 E268     		ldr	r2, [r4, #12]
 536:rtos/uC-Shell/Source/shell.c ****     } else {                                                    /* Else ...             set used po
 1134              		.loc 1 536 59 view .LVU388
 1135 002a DA60     		str	r2, [r3, #12]
 1136              	.L102:
ARM GAS  /tmp/cciSp153.s 			page 42


 541:rtos/uC-Shell/Source/shell.c ****         (pmodule_cmd->NextModuleCmdPtr)->PrevModuleCmdPtr = pmodule_cmd->PrevModuleCmdPtr;
 1137              		.loc 1 541 5 is_stmt 1 view .LVU389
 541:rtos/uC-Shell/Source/shell.c ****         (pmodule_cmd->NextModuleCmdPtr)->PrevModuleCmdPtr = pmodule_cmd->PrevModuleCmdPtr;
 1138              		.loc 1 541 20 is_stmt 0 view .LVU390
 1139 002c E368     		ldr	r3, [r4, #12]
 541:rtos/uC-Shell/Source/shell.c ****         (pmodule_cmd->NextModuleCmdPtr)->PrevModuleCmdPtr = pmodule_cmd->PrevModuleCmdPtr;
 1140              		.loc 1 541 8 view .LVU391
 1141 002e 0BB1     		cbz	r3, .L103
 542:rtos/uC-Shell/Source/shell.c ****     }
 1142              		.loc 1 542 9 is_stmt 1 view .LVU392
 542:rtos/uC-Shell/Source/shell.c ****     }
 1143              		.loc 1 542 72 is_stmt 0 view .LVU393
 1144 0030 A268     		ldr	r2, [r4, #8]
 542:rtos/uC-Shell/Source/shell.c ****     }
 1145              		.loc 1 542 59 view .LVU394
 1146 0032 9A60     		str	r2, [r3, #8]
 1147              	.L103:
 546:rtos/uC-Shell/Source/shell.c ****     pmodule_cmd->NextModuleCmdPtr = Shell_ModuleCmdFreePoolPtr;
 1148              		.loc 1 546 5 is_stmt 1 view .LVU395
 1149 0034 2046     		mov	r0, r4
 1150 0036 FFF7FEFF 		bl	Shell_ModuleCmdClr
 1151              	.LVL116:
 547:rtos/uC-Shell/Source/shell.c **** 
 1152              		.loc 1 547 5 view .LVU396
 547:rtos/uC-Shell/Source/shell.c **** 
 1153              		.loc 1 547 35 is_stmt 0 view .LVU397
 1154 003a 094B     		ldr	r3, .L108+4
 1155 003c 1B68     		ldr	r3, [r3]
 1156 003e E360     		str	r3, [r4, #12]
 549:rtos/uC-Shell/Source/shell.c ****         Shell_ModuleCmdFreePoolPtr->PrevModuleCmdPtr = pmodule_cmd;
 1157              		.loc 1 549 5 is_stmt 1 view .LVU398
 549:rtos/uC-Shell/Source/shell.c ****         Shell_ModuleCmdFreePoolPtr->PrevModuleCmdPtr = pmodule_cmd;
 1158              		.loc 1 549 8 is_stmt 0 view .LVU399
 1159 0040 03B1     		cbz	r3, .L104
 550:rtos/uC-Shell/Source/shell.c ****     }
 1160              		.loc 1 550 9 is_stmt 1 view .LVU400
 550:rtos/uC-Shell/Source/shell.c ****     }
 1161              		.loc 1 550 54 is_stmt 0 view .LVU401
 1162 0042 9C60     		str	r4, [r3, #8]
 1163              	.L104:
 553:rtos/uC-Shell/Source/shell.c **** 
 1164              		.loc 1 553 5 is_stmt 1 view .LVU402
 553:rtos/uC-Shell/Source/shell.c **** 
 1165              		.loc 1 553 32 is_stmt 0 view .LVU403
 1166 0044 064B     		ldr	r3, .L108+4
 1167 0046 1C60     		str	r4, [r3]
 556:rtos/uC-Shell/Source/shell.c **** }
 1168              		.loc 1 556 4 is_stmt 1 view .LVU404
 556:rtos/uC-Shell/Source/shell.c **** }
 1169              		.loc 1 556 10 is_stmt 0 view .LVU405
 1170 0048 0023     		movs	r3, #0
 1171 004a 3380     		strh	r3, [r6]	@ movhi
 1172              	.LVL117:
 1173              	.L94:
 557:rtos/uC-Shell/Source/shell.c **** 
 1174              		.loc 1 557 1 view .LVU406
 1175 004c 70BD     		pop	{r4, r5, r6, pc}
ARM GAS  /tmp/cciSp153.s 			page 43


 1176              	.LVL118:
 1177              	.L107:
 528:rtos/uC-Shell/Source/shell.c ****         return;
 1178              		.loc 1 528 8 is_stmt 1 view .LVU407
 528:rtos/uC-Shell/Source/shell.c ****         return;
 1179              		.loc 1 528 14 is_stmt 0 view .LVU408
 1180 004e 0823     		movs	r3, #8
 1181 0050 3380     		strh	r3, [r6]	@ movhi
 529:rtos/uC-Shell/Source/shell.c ****     }
 1182              		.loc 1 529 9 is_stmt 1 view .LVU409
 1183 0052 FBE7     		b	.L94
 1184              	.L101:
 538:rtos/uC-Shell/Source/shell.c ****     }
 1185              		.loc 1 538 9 view .LVU410
 538:rtos/uC-Shell/Source/shell.c ****     }
 1186              		.loc 1 538 49 is_stmt 0 view .LVU411
 1187 0054 E268     		ldr	r2, [r4, #12]
 538:rtos/uC-Shell/Source/shell.c ****     }
 1188              		.loc 1 538 36 view .LVU412
 1189 0056 014B     		ldr	r3, .L108
 1190 0058 1A60     		str	r2, [r3]
 1191 005a E7E7     		b	.L102
 1192              	.L109:
 1193              		.align	2
 1194              	.L108:
 1195 005c 00000000 		.word	Shell_ModuleCmdUsedPoolPtr
 1196 0060 00000000 		.word	Shell_ModuleCmdFreePoolPtr
 1197              		.cfi_endproc
 1198              	.LFE3:
 1200              		.comm	Shell_ModuleCmdFreePoolPtr,4,4
 1201              		.comm	Shell_ModuleCmdUsedPoolPtr,4,4
 1202              		.comm	Shell_ModuleCmdTbl,60,4
 1203              		.text
 1204              	.Letext0:
 1205              		.file 2 "rtos/uC-CPU/ARM-Cortex-M/ARMv7-M/GNU/cpu.h"
 1206              		.file 3 "rtos/uC-Shell/Source/shell.h"
 1207              		.file 4 "rtos/uC-LIB/lib_str.h"
ARM GAS  /tmp/cciSp153.s 			page 44

