ARM GAS  /tmp/ccUzmqNi.s 			page 1


   1              		.cpu cortex-m4
   2              		.eabi_attribute 27, 1
   3              		.eabi_attribute 28, 1
   4              		.eabi_attribute 20, 1
   5              		.eabi_attribute 21, 1
   6              		.eabi_attribute 23, 3
   7              		.eabi_attribute 24, 1
   8              		.eabi_attribute 25, 1
   9              		.eabi_attribute 26, 1
  10              		.eabi_attribute 30, 1
  11              		.eabi_attribute 34, 1
  12              		.eabi_attribute 18, 4
  13              		.file	"stm32f4xx_hal_rcc.c"
  14              		.text
  15              	.Ltext0:
  16              		.cfi_sections	.debug_frame
  17              		.section	.text.HAL_RCC_DeInit,"ax",%progbits
  18              		.align	1
  19              		.weak	HAL_RCC_DeInit
  20              		.arch armv7e-m
  21              		.syntax unified
  22              		.thumb
  23              		.thumb_func
  24              		.fpu fpv4-sp-d16
  26              	HAL_RCC_DeInit:
  27              	.LFB130:
  28              		.file 1 "bsp/STMicroelectronics/stm32f413/stm32f4xx_hal_driver/Src/stm32f4xx_hal_rcc.c"
   1:bsp/STMicroelectronics/stm32f413/stm32f4xx_hal_driver/Src/stm32f4xx_hal_rcc.c **** /**
   2:bsp/STMicroelectronics/stm32f413/stm32f4xx_hal_driver/Src/stm32f4xx_hal_rcc.c ****   ******************************************************************************
   3:bsp/STMicroelectronics/stm32f413/stm32f4xx_hal_driver/Src/stm32f4xx_hal_rcc.c ****   * @file    stm32f4xx_hal_rcc.c
   4:bsp/STMicroelectronics/stm32f413/stm32f4xx_hal_driver/Src/stm32f4xx_hal_rcc.c ****   * @author  MCD Application Team
   5:bsp/STMicroelectronics/stm32f413/stm32f4xx_hal_driver/Src/stm32f4xx_hal_rcc.c ****   * @brief   RCC HAL module driver.
   6:bsp/STMicroelectronics/stm32f413/stm32f4xx_hal_driver/Src/stm32f4xx_hal_rcc.c ****   *          This file provides firmware functions to manage the following
   7:bsp/STMicroelectronics/stm32f413/stm32f4xx_hal_driver/Src/stm32f4xx_hal_rcc.c ****   *          functionalities of the Reset and Clock Control (RCC) peripheral:
   8:bsp/STMicroelectronics/stm32f413/stm32f4xx_hal_driver/Src/stm32f4xx_hal_rcc.c ****   *           + Initialization and de-initialization functions
   9:bsp/STMicroelectronics/stm32f413/stm32f4xx_hal_driver/Src/stm32f4xx_hal_rcc.c ****   *           + Peripheral Control functions
  10:bsp/STMicroelectronics/stm32f413/stm32f4xx_hal_driver/Src/stm32f4xx_hal_rcc.c ****   *
  11:bsp/STMicroelectronics/stm32f413/stm32f4xx_hal_driver/Src/stm32f4xx_hal_rcc.c ****   @verbatim
  12:bsp/STMicroelectronics/stm32f413/stm32f4xx_hal_driver/Src/stm32f4xx_hal_rcc.c ****   ==============================================================================
  13:bsp/STMicroelectronics/stm32f413/stm32f4xx_hal_driver/Src/stm32f4xx_hal_rcc.c ****                       ##### RCC specific features #####
  14:bsp/STMicroelectronics/stm32f413/stm32f4xx_hal_driver/Src/stm32f4xx_hal_rcc.c ****   ==============================================================================
  15:bsp/STMicroelectronics/stm32f413/stm32f4xx_hal_driver/Src/stm32f4xx_hal_rcc.c ****     [..]
  16:bsp/STMicroelectronics/stm32f413/stm32f4xx_hal_driver/Src/stm32f4xx_hal_rcc.c ****       After reset the device is running from Internal High Speed oscillator
  17:bsp/STMicroelectronics/stm32f413/stm32f4xx_hal_driver/Src/stm32f4xx_hal_rcc.c ****       (HSI 16MHz) with Flash 0 wait state, Flash prefetch buffer, D-Cache
  18:bsp/STMicroelectronics/stm32f413/stm32f4xx_hal_driver/Src/stm32f4xx_hal_rcc.c ****       and I-Cache are disabled, and all peripherals are off except internal
  19:bsp/STMicroelectronics/stm32f413/stm32f4xx_hal_driver/Src/stm32f4xx_hal_rcc.c ****       SRAM, Flash and JTAG.
  20:bsp/STMicroelectronics/stm32f413/stm32f4xx_hal_driver/Src/stm32f4xx_hal_rcc.c ****       (+) There is no prescaler on High speed (AHB) and Low speed (APB) busses;
  21:bsp/STMicroelectronics/stm32f413/stm32f4xx_hal_driver/Src/stm32f4xx_hal_rcc.c ****           all peripherals mapped on these busses are running at HSI speed.
  22:bsp/STMicroelectronics/stm32f413/stm32f4xx_hal_driver/Src/stm32f4xx_hal_rcc.c ****       (+) The clock for all peripherals is switched off, except the SRAM and FLASH.
  23:bsp/STMicroelectronics/stm32f413/stm32f4xx_hal_driver/Src/stm32f4xx_hal_rcc.c ****       (+) All GPIOs are in input floating state, except the JTAG pins which
  24:bsp/STMicroelectronics/stm32f413/stm32f4xx_hal_driver/Src/stm32f4xx_hal_rcc.c ****           are assigned to be used for debug purpose.
  25:bsp/STMicroelectronics/stm32f413/stm32f4xx_hal_driver/Src/stm32f4xx_hal_rcc.c **** 
  26:bsp/STMicroelectronics/stm32f413/stm32f4xx_hal_driver/Src/stm32f4xx_hal_rcc.c ****     [..]
  27:bsp/STMicroelectronics/stm32f413/stm32f4xx_hal_driver/Src/stm32f4xx_hal_rcc.c ****       Once the device started from reset, the user application has to:
  28:bsp/STMicroelectronics/stm32f413/stm32f4xx_hal_driver/Src/stm32f4xx_hal_rcc.c ****       (+) Configure the clock source to be used to drive the System clock
  29:bsp/STMicroelectronics/stm32f413/stm32f4xx_hal_driver/Src/stm32f4xx_hal_rcc.c ****           (if the application needs higher frequency/performance)
  30:bsp/STMicroelectronics/stm32f413/stm32f4xx_hal_driver/Src/stm32f4xx_hal_rcc.c ****       (+) Configure the System clock frequency and Flash settings
ARM GAS  /tmp/ccUzmqNi.s 			page 2


  31:bsp/STMicroelectronics/stm32f413/stm32f4xx_hal_driver/Src/stm32f4xx_hal_rcc.c ****       (+) Configure the AHB and APB busses prescalers
  32:bsp/STMicroelectronics/stm32f413/stm32f4xx_hal_driver/Src/stm32f4xx_hal_rcc.c ****       (+) Enable the clock for the peripheral(s) to be used
  33:bsp/STMicroelectronics/stm32f413/stm32f4xx_hal_driver/Src/stm32f4xx_hal_rcc.c ****       (+) Configure the clock source(s) for peripherals which clocks are not
  34:bsp/STMicroelectronics/stm32f413/stm32f4xx_hal_driver/Src/stm32f4xx_hal_rcc.c ****           derived from the System clock (I2S, RTC, ADC, USB OTG FS/SDIO/RNG)
  35:bsp/STMicroelectronics/stm32f413/stm32f4xx_hal_driver/Src/stm32f4xx_hal_rcc.c **** 
  36:bsp/STMicroelectronics/stm32f413/stm32f4xx_hal_driver/Src/stm32f4xx_hal_rcc.c ****                       ##### RCC Limitations #####
  37:bsp/STMicroelectronics/stm32f413/stm32f4xx_hal_driver/Src/stm32f4xx_hal_rcc.c ****   ==============================================================================
  38:bsp/STMicroelectronics/stm32f413/stm32f4xx_hal_driver/Src/stm32f4xx_hal_rcc.c ****     [..]
  39:bsp/STMicroelectronics/stm32f413/stm32f4xx_hal_driver/Src/stm32f4xx_hal_rcc.c ****       A delay between an RCC peripheral clock enable and the effective peripheral
  40:bsp/STMicroelectronics/stm32f413/stm32f4xx_hal_driver/Src/stm32f4xx_hal_rcc.c ****       enabling should be taken into account in order to manage the peripheral read/write
  41:bsp/STMicroelectronics/stm32f413/stm32f4xx_hal_driver/Src/stm32f4xx_hal_rcc.c ****       from/to registers.
  42:bsp/STMicroelectronics/stm32f413/stm32f4xx_hal_driver/Src/stm32f4xx_hal_rcc.c ****       (+) This delay depends on the peripheral mapping.
  43:bsp/STMicroelectronics/stm32f413/stm32f4xx_hal_driver/Src/stm32f4xx_hal_rcc.c ****       (+) If peripheral is mapped on AHB: the delay is 2 AHB clock cycle
  44:bsp/STMicroelectronics/stm32f413/stm32f4xx_hal_driver/Src/stm32f4xx_hal_rcc.c ****           after the clock enable bit is set on the hardware register
  45:bsp/STMicroelectronics/stm32f413/stm32f4xx_hal_driver/Src/stm32f4xx_hal_rcc.c ****       (+) If peripheral is mapped on APB: the delay is 2 APB clock cycle
  46:bsp/STMicroelectronics/stm32f413/stm32f4xx_hal_driver/Src/stm32f4xx_hal_rcc.c ****           after the clock enable bit is set on the hardware register
  47:bsp/STMicroelectronics/stm32f413/stm32f4xx_hal_driver/Src/stm32f4xx_hal_rcc.c **** 
  48:bsp/STMicroelectronics/stm32f413/stm32f4xx_hal_driver/Src/stm32f4xx_hal_rcc.c ****     [..]
  49:bsp/STMicroelectronics/stm32f413/stm32f4xx_hal_driver/Src/stm32f4xx_hal_rcc.c ****       Implemented Workaround:
  50:bsp/STMicroelectronics/stm32f413/stm32f4xx_hal_driver/Src/stm32f4xx_hal_rcc.c ****       (+) For AHB & APB peripherals, a dummy read to the peripheral register has been
  51:bsp/STMicroelectronics/stm32f413/stm32f4xx_hal_driver/Src/stm32f4xx_hal_rcc.c ****           inserted in each __HAL_RCC_PPP_CLK_ENABLE() macro.
  52:bsp/STMicroelectronics/stm32f413/stm32f4xx_hal_driver/Src/stm32f4xx_hal_rcc.c **** 
  53:bsp/STMicroelectronics/stm32f413/stm32f4xx_hal_driver/Src/stm32f4xx_hal_rcc.c ****   @endverbatim
  54:bsp/STMicroelectronics/stm32f413/stm32f4xx_hal_driver/Src/stm32f4xx_hal_rcc.c ****   ******************************************************************************
  55:bsp/STMicroelectronics/stm32f413/stm32f4xx_hal_driver/Src/stm32f4xx_hal_rcc.c ****   * @attention
  56:bsp/STMicroelectronics/stm32f413/stm32f4xx_hal_driver/Src/stm32f4xx_hal_rcc.c ****   *
  57:bsp/STMicroelectronics/stm32f413/stm32f4xx_hal_driver/Src/stm32f4xx_hal_rcc.c ****   * <h2><center>&copy; Copyright (c) 2017 STMicroelectronics.
  58:bsp/STMicroelectronics/stm32f413/stm32f4xx_hal_driver/Src/stm32f4xx_hal_rcc.c ****   * All rights reserved.</center></h2>
  59:bsp/STMicroelectronics/stm32f413/stm32f4xx_hal_driver/Src/stm32f4xx_hal_rcc.c ****   *
  60:bsp/STMicroelectronics/stm32f413/stm32f4xx_hal_driver/Src/stm32f4xx_hal_rcc.c ****   * This software component is licensed by ST under BSD 3-Clause license,
  61:bsp/STMicroelectronics/stm32f413/stm32f4xx_hal_driver/Src/stm32f4xx_hal_rcc.c ****   * the "License"; You may not use this file except in compliance with the
  62:bsp/STMicroelectronics/stm32f413/stm32f4xx_hal_driver/Src/stm32f4xx_hal_rcc.c ****   * License. You may obtain a copy of the License at:
  63:bsp/STMicroelectronics/stm32f413/stm32f4xx_hal_driver/Src/stm32f4xx_hal_rcc.c ****   *                        opensource.org/licenses/BSD-3-Clause
  64:bsp/STMicroelectronics/stm32f413/stm32f4xx_hal_driver/Src/stm32f4xx_hal_rcc.c ****   *
  65:bsp/STMicroelectronics/stm32f413/stm32f4xx_hal_driver/Src/stm32f4xx_hal_rcc.c ****   ******************************************************************************
  66:bsp/STMicroelectronics/stm32f413/stm32f4xx_hal_driver/Src/stm32f4xx_hal_rcc.c ****   */
  67:bsp/STMicroelectronics/stm32f413/stm32f4xx_hal_driver/Src/stm32f4xx_hal_rcc.c **** 
  68:bsp/STMicroelectronics/stm32f413/stm32f4xx_hal_driver/Src/stm32f4xx_hal_rcc.c **** /* Includes ------------------------------------------------------------------*/
  69:bsp/STMicroelectronics/stm32f413/stm32f4xx_hal_driver/Src/stm32f4xx_hal_rcc.c **** #include "stm32f4xx_hal.h"
  70:bsp/STMicroelectronics/stm32f413/stm32f4xx_hal_driver/Src/stm32f4xx_hal_rcc.c **** 
  71:bsp/STMicroelectronics/stm32f413/stm32f4xx_hal_driver/Src/stm32f4xx_hal_rcc.c **** /** @addtogroup STM32F4xx_HAL_Driver
  72:bsp/STMicroelectronics/stm32f413/stm32f4xx_hal_driver/Src/stm32f4xx_hal_rcc.c ****   * @{
  73:bsp/STMicroelectronics/stm32f413/stm32f4xx_hal_driver/Src/stm32f4xx_hal_rcc.c ****   */
  74:bsp/STMicroelectronics/stm32f413/stm32f4xx_hal_driver/Src/stm32f4xx_hal_rcc.c **** 
  75:bsp/STMicroelectronics/stm32f413/stm32f4xx_hal_driver/Src/stm32f4xx_hal_rcc.c **** /** @defgroup RCC RCC
  76:bsp/STMicroelectronics/stm32f413/stm32f4xx_hal_driver/Src/stm32f4xx_hal_rcc.c ****   * @brief RCC HAL module driver
  77:bsp/STMicroelectronics/stm32f413/stm32f4xx_hal_driver/Src/stm32f4xx_hal_rcc.c ****   * @{
  78:bsp/STMicroelectronics/stm32f413/stm32f4xx_hal_driver/Src/stm32f4xx_hal_rcc.c ****   */
  79:bsp/STMicroelectronics/stm32f413/stm32f4xx_hal_driver/Src/stm32f4xx_hal_rcc.c **** 
  80:bsp/STMicroelectronics/stm32f413/stm32f4xx_hal_driver/Src/stm32f4xx_hal_rcc.c **** #ifdef HAL_RCC_MODULE_ENABLED
  81:bsp/STMicroelectronics/stm32f413/stm32f4xx_hal_driver/Src/stm32f4xx_hal_rcc.c **** 
  82:bsp/STMicroelectronics/stm32f413/stm32f4xx_hal_driver/Src/stm32f4xx_hal_rcc.c **** /* Private typedef -----------------------------------------------------------*/
  83:bsp/STMicroelectronics/stm32f413/stm32f4xx_hal_driver/Src/stm32f4xx_hal_rcc.c **** /* Private define ------------------------------------------------------------*/
  84:bsp/STMicroelectronics/stm32f413/stm32f4xx_hal_driver/Src/stm32f4xx_hal_rcc.c **** /** @addtogroup RCC_Private_Constants
  85:bsp/STMicroelectronics/stm32f413/stm32f4xx_hal_driver/Src/stm32f4xx_hal_rcc.c ****   * @{
  86:bsp/STMicroelectronics/stm32f413/stm32f4xx_hal_driver/Src/stm32f4xx_hal_rcc.c ****   */
  87:bsp/STMicroelectronics/stm32f413/stm32f4xx_hal_driver/Src/stm32f4xx_hal_rcc.c **** 
ARM GAS  /tmp/ccUzmqNi.s 			page 3


  88:bsp/STMicroelectronics/stm32f413/stm32f4xx_hal_driver/Src/stm32f4xx_hal_rcc.c **** /* Private macro -------------------------------------------------------------*/
  89:bsp/STMicroelectronics/stm32f413/stm32f4xx_hal_driver/Src/stm32f4xx_hal_rcc.c **** #define __MCO1_CLK_ENABLE()   __HAL_RCC_GPIOA_CLK_ENABLE()
  90:bsp/STMicroelectronics/stm32f413/stm32f4xx_hal_driver/Src/stm32f4xx_hal_rcc.c **** #define MCO1_GPIO_PORT        GPIOA
  91:bsp/STMicroelectronics/stm32f413/stm32f4xx_hal_driver/Src/stm32f4xx_hal_rcc.c **** #define MCO1_PIN              GPIO_PIN_8
  92:bsp/STMicroelectronics/stm32f413/stm32f4xx_hal_driver/Src/stm32f4xx_hal_rcc.c **** 
  93:bsp/STMicroelectronics/stm32f413/stm32f4xx_hal_driver/Src/stm32f4xx_hal_rcc.c **** #define __MCO2_CLK_ENABLE()   __HAL_RCC_GPIOC_CLK_ENABLE()
  94:bsp/STMicroelectronics/stm32f413/stm32f4xx_hal_driver/Src/stm32f4xx_hal_rcc.c **** #define MCO2_GPIO_PORT         GPIOC
  95:bsp/STMicroelectronics/stm32f413/stm32f4xx_hal_driver/Src/stm32f4xx_hal_rcc.c **** #define MCO2_PIN               GPIO_PIN_9
  96:bsp/STMicroelectronics/stm32f413/stm32f4xx_hal_driver/Src/stm32f4xx_hal_rcc.c **** /**
  97:bsp/STMicroelectronics/stm32f413/stm32f4xx_hal_driver/Src/stm32f4xx_hal_rcc.c ****   * @}
  98:bsp/STMicroelectronics/stm32f413/stm32f4xx_hal_driver/Src/stm32f4xx_hal_rcc.c ****   */
  99:bsp/STMicroelectronics/stm32f413/stm32f4xx_hal_driver/Src/stm32f4xx_hal_rcc.c **** 
 100:bsp/STMicroelectronics/stm32f413/stm32f4xx_hal_driver/Src/stm32f4xx_hal_rcc.c **** /* Private variables ---------------------------------------------------------*/
 101:bsp/STMicroelectronics/stm32f413/stm32f4xx_hal_driver/Src/stm32f4xx_hal_rcc.c **** /** @defgroup RCC_Private_Variables RCC Private Variables
 102:bsp/STMicroelectronics/stm32f413/stm32f4xx_hal_driver/Src/stm32f4xx_hal_rcc.c ****   * @{
 103:bsp/STMicroelectronics/stm32f413/stm32f4xx_hal_driver/Src/stm32f4xx_hal_rcc.c ****   */
 104:bsp/STMicroelectronics/stm32f413/stm32f4xx_hal_driver/Src/stm32f4xx_hal_rcc.c **** /**
 105:bsp/STMicroelectronics/stm32f413/stm32f4xx_hal_driver/Src/stm32f4xx_hal_rcc.c ****   * @}
 106:bsp/STMicroelectronics/stm32f413/stm32f4xx_hal_driver/Src/stm32f4xx_hal_rcc.c ****   */
 107:bsp/STMicroelectronics/stm32f413/stm32f4xx_hal_driver/Src/stm32f4xx_hal_rcc.c **** /* Private function prototypes -----------------------------------------------*/
 108:bsp/STMicroelectronics/stm32f413/stm32f4xx_hal_driver/Src/stm32f4xx_hal_rcc.c **** /* Private functions ---------------------------------------------------------*/
 109:bsp/STMicroelectronics/stm32f413/stm32f4xx_hal_driver/Src/stm32f4xx_hal_rcc.c **** 
 110:bsp/STMicroelectronics/stm32f413/stm32f4xx_hal_driver/Src/stm32f4xx_hal_rcc.c **** /** @defgroup RCC_Exported_Functions RCC Exported Functions
 111:bsp/STMicroelectronics/stm32f413/stm32f4xx_hal_driver/Src/stm32f4xx_hal_rcc.c ****   *  @{
 112:bsp/STMicroelectronics/stm32f413/stm32f4xx_hal_driver/Src/stm32f4xx_hal_rcc.c ****   */
 113:bsp/STMicroelectronics/stm32f413/stm32f4xx_hal_driver/Src/stm32f4xx_hal_rcc.c **** 
 114:bsp/STMicroelectronics/stm32f413/stm32f4xx_hal_driver/Src/stm32f4xx_hal_rcc.c **** /** @defgroup RCC_Exported_Functions_Group1 Initialization and de-initialization functions
 115:bsp/STMicroelectronics/stm32f413/stm32f4xx_hal_driver/Src/stm32f4xx_hal_rcc.c ****  *  @brief    Initialization and Configuration functions
 116:bsp/STMicroelectronics/stm32f413/stm32f4xx_hal_driver/Src/stm32f4xx_hal_rcc.c ****  *
 117:bsp/STMicroelectronics/stm32f413/stm32f4xx_hal_driver/Src/stm32f4xx_hal_rcc.c **** @verbatim
 118:bsp/STMicroelectronics/stm32f413/stm32f4xx_hal_driver/Src/stm32f4xx_hal_rcc.c ****  ===============================================================================
 119:bsp/STMicroelectronics/stm32f413/stm32f4xx_hal_driver/Src/stm32f4xx_hal_rcc.c ****            ##### Initialization and de-initialization functions #####
 120:bsp/STMicroelectronics/stm32f413/stm32f4xx_hal_driver/Src/stm32f4xx_hal_rcc.c ****  ===============================================================================
 121:bsp/STMicroelectronics/stm32f413/stm32f4xx_hal_driver/Src/stm32f4xx_hal_rcc.c ****     [..]
 122:bsp/STMicroelectronics/stm32f413/stm32f4xx_hal_driver/Src/stm32f4xx_hal_rcc.c ****       This section provides functions allowing to configure the internal/external oscillators
 123:bsp/STMicroelectronics/stm32f413/stm32f4xx_hal_driver/Src/stm32f4xx_hal_rcc.c ****       (HSE, HSI, LSE, LSI, PLL, CSS and MCO) and the System busses clocks (SYSCLK, AHB, APB1
 124:bsp/STMicroelectronics/stm32f413/stm32f4xx_hal_driver/Src/stm32f4xx_hal_rcc.c ****        and APB2).
 125:bsp/STMicroelectronics/stm32f413/stm32f4xx_hal_driver/Src/stm32f4xx_hal_rcc.c **** 
 126:bsp/STMicroelectronics/stm32f413/stm32f4xx_hal_driver/Src/stm32f4xx_hal_rcc.c ****     [..] Internal/external clock and PLL configuration
 127:bsp/STMicroelectronics/stm32f413/stm32f4xx_hal_driver/Src/stm32f4xx_hal_rcc.c ****          (#) HSI (high-speed internal), 16 MHz factory-trimmed RC used directly or through
 128:bsp/STMicroelectronics/stm32f413/stm32f4xx_hal_driver/Src/stm32f4xx_hal_rcc.c ****              the PLL as System clock source.
 129:bsp/STMicroelectronics/stm32f413/stm32f4xx_hal_driver/Src/stm32f4xx_hal_rcc.c **** 
 130:bsp/STMicroelectronics/stm32f413/stm32f4xx_hal_driver/Src/stm32f4xx_hal_rcc.c ****          (#) LSI (low-speed internal), 32 KHz low consumption RC used as IWDG and/or RTC
 131:bsp/STMicroelectronics/stm32f413/stm32f4xx_hal_driver/Src/stm32f4xx_hal_rcc.c ****              clock source.
 132:bsp/STMicroelectronics/stm32f413/stm32f4xx_hal_driver/Src/stm32f4xx_hal_rcc.c **** 
 133:bsp/STMicroelectronics/stm32f413/stm32f4xx_hal_driver/Src/stm32f4xx_hal_rcc.c ****          (#) HSE (high-speed external), 4 to 26 MHz crystal oscillator used directly or
 134:bsp/STMicroelectronics/stm32f413/stm32f4xx_hal_driver/Src/stm32f4xx_hal_rcc.c ****              through the PLL as System clock source. Can be used also as RTC clock source.
 135:bsp/STMicroelectronics/stm32f413/stm32f4xx_hal_driver/Src/stm32f4xx_hal_rcc.c **** 
 136:bsp/STMicroelectronics/stm32f413/stm32f4xx_hal_driver/Src/stm32f4xx_hal_rcc.c ****          (#) LSE (low-speed external), 32 KHz oscillator used as RTC clock source.
 137:bsp/STMicroelectronics/stm32f413/stm32f4xx_hal_driver/Src/stm32f4xx_hal_rcc.c **** 
 138:bsp/STMicroelectronics/stm32f413/stm32f4xx_hal_driver/Src/stm32f4xx_hal_rcc.c ****          (#) PLL (clocked by HSI or HSE), featuring two different output clocks:
 139:bsp/STMicroelectronics/stm32f413/stm32f4xx_hal_driver/Src/stm32f4xx_hal_rcc.c ****            (++) The first output is used to generate the high speed system clock (up to 168 MHz)
 140:bsp/STMicroelectronics/stm32f413/stm32f4xx_hal_driver/Src/stm32f4xx_hal_rcc.c ****            (++) The second output is used to generate the clock for the USB OTG FS (48 MHz),
 141:bsp/STMicroelectronics/stm32f413/stm32f4xx_hal_driver/Src/stm32f4xx_hal_rcc.c ****                 the random analog generator (<=48 MHz) and the SDIO (<= 48 MHz).
 142:bsp/STMicroelectronics/stm32f413/stm32f4xx_hal_driver/Src/stm32f4xx_hal_rcc.c **** 
 143:bsp/STMicroelectronics/stm32f413/stm32f4xx_hal_driver/Src/stm32f4xx_hal_rcc.c ****          (#) CSS (Clock security system), once enable using the macro __HAL_RCC_CSS_ENABLE()
 144:bsp/STMicroelectronics/stm32f413/stm32f4xx_hal_driver/Src/stm32f4xx_hal_rcc.c ****              and if a HSE clock failure occurs(HSE used directly or through PLL as System
ARM GAS  /tmp/ccUzmqNi.s 			page 4


 145:bsp/STMicroelectronics/stm32f413/stm32f4xx_hal_driver/Src/stm32f4xx_hal_rcc.c ****              clock source), the System clocks automatically switched to HSI and an interrupt
 146:bsp/STMicroelectronics/stm32f413/stm32f4xx_hal_driver/Src/stm32f4xx_hal_rcc.c ****              is generated if enabled. The interrupt is linked to the Cortex-M4 NMI
 147:bsp/STMicroelectronics/stm32f413/stm32f4xx_hal_driver/Src/stm32f4xx_hal_rcc.c ****              (Non-Maskable Interrupt) exception vector.
 148:bsp/STMicroelectronics/stm32f413/stm32f4xx_hal_driver/Src/stm32f4xx_hal_rcc.c **** 
 149:bsp/STMicroelectronics/stm32f413/stm32f4xx_hal_driver/Src/stm32f4xx_hal_rcc.c ****          (#) MCO1 (microcontroller clock output), used to output HSI, LSE, HSE or PLL
 150:bsp/STMicroelectronics/stm32f413/stm32f4xx_hal_driver/Src/stm32f4xx_hal_rcc.c ****              clock (through a configurable prescaler) on PA8 pin.
 151:bsp/STMicroelectronics/stm32f413/stm32f4xx_hal_driver/Src/stm32f4xx_hal_rcc.c **** 
 152:bsp/STMicroelectronics/stm32f413/stm32f4xx_hal_driver/Src/stm32f4xx_hal_rcc.c ****          (#) MCO2 (microcontroller clock output), used to output HSE, PLL, SYSCLK or PLLI2S
 153:bsp/STMicroelectronics/stm32f413/stm32f4xx_hal_driver/Src/stm32f4xx_hal_rcc.c ****              clock (through a configurable prescaler) on PC9 pin.
 154:bsp/STMicroelectronics/stm32f413/stm32f4xx_hal_driver/Src/stm32f4xx_hal_rcc.c **** 
 155:bsp/STMicroelectronics/stm32f413/stm32f4xx_hal_driver/Src/stm32f4xx_hal_rcc.c ****     [..] System, AHB and APB busses clocks configuration
 156:bsp/STMicroelectronics/stm32f413/stm32f4xx_hal_driver/Src/stm32f4xx_hal_rcc.c ****          (#) Several clock sources can be used to drive the System clock (SYSCLK): HSI,
 157:bsp/STMicroelectronics/stm32f413/stm32f4xx_hal_driver/Src/stm32f4xx_hal_rcc.c ****              HSE and PLL.
 158:bsp/STMicroelectronics/stm32f413/stm32f4xx_hal_driver/Src/stm32f4xx_hal_rcc.c ****              The AHB clock (HCLK) is derived from System clock through configurable
 159:bsp/STMicroelectronics/stm32f413/stm32f4xx_hal_driver/Src/stm32f4xx_hal_rcc.c ****              prescaler and used to clock the CPU, memory and peripherals mapped
 160:bsp/STMicroelectronics/stm32f413/stm32f4xx_hal_driver/Src/stm32f4xx_hal_rcc.c ****              on AHB bus (DMA, GPIO...). APB1 (PCLK1) and APB2 (PCLK2) clocks are derived
 161:bsp/STMicroelectronics/stm32f413/stm32f4xx_hal_driver/Src/stm32f4xx_hal_rcc.c ****              from AHB clock through configurable prescalers and used to clock
 162:bsp/STMicroelectronics/stm32f413/stm32f4xx_hal_driver/Src/stm32f4xx_hal_rcc.c ****              the peripherals mapped on these busses. You can use
 163:bsp/STMicroelectronics/stm32f413/stm32f4xx_hal_driver/Src/stm32f4xx_hal_rcc.c ****              "HAL_RCC_GetSysClockFreq()" function to retrieve the frequencies of these clocks.
 164:bsp/STMicroelectronics/stm32f413/stm32f4xx_hal_driver/Src/stm32f4xx_hal_rcc.c **** 
 165:bsp/STMicroelectronics/stm32f413/stm32f4xx_hal_driver/Src/stm32f4xx_hal_rcc.c ****          (#) For the STM32F405xx/07xx and STM32F415xx/17xx devices, the maximum
 166:bsp/STMicroelectronics/stm32f413/stm32f4xx_hal_driver/Src/stm32f4xx_hal_rcc.c ****              frequency of the SYSCLK and HCLK is 168 MHz, PCLK2 84 MHz and PCLK1 42 MHz.
 167:bsp/STMicroelectronics/stm32f413/stm32f4xx_hal_driver/Src/stm32f4xx_hal_rcc.c ****              Depending on the device voltage range, the maximum frequency should
 168:bsp/STMicroelectronics/stm32f413/stm32f4xx_hal_driver/Src/stm32f4xx_hal_rcc.c ****              be adapted accordingly (refer to the product datasheets for more details).
 169:bsp/STMicroelectronics/stm32f413/stm32f4xx_hal_driver/Src/stm32f4xx_hal_rcc.c **** 
 170:bsp/STMicroelectronics/stm32f413/stm32f4xx_hal_driver/Src/stm32f4xx_hal_rcc.c ****          (#) For the STM32F42xxx, STM32F43xxx, STM32F446xx, STM32F469xx and STM32F479xx devices,
 171:bsp/STMicroelectronics/stm32f413/stm32f4xx_hal_driver/Src/stm32f4xx_hal_rcc.c ****              the maximum frequency of the SYSCLK and HCLK is 180 MHz, PCLK2 90 MHz and PCLK1 45 MHz
 172:bsp/STMicroelectronics/stm32f413/stm32f4xx_hal_driver/Src/stm32f4xx_hal_rcc.c ****              Depending on the device voltage range, the maximum frequency should
 173:bsp/STMicroelectronics/stm32f413/stm32f4xx_hal_driver/Src/stm32f4xx_hal_rcc.c ****              be adapted accordingly (refer to the product datasheets for more details).
 174:bsp/STMicroelectronics/stm32f413/stm32f4xx_hal_driver/Src/stm32f4xx_hal_rcc.c **** 
 175:bsp/STMicroelectronics/stm32f413/stm32f4xx_hal_driver/Src/stm32f4xx_hal_rcc.c ****          (#) For the STM32F401xx, the maximum frequency of the SYSCLK and HCLK is 84 MHz,
 176:bsp/STMicroelectronics/stm32f413/stm32f4xx_hal_driver/Src/stm32f4xx_hal_rcc.c ****              PCLK2 84 MHz and PCLK1 42 MHz.
 177:bsp/STMicroelectronics/stm32f413/stm32f4xx_hal_driver/Src/stm32f4xx_hal_rcc.c ****              Depending on the device voltage range, the maximum frequency should
 178:bsp/STMicroelectronics/stm32f413/stm32f4xx_hal_driver/Src/stm32f4xx_hal_rcc.c ****              be adapted accordingly (refer to the product datasheets for more details).
 179:bsp/STMicroelectronics/stm32f413/stm32f4xx_hal_driver/Src/stm32f4xx_hal_rcc.c **** 
 180:bsp/STMicroelectronics/stm32f413/stm32f4xx_hal_driver/Src/stm32f4xx_hal_rcc.c ****          (#) For the STM32F41xxx, the maximum frequency of the SYSCLK and HCLK is 100 MHz,
 181:bsp/STMicroelectronics/stm32f413/stm32f4xx_hal_driver/Src/stm32f4xx_hal_rcc.c ****              PCLK2 100 MHz and PCLK1 50 MHz.
 182:bsp/STMicroelectronics/stm32f413/stm32f4xx_hal_driver/Src/stm32f4xx_hal_rcc.c ****              Depending on the device voltage range, the maximum frequency should
 183:bsp/STMicroelectronics/stm32f413/stm32f4xx_hal_driver/Src/stm32f4xx_hal_rcc.c ****              be adapted accordingly (refer to the product datasheets for more details).
 184:bsp/STMicroelectronics/stm32f413/stm32f4xx_hal_driver/Src/stm32f4xx_hal_rcc.c **** 
 185:bsp/STMicroelectronics/stm32f413/stm32f4xx_hal_driver/Src/stm32f4xx_hal_rcc.c **** @endverbatim
 186:bsp/STMicroelectronics/stm32f413/stm32f4xx_hal_driver/Src/stm32f4xx_hal_rcc.c ****   * @{
 187:bsp/STMicroelectronics/stm32f413/stm32f4xx_hal_driver/Src/stm32f4xx_hal_rcc.c ****   */
 188:bsp/STMicroelectronics/stm32f413/stm32f4xx_hal_driver/Src/stm32f4xx_hal_rcc.c **** 
 189:bsp/STMicroelectronics/stm32f413/stm32f4xx_hal_driver/Src/stm32f4xx_hal_rcc.c **** /**
 190:bsp/STMicroelectronics/stm32f413/stm32f4xx_hal_driver/Src/stm32f4xx_hal_rcc.c ****   * @brief  Resets the RCC clock configuration to the default reset state.
 191:bsp/STMicroelectronics/stm32f413/stm32f4xx_hal_driver/Src/stm32f4xx_hal_rcc.c ****   * @note   The default reset state of the clock configuration is given below:
 192:bsp/STMicroelectronics/stm32f413/stm32f4xx_hal_driver/Src/stm32f4xx_hal_rcc.c ****   *            - HSI ON and used as system clock source
 193:bsp/STMicroelectronics/stm32f413/stm32f4xx_hal_driver/Src/stm32f4xx_hal_rcc.c ****   *            - HSE and PLL OFF
 194:bsp/STMicroelectronics/stm32f413/stm32f4xx_hal_driver/Src/stm32f4xx_hal_rcc.c ****   *            - AHB, APB1 and APB2 prescaler set to 1.
 195:bsp/STMicroelectronics/stm32f413/stm32f4xx_hal_driver/Src/stm32f4xx_hal_rcc.c ****   *            - CSS, MCO1 and MCO2 OFF
 196:bsp/STMicroelectronics/stm32f413/stm32f4xx_hal_driver/Src/stm32f4xx_hal_rcc.c ****   *            - All interrupts disabled
 197:bsp/STMicroelectronics/stm32f413/stm32f4xx_hal_driver/Src/stm32f4xx_hal_rcc.c ****   * @note   This function doesn't modify the configuration of the
 198:bsp/STMicroelectronics/stm32f413/stm32f4xx_hal_driver/Src/stm32f4xx_hal_rcc.c ****   *            - Peripheral clocks
 199:bsp/STMicroelectronics/stm32f413/stm32f4xx_hal_driver/Src/stm32f4xx_hal_rcc.c ****   *            - LSI, LSE and RTC clocks
 200:bsp/STMicroelectronics/stm32f413/stm32f4xx_hal_driver/Src/stm32f4xx_hal_rcc.c ****   * @retval HAL status
 201:bsp/STMicroelectronics/stm32f413/stm32f4xx_hal_driver/Src/stm32f4xx_hal_rcc.c ****   */
ARM GAS  /tmp/ccUzmqNi.s 			page 5


 202:bsp/STMicroelectronics/stm32f413/stm32f4xx_hal_driver/Src/stm32f4xx_hal_rcc.c **** __weak HAL_StatusTypeDef HAL_RCC_DeInit(void)
 203:bsp/STMicroelectronics/stm32f413/stm32f4xx_hal_driver/Src/stm32f4xx_hal_rcc.c **** {
  29              		.loc 1 203 1 view -0
  30              		.cfi_startproc
  31              		@ args = 0, pretend = 0, frame = 0
  32              		@ frame_needed = 0, uses_anonymous_args = 0
  33              		@ link register save eliminated.
 204:bsp/STMicroelectronics/stm32f413/stm32f4xx_hal_driver/Src/stm32f4xx_hal_rcc.c ****   return HAL_OK;
  34              		.loc 1 204 3 view .LVU1
 205:bsp/STMicroelectronics/stm32f413/stm32f4xx_hal_driver/Src/stm32f4xx_hal_rcc.c **** }
  35              		.loc 1 205 1 is_stmt 0 view .LVU2
  36 0000 0020     		movs	r0, #0
  37 0002 7047     		bx	lr
  38              		.cfi_endproc
  39              	.LFE130:
  41              		.section	.text.HAL_RCC_OscConfig,"ax",%progbits
  42              		.align	1
  43              		.weak	HAL_RCC_OscConfig
  44              		.syntax unified
  45              		.thumb
  46              		.thumb_func
  47              		.fpu fpv4-sp-d16
  49              	HAL_RCC_OscConfig:
  50              	.LVL0:
  51              	.LFB131:
 206:bsp/STMicroelectronics/stm32f413/stm32f4xx_hal_driver/Src/stm32f4xx_hal_rcc.c **** 
 207:bsp/STMicroelectronics/stm32f413/stm32f4xx_hal_driver/Src/stm32f4xx_hal_rcc.c **** /**
 208:bsp/STMicroelectronics/stm32f413/stm32f4xx_hal_driver/Src/stm32f4xx_hal_rcc.c ****   * @brief  Initializes the RCC Oscillators according to the specified parameters in the
 209:bsp/STMicroelectronics/stm32f413/stm32f4xx_hal_driver/Src/stm32f4xx_hal_rcc.c ****   *         RCC_OscInitTypeDef.
 210:bsp/STMicroelectronics/stm32f413/stm32f4xx_hal_driver/Src/stm32f4xx_hal_rcc.c ****   * @param  RCC_OscInitStruct pointer to an RCC_OscInitTypeDef structure that
 211:bsp/STMicroelectronics/stm32f413/stm32f4xx_hal_driver/Src/stm32f4xx_hal_rcc.c ****   *         contains the configuration information for the RCC Oscillators.
 212:bsp/STMicroelectronics/stm32f413/stm32f4xx_hal_driver/Src/stm32f4xx_hal_rcc.c ****   * @note   The PLL is not disabled when used as system clock.
 213:bsp/STMicroelectronics/stm32f413/stm32f4xx_hal_driver/Src/stm32f4xx_hal_rcc.c ****   * @note   Transitions LSE Bypass to LSE On and LSE On to LSE Bypass are not
 214:bsp/STMicroelectronics/stm32f413/stm32f4xx_hal_driver/Src/stm32f4xx_hal_rcc.c ****   *         supported by this API. User should request a transition to LSE Off
 215:bsp/STMicroelectronics/stm32f413/stm32f4xx_hal_driver/Src/stm32f4xx_hal_rcc.c ****   *         first and then LSE On or LSE Bypass.
 216:bsp/STMicroelectronics/stm32f413/stm32f4xx_hal_driver/Src/stm32f4xx_hal_rcc.c ****   * @note   Transition HSE Bypass to HSE On and HSE On to HSE Bypass are not
 217:bsp/STMicroelectronics/stm32f413/stm32f4xx_hal_driver/Src/stm32f4xx_hal_rcc.c ****   *         supported by this API. User should request a transition to HSE Off
 218:bsp/STMicroelectronics/stm32f413/stm32f4xx_hal_driver/Src/stm32f4xx_hal_rcc.c ****   *         first and then HSE On or HSE Bypass.
 219:bsp/STMicroelectronics/stm32f413/stm32f4xx_hal_driver/Src/stm32f4xx_hal_rcc.c ****   * @retval HAL status
 220:bsp/STMicroelectronics/stm32f413/stm32f4xx_hal_driver/Src/stm32f4xx_hal_rcc.c ****   */
 221:bsp/STMicroelectronics/stm32f413/stm32f4xx_hal_driver/Src/stm32f4xx_hal_rcc.c **** __weak HAL_StatusTypeDef HAL_RCC_OscConfig(RCC_OscInitTypeDef  *RCC_OscInitStruct)
 222:bsp/STMicroelectronics/stm32f413/stm32f4xx_hal_driver/Src/stm32f4xx_hal_rcc.c **** {
  52              		.loc 1 222 1 is_stmt 1 view -0
  53              		.cfi_startproc
  54              		@ args = 0, pretend = 0, frame = 8
  55              		@ frame_needed = 0, uses_anonymous_args = 0
 223:bsp/STMicroelectronics/stm32f413/stm32f4xx_hal_driver/Src/stm32f4xx_hal_rcc.c ****   uint32_t tickstart, pll_config;
  56              		.loc 1 223 3 view .LVU4
 224:bsp/STMicroelectronics/stm32f413/stm32f4xx_hal_driver/Src/stm32f4xx_hal_rcc.c **** 
 225:bsp/STMicroelectronics/stm32f413/stm32f4xx_hal_driver/Src/stm32f4xx_hal_rcc.c ****   /* Check Null pointer */
 226:bsp/STMicroelectronics/stm32f413/stm32f4xx_hal_driver/Src/stm32f4xx_hal_rcc.c ****   if(RCC_OscInitStruct == NULL)
  57              		.loc 1 226 3 view .LVU5
  58              		.loc 1 226 5 is_stmt 0 view .LVU6
  59 0000 0028     		cmp	r0, #0
  60 0002 00F0D981 		beq	.L52
 222:bsp/STMicroelectronics/stm32f413/stm32f4xx_hal_driver/Src/stm32f4xx_hal_rcc.c ****   uint32_t tickstart, pll_config;
  61              		.loc 1 222 1 view .LVU7
ARM GAS  /tmp/ccUzmqNi.s 			page 6


  62 0006 70B5     		push	{r4, r5, r6, lr}
  63              	.LCFI0:
  64              		.cfi_def_cfa_offset 16
  65              		.cfi_offset 4, -16
  66              		.cfi_offset 5, -12
  67              		.cfi_offset 6, -8
  68              		.cfi_offset 14, -4
  69 0008 82B0     		sub	sp, sp, #8
  70              	.LCFI1:
  71              		.cfi_def_cfa_offset 24
  72 000a 0446     		mov	r4, r0
 227:bsp/STMicroelectronics/stm32f413/stm32f4xx_hal_driver/Src/stm32f4xx_hal_rcc.c ****   {
 228:bsp/STMicroelectronics/stm32f413/stm32f4xx_hal_driver/Src/stm32f4xx_hal_rcc.c ****     return HAL_ERROR;
 229:bsp/STMicroelectronics/stm32f413/stm32f4xx_hal_driver/Src/stm32f4xx_hal_rcc.c ****   }
 230:bsp/STMicroelectronics/stm32f413/stm32f4xx_hal_driver/Src/stm32f4xx_hal_rcc.c **** 
 231:bsp/STMicroelectronics/stm32f413/stm32f4xx_hal_driver/Src/stm32f4xx_hal_rcc.c ****   /* Check the parameters */
 232:bsp/STMicroelectronics/stm32f413/stm32f4xx_hal_driver/Src/stm32f4xx_hal_rcc.c ****   assert_param(IS_RCC_OSCILLATORTYPE(RCC_OscInitStruct->OscillatorType));
  73              		.loc 1 232 3 is_stmt 1 view .LVU8
 233:bsp/STMicroelectronics/stm32f413/stm32f4xx_hal_driver/Src/stm32f4xx_hal_rcc.c ****   /*------------------------------- HSE Configuration ------------------------*/
 234:bsp/STMicroelectronics/stm32f413/stm32f4xx_hal_driver/Src/stm32f4xx_hal_rcc.c ****   if(((RCC_OscInitStruct->OscillatorType) & RCC_OSCILLATORTYPE_HSE) == RCC_OSCILLATORTYPE_HSE)
  74              		.loc 1 234 3 view .LVU9
  75              		.loc 1 234 25 is_stmt 0 view .LVU10
  76 000c 0368     		ldr	r3, [r0]
  77              		.loc 1 234 5 view .LVU11
  78 000e 13F0010F 		tst	r3, #1
  79 0012 3BD0     		beq	.L4
 235:bsp/STMicroelectronics/stm32f413/stm32f4xx_hal_driver/Src/stm32f4xx_hal_rcc.c ****   {
 236:bsp/STMicroelectronics/stm32f413/stm32f4xx_hal_driver/Src/stm32f4xx_hal_rcc.c ****     /* Check the parameters */
 237:bsp/STMicroelectronics/stm32f413/stm32f4xx_hal_driver/Src/stm32f4xx_hal_rcc.c ****     assert_param(IS_RCC_HSE(RCC_OscInitStruct->HSEState));
  80              		.loc 1 237 5 is_stmt 1 view .LVU12
 238:bsp/STMicroelectronics/stm32f413/stm32f4xx_hal_driver/Src/stm32f4xx_hal_rcc.c ****     /* When the HSE is used as system clock or clock source for PLL in these cases HSE will not dis
 239:bsp/STMicroelectronics/stm32f413/stm32f4xx_hal_driver/Src/stm32f4xx_hal_rcc.c ****     if((__HAL_RCC_GET_SYSCLK_SOURCE() == RCC_CFGR_SWS_HSE) ||\
  81              		.loc 1 239 5 view .LVU13
  82              		.loc 1 239 9 is_stmt 0 view .LVU14
  83 0014 A64B     		ldr	r3, .L93
  84 0016 9B68     		ldr	r3, [r3, #8]
  85 0018 03F00C03 		and	r3, r3, #12
  86              		.loc 1 239 7 view .LVU15
  87 001c 042B     		cmp	r3, #4
  88 001e 2CD0     		beq	.L5
 240:bsp/STMicroelectronics/stm32f413/stm32f4xx_hal_driver/Src/stm32f4xx_hal_rcc.c ****       ((__HAL_RCC_GET_SYSCLK_SOURCE() == RCC_CFGR_SWS_PLL) && ((RCC->PLLCFGR & RCC_PLLCFGR_PLLSRC) 
  89              		.loc 1 240 9 discriminator 1 view .LVU16
  90 0020 A34B     		ldr	r3, .L93
  91 0022 9B68     		ldr	r3, [r3, #8]
  92 0024 03F00C03 		and	r3, r3, #12
 239:bsp/STMicroelectronics/stm32f413/stm32f4xx_hal_driver/Src/stm32f4xx_hal_rcc.c ****       ((__HAL_RCC_GET_SYSCLK_SOURCE() == RCC_CFGR_SWS_PLL) && ((RCC->PLLCFGR & RCC_PLLCFGR_PLLSRC) 
  93              		.loc 1 239 60 discriminator 1 view .LVU17
  94 0028 082B     		cmp	r3, #8
  95 002a 21D0     		beq	.L79
  96              	.L6:
 241:bsp/STMicroelectronics/stm32f413/stm32f4xx_hal_driver/Src/stm32f4xx_hal_rcc.c ****     {
 242:bsp/STMicroelectronics/stm32f413/stm32f4xx_hal_driver/Src/stm32f4xx_hal_rcc.c ****       if((__HAL_RCC_GET_FLAG(RCC_FLAG_HSERDY) != RESET) && (RCC_OscInitStruct->HSEState == RCC_HSE_
 243:bsp/STMicroelectronics/stm32f413/stm32f4xx_hal_driver/Src/stm32f4xx_hal_rcc.c ****       {
 244:bsp/STMicroelectronics/stm32f413/stm32f4xx_hal_driver/Src/stm32f4xx_hal_rcc.c ****         return HAL_ERROR;
 245:bsp/STMicroelectronics/stm32f413/stm32f4xx_hal_driver/Src/stm32f4xx_hal_rcc.c ****       }
 246:bsp/STMicroelectronics/stm32f413/stm32f4xx_hal_driver/Src/stm32f4xx_hal_rcc.c ****     }
 247:bsp/STMicroelectronics/stm32f413/stm32f4xx_hal_driver/Src/stm32f4xx_hal_rcc.c ****     else
ARM GAS  /tmp/ccUzmqNi.s 			page 7


 248:bsp/STMicroelectronics/stm32f413/stm32f4xx_hal_driver/Src/stm32f4xx_hal_rcc.c ****     {
 249:bsp/STMicroelectronics/stm32f413/stm32f4xx_hal_driver/Src/stm32f4xx_hal_rcc.c ****       /* Set the new HSE configuration ---------------------------------------*/
 250:bsp/STMicroelectronics/stm32f413/stm32f4xx_hal_driver/Src/stm32f4xx_hal_rcc.c ****       __HAL_RCC_HSE_CONFIG(RCC_OscInitStruct->HSEState);
  97              		.loc 1 250 7 is_stmt 1 view .LVU18
  98              		.loc 1 250 7 view .LVU19
  99 002c 6368     		ldr	r3, [r4, #4]
 100 002e B3F5803F 		cmp	r3, #65536
 101 0032 4FD0     		beq	.L80
 102              		.loc 1 250 7 discriminator 2 view .LVU20
 103 0034 B3F5A02F 		cmp	r3, #327680
 104 0038 52D0     		beq	.L81
 105              		.loc 1 250 7 discriminator 5 view .LVU21
 106 003a 9D4B     		ldr	r3, .L93
 107 003c 1A68     		ldr	r2, [r3]
 108 003e 22F48032 		bic	r2, r2, #65536
 109 0042 1A60     		str	r2, [r3]
 110              		.loc 1 250 7 discriminator 5 view .LVU22
 111 0044 1A68     		ldr	r2, [r3]
 112 0046 22F48022 		bic	r2, r2, #262144
 113 004a 1A60     		str	r2, [r3]
 114              	.L8:
 115              		.loc 1 250 7 discriminator 7 view .LVU23
 251:bsp/STMicroelectronics/stm32f413/stm32f4xx_hal_driver/Src/stm32f4xx_hal_rcc.c **** 
 252:bsp/STMicroelectronics/stm32f413/stm32f4xx_hal_driver/Src/stm32f4xx_hal_rcc.c ****       /* Check the HSE State */
 253:bsp/STMicroelectronics/stm32f413/stm32f4xx_hal_driver/Src/stm32f4xx_hal_rcc.c ****       if((RCC_OscInitStruct->HSEState) != RCC_HSE_OFF)
 116              		.loc 1 253 7 discriminator 7 view .LVU24
 117              		.loc 1 253 28 is_stmt 0 discriminator 7 view .LVU25
 118 004c 6368     		ldr	r3, [r4, #4]
 119              		.loc 1 253 9 discriminator 7 view .LVU26
 120 004e 002B     		cmp	r3, #0
 121 0050 50D0     		beq	.L10
 254:bsp/STMicroelectronics/stm32f413/stm32f4xx_hal_driver/Src/stm32f4xx_hal_rcc.c ****       {
 255:bsp/STMicroelectronics/stm32f413/stm32f4xx_hal_driver/Src/stm32f4xx_hal_rcc.c ****         /* Get Start Tick */
 256:bsp/STMicroelectronics/stm32f413/stm32f4xx_hal_driver/Src/stm32f4xx_hal_rcc.c ****         tickstart = HAL_GetTick();
 122              		.loc 1 256 9 is_stmt 1 view .LVU27
 123              		.loc 1 256 21 is_stmt 0 view .LVU28
 124 0052 FFF7FEFF 		bl	HAL_GetTick
 125              	.LVL1:
 126              		.loc 1 256 21 view .LVU29
 127 0056 0546     		mov	r5, r0
 128              	.LVL2:
 257:bsp/STMicroelectronics/stm32f413/stm32f4xx_hal_driver/Src/stm32f4xx_hal_rcc.c **** 
 258:bsp/STMicroelectronics/stm32f413/stm32f4xx_hal_driver/Src/stm32f4xx_hal_rcc.c ****         /* Wait till HSE is ready */
 259:bsp/STMicroelectronics/stm32f413/stm32f4xx_hal_driver/Src/stm32f4xx_hal_rcc.c ****         while(__HAL_RCC_GET_FLAG(RCC_FLAG_HSERDY) == RESET)
 129              		.loc 1 259 9 is_stmt 1 view .LVU30
 130              	.L11:
 131              		.loc 1 259 14 view .LVU31
 132              		.loc 1 259 15 is_stmt 0 view .LVU32
 133 0058 954B     		ldr	r3, .L93
 134 005a 1B68     		ldr	r3, [r3]
 135              		.loc 1 259 14 view .LVU33
 136 005c 13F4003F 		tst	r3, #131072
 137 0060 14D1     		bne	.L4
 260:bsp/STMicroelectronics/stm32f413/stm32f4xx_hal_driver/Src/stm32f4xx_hal_rcc.c ****         {
 261:bsp/STMicroelectronics/stm32f413/stm32f4xx_hal_driver/Src/stm32f4xx_hal_rcc.c ****           if((HAL_GetTick() - tickstart ) > HSE_TIMEOUT_VALUE)
 138              		.loc 1 261 11 is_stmt 1 view .LVU34
 139              		.loc 1 261 15 is_stmt 0 view .LVU35
ARM GAS  /tmp/ccUzmqNi.s 			page 8


 140 0062 FFF7FEFF 		bl	HAL_GetTick
 141              	.LVL3:
 142              		.loc 1 261 29 view .LVU36
 143 0066 401B     		subs	r0, r0, r5
 144              		.loc 1 261 13 view .LVU37
 145 0068 6428     		cmp	r0, #100
 146 006a F5D9     		bls	.L11
 262:bsp/STMicroelectronics/stm32f413/stm32f4xx_hal_driver/Src/stm32f4xx_hal_rcc.c ****           {
 263:bsp/STMicroelectronics/stm32f413/stm32f4xx_hal_driver/Src/stm32f4xx_hal_rcc.c ****             return HAL_TIMEOUT;
 147              		.loc 1 263 20 view .LVU38
 148 006c 0320     		movs	r0, #3
 149 006e AAE1     		b	.L3
 150              	.LVL4:
 151              	.L79:
 240:bsp/STMicroelectronics/stm32f413/stm32f4xx_hal_driver/Src/stm32f4xx_hal_rcc.c ****     {
 152              		.loc 1 240 68 view .LVU39
 153 0070 8F4B     		ldr	r3, .L93
 154 0072 5B68     		ldr	r3, [r3, #4]
 240:bsp/STMicroelectronics/stm32f413/stm32f4xx_hal_driver/Src/stm32f4xx_hal_rcc.c ****     {
 155              		.loc 1 240 60 view .LVU40
 156 0074 13F4800F 		tst	r3, #4194304
 157 0078 D8D0     		beq	.L6
 158              	.L5:
 242:bsp/STMicroelectronics/stm32f413/stm32f4xx_hal_driver/Src/stm32f4xx_hal_rcc.c ****       {
 159              		.loc 1 242 7 is_stmt 1 view .LVU41
 242:bsp/STMicroelectronics/stm32f413/stm32f4xx_hal_driver/Src/stm32f4xx_hal_rcc.c ****       {
 160              		.loc 1 242 11 is_stmt 0 view .LVU42
 161 007a 8D4B     		ldr	r3, .L93
 162 007c 1B68     		ldr	r3, [r3]
 242:bsp/STMicroelectronics/stm32f413/stm32f4xx_hal_driver/Src/stm32f4xx_hal_rcc.c ****       {
 163              		.loc 1 242 9 view .LVU43
 164 007e 13F4003F 		tst	r3, #131072
 165 0082 03D0     		beq	.L4
 242:bsp/STMicroelectronics/stm32f413/stm32f4xx_hal_driver/Src/stm32f4xx_hal_rcc.c ****       {
 166              		.loc 1 242 78 discriminator 1 view .LVU44
 167 0084 6368     		ldr	r3, [r4, #4]
 242:bsp/STMicroelectronics/stm32f413/stm32f4xx_hal_driver/Src/stm32f4xx_hal_rcc.c ****       {
 168              		.loc 1 242 57 discriminator 1 view .LVU45
 169 0086 002B     		cmp	r3, #0
 170 0088 00F09881 		beq	.L82
 171              	.LVL5:
 172              	.L4:
 264:bsp/STMicroelectronics/stm32f413/stm32f4xx_hal_driver/Src/stm32f4xx_hal_rcc.c ****           }
 265:bsp/STMicroelectronics/stm32f413/stm32f4xx_hal_driver/Src/stm32f4xx_hal_rcc.c ****         }
 266:bsp/STMicroelectronics/stm32f413/stm32f4xx_hal_driver/Src/stm32f4xx_hal_rcc.c ****       }
 267:bsp/STMicroelectronics/stm32f413/stm32f4xx_hal_driver/Src/stm32f4xx_hal_rcc.c ****       else
 268:bsp/STMicroelectronics/stm32f413/stm32f4xx_hal_driver/Src/stm32f4xx_hal_rcc.c ****       {
 269:bsp/STMicroelectronics/stm32f413/stm32f4xx_hal_driver/Src/stm32f4xx_hal_rcc.c ****         /* Get Start Tick */
 270:bsp/STMicroelectronics/stm32f413/stm32f4xx_hal_driver/Src/stm32f4xx_hal_rcc.c ****         tickstart = HAL_GetTick();
 271:bsp/STMicroelectronics/stm32f413/stm32f4xx_hal_driver/Src/stm32f4xx_hal_rcc.c **** 
 272:bsp/STMicroelectronics/stm32f413/stm32f4xx_hal_driver/Src/stm32f4xx_hal_rcc.c ****         /* Wait till HSE is bypassed or disabled */
 273:bsp/STMicroelectronics/stm32f413/stm32f4xx_hal_driver/Src/stm32f4xx_hal_rcc.c ****         while(__HAL_RCC_GET_FLAG(RCC_FLAG_HSERDY) != RESET)
 274:bsp/STMicroelectronics/stm32f413/stm32f4xx_hal_driver/Src/stm32f4xx_hal_rcc.c ****         {
 275:bsp/STMicroelectronics/stm32f413/stm32f4xx_hal_driver/Src/stm32f4xx_hal_rcc.c ****           if((HAL_GetTick() - tickstart ) > HSE_TIMEOUT_VALUE)
 276:bsp/STMicroelectronics/stm32f413/stm32f4xx_hal_driver/Src/stm32f4xx_hal_rcc.c ****           {
 277:bsp/STMicroelectronics/stm32f413/stm32f4xx_hal_driver/Src/stm32f4xx_hal_rcc.c ****             return HAL_TIMEOUT;
 278:bsp/STMicroelectronics/stm32f413/stm32f4xx_hal_driver/Src/stm32f4xx_hal_rcc.c ****           }
ARM GAS  /tmp/ccUzmqNi.s 			page 9


 279:bsp/STMicroelectronics/stm32f413/stm32f4xx_hal_driver/Src/stm32f4xx_hal_rcc.c ****         }
 280:bsp/STMicroelectronics/stm32f413/stm32f4xx_hal_driver/Src/stm32f4xx_hal_rcc.c ****       }
 281:bsp/STMicroelectronics/stm32f413/stm32f4xx_hal_driver/Src/stm32f4xx_hal_rcc.c ****     }
 282:bsp/STMicroelectronics/stm32f413/stm32f4xx_hal_driver/Src/stm32f4xx_hal_rcc.c ****   }
 283:bsp/STMicroelectronics/stm32f413/stm32f4xx_hal_driver/Src/stm32f4xx_hal_rcc.c ****   /*----------------------------- HSI Configuration --------------------------*/
 284:bsp/STMicroelectronics/stm32f413/stm32f4xx_hal_driver/Src/stm32f4xx_hal_rcc.c ****   if(((RCC_OscInitStruct->OscillatorType) & RCC_OSCILLATORTYPE_HSI) == RCC_OSCILLATORTYPE_HSI)
 173              		.loc 1 284 3 is_stmt 1 view .LVU46
 174              		.loc 1 284 25 is_stmt 0 view .LVU47
 175 008c 2368     		ldr	r3, [r4]
 176              		.loc 1 284 5 view .LVU48
 177 008e 13F0020F 		tst	r3, #2
 178 0092 54D0     		beq	.L15
 285:bsp/STMicroelectronics/stm32f413/stm32f4xx_hal_driver/Src/stm32f4xx_hal_rcc.c ****   {
 286:bsp/STMicroelectronics/stm32f413/stm32f4xx_hal_driver/Src/stm32f4xx_hal_rcc.c ****     /* Check the parameters */
 287:bsp/STMicroelectronics/stm32f413/stm32f4xx_hal_driver/Src/stm32f4xx_hal_rcc.c ****     assert_param(IS_RCC_HSI(RCC_OscInitStruct->HSIState));
 179              		.loc 1 287 5 is_stmt 1 view .LVU49
 288:bsp/STMicroelectronics/stm32f413/stm32f4xx_hal_driver/Src/stm32f4xx_hal_rcc.c ****     assert_param(IS_RCC_CALIBRATION_VALUE(RCC_OscInitStruct->HSICalibrationValue));
 180              		.loc 1 288 5 view .LVU50
 289:bsp/STMicroelectronics/stm32f413/stm32f4xx_hal_driver/Src/stm32f4xx_hal_rcc.c **** 
 290:bsp/STMicroelectronics/stm32f413/stm32f4xx_hal_driver/Src/stm32f4xx_hal_rcc.c ****     /* Check if HSI is used as system clock or as PLL source when PLL is selected as system clock *
 291:bsp/STMicroelectronics/stm32f413/stm32f4xx_hal_driver/Src/stm32f4xx_hal_rcc.c ****     if((__HAL_RCC_GET_SYSCLK_SOURCE() == RCC_CFGR_SWS_HSI) ||\
 181              		.loc 1 291 5 view .LVU51
 182              		.loc 1 291 9 is_stmt 0 view .LVU52
 183 0094 864B     		ldr	r3, .L93
 184 0096 9B68     		ldr	r3, [r3, #8]
 185              		.loc 1 291 7 view .LVU53
 186 0098 13F00C0F 		tst	r3, #12
 187 009c 3ED0     		beq	.L16
 292:bsp/STMicroelectronics/stm32f413/stm32f4xx_hal_driver/Src/stm32f4xx_hal_rcc.c ****       ((__HAL_RCC_GET_SYSCLK_SOURCE() == RCC_CFGR_SWS_PLL) && ((RCC->PLLCFGR & RCC_PLLCFGR_PLLSRC) 
 188              		.loc 1 292 9 discriminator 1 view .LVU54
 189 009e 844B     		ldr	r3, .L93
 190 00a0 9B68     		ldr	r3, [r3, #8]
 191 00a2 03F00C03 		and	r3, r3, #12
 291:bsp/STMicroelectronics/stm32f413/stm32f4xx_hal_driver/Src/stm32f4xx_hal_rcc.c ****       ((__HAL_RCC_GET_SYSCLK_SOURCE() == RCC_CFGR_SWS_PLL) && ((RCC->PLLCFGR & RCC_PLLCFGR_PLLSRC) 
 192              		.loc 1 291 60 discriminator 1 view .LVU55
 193 00a6 082B     		cmp	r3, #8
 194 00a8 33D0     		beq	.L83
 195              	.L17:
 293:bsp/STMicroelectronics/stm32f413/stm32f4xx_hal_driver/Src/stm32f4xx_hal_rcc.c ****     {
 294:bsp/STMicroelectronics/stm32f413/stm32f4xx_hal_driver/Src/stm32f4xx_hal_rcc.c ****       /* When HSI is used as system clock it will not disabled */
 295:bsp/STMicroelectronics/stm32f413/stm32f4xx_hal_driver/Src/stm32f4xx_hal_rcc.c ****       if((__HAL_RCC_GET_FLAG(RCC_FLAG_HSIRDY) != RESET) && (RCC_OscInitStruct->HSIState != RCC_HSI_
 296:bsp/STMicroelectronics/stm32f413/stm32f4xx_hal_driver/Src/stm32f4xx_hal_rcc.c ****       {
 297:bsp/STMicroelectronics/stm32f413/stm32f4xx_hal_driver/Src/stm32f4xx_hal_rcc.c ****         return HAL_ERROR;
 298:bsp/STMicroelectronics/stm32f413/stm32f4xx_hal_driver/Src/stm32f4xx_hal_rcc.c ****       }
 299:bsp/STMicroelectronics/stm32f413/stm32f4xx_hal_driver/Src/stm32f4xx_hal_rcc.c ****       /* Otherwise, just the calibration is allowed */
 300:bsp/STMicroelectronics/stm32f413/stm32f4xx_hal_driver/Src/stm32f4xx_hal_rcc.c ****       else
 301:bsp/STMicroelectronics/stm32f413/stm32f4xx_hal_driver/Src/stm32f4xx_hal_rcc.c ****       {
 302:bsp/STMicroelectronics/stm32f413/stm32f4xx_hal_driver/Src/stm32f4xx_hal_rcc.c ****         /* Adjusts the Internal High Speed oscillator (HSI) calibration value.*/
 303:bsp/STMicroelectronics/stm32f413/stm32f4xx_hal_driver/Src/stm32f4xx_hal_rcc.c ****         __HAL_RCC_HSI_CALIBRATIONVALUE_ADJUST(RCC_OscInitStruct->HSICalibrationValue);
 304:bsp/STMicroelectronics/stm32f413/stm32f4xx_hal_driver/Src/stm32f4xx_hal_rcc.c ****       }
 305:bsp/STMicroelectronics/stm32f413/stm32f4xx_hal_driver/Src/stm32f4xx_hal_rcc.c ****     }
 306:bsp/STMicroelectronics/stm32f413/stm32f4xx_hal_driver/Src/stm32f4xx_hal_rcc.c ****     else
 307:bsp/STMicroelectronics/stm32f413/stm32f4xx_hal_driver/Src/stm32f4xx_hal_rcc.c ****     {
 308:bsp/STMicroelectronics/stm32f413/stm32f4xx_hal_driver/Src/stm32f4xx_hal_rcc.c ****       /* Check the HSI State */
 309:bsp/STMicroelectronics/stm32f413/stm32f4xx_hal_driver/Src/stm32f4xx_hal_rcc.c ****       if((RCC_OscInitStruct->HSIState)!= RCC_HSI_OFF)
 196              		.loc 1 309 7 is_stmt 1 view .LVU56
 197              		.loc 1 309 28 is_stmt 0 view .LVU57
ARM GAS  /tmp/ccUzmqNi.s 			page 10


 198 00aa E368     		ldr	r3, [r4, #12]
 199              		.loc 1 309 9 view .LVU58
 200 00ac 002B     		cmp	r3, #0
 201 00ae 67D0     		beq	.L19
 310:bsp/STMicroelectronics/stm32f413/stm32f4xx_hal_driver/Src/stm32f4xx_hal_rcc.c ****       {
 311:bsp/STMicroelectronics/stm32f413/stm32f4xx_hal_driver/Src/stm32f4xx_hal_rcc.c ****         /* Enable the Internal High Speed oscillator (HSI). */
 312:bsp/STMicroelectronics/stm32f413/stm32f4xx_hal_driver/Src/stm32f4xx_hal_rcc.c ****         __HAL_RCC_HSI_ENABLE();
 202              		.loc 1 312 9 is_stmt 1 view .LVU59
 203 00b0 804B     		ldr	r3, .L93+4
 204 00b2 0122     		movs	r2, #1
 205 00b4 1A60     		str	r2, [r3]
 313:bsp/STMicroelectronics/stm32f413/stm32f4xx_hal_driver/Src/stm32f4xx_hal_rcc.c **** 
 314:bsp/STMicroelectronics/stm32f413/stm32f4xx_hal_driver/Src/stm32f4xx_hal_rcc.c ****         /* Get Start Tick*/
 315:bsp/STMicroelectronics/stm32f413/stm32f4xx_hal_driver/Src/stm32f4xx_hal_rcc.c ****         tickstart = HAL_GetTick();
 206              		.loc 1 315 9 view .LVU60
 207              		.loc 1 315 21 is_stmt 0 view .LVU61
 208 00b6 FFF7FEFF 		bl	HAL_GetTick
 209              	.LVL6:
 210 00ba 0546     		mov	r5, r0
 211              	.LVL7:
 316:bsp/STMicroelectronics/stm32f413/stm32f4xx_hal_driver/Src/stm32f4xx_hal_rcc.c **** 
 317:bsp/STMicroelectronics/stm32f413/stm32f4xx_hal_driver/Src/stm32f4xx_hal_rcc.c ****         /* Wait till HSI is ready */
 318:bsp/STMicroelectronics/stm32f413/stm32f4xx_hal_driver/Src/stm32f4xx_hal_rcc.c ****         while(__HAL_RCC_GET_FLAG(RCC_FLAG_HSIRDY) == RESET)
 212              		.loc 1 318 9 is_stmt 1 view .LVU62
 213              	.L20:
 214              		.loc 1 318 14 view .LVU63
 215              		.loc 1 318 15 is_stmt 0 view .LVU64
 216 00bc 7C4B     		ldr	r3, .L93
 217 00be 1B68     		ldr	r3, [r3]
 218              		.loc 1 318 14 view .LVU65
 219 00c0 13F0020F 		tst	r3, #2
 220 00c4 53D1     		bne	.L84
 319:bsp/STMicroelectronics/stm32f413/stm32f4xx_hal_driver/Src/stm32f4xx_hal_rcc.c ****         {
 320:bsp/STMicroelectronics/stm32f413/stm32f4xx_hal_driver/Src/stm32f4xx_hal_rcc.c ****           if((HAL_GetTick() - tickstart ) > HSI_TIMEOUT_VALUE)
 221              		.loc 1 320 11 is_stmt 1 view .LVU66
 222              		.loc 1 320 15 is_stmt 0 view .LVU67
 223 00c6 FFF7FEFF 		bl	HAL_GetTick
 224              	.LVL8:
 225              		.loc 1 320 29 view .LVU68
 226 00ca 401B     		subs	r0, r0, r5
 227              		.loc 1 320 13 view .LVU69
 228 00cc 0228     		cmp	r0, #2
 229 00ce F5D9     		bls	.L20
 321:bsp/STMicroelectronics/stm32f413/stm32f4xx_hal_driver/Src/stm32f4xx_hal_rcc.c ****           {
 322:bsp/STMicroelectronics/stm32f413/stm32f4xx_hal_driver/Src/stm32f4xx_hal_rcc.c ****             return HAL_TIMEOUT;
 230              		.loc 1 322 20 view .LVU70
 231 00d0 0320     		movs	r0, #3
 232 00d2 78E1     		b	.L3
 233              	.LVL9:
 234              	.L80:
 250:bsp/STMicroelectronics/stm32f413/stm32f4xx_hal_driver/Src/stm32f4xx_hal_rcc.c **** 
 235              		.loc 1 250 7 is_stmt 1 discriminator 1 view .LVU71
 236 00d4 764A     		ldr	r2, .L93
 237 00d6 1368     		ldr	r3, [r2]
 238 00d8 43F48033 		orr	r3, r3, #65536
 239 00dc 1360     		str	r3, [r2]
 240 00de B5E7     		b	.L8
ARM GAS  /tmp/ccUzmqNi.s 			page 11


 241              	.L81:
 250:bsp/STMicroelectronics/stm32f413/stm32f4xx_hal_driver/Src/stm32f4xx_hal_rcc.c **** 
 242              		.loc 1 250 7 discriminator 4 view .LVU72
 243 00e0 734B     		ldr	r3, .L93
 244 00e2 1A68     		ldr	r2, [r3]
 245 00e4 42F48022 		orr	r2, r2, #262144
 246 00e8 1A60     		str	r2, [r3]
 250:bsp/STMicroelectronics/stm32f413/stm32f4xx_hal_driver/Src/stm32f4xx_hal_rcc.c **** 
 247              		.loc 1 250 7 discriminator 4 view .LVU73
 248 00ea 1A68     		ldr	r2, [r3]
 249 00ec 42F48032 		orr	r2, r2, #65536
 250 00f0 1A60     		str	r2, [r3]
 251 00f2 ABE7     		b	.L8
 252              	.L10:
 270:bsp/STMicroelectronics/stm32f413/stm32f4xx_hal_driver/Src/stm32f4xx_hal_rcc.c **** 
 253              		.loc 1 270 9 view .LVU74
 270:bsp/STMicroelectronics/stm32f413/stm32f4xx_hal_driver/Src/stm32f4xx_hal_rcc.c **** 
 254              		.loc 1 270 21 is_stmt 0 view .LVU75
 255 00f4 FFF7FEFF 		bl	HAL_GetTick
 256              	.LVL10:
 270:bsp/STMicroelectronics/stm32f413/stm32f4xx_hal_driver/Src/stm32f4xx_hal_rcc.c **** 
 257              		.loc 1 270 21 view .LVU76
 258 00f8 0546     		mov	r5, r0
 259              	.LVL11:
 273:bsp/STMicroelectronics/stm32f413/stm32f4xx_hal_driver/Src/stm32f4xx_hal_rcc.c ****         {
 260              		.loc 1 273 9 is_stmt 1 view .LVU77
 261              	.L13:
 273:bsp/STMicroelectronics/stm32f413/stm32f4xx_hal_driver/Src/stm32f4xx_hal_rcc.c ****         {
 262              		.loc 1 273 14 view .LVU78
 273:bsp/STMicroelectronics/stm32f413/stm32f4xx_hal_driver/Src/stm32f4xx_hal_rcc.c ****         {
 263              		.loc 1 273 15 is_stmt 0 view .LVU79
 264 00fa 6D4B     		ldr	r3, .L93
 265 00fc 1B68     		ldr	r3, [r3]
 273:bsp/STMicroelectronics/stm32f413/stm32f4xx_hal_driver/Src/stm32f4xx_hal_rcc.c ****         {
 266              		.loc 1 273 14 view .LVU80
 267 00fe 13F4003F 		tst	r3, #131072
 268 0102 C3D0     		beq	.L4
 275:bsp/STMicroelectronics/stm32f413/stm32f4xx_hal_driver/Src/stm32f4xx_hal_rcc.c ****           {
 269              		.loc 1 275 11 is_stmt 1 view .LVU81
 275:bsp/STMicroelectronics/stm32f413/stm32f4xx_hal_driver/Src/stm32f4xx_hal_rcc.c ****           {
 270              		.loc 1 275 15 is_stmt 0 view .LVU82
 271 0104 FFF7FEFF 		bl	HAL_GetTick
 272              	.LVL12:
 275:bsp/STMicroelectronics/stm32f413/stm32f4xx_hal_driver/Src/stm32f4xx_hal_rcc.c ****           {
 273              		.loc 1 275 29 view .LVU83
 274 0108 401B     		subs	r0, r0, r5
 275:bsp/STMicroelectronics/stm32f413/stm32f4xx_hal_driver/Src/stm32f4xx_hal_rcc.c ****           {
 275              		.loc 1 275 13 view .LVU84
 276 010a 6428     		cmp	r0, #100
 277 010c F5D9     		bls	.L13
 277:bsp/STMicroelectronics/stm32f413/stm32f4xx_hal_driver/Src/stm32f4xx_hal_rcc.c ****           }
 278              		.loc 1 277 20 view .LVU85
 279 010e 0320     		movs	r0, #3
 280 0110 59E1     		b	.L3
 281              	.LVL13:
 282              	.L83:
 292:bsp/STMicroelectronics/stm32f413/stm32f4xx_hal_driver/Src/stm32f4xx_hal_rcc.c ****     {
ARM GAS  /tmp/ccUzmqNi.s 			page 12


 283              		.loc 1 292 68 view .LVU86
 284 0112 674B     		ldr	r3, .L93
 285 0114 5B68     		ldr	r3, [r3, #4]
 292:bsp/STMicroelectronics/stm32f413/stm32f4xx_hal_driver/Src/stm32f4xx_hal_rcc.c ****     {
 286              		.loc 1 292 60 view .LVU87
 287 0116 13F4800F 		tst	r3, #4194304
 288 011a C6D1     		bne	.L17
 289              	.L16:
 295:bsp/STMicroelectronics/stm32f413/stm32f4xx_hal_driver/Src/stm32f4xx_hal_rcc.c ****       {
 290              		.loc 1 295 7 is_stmt 1 view .LVU88
 295:bsp/STMicroelectronics/stm32f413/stm32f4xx_hal_driver/Src/stm32f4xx_hal_rcc.c ****       {
 291              		.loc 1 295 11 is_stmt 0 view .LVU89
 292 011c 644B     		ldr	r3, .L93
 293 011e 1B68     		ldr	r3, [r3]
 295:bsp/STMicroelectronics/stm32f413/stm32f4xx_hal_driver/Src/stm32f4xx_hal_rcc.c ****       {
 294              		.loc 1 295 9 view .LVU90
 295 0120 13F0020F 		tst	r3, #2
 296 0124 03D0     		beq	.L18
 295:bsp/STMicroelectronics/stm32f413/stm32f4xx_hal_driver/Src/stm32f4xx_hal_rcc.c ****       {
 297              		.loc 1 295 78 discriminator 1 view .LVU91
 298 0126 E368     		ldr	r3, [r4, #12]
 295:bsp/STMicroelectronics/stm32f413/stm32f4xx_hal_driver/Src/stm32f4xx_hal_rcc.c ****       {
 299              		.loc 1 295 57 discriminator 1 view .LVU92
 300 0128 012B     		cmp	r3, #1
 301 012a 40F04981 		bne	.L56
 302              	.L18:
 303:bsp/STMicroelectronics/stm32f413/stm32f4xx_hal_driver/Src/stm32f4xx_hal_rcc.c ****       }
 303              		.loc 1 303 9 is_stmt 1 view .LVU93
 304 012e 604A     		ldr	r2, .L93
 305 0130 1368     		ldr	r3, [r2]
 306 0132 23F0F803 		bic	r3, r3, #248
 307 0136 2169     		ldr	r1, [r4, #16]
 308 0138 43EAC103 		orr	r3, r3, r1, lsl #3
 309 013c 1360     		str	r3, [r2]
 310              	.L15:
 323:bsp/STMicroelectronics/stm32f413/stm32f4xx_hal_driver/Src/stm32f4xx_hal_rcc.c ****           }
 324:bsp/STMicroelectronics/stm32f413/stm32f4xx_hal_driver/Src/stm32f4xx_hal_rcc.c ****         }
 325:bsp/STMicroelectronics/stm32f413/stm32f4xx_hal_driver/Src/stm32f4xx_hal_rcc.c **** 
 326:bsp/STMicroelectronics/stm32f413/stm32f4xx_hal_driver/Src/stm32f4xx_hal_rcc.c ****         /* Adjusts the Internal High Speed oscillator (HSI) calibration value. */
 327:bsp/STMicroelectronics/stm32f413/stm32f4xx_hal_driver/Src/stm32f4xx_hal_rcc.c ****         __HAL_RCC_HSI_CALIBRATIONVALUE_ADJUST(RCC_OscInitStruct->HSICalibrationValue);
 328:bsp/STMicroelectronics/stm32f413/stm32f4xx_hal_driver/Src/stm32f4xx_hal_rcc.c ****       }
 329:bsp/STMicroelectronics/stm32f413/stm32f4xx_hal_driver/Src/stm32f4xx_hal_rcc.c ****       else
 330:bsp/STMicroelectronics/stm32f413/stm32f4xx_hal_driver/Src/stm32f4xx_hal_rcc.c ****       {
 331:bsp/STMicroelectronics/stm32f413/stm32f4xx_hal_driver/Src/stm32f4xx_hal_rcc.c ****         /* Disable the Internal High Speed oscillator (HSI). */
 332:bsp/STMicroelectronics/stm32f413/stm32f4xx_hal_driver/Src/stm32f4xx_hal_rcc.c ****         __HAL_RCC_HSI_DISABLE();
 333:bsp/STMicroelectronics/stm32f413/stm32f4xx_hal_driver/Src/stm32f4xx_hal_rcc.c **** 
 334:bsp/STMicroelectronics/stm32f413/stm32f4xx_hal_driver/Src/stm32f4xx_hal_rcc.c ****         /* Get Start Tick*/
 335:bsp/STMicroelectronics/stm32f413/stm32f4xx_hal_driver/Src/stm32f4xx_hal_rcc.c ****         tickstart = HAL_GetTick();
 336:bsp/STMicroelectronics/stm32f413/stm32f4xx_hal_driver/Src/stm32f4xx_hal_rcc.c **** 
 337:bsp/STMicroelectronics/stm32f413/stm32f4xx_hal_driver/Src/stm32f4xx_hal_rcc.c ****         /* Wait till HSI is ready */
 338:bsp/STMicroelectronics/stm32f413/stm32f4xx_hal_driver/Src/stm32f4xx_hal_rcc.c ****         while(__HAL_RCC_GET_FLAG(RCC_FLAG_HSIRDY) != RESET)
 339:bsp/STMicroelectronics/stm32f413/stm32f4xx_hal_driver/Src/stm32f4xx_hal_rcc.c ****         {
 340:bsp/STMicroelectronics/stm32f413/stm32f4xx_hal_driver/Src/stm32f4xx_hal_rcc.c ****           if((HAL_GetTick() - tickstart ) > HSI_TIMEOUT_VALUE)
 341:bsp/STMicroelectronics/stm32f413/stm32f4xx_hal_driver/Src/stm32f4xx_hal_rcc.c ****           {
 342:bsp/STMicroelectronics/stm32f413/stm32f4xx_hal_driver/Src/stm32f4xx_hal_rcc.c ****             return HAL_TIMEOUT;
 343:bsp/STMicroelectronics/stm32f413/stm32f4xx_hal_driver/Src/stm32f4xx_hal_rcc.c ****           }
 344:bsp/STMicroelectronics/stm32f413/stm32f4xx_hal_driver/Src/stm32f4xx_hal_rcc.c ****         }
ARM GAS  /tmp/ccUzmqNi.s 			page 13


 345:bsp/STMicroelectronics/stm32f413/stm32f4xx_hal_driver/Src/stm32f4xx_hal_rcc.c ****       }
 346:bsp/STMicroelectronics/stm32f413/stm32f4xx_hal_driver/Src/stm32f4xx_hal_rcc.c ****     }
 347:bsp/STMicroelectronics/stm32f413/stm32f4xx_hal_driver/Src/stm32f4xx_hal_rcc.c ****   }
 348:bsp/STMicroelectronics/stm32f413/stm32f4xx_hal_driver/Src/stm32f4xx_hal_rcc.c ****   /*------------------------------ LSI Configuration -------------------------*/
 349:bsp/STMicroelectronics/stm32f413/stm32f4xx_hal_driver/Src/stm32f4xx_hal_rcc.c ****   if(((RCC_OscInitStruct->OscillatorType) & RCC_OSCILLATORTYPE_LSI) == RCC_OSCILLATORTYPE_LSI)
 311              		.loc 1 349 3 view .LVU94
 312              		.loc 1 349 25 is_stmt 0 view .LVU95
 313 013e 2368     		ldr	r3, [r4]
 314              		.loc 1 349 5 view .LVU96
 315 0140 13F0080F 		tst	r3, #8
 316 0144 40D0     		beq	.L24
 350:bsp/STMicroelectronics/stm32f413/stm32f4xx_hal_driver/Src/stm32f4xx_hal_rcc.c ****   {
 351:bsp/STMicroelectronics/stm32f413/stm32f4xx_hal_driver/Src/stm32f4xx_hal_rcc.c ****     /* Check the parameters */
 352:bsp/STMicroelectronics/stm32f413/stm32f4xx_hal_driver/Src/stm32f4xx_hal_rcc.c ****     assert_param(IS_RCC_LSI(RCC_OscInitStruct->LSIState));
 317              		.loc 1 352 5 is_stmt 1 view .LVU97
 353:bsp/STMicroelectronics/stm32f413/stm32f4xx_hal_driver/Src/stm32f4xx_hal_rcc.c **** 
 354:bsp/STMicroelectronics/stm32f413/stm32f4xx_hal_driver/Src/stm32f4xx_hal_rcc.c ****     /* Check the LSI State */
 355:bsp/STMicroelectronics/stm32f413/stm32f4xx_hal_driver/Src/stm32f4xx_hal_rcc.c ****     if((RCC_OscInitStruct->LSIState)!= RCC_LSI_OFF)
 318              		.loc 1 355 5 view .LVU98
 319              		.loc 1 355 26 is_stmt 0 view .LVU99
 320 0146 6369     		ldr	r3, [r4, #20]
 321              		.loc 1 355 7 view .LVU100
 322 0148 63B3     		cbz	r3, .L25
 356:bsp/STMicroelectronics/stm32f413/stm32f4xx_hal_driver/Src/stm32f4xx_hal_rcc.c ****     {
 357:bsp/STMicroelectronics/stm32f413/stm32f4xx_hal_driver/Src/stm32f4xx_hal_rcc.c ****       /* Enable the Internal Low Speed oscillator (LSI). */
 358:bsp/STMicroelectronics/stm32f413/stm32f4xx_hal_driver/Src/stm32f4xx_hal_rcc.c ****       __HAL_RCC_LSI_ENABLE();
 323              		.loc 1 358 7 is_stmt 1 view .LVU101
 324 014a 5B4B     		ldr	r3, .L93+8
 325 014c 0122     		movs	r2, #1
 326 014e 1A60     		str	r2, [r3]
 359:bsp/STMicroelectronics/stm32f413/stm32f4xx_hal_driver/Src/stm32f4xx_hal_rcc.c **** 
 360:bsp/STMicroelectronics/stm32f413/stm32f4xx_hal_driver/Src/stm32f4xx_hal_rcc.c ****       /* Get Start Tick*/
 361:bsp/STMicroelectronics/stm32f413/stm32f4xx_hal_driver/Src/stm32f4xx_hal_rcc.c ****       tickstart = HAL_GetTick();
 327              		.loc 1 361 7 view .LVU102
 328              		.loc 1 361 19 is_stmt 0 view .LVU103
 329 0150 FFF7FEFF 		bl	HAL_GetTick
 330              	.LVL14:
 331 0154 0546     		mov	r5, r0
 332              	.LVL15:
 362:bsp/STMicroelectronics/stm32f413/stm32f4xx_hal_driver/Src/stm32f4xx_hal_rcc.c **** 
 363:bsp/STMicroelectronics/stm32f413/stm32f4xx_hal_driver/Src/stm32f4xx_hal_rcc.c ****       /* Wait till LSI is ready */
 364:bsp/STMicroelectronics/stm32f413/stm32f4xx_hal_driver/Src/stm32f4xx_hal_rcc.c ****       while(__HAL_RCC_GET_FLAG(RCC_FLAG_LSIRDY) == RESET)
 333              		.loc 1 364 7 is_stmt 1 view .LVU104
 334              	.L26:
 335              		.loc 1 364 12 view .LVU105
 336              		.loc 1 364 13 is_stmt 0 view .LVU106
 337 0156 564B     		ldr	r3, .L93
 338 0158 5B6F     		ldr	r3, [r3, #116]
 339              		.loc 1 364 12 view .LVU107
 340 015a 13F0020F 		tst	r3, #2
 341 015e 33D1     		bne	.L24
 365:bsp/STMicroelectronics/stm32f413/stm32f4xx_hal_driver/Src/stm32f4xx_hal_rcc.c ****       {
 366:bsp/STMicroelectronics/stm32f413/stm32f4xx_hal_driver/Src/stm32f4xx_hal_rcc.c ****         if((HAL_GetTick() - tickstart ) > LSI_TIMEOUT_VALUE)
 342              		.loc 1 366 9 is_stmt 1 view .LVU108
 343              		.loc 1 366 13 is_stmt 0 view .LVU109
 344 0160 FFF7FEFF 		bl	HAL_GetTick
 345              	.LVL16:
ARM GAS  /tmp/ccUzmqNi.s 			page 14


 346              		.loc 1 366 27 view .LVU110
 347 0164 401B     		subs	r0, r0, r5
 348              		.loc 1 366 11 view .LVU111
 349 0166 0228     		cmp	r0, #2
 350 0168 F5D9     		bls	.L26
 367:bsp/STMicroelectronics/stm32f413/stm32f4xx_hal_driver/Src/stm32f4xx_hal_rcc.c ****         {
 368:bsp/STMicroelectronics/stm32f413/stm32f4xx_hal_driver/Src/stm32f4xx_hal_rcc.c ****           return HAL_TIMEOUT;
 351              		.loc 1 368 18 view .LVU112
 352 016a 0320     		movs	r0, #3
 353 016c 2BE1     		b	.L3
 354              	.L84:
 327:bsp/STMicroelectronics/stm32f413/stm32f4xx_hal_driver/Src/stm32f4xx_hal_rcc.c ****       }
 355              		.loc 1 327 9 is_stmt 1 view .LVU113
 356 016e 504A     		ldr	r2, .L93
 357 0170 1368     		ldr	r3, [r2]
 358 0172 23F0F803 		bic	r3, r3, #248
 359 0176 2169     		ldr	r1, [r4, #16]
 360 0178 43EAC103 		orr	r3, r3, r1, lsl #3
 361 017c 1360     		str	r3, [r2]
 362 017e DEE7     		b	.L15
 363              	.LVL17:
 364              	.L19:
 332:bsp/STMicroelectronics/stm32f413/stm32f4xx_hal_driver/Src/stm32f4xx_hal_rcc.c **** 
 365              		.loc 1 332 9 view .LVU114
 366 0180 4C4B     		ldr	r3, .L93+4
 367 0182 0022     		movs	r2, #0
 368 0184 1A60     		str	r2, [r3]
 335:bsp/STMicroelectronics/stm32f413/stm32f4xx_hal_driver/Src/stm32f4xx_hal_rcc.c **** 
 369              		.loc 1 335 9 view .LVU115
 335:bsp/STMicroelectronics/stm32f413/stm32f4xx_hal_driver/Src/stm32f4xx_hal_rcc.c **** 
 370              		.loc 1 335 21 is_stmt 0 view .LVU116
 371 0186 FFF7FEFF 		bl	HAL_GetTick
 372              	.LVL18:
 373 018a 0546     		mov	r5, r0
 374              	.LVL19:
 338:bsp/STMicroelectronics/stm32f413/stm32f4xx_hal_driver/Src/stm32f4xx_hal_rcc.c ****         {
 375              		.loc 1 338 9 is_stmt 1 view .LVU117
 376              	.L22:
 338:bsp/STMicroelectronics/stm32f413/stm32f4xx_hal_driver/Src/stm32f4xx_hal_rcc.c ****         {
 377              		.loc 1 338 14 view .LVU118
 338:bsp/STMicroelectronics/stm32f413/stm32f4xx_hal_driver/Src/stm32f4xx_hal_rcc.c ****         {
 378              		.loc 1 338 15 is_stmt 0 view .LVU119
 379 018c 484B     		ldr	r3, .L93
 380 018e 1B68     		ldr	r3, [r3]
 338:bsp/STMicroelectronics/stm32f413/stm32f4xx_hal_driver/Src/stm32f4xx_hal_rcc.c ****         {
 381              		.loc 1 338 14 view .LVU120
 382 0190 13F0020F 		tst	r3, #2
 383 0194 D3D0     		beq	.L15
 340:bsp/STMicroelectronics/stm32f413/stm32f4xx_hal_driver/Src/stm32f4xx_hal_rcc.c ****           {
 384              		.loc 1 340 11 is_stmt 1 view .LVU121
 340:bsp/STMicroelectronics/stm32f413/stm32f4xx_hal_driver/Src/stm32f4xx_hal_rcc.c ****           {
 385              		.loc 1 340 15 is_stmt 0 view .LVU122
 386 0196 FFF7FEFF 		bl	HAL_GetTick
 387              	.LVL20:
 340:bsp/STMicroelectronics/stm32f413/stm32f4xx_hal_driver/Src/stm32f4xx_hal_rcc.c ****           {
 388              		.loc 1 340 29 view .LVU123
 389 019a 401B     		subs	r0, r0, r5
ARM GAS  /tmp/ccUzmqNi.s 			page 15


 340:bsp/STMicroelectronics/stm32f413/stm32f4xx_hal_driver/Src/stm32f4xx_hal_rcc.c ****           {
 390              		.loc 1 340 13 view .LVU124
 391 019c 0228     		cmp	r0, #2
 392 019e F5D9     		bls	.L22
 342:bsp/STMicroelectronics/stm32f413/stm32f4xx_hal_driver/Src/stm32f4xx_hal_rcc.c ****           }
 393              		.loc 1 342 20 view .LVU125
 394 01a0 0320     		movs	r0, #3
 395 01a2 10E1     		b	.L3
 396              	.LVL21:
 397              	.L25:
 369:bsp/STMicroelectronics/stm32f413/stm32f4xx_hal_driver/Src/stm32f4xx_hal_rcc.c ****         }
 370:bsp/STMicroelectronics/stm32f413/stm32f4xx_hal_driver/Src/stm32f4xx_hal_rcc.c ****       }
 371:bsp/STMicroelectronics/stm32f413/stm32f4xx_hal_driver/Src/stm32f4xx_hal_rcc.c ****     }
 372:bsp/STMicroelectronics/stm32f413/stm32f4xx_hal_driver/Src/stm32f4xx_hal_rcc.c ****     else
 373:bsp/STMicroelectronics/stm32f413/stm32f4xx_hal_driver/Src/stm32f4xx_hal_rcc.c ****     {
 374:bsp/STMicroelectronics/stm32f413/stm32f4xx_hal_driver/Src/stm32f4xx_hal_rcc.c ****       /* Disable the Internal Low Speed oscillator (LSI). */
 375:bsp/STMicroelectronics/stm32f413/stm32f4xx_hal_driver/Src/stm32f4xx_hal_rcc.c ****       __HAL_RCC_LSI_DISABLE();
 398              		.loc 1 375 7 is_stmt 1 view .LVU126
 399 01a4 444B     		ldr	r3, .L93+8
 400 01a6 0022     		movs	r2, #0
 401 01a8 1A60     		str	r2, [r3]
 376:bsp/STMicroelectronics/stm32f413/stm32f4xx_hal_driver/Src/stm32f4xx_hal_rcc.c **** 
 377:bsp/STMicroelectronics/stm32f413/stm32f4xx_hal_driver/Src/stm32f4xx_hal_rcc.c ****       /* Get Start Tick */
 378:bsp/STMicroelectronics/stm32f413/stm32f4xx_hal_driver/Src/stm32f4xx_hal_rcc.c ****       tickstart = HAL_GetTick();
 402              		.loc 1 378 7 view .LVU127
 403              		.loc 1 378 19 is_stmt 0 view .LVU128
 404 01aa FFF7FEFF 		bl	HAL_GetTick
 405              	.LVL22:
 406 01ae 0546     		mov	r5, r0
 407              	.LVL23:
 379:bsp/STMicroelectronics/stm32f413/stm32f4xx_hal_driver/Src/stm32f4xx_hal_rcc.c **** 
 380:bsp/STMicroelectronics/stm32f413/stm32f4xx_hal_driver/Src/stm32f4xx_hal_rcc.c ****       /* Wait till LSI is ready */
 381:bsp/STMicroelectronics/stm32f413/stm32f4xx_hal_driver/Src/stm32f4xx_hal_rcc.c ****       while(__HAL_RCC_GET_FLAG(RCC_FLAG_LSIRDY) != RESET)
 408              		.loc 1 381 7 is_stmt 1 view .LVU129
 409              	.L28:
 410              		.loc 1 381 12 view .LVU130
 411              		.loc 1 381 13 is_stmt 0 view .LVU131
 412 01b0 3F4B     		ldr	r3, .L93
 413 01b2 5B6F     		ldr	r3, [r3, #116]
 414              		.loc 1 381 12 view .LVU132
 415 01b4 13F0020F 		tst	r3, #2
 416 01b8 06D0     		beq	.L24
 382:bsp/STMicroelectronics/stm32f413/stm32f4xx_hal_driver/Src/stm32f4xx_hal_rcc.c ****       {
 383:bsp/STMicroelectronics/stm32f413/stm32f4xx_hal_driver/Src/stm32f4xx_hal_rcc.c ****         if((HAL_GetTick() - tickstart ) > LSI_TIMEOUT_VALUE)
 417              		.loc 1 383 9 is_stmt 1 view .LVU133
 418              		.loc 1 383 13 is_stmt 0 view .LVU134
 419 01ba FFF7FEFF 		bl	HAL_GetTick
 420              	.LVL24:
 421              		.loc 1 383 27 view .LVU135
 422 01be 401B     		subs	r0, r0, r5
 423              		.loc 1 383 11 view .LVU136
 424 01c0 0228     		cmp	r0, #2
 425 01c2 F5D9     		bls	.L28
 384:bsp/STMicroelectronics/stm32f413/stm32f4xx_hal_driver/Src/stm32f4xx_hal_rcc.c ****         {
 385:bsp/STMicroelectronics/stm32f413/stm32f4xx_hal_driver/Src/stm32f4xx_hal_rcc.c ****           return HAL_TIMEOUT;
 426              		.loc 1 385 18 view .LVU137
 427 01c4 0320     		movs	r0, #3
ARM GAS  /tmp/ccUzmqNi.s 			page 16


 428 01c6 FEE0     		b	.L3
 429              	.LVL25:
 430              	.L24:
 386:bsp/STMicroelectronics/stm32f413/stm32f4xx_hal_driver/Src/stm32f4xx_hal_rcc.c ****         }
 387:bsp/STMicroelectronics/stm32f413/stm32f4xx_hal_driver/Src/stm32f4xx_hal_rcc.c ****       }
 388:bsp/STMicroelectronics/stm32f413/stm32f4xx_hal_driver/Src/stm32f4xx_hal_rcc.c ****     }
 389:bsp/STMicroelectronics/stm32f413/stm32f4xx_hal_driver/Src/stm32f4xx_hal_rcc.c ****   }
 390:bsp/STMicroelectronics/stm32f413/stm32f4xx_hal_driver/Src/stm32f4xx_hal_rcc.c ****   /*------------------------------ LSE Configuration -------------------------*/
 391:bsp/STMicroelectronics/stm32f413/stm32f4xx_hal_driver/Src/stm32f4xx_hal_rcc.c ****   if(((RCC_OscInitStruct->OscillatorType) & RCC_OSCILLATORTYPE_LSE) == RCC_OSCILLATORTYPE_LSE)
 431              		.loc 1 391 3 is_stmt 1 view .LVU138
 432              		.loc 1 391 25 is_stmt 0 view .LVU139
 433 01c8 2368     		ldr	r3, [r4]
 434              		.loc 1 391 5 view .LVU140
 435 01ca 13F0040F 		tst	r3, #4
 436 01ce 78D0     		beq	.L30
 437              	.LBB2:
 392:bsp/STMicroelectronics/stm32f413/stm32f4xx_hal_driver/Src/stm32f4xx_hal_rcc.c ****   {
 393:bsp/STMicroelectronics/stm32f413/stm32f4xx_hal_driver/Src/stm32f4xx_hal_rcc.c ****     FlagStatus       pwrclkchanged = RESET;
 438              		.loc 1 393 5 is_stmt 1 view .LVU141
 439              	.LVL26:
 394:bsp/STMicroelectronics/stm32f413/stm32f4xx_hal_driver/Src/stm32f4xx_hal_rcc.c **** 
 395:bsp/STMicroelectronics/stm32f413/stm32f4xx_hal_driver/Src/stm32f4xx_hal_rcc.c ****     /* Check the parameters */
 396:bsp/STMicroelectronics/stm32f413/stm32f4xx_hal_driver/Src/stm32f4xx_hal_rcc.c ****     assert_param(IS_RCC_LSE(RCC_OscInitStruct->LSEState));
 440              		.loc 1 396 5 view .LVU142
 397:bsp/STMicroelectronics/stm32f413/stm32f4xx_hal_driver/Src/stm32f4xx_hal_rcc.c **** 
 398:bsp/STMicroelectronics/stm32f413/stm32f4xx_hal_driver/Src/stm32f4xx_hal_rcc.c ****     /* Update LSE configuration in Backup Domain control register    */
 399:bsp/STMicroelectronics/stm32f413/stm32f4xx_hal_driver/Src/stm32f4xx_hal_rcc.c ****     /* Requires to enable write access to Backup Domain of necessary */
 400:bsp/STMicroelectronics/stm32f413/stm32f4xx_hal_driver/Src/stm32f4xx_hal_rcc.c ****     if(__HAL_RCC_PWR_IS_CLK_DISABLED())
 441              		.loc 1 400 5 view .LVU143
 442              		.loc 1 400 8 is_stmt 0 view .LVU144
 443 01d0 374B     		ldr	r3, .L93
 444 01d2 1B6C     		ldr	r3, [r3, #64]
 445              		.loc 1 400 7 view .LVU145
 446 01d4 13F0805F 		tst	r3, #268435456
 447 01d8 0DD1     		bne	.L61
 401:bsp/STMicroelectronics/stm32f413/stm32f4xx_hal_driver/Src/stm32f4xx_hal_rcc.c ****     {
 402:bsp/STMicroelectronics/stm32f413/stm32f4xx_hal_driver/Src/stm32f4xx_hal_rcc.c ****       __HAL_RCC_PWR_CLK_ENABLE();
 448              		.loc 1 402 7 is_stmt 1 view .LVU146
 449              	.LBB3:
 450              		.loc 1 402 7 view .LVU147
 451 01da 0023     		movs	r3, #0
 452 01dc 0193     		str	r3, [sp, #4]
 453              		.loc 1 402 7 view .LVU148
 454 01de 344B     		ldr	r3, .L93
 455 01e0 1A6C     		ldr	r2, [r3, #64]
 456 01e2 42F08052 		orr	r2, r2, #268435456
 457 01e6 1A64     		str	r2, [r3, #64]
 458              		.loc 1 402 7 view .LVU149
 459 01e8 1B6C     		ldr	r3, [r3, #64]
 460 01ea 03F08053 		and	r3, r3, #268435456
 461 01ee 0193     		str	r3, [sp, #4]
 462              		.loc 1 402 7 view .LVU150
 463 01f0 019B     		ldr	r3, [sp, #4]
 464              	.LBE3:
 465              		.loc 1 402 7 view .LVU151
 403:bsp/STMicroelectronics/stm32f413/stm32f4xx_hal_driver/Src/stm32f4xx_hal_rcc.c ****       pwrclkchanged = SET;
 466              		.loc 1 403 7 view .LVU152
ARM GAS  /tmp/ccUzmqNi.s 			page 17


 467              	.LVL27:
 468              		.loc 1 403 21 is_stmt 0 view .LVU153
 469 01f2 0125     		movs	r5, #1
 470 01f4 00E0     		b	.L31
 471              	.LVL28:
 472              	.L61:
 393:bsp/STMicroelectronics/stm32f413/stm32f4xx_hal_driver/Src/stm32f4xx_hal_rcc.c **** 
 473              		.loc 1 393 22 view .LVU154
 474 01f6 0025     		movs	r5, #0
 475              	.LVL29:
 476              	.L31:
 404:bsp/STMicroelectronics/stm32f413/stm32f4xx_hal_driver/Src/stm32f4xx_hal_rcc.c ****     }
 405:bsp/STMicroelectronics/stm32f413/stm32f4xx_hal_driver/Src/stm32f4xx_hal_rcc.c **** 
 406:bsp/STMicroelectronics/stm32f413/stm32f4xx_hal_driver/Src/stm32f4xx_hal_rcc.c ****     if(HAL_IS_BIT_CLR(PWR->CR, PWR_CR_DBP))
 477              		.loc 1 406 5 is_stmt 1 view .LVU155
 478              		.loc 1 406 8 is_stmt 0 view .LVU156
 479 01f8 304B     		ldr	r3, .L93+12
 480 01fa 1B68     		ldr	r3, [r3]
 481              		.loc 1 406 7 view .LVU157
 482 01fc 13F4807F 		tst	r3, #256
 483 0200 21D0     		beq	.L85
 484              	.L32:
 407:bsp/STMicroelectronics/stm32f413/stm32f4xx_hal_driver/Src/stm32f4xx_hal_rcc.c ****     {
 408:bsp/STMicroelectronics/stm32f413/stm32f4xx_hal_driver/Src/stm32f4xx_hal_rcc.c ****       /* Enable write access to Backup domain */
 409:bsp/STMicroelectronics/stm32f413/stm32f4xx_hal_driver/Src/stm32f4xx_hal_rcc.c ****       SET_BIT(PWR->CR, PWR_CR_DBP);
 410:bsp/STMicroelectronics/stm32f413/stm32f4xx_hal_driver/Src/stm32f4xx_hal_rcc.c **** 
 411:bsp/STMicroelectronics/stm32f413/stm32f4xx_hal_driver/Src/stm32f4xx_hal_rcc.c ****       /* Wait for Backup domain Write protection disable */
 412:bsp/STMicroelectronics/stm32f413/stm32f4xx_hal_driver/Src/stm32f4xx_hal_rcc.c ****       tickstart = HAL_GetTick();
 413:bsp/STMicroelectronics/stm32f413/stm32f4xx_hal_driver/Src/stm32f4xx_hal_rcc.c **** 
 414:bsp/STMicroelectronics/stm32f413/stm32f4xx_hal_driver/Src/stm32f4xx_hal_rcc.c ****       while(HAL_IS_BIT_CLR(PWR->CR, PWR_CR_DBP))
 415:bsp/STMicroelectronics/stm32f413/stm32f4xx_hal_driver/Src/stm32f4xx_hal_rcc.c ****       {
 416:bsp/STMicroelectronics/stm32f413/stm32f4xx_hal_driver/Src/stm32f4xx_hal_rcc.c ****         if((HAL_GetTick() - tickstart) > RCC_DBP_TIMEOUT_VALUE)
 417:bsp/STMicroelectronics/stm32f413/stm32f4xx_hal_driver/Src/stm32f4xx_hal_rcc.c ****         {
 418:bsp/STMicroelectronics/stm32f413/stm32f4xx_hal_driver/Src/stm32f4xx_hal_rcc.c ****           return HAL_TIMEOUT;
 419:bsp/STMicroelectronics/stm32f413/stm32f4xx_hal_driver/Src/stm32f4xx_hal_rcc.c ****         }
 420:bsp/STMicroelectronics/stm32f413/stm32f4xx_hal_driver/Src/stm32f4xx_hal_rcc.c ****       }
 421:bsp/STMicroelectronics/stm32f413/stm32f4xx_hal_driver/Src/stm32f4xx_hal_rcc.c ****     }
 422:bsp/STMicroelectronics/stm32f413/stm32f4xx_hal_driver/Src/stm32f4xx_hal_rcc.c **** 
 423:bsp/STMicroelectronics/stm32f413/stm32f4xx_hal_driver/Src/stm32f4xx_hal_rcc.c ****     /* Set the new LSE configuration -----------------------------------------*/
 424:bsp/STMicroelectronics/stm32f413/stm32f4xx_hal_driver/Src/stm32f4xx_hal_rcc.c ****     __HAL_RCC_LSE_CONFIG(RCC_OscInitStruct->LSEState);
 485              		.loc 1 424 5 is_stmt 1 view .LVU158
 486              		.loc 1 424 5 view .LVU159
 487 0202 A368     		ldr	r3, [r4, #8]
 488 0204 012B     		cmp	r3, #1
 489 0206 32D0     		beq	.L86
 490              		.loc 1 424 5 discriminator 2 view .LVU160
 491 0208 052B     		cmp	r3, #5
 492 020a 36D0     		beq	.L87
 493              		.loc 1 424 5 discriminator 5 view .LVU161
 494 020c 284B     		ldr	r3, .L93
 495 020e 1A6F     		ldr	r2, [r3, #112]
 496 0210 22F00102 		bic	r2, r2, #1
 497 0214 1A67     		str	r2, [r3, #112]
 498              		.loc 1 424 5 discriminator 5 view .LVU162
 499 0216 1A6F     		ldr	r2, [r3, #112]
 500 0218 22F00402 		bic	r2, r2, #4
 501 021c 1A67     		str	r2, [r3, #112]
ARM GAS  /tmp/ccUzmqNi.s 			page 18


 502              	.L36:
 503              		.loc 1 424 5 discriminator 7 view .LVU163
 425:bsp/STMicroelectronics/stm32f413/stm32f4xx_hal_driver/Src/stm32f4xx_hal_rcc.c ****     /* Check the LSE State */
 426:bsp/STMicroelectronics/stm32f413/stm32f4xx_hal_driver/Src/stm32f4xx_hal_rcc.c ****     if((RCC_OscInitStruct->LSEState) != RCC_LSE_OFF)
 504              		.loc 1 426 5 discriminator 7 view .LVU164
 505              		.loc 1 426 26 is_stmt 0 discriminator 7 view .LVU165
 506 021e A368     		ldr	r3, [r4, #8]
 507              		.loc 1 426 7 discriminator 7 view .LVU166
 508 0220 002B     		cmp	r3, #0
 509 0222 34D0     		beq	.L38
 427:bsp/STMicroelectronics/stm32f413/stm32f4xx_hal_driver/Src/stm32f4xx_hal_rcc.c ****     {
 428:bsp/STMicroelectronics/stm32f413/stm32f4xx_hal_driver/Src/stm32f4xx_hal_rcc.c ****       /* Get Start Tick*/
 429:bsp/STMicroelectronics/stm32f413/stm32f4xx_hal_driver/Src/stm32f4xx_hal_rcc.c ****       tickstart = HAL_GetTick();
 510              		.loc 1 429 7 is_stmt 1 view .LVU167
 511              		.loc 1 429 19 is_stmt 0 view .LVU168
 512 0224 FFF7FEFF 		bl	HAL_GetTick
 513              	.LVL30:
 514 0228 0646     		mov	r6, r0
 515              	.LVL31:
 430:bsp/STMicroelectronics/stm32f413/stm32f4xx_hal_driver/Src/stm32f4xx_hal_rcc.c **** 
 431:bsp/STMicroelectronics/stm32f413/stm32f4xx_hal_driver/Src/stm32f4xx_hal_rcc.c ****       /* Wait till LSE is ready */
 432:bsp/STMicroelectronics/stm32f413/stm32f4xx_hal_driver/Src/stm32f4xx_hal_rcc.c ****       while(__HAL_RCC_GET_FLAG(RCC_FLAG_LSERDY) == RESET)
 516              		.loc 1 432 7 is_stmt 1 view .LVU169
 517              	.L39:
 518              		.loc 1 432 12 view .LVU170
 519              		.loc 1 432 13 is_stmt 0 view .LVU171
 520 022a 214B     		ldr	r3, .L93
 521 022c 1B6F     		ldr	r3, [r3, #112]
 522              		.loc 1 432 12 view .LVU172
 523 022e 13F0020F 		tst	r3, #2
 524 0232 45D1     		bne	.L41
 433:bsp/STMicroelectronics/stm32f413/stm32f4xx_hal_driver/Src/stm32f4xx_hal_rcc.c ****       {
 434:bsp/STMicroelectronics/stm32f413/stm32f4xx_hal_driver/Src/stm32f4xx_hal_rcc.c ****         if((HAL_GetTick() - tickstart ) > RCC_LSE_TIMEOUT_VALUE)
 525              		.loc 1 434 9 is_stmt 1 view .LVU173
 526              		.loc 1 434 13 is_stmt 0 view .LVU174
 527 0234 FFF7FEFF 		bl	HAL_GetTick
 528              	.LVL32:
 529              		.loc 1 434 27 view .LVU175
 530 0238 801B     		subs	r0, r0, r6
 531              		.loc 1 434 11 view .LVU176
 532 023a 41F28833 		movw	r3, #5000
 533 023e 9842     		cmp	r0, r3
 534 0240 F3D9     		bls	.L39
 435:bsp/STMicroelectronics/stm32f413/stm32f4xx_hal_driver/Src/stm32f4xx_hal_rcc.c ****         {
 436:bsp/STMicroelectronics/stm32f413/stm32f4xx_hal_driver/Src/stm32f4xx_hal_rcc.c ****           return HAL_TIMEOUT;
 535              		.loc 1 436 18 view .LVU177
 536 0242 0320     		movs	r0, #3
 537 0244 BFE0     		b	.L3
 538              	.LVL33:
 539              	.L85:
 409:bsp/STMicroelectronics/stm32f413/stm32f4xx_hal_driver/Src/stm32f4xx_hal_rcc.c **** 
 540              		.loc 1 409 7 is_stmt 1 view .LVU178
 541 0246 1D4A     		ldr	r2, .L93+12
 542 0248 1368     		ldr	r3, [r2]
 543 024a 43F48073 		orr	r3, r3, #256
 544 024e 1360     		str	r3, [r2]
 412:bsp/STMicroelectronics/stm32f413/stm32f4xx_hal_driver/Src/stm32f4xx_hal_rcc.c **** 
ARM GAS  /tmp/ccUzmqNi.s 			page 19


 545              		.loc 1 412 7 view .LVU179
 412:bsp/STMicroelectronics/stm32f413/stm32f4xx_hal_driver/Src/stm32f4xx_hal_rcc.c **** 
 546              		.loc 1 412 19 is_stmt 0 view .LVU180
 547 0250 FFF7FEFF 		bl	HAL_GetTick
 548              	.LVL34:
 549 0254 0646     		mov	r6, r0
 550              	.LVL35:
 414:bsp/STMicroelectronics/stm32f413/stm32f4xx_hal_driver/Src/stm32f4xx_hal_rcc.c ****       {
 551              		.loc 1 414 7 is_stmt 1 view .LVU181
 552              	.L33:
 414:bsp/STMicroelectronics/stm32f413/stm32f4xx_hal_driver/Src/stm32f4xx_hal_rcc.c ****       {
 553              		.loc 1 414 12 view .LVU182
 414:bsp/STMicroelectronics/stm32f413/stm32f4xx_hal_driver/Src/stm32f4xx_hal_rcc.c ****       {
 554              		.loc 1 414 13 is_stmt 0 view .LVU183
 555 0256 194B     		ldr	r3, .L93+12
 556 0258 1B68     		ldr	r3, [r3]
 414:bsp/STMicroelectronics/stm32f413/stm32f4xx_hal_driver/Src/stm32f4xx_hal_rcc.c ****       {
 557              		.loc 1 414 12 view .LVU184
 558 025a 13F4807F 		tst	r3, #256
 559 025e D0D1     		bne	.L32
 416:bsp/STMicroelectronics/stm32f413/stm32f4xx_hal_driver/Src/stm32f4xx_hal_rcc.c ****         {
 560              		.loc 1 416 9 is_stmt 1 view .LVU185
 416:bsp/STMicroelectronics/stm32f413/stm32f4xx_hal_driver/Src/stm32f4xx_hal_rcc.c ****         {
 561              		.loc 1 416 13 is_stmt 0 view .LVU186
 562 0260 FFF7FEFF 		bl	HAL_GetTick
 563              	.LVL36:
 416:bsp/STMicroelectronics/stm32f413/stm32f4xx_hal_driver/Src/stm32f4xx_hal_rcc.c ****         {
 564              		.loc 1 416 27 view .LVU187
 565 0264 801B     		subs	r0, r0, r6
 416:bsp/STMicroelectronics/stm32f413/stm32f4xx_hal_driver/Src/stm32f4xx_hal_rcc.c ****         {
 566              		.loc 1 416 11 view .LVU188
 567 0266 0228     		cmp	r0, #2
 568 0268 F5D9     		bls	.L33
 418:bsp/STMicroelectronics/stm32f413/stm32f4xx_hal_driver/Src/stm32f4xx_hal_rcc.c ****         }
 569              		.loc 1 418 18 view .LVU189
 570 026a 0320     		movs	r0, #3
 571 026c ABE0     		b	.L3
 572              	.LVL37:
 573              	.L86:
 424:bsp/STMicroelectronics/stm32f413/stm32f4xx_hal_driver/Src/stm32f4xx_hal_rcc.c ****     /* Check the LSE State */
 574              		.loc 1 424 5 is_stmt 1 discriminator 1 view .LVU190
 575 026e 104A     		ldr	r2, .L93
 576 0270 136F     		ldr	r3, [r2, #112]
 577 0272 43F00103 		orr	r3, r3, #1
 578 0276 1367     		str	r3, [r2, #112]
 579 0278 D1E7     		b	.L36
 580              	.L87:
 424:bsp/STMicroelectronics/stm32f413/stm32f4xx_hal_driver/Src/stm32f4xx_hal_rcc.c ****     /* Check the LSE State */
 581              		.loc 1 424 5 discriminator 4 view .LVU191
 582 027a 0D4B     		ldr	r3, .L93
 583 027c 1A6F     		ldr	r2, [r3, #112]
 584 027e 42F00402 		orr	r2, r2, #4
 585 0282 1A67     		str	r2, [r3, #112]
 424:bsp/STMicroelectronics/stm32f413/stm32f4xx_hal_driver/Src/stm32f4xx_hal_rcc.c ****     /* Check the LSE State */
 586              		.loc 1 424 5 discriminator 4 view .LVU192
 587 0284 1A6F     		ldr	r2, [r3, #112]
 588 0286 42F00102 		orr	r2, r2, #1
ARM GAS  /tmp/ccUzmqNi.s 			page 20


 589 028a 1A67     		str	r2, [r3, #112]
 590 028c C7E7     		b	.L36
 591              	.L38:
 437:bsp/STMicroelectronics/stm32f413/stm32f4xx_hal_driver/Src/stm32f4xx_hal_rcc.c ****         }
 438:bsp/STMicroelectronics/stm32f413/stm32f4xx_hal_driver/Src/stm32f4xx_hal_rcc.c ****       }
 439:bsp/STMicroelectronics/stm32f413/stm32f4xx_hal_driver/Src/stm32f4xx_hal_rcc.c ****     }
 440:bsp/STMicroelectronics/stm32f413/stm32f4xx_hal_driver/Src/stm32f4xx_hal_rcc.c ****     else
 441:bsp/STMicroelectronics/stm32f413/stm32f4xx_hal_driver/Src/stm32f4xx_hal_rcc.c ****     {
 442:bsp/STMicroelectronics/stm32f413/stm32f4xx_hal_driver/Src/stm32f4xx_hal_rcc.c ****       /* Get Start Tick */
 443:bsp/STMicroelectronics/stm32f413/stm32f4xx_hal_driver/Src/stm32f4xx_hal_rcc.c ****       tickstart = HAL_GetTick();
 592              		.loc 1 443 7 view .LVU193
 593              		.loc 1 443 19 is_stmt 0 view .LVU194
 594 028e FFF7FEFF 		bl	HAL_GetTick
 595              	.LVL38:
 596 0292 0646     		mov	r6, r0
 597              	.LVL39:
 444:bsp/STMicroelectronics/stm32f413/stm32f4xx_hal_driver/Src/stm32f4xx_hal_rcc.c **** 
 445:bsp/STMicroelectronics/stm32f413/stm32f4xx_hal_driver/Src/stm32f4xx_hal_rcc.c ****       /* Wait till LSE is ready */
 446:bsp/STMicroelectronics/stm32f413/stm32f4xx_hal_driver/Src/stm32f4xx_hal_rcc.c ****       while(__HAL_RCC_GET_FLAG(RCC_FLAG_LSERDY) != RESET)
 598              		.loc 1 446 7 is_stmt 1 view .LVU195
 599              	.L42:
 600              		.loc 1 446 12 view .LVU196
 601              		.loc 1 446 13 is_stmt 0 view .LVU197
 602 0294 064B     		ldr	r3, .L93
 603 0296 1B6F     		ldr	r3, [r3, #112]
 604              		.loc 1 446 12 view .LVU198
 605 0298 13F0020F 		tst	r3, #2
 606 029c 10D0     		beq	.L41
 447:bsp/STMicroelectronics/stm32f413/stm32f4xx_hal_driver/Src/stm32f4xx_hal_rcc.c ****       {
 448:bsp/STMicroelectronics/stm32f413/stm32f4xx_hal_driver/Src/stm32f4xx_hal_rcc.c ****         if((HAL_GetTick() - tickstart ) > RCC_LSE_TIMEOUT_VALUE)
 607              		.loc 1 448 9 is_stmt 1 view .LVU199
 608              		.loc 1 448 13 is_stmt 0 view .LVU200
 609 029e FFF7FEFF 		bl	HAL_GetTick
 610              	.LVL40:
 611              		.loc 1 448 27 view .LVU201
 612 02a2 801B     		subs	r0, r0, r6
 613              		.loc 1 448 11 view .LVU202
 614 02a4 41F28833 		movw	r3, #5000
 615 02a8 9842     		cmp	r0, r3
 616 02aa F3D9     		bls	.L42
 449:bsp/STMicroelectronics/stm32f413/stm32f4xx_hal_driver/Src/stm32f4xx_hal_rcc.c ****         {
 450:bsp/STMicroelectronics/stm32f413/stm32f4xx_hal_driver/Src/stm32f4xx_hal_rcc.c ****           return HAL_TIMEOUT;
 617              		.loc 1 450 18 view .LVU203
 618 02ac 0320     		movs	r0, #3
 619 02ae 8AE0     		b	.L3
 620              	.L94:
 621              		.align	2
 622              	.L93:
 623 02b0 00380240 		.word	1073887232
 624 02b4 00004742 		.word	1111949312
 625 02b8 800E4742 		.word	1111953024
 626 02bc 00700040 		.word	1073770496
 627              	.L41:
 451:bsp/STMicroelectronics/stm32f413/stm32f4xx_hal_driver/Src/stm32f4xx_hal_rcc.c ****         }
 452:bsp/STMicroelectronics/stm32f413/stm32f4xx_hal_driver/Src/stm32f4xx_hal_rcc.c ****       }
 453:bsp/STMicroelectronics/stm32f413/stm32f4xx_hal_driver/Src/stm32f4xx_hal_rcc.c ****     }
 454:bsp/STMicroelectronics/stm32f413/stm32f4xx_hal_driver/Src/stm32f4xx_hal_rcc.c **** 
ARM GAS  /tmp/ccUzmqNi.s 			page 21


 455:bsp/STMicroelectronics/stm32f413/stm32f4xx_hal_driver/Src/stm32f4xx_hal_rcc.c ****     /* Restore clock configuration if changed */
 456:bsp/STMicroelectronics/stm32f413/stm32f4xx_hal_driver/Src/stm32f4xx_hal_rcc.c ****     if(pwrclkchanged == SET)
 628              		.loc 1 456 5 is_stmt 1 view .LVU204
 629              		.loc 1 456 7 is_stmt 0 view .LVU205
 630 02c0 E5B9     		cbnz	r5, .L88
 631              	.LVL41:
 632              	.L30:
 633              		.loc 1 456 7 view .LVU206
 634              	.LBE2:
 457:bsp/STMicroelectronics/stm32f413/stm32f4xx_hal_driver/Src/stm32f4xx_hal_rcc.c ****     {
 458:bsp/STMicroelectronics/stm32f413/stm32f4xx_hal_driver/Src/stm32f4xx_hal_rcc.c ****       __HAL_RCC_PWR_CLK_DISABLE();
 459:bsp/STMicroelectronics/stm32f413/stm32f4xx_hal_driver/Src/stm32f4xx_hal_rcc.c ****     }
 460:bsp/STMicroelectronics/stm32f413/stm32f4xx_hal_driver/Src/stm32f4xx_hal_rcc.c ****   }
 461:bsp/STMicroelectronics/stm32f413/stm32f4xx_hal_driver/Src/stm32f4xx_hal_rcc.c ****   /*-------------------------------- PLL Configuration -----------------------*/
 462:bsp/STMicroelectronics/stm32f413/stm32f4xx_hal_driver/Src/stm32f4xx_hal_rcc.c ****   /* Check the parameters */
 463:bsp/STMicroelectronics/stm32f413/stm32f4xx_hal_driver/Src/stm32f4xx_hal_rcc.c ****   assert_param(IS_RCC_PLL(RCC_OscInitStruct->PLL.PLLState));
 635              		.loc 1 463 3 is_stmt 1 view .LVU207
 464:bsp/STMicroelectronics/stm32f413/stm32f4xx_hal_driver/Src/stm32f4xx_hal_rcc.c ****   if ((RCC_OscInitStruct->PLL.PLLState) != RCC_PLL_NONE)
 636              		.loc 1 464 3 view .LVU208
 637              		.loc 1 464 30 is_stmt 0 view .LVU209
 638 02c2 A369     		ldr	r3, [r4, #24]
 639              		.loc 1 464 6 view .LVU210
 640 02c4 002B     		cmp	r3, #0
 641 02c6 7DD0     		beq	.L65
 465:bsp/STMicroelectronics/stm32f413/stm32f4xx_hal_driver/Src/stm32f4xx_hal_rcc.c ****   {
 466:bsp/STMicroelectronics/stm32f413/stm32f4xx_hal_driver/Src/stm32f4xx_hal_rcc.c ****     /* Check if the PLL is used as system clock or not */
 467:bsp/STMicroelectronics/stm32f413/stm32f4xx_hal_driver/Src/stm32f4xx_hal_rcc.c ****     if(__HAL_RCC_GET_SYSCLK_SOURCE() != RCC_CFGR_SWS_PLL)
 642              		.loc 1 467 5 is_stmt 1 view .LVU211
 643              		.loc 1 467 8 is_stmt 0 view .LVU212
 644 02c8 464A     		ldr	r2, .L95
 645 02ca 9268     		ldr	r2, [r2, #8]
 646 02cc 02F00C02 		and	r2, r2, #12
 647              		.loc 1 467 7 view .LVU213
 648 02d0 082A     		cmp	r2, #8
 649 02d2 51D0     		beq	.L44
 468:bsp/STMicroelectronics/stm32f413/stm32f4xx_hal_driver/Src/stm32f4xx_hal_rcc.c ****     {
 469:bsp/STMicroelectronics/stm32f413/stm32f4xx_hal_driver/Src/stm32f4xx_hal_rcc.c ****       if((RCC_OscInitStruct->PLL.PLLState) == RCC_PLL_ON)
 650              		.loc 1 469 7 is_stmt 1 view .LVU214
 651              		.loc 1 469 9 is_stmt 0 view .LVU215
 652 02d4 022B     		cmp	r3, #2
 653 02d6 17D0     		beq	.L89
 470:bsp/STMicroelectronics/stm32f413/stm32f4xx_hal_driver/Src/stm32f4xx_hal_rcc.c ****       {
 471:bsp/STMicroelectronics/stm32f413/stm32f4xx_hal_driver/Src/stm32f4xx_hal_rcc.c ****         /* Check the parameters */
 472:bsp/STMicroelectronics/stm32f413/stm32f4xx_hal_driver/Src/stm32f4xx_hal_rcc.c ****         assert_param(IS_RCC_PLLSOURCE(RCC_OscInitStruct->PLL.PLLSource));
 473:bsp/STMicroelectronics/stm32f413/stm32f4xx_hal_driver/Src/stm32f4xx_hal_rcc.c ****         assert_param(IS_RCC_PLLM_VALUE(RCC_OscInitStruct->PLL.PLLM));
 474:bsp/STMicroelectronics/stm32f413/stm32f4xx_hal_driver/Src/stm32f4xx_hal_rcc.c ****         assert_param(IS_RCC_PLLN_VALUE(RCC_OscInitStruct->PLL.PLLN));
 475:bsp/STMicroelectronics/stm32f413/stm32f4xx_hal_driver/Src/stm32f4xx_hal_rcc.c ****         assert_param(IS_RCC_PLLP_VALUE(RCC_OscInitStruct->PLL.PLLP));
 476:bsp/STMicroelectronics/stm32f413/stm32f4xx_hal_driver/Src/stm32f4xx_hal_rcc.c ****         assert_param(IS_RCC_PLLQ_VALUE(RCC_OscInitStruct->PLL.PLLQ));
 477:bsp/STMicroelectronics/stm32f413/stm32f4xx_hal_driver/Src/stm32f4xx_hal_rcc.c **** 
 478:bsp/STMicroelectronics/stm32f413/stm32f4xx_hal_driver/Src/stm32f4xx_hal_rcc.c ****         /* Disable the main PLL. */
 479:bsp/STMicroelectronics/stm32f413/stm32f4xx_hal_driver/Src/stm32f4xx_hal_rcc.c ****         __HAL_RCC_PLL_DISABLE();
 480:bsp/STMicroelectronics/stm32f413/stm32f4xx_hal_driver/Src/stm32f4xx_hal_rcc.c **** 
 481:bsp/STMicroelectronics/stm32f413/stm32f4xx_hal_driver/Src/stm32f4xx_hal_rcc.c ****         /* Get Start Tick */
 482:bsp/STMicroelectronics/stm32f413/stm32f4xx_hal_driver/Src/stm32f4xx_hal_rcc.c ****         tickstart = HAL_GetTick();
 483:bsp/STMicroelectronics/stm32f413/stm32f4xx_hal_driver/Src/stm32f4xx_hal_rcc.c **** 
 484:bsp/STMicroelectronics/stm32f413/stm32f4xx_hal_driver/Src/stm32f4xx_hal_rcc.c ****         /* Wait till PLL is ready */
 485:bsp/STMicroelectronics/stm32f413/stm32f4xx_hal_driver/Src/stm32f4xx_hal_rcc.c ****         while(__HAL_RCC_GET_FLAG(RCC_FLAG_PLLRDY) != RESET)
ARM GAS  /tmp/ccUzmqNi.s 			page 22


 486:bsp/STMicroelectronics/stm32f413/stm32f4xx_hal_driver/Src/stm32f4xx_hal_rcc.c ****         {
 487:bsp/STMicroelectronics/stm32f413/stm32f4xx_hal_driver/Src/stm32f4xx_hal_rcc.c ****           if((HAL_GetTick() - tickstart ) > PLL_TIMEOUT_VALUE)
 488:bsp/STMicroelectronics/stm32f413/stm32f4xx_hal_driver/Src/stm32f4xx_hal_rcc.c ****           {
 489:bsp/STMicroelectronics/stm32f413/stm32f4xx_hal_driver/Src/stm32f4xx_hal_rcc.c ****             return HAL_TIMEOUT;
 490:bsp/STMicroelectronics/stm32f413/stm32f4xx_hal_driver/Src/stm32f4xx_hal_rcc.c ****           }
 491:bsp/STMicroelectronics/stm32f413/stm32f4xx_hal_driver/Src/stm32f4xx_hal_rcc.c ****         }
 492:bsp/STMicroelectronics/stm32f413/stm32f4xx_hal_driver/Src/stm32f4xx_hal_rcc.c **** 
 493:bsp/STMicroelectronics/stm32f413/stm32f4xx_hal_driver/Src/stm32f4xx_hal_rcc.c ****         /* Configure the main PLL clock source, multiplication and division factors. */
 494:bsp/STMicroelectronics/stm32f413/stm32f4xx_hal_driver/Src/stm32f4xx_hal_rcc.c ****         WRITE_REG(RCC->PLLCFGR, (RCC_OscInitStruct->PLL.PLLSource                                  
 495:bsp/STMicroelectronics/stm32f413/stm32f4xx_hal_driver/Src/stm32f4xx_hal_rcc.c ****                                  RCC_OscInitStruct->PLL.PLLM                                       
 496:bsp/STMicroelectronics/stm32f413/stm32f4xx_hal_driver/Src/stm32f4xx_hal_rcc.c ****                                  (RCC_OscInitStruct->PLL.PLLN << RCC_PLLCFGR_PLLN_Pos)             
 497:bsp/STMicroelectronics/stm32f413/stm32f4xx_hal_driver/Src/stm32f4xx_hal_rcc.c ****                                  (((RCC_OscInitStruct->PLL.PLLP >> 1U) - 1U) << RCC_PLLCFGR_PLLP_Po
 498:bsp/STMicroelectronics/stm32f413/stm32f4xx_hal_driver/Src/stm32f4xx_hal_rcc.c ****                                  (RCC_OscInitStruct->PLL.PLLQ << RCC_PLLCFGR_PLLQ_Pos)));
 499:bsp/STMicroelectronics/stm32f413/stm32f4xx_hal_driver/Src/stm32f4xx_hal_rcc.c ****         /* Enable the main PLL. */
 500:bsp/STMicroelectronics/stm32f413/stm32f4xx_hal_driver/Src/stm32f4xx_hal_rcc.c ****         __HAL_RCC_PLL_ENABLE();
 501:bsp/STMicroelectronics/stm32f413/stm32f4xx_hal_driver/Src/stm32f4xx_hal_rcc.c **** 
 502:bsp/STMicroelectronics/stm32f413/stm32f4xx_hal_driver/Src/stm32f4xx_hal_rcc.c ****         /* Get Start Tick */
 503:bsp/STMicroelectronics/stm32f413/stm32f4xx_hal_driver/Src/stm32f4xx_hal_rcc.c ****         tickstart = HAL_GetTick();
 504:bsp/STMicroelectronics/stm32f413/stm32f4xx_hal_driver/Src/stm32f4xx_hal_rcc.c **** 
 505:bsp/STMicroelectronics/stm32f413/stm32f4xx_hal_driver/Src/stm32f4xx_hal_rcc.c ****         /* Wait till PLL is ready */
 506:bsp/STMicroelectronics/stm32f413/stm32f4xx_hal_driver/Src/stm32f4xx_hal_rcc.c ****         while(__HAL_RCC_GET_FLAG(RCC_FLAG_PLLRDY) == RESET)
 507:bsp/STMicroelectronics/stm32f413/stm32f4xx_hal_driver/Src/stm32f4xx_hal_rcc.c ****         {
 508:bsp/STMicroelectronics/stm32f413/stm32f4xx_hal_driver/Src/stm32f4xx_hal_rcc.c ****           if((HAL_GetTick() - tickstart ) > PLL_TIMEOUT_VALUE)
 509:bsp/STMicroelectronics/stm32f413/stm32f4xx_hal_driver/Src/stm32f4xx_hal_rcc.c ****           {
 510:bsp/STMicroelectronics/stm32f413/stm32f4xx_hal_driver/Src/stm32f4xx_hal_rcc.c ****             return HAL_TIMEOUT;
 511:bsp/STMicroelectronics/stm32f413/stm32f4xx_hal_driver/Src/stm32f4xx_hal_rcc.c ****           }
 512:bsp/STMicroelectronics/stm32f413/stm32f4xx_hal_driver/Src/stm32f4xx_hal_rcc.c ****         }
 513:bsp/STMicroelectronics/stm32f413/stm32f4xx_hal_driver/Src/stm32f4xx_hal_rcc.c ****       }
 514:bsp/STMicroelectronics/stm32f413/stm32f4xx_hal_driver/Src/stm32f4xx_hal_rcc.c ****       else
 515:bsp/STMicroelectronics/stm32f413/stm32f4xx_hal_driver/Src/stm32f4xx_hal_rcc.c ****       {
 516:bsp/STMicroelectronics/stm32f413/stm32f4xx_hal_driver/Src/stm32f4xx_hal_rcc.c ****         /* Disable the main PLL. */
 517:bsp/STMicroelectronics/stm32f413/stm32f4xx_hal_driver/Src/stm32f4xx_hal_rcc.c ****         __HAL_RCC_PLL_DISABLE();
 654              		.loc 1 517 9 is_stmt 1 view .LVU216
 655 02d8 434B     		ldr	r3, .L95+4
 656 02da 0022     		movs	r2, #0
 657 02dc 1A60     		str	r2, [r3]
 518:bsp/STMicroelectronics/stm32f413/stm32f4xx_hal_driver/Src/stm32f4xx_hal_rcc.c **** 
 519:bsp/STMicroelectronics/stm32f413/stm32f4xx_hal_driver/Src/stm32f4xx_hal_rcc.c ****         /* Get Start Tick */
 520:bsp/STMicroelectronics/stm32f413/stm32f4xx_hal_driver/Src/stm32f4xx_hal_rcc.c ****         tickstart = HAL_GetTick();
 658              		.loc 1 520 9 view .LVU217
 659              		.loc 1 520 21 is_stmt 0 view .LVU218
 660 02de FFF7FEFF 		bl	HAL_GetTick
 661              	.LVL42:
 662 02e2 0446     		mov	r4, r0
 663              	.LVL43:
 521:bsp/STMicroelectronics/stm32f413/stm32f4xx_hal_driver/Src/stm32f4xx_hal_rcc.c **** 
 522:bsp/STMicroelectronics/stm32f413/stm32f4xx_hal_driver/Src/stm32f4xx_hal_rcc.c ****         /* Wait till PLL is ready */
 523:bsp/STMicroelectronics/stm32f413/stm32f4xx_hal_driver/Src/stm32f4xx_hal_rcc.c ****         while(__HAL_RCC_GET_FLAG(RCC_FLAG_PLLRDY) != RESET)
 664              		.loc 1 523 9 is_stmt 1 view .LVU219
 665              	.L50:
 666              		.loc 1 523 14 view .LVU220
 667              		.loc 1 523 15 is_stmt 0 view .LVU221
 668 02e4 3F4B     		ldr	r3, .L95
 669 02e6 1B68     		ldr	r3, [r3]
 670              		.loc 1 523 14 view .LVU222
 671 02e8 13F0007F 		tst	r3, #33554432
 672 02ec 42D0     		beq	.L90
ARM GAS  /tmp/ccUzmqNi.s 			page 23


 524:bsp/STMicroelectronics/stm32f413/stm32f4xx_hal_driver/Src/stm32f4xx_hal_rcc.c ****         {
 525:bsp/STMicroelectronics/stm32f413/stm32f4xx_hal_driver/Src/stm32f4xx_hal_rcc.c ****           if((HAL_GetTick() - tickstart ) > PLL_TIMEOUT_VALUE)
 673              		.loc 1 525 11 is_stmt 1 view .LVU223
 674              		.loc 1 525 15 is_stmt 0 view .LVU224
 675 02ee FFF7FEFF 		bl	HAL_GetTick
 676              	.LVL44:
 677              		.loc 1 525 29 view .LVU225
 678 02f2 001B     		subs	r0, r0, r4
 679              		.loc 1 525 13 view .LVU226
 680 02f4 0228     		cmp	r0, #2
 681 02f6 F5D9     		bls	.L50
 526:bsp/STMicroelectronics/stm32f413/stm32f4xx_hal_driver/Src/stm32f4xx_hal_rcc.c ****           {
 527:bsp/STMicroelectronics/stm32f413/stm32f4xx_hal_driver/Src/stm32f4xx_hal_rcc.c ****             return HAL_TIMEOUT;
 682              		.loc 1 527 20 view .LVU227
 683 02f8 0320     		movs	r0, #3
 684 02fa 64E0     		b	.L3
 685              	.LVL45:
 686              	.L88:
 687              	.LBB4:
 458:bsp/STMicroelectronics/stm32f413/stm32f4xx_hal_driver/Src/stm32f4xx_hal_rcc.c ****     }
 688              		.loc 1 458 7 is_stmt 1 view .LVU228
 689 02fc 394A     		ldr	r2, .L95
 690 02fe 136C     		ldr	r3, [r2, #64]
 691 0300 23F08053 		bic	r3, r3, #268435456
 692 0304 1364     		str	r3, [r2, #64]
 693 0306 DCE7     		b	.L30
 694              	.LVL46:
 695              	.L89:
 458:bsp/STMicroelectronics/stm32f413/stm32f4xx_hal_driver/Src/stm32f4xx_hal_rcc.c ****     }
 696              		.loc 1 458 7 is_stmt 0 view .LVU229
 697              	.LBE4:
 472:bsp/STMicroelectronics/stm32f413/stm32f4xx_hal_driver/Src/stm32f4xx_hal_rcc.c ****         assert_param(IS_RCC_PLLM_VALUE(RCC_OscInitStruct->PLL.PLLM));
 698              		.loc 1 472 9 is_stmt 1 view .LVU230
 473:bsp/STMicroelectronics/stm32f413/stm32f4xx_hal_driver/Src/stm32f4xx_hal_rcc.c ****         assert_param(IS_RCC_PLLN_VALUE(RCC_OscInitStruct->PLL.PLLN));
 699              		.loc 1 473 9 view .LVU231
 474:bsp/STMicroelectronics/stm32f413/stm32f4xx_hal_driver/Src/stm32f4xx_hal_rcc.c ****         assert_param(IS_RCC_PLLP_VALUE(RCC_OscInitStruct->PLL.PLLP));
 700              		.loc 1 474 9 view .LVU232
 475:bsp/STMicroelectronics/stm32f413/stm32f4xx_hal_driver/Src/stm32f4xx_hal_rcc.c ****         assert_param(IS_RCC_PLLQ_VALUE(RCC_OscInitStruct->PLL.PLLQ));
 701              		.loc 1 475 9 view .LVU233
 476:bsp/STMicroelectronics/stm32f413/stm32f4xx_hal_driver/Src/stm32f4xx_hal_rcc.c **** 
 702              		.loc 1 476 9 view .LVU234
 479:bsp/STMicroelectronics/stm32f413/stm32f4xx_hal_driver/Src/stm32f4xx_hal_rcc.c **** 
 703              		.loc 1 479 9 view .LVU235
 704 0308 374B     		ldr	r3, .L95+4
 705 030a 0022     		movs	r2, #0
 706 030c 1A60     		str	r2, [r3]
 482:bsp/STMicroelectronics/stm32f413/stm32f4xx_hal_driver/Src/stm32f4xx_hal_rcc.c **** 
 707              		.loc 1 482 9 view .LVU236
 482:bsp/STMicroelectronics/stm32f413/stm32f4xx_hal_driver/Src/stm32f4xx_hal_rcc.c **** 
 708              		.loc 1 482 21 is_stmt 0 view .LVU237
 709 030e FFF7FEFF 		bl	HAL_GetTick
 710              	.LVL47:
 711 0312 0546     		mov	r5, r0
 712              	.LVL48:
 485:bsp/STMicroelectronics/stm32f413/stm32f4xx_hal_driver/Src/stm32f4xx_hal_rcc.c ****         {
 713              		.loc 1 485 9 is_stmt 1 view .LVU238
 714              	.L46:
ARM GAS  /tmp/ccUzmqNi.s 			page 24


 485:bsp/STMicroelectronics/stm32f413/stm32f4xx_hal_driver/Src/stm32f4xx_hal_rcc.c ****         {
 715              		.loc 1 485 14 view .LVU239
 485:bsp/STMicroelectronics/stm32f413/stm32f4xx_hal_driver/Src/stm32f4xx_hal_rcc.c ****         {
 716              		.loc 1 485 15 is_stmt 0 view .LVU240
 717 0314 334B     		ldr	r3, .L95
 718 0316 1B68     		ldr	r3, [r3]
 485:bsp/STMicroelectronics/stm32f413/stm32f4xx_hal_driver/Src/stm32f4xx_hal_rcc.c ****         {
 719              		.loc 1 485 14 view .LVU241
 720 0318 13F0007F 		tst	r3, #33554432
 721 031c 06D0     		beq	.L91
 487:bsp/STMicroelectronics/stm32f413/stm32f4xx_hal_driver/Src/stm32f4xx_hal_rcc.c ****           {
 722              		.loc 1 487 11 is_stmt 1 view .LVU242
 487:bsp/STMicroelectronics/stm32f413/stm32f4xx_hal_driver/Src/stm32f4xx_hal_rcc.c ****           {
 723              		.loc 1 487 15 is_stmt 0 view .LVU243
 724 031e FFF7FEFF 		bl	HAL_GetTick
 725              	.LVL49:
 487:bsp/STMicroelectronics/stm32f413/stm32f4xx_hal_driver/Src/stm32f4xx_hal_rcc.c ****           {
 726              		.loc 1 487 29 view .LVU244
 727 0322 401B     		subs	r0, r0, r5
 487:bsp/STMicroelectronics/stm32f413/stm32f4xx_hal_driver/Src/stm32f4xx_hal_rcc.c ****           {
 728              		.loc 1 487 13 view .LVU245
 729 0324 0228     		cmp	r0, #2
 730 0326 F5D9     		bls	.L46
 489:bsp/STMicroelectronics/stm32f413/stm32f4xx_hal_driver/Src/stm32f4xx_hal_rcc.c ****           }
 731              		.loc 1 489 20 view .LVU246
 732 0328 0320     		movs	r0, #3
 733 032a 4CE0     		b	.L3
 734              	.L91:
 494:bsp/STMicroelectronics/stm32f413/stm32f4xx_hal_driver/Src/stm32f4xx_hal_rcc.c ****                                  RCC_OscInitStruct->PLL.PLLM                                       
 735              		.loc 1 494 9 is_stmt 1 view .LVU247
 736 032c E369     		ldr	r3, [r4, #28]
 737 032e 226A     		ldr	r2, [r4, #32]
 738 0330 1343     		orrs	r3, r3, r2
 739 0332 626A     		ldr	r2, [r4, #36]
 740 0334 43EA8213 		orr	r3, r3, r2, lsl #6
 741 0338 A26A     		ldr	r2, [r4, #40]
 742 033a 5208     		lsrs	r2, r2, #1
 743 033c 013A     		subs	r2, r2, #1
 744 033e 43EA0243 		orr	r3, r3, r2, lsl #16
 745 0342 E26A     		ldr	r2, [r4, #44]
 746 0344 43EA0263 		orr	r3, r3, r2, lsl #24
 747 0348 264A     		ldr	r2, .L95
 748 034a 5360     		str	r3, [r2, #4]
 500:bsp/STMicroelectronics/stm32f413/stm32f4xx_hal_driver/Src/stm32f4xx_hal_rcc.c **** 
 749              		.loc 1 500 9 view .LVU248
 750 034c 264B     		ldr	r3, .L95+4
 751 034e 0122     		movs	r2, #1
 752 0350 1A60     		str	r2, [r3]
 503:bsp/STMicroelectronics/stm32f413/stm32f4xx_hal_driver/Src/stm32f4xx_hal_rcc.c **** 
 753              		.loc 1 503 9 view .LVU249
 503:bsp/STMicroelectronics/stm32f413/stm32f4xx_hal_driver/Src/stm32f4xx_hal_rcc.c **** 
 754              		.loc 1 503 21 is_stmt 0 view .LVU250
 755 0352 FFF7FEFF 		bl	HAL_GetTick
 756              	.LVL50:
 757 0356 0446     		mov	r4, r0
 758              	.LVL51:
 506:bsp/STMicroelectronics/stm32f413/stm32f4xx_hal_driver/Src/stm32f4xx_hal_rcc.c ****         {
ARM GAS  /tmp/ccUzmqNi.s 			page 25


 759              		.loc 1 506 9 is_stmt 1 view .LVU251
 760              	.L48:
 506:bsp/STMicroelectronics/stm32f413/stm32f4xx_hal_driver/Src/stm32f4xx_hal_rcc.c ****         {
 761              		.loc 1 506 14 view .LVU252
 506:bsp/STMicroelectronics/stm32f413/stm32f4xx_hal_driver/Src/stm32f4xx_hal_rcc.c ****         {
 762              		.loc 1 506 15 is_stmt 0 view .LVU253
 763 0358 224B     		ldr	r3, .L95
 764 035a 1B68     		ldr	r3, [r3]
 506:bsp/STMicroelectronics/stm32f413/stm32f4xx_hal_driver/Src/stm32f4xx_hal_rcc.c ****         {
 765              		.loc 1 506 14 view .LVU254
 766 035c 13F0007F 		tst	r3, #33554432
 767 0360 06D1     		bne	.L92
 508:bsp/STMicroelectronics/stm32f413/stm32f4xx_hal_driver/Src/stm32f4xx_hal_rcc.c ****           {
 768              		.loc 1 508 11 is_stmt 1 view .LVU255
 508:bsp/STMicroelectronics/stm32f413/stm32f4xx_hal_driver/Src/stm32f4xx_hal_rcc.c ****           {
 769              		.loc 1 508 15 is_stmt 0 view .LVU256
 770 0362 FFF7FEFF 		bl	HAL_GetTick
 771              	.LVL52:
 508:bsp/STMicroelectronics/stm32f413/stm32f4xx_hal_driver/Src/stm32f4xx_hal_rcc.c ****           {
 772              		.loc 1 508 29 view .LVU257
 773 0366 001B     		subs	r0, r0, r4
 508:bsp/STMicroelectronics/stm32f413/stm32f4xx_hal_driver/Src/stm32f4xx_hal_rcc.c ****           {
 774              		.loc 1 508 13 view .LVU258
 775 0368 0228     		cmp	r0, #2
 776 036a F5D9     		bls	.L48
 510:bsp/STMicroelectronics/stm32f413/stm32f4xx_hal_driver/Src/stm32f4xx_hal_rcc.c ****           }
 777              		.loc 1 510 20 view .LVU259
 778 036c 0320     		movs	r0, #3
 779 036e 2AE0     		b	.L3
 780              	.L92:
 528:bsp/STMicroelectronics/stm32f413/stm32f4xx_hal_driver/Src/stm32f4xx_hal_rcc.c ****           }
 529:bsp/STMicroelectronics/stm32f413/stm32f4xx_hal_driver/Src/stm32f4xx_hal_rcc.c ****         }
 530:bsp/STMicroelectronics/stm32f413/stm32f4xx_hal_driver/Src/stm32f4xx_hal_rcc.c ****       }
 531:bsp/STMicroelectronics/stm32f413/stm32f4xx_hal_driver/Src/stm32f4xx_hal_rcc.c ****     }
 532:bsp/STMicroelectronics/stm32f413/stm32f4xx_hal_driver/Src/stm32f4xx_hal_rcc.c ****     else
 533:bsp/STMicroelectronics/stm32f413/stm32f4xx_hal_driver/Src/stm32f4xx_hal_rcc.c ****     {
 534:bsp/STMicroelectronics/stm32f413/stm32f4xx_hal_driver/Src/stm32f4xx_hal_rcc.c ****       /* Check if there is a request to disable the PLL used as System clock source */
 535:bsp/STMicroelectronics/stm32f413/stm32f4xx_hal_driver/Src/stm32f4xx_hal_rcc.c ****       if((RCC_OscInitStruct->PLL.PLLState) == RCC_PLL_OFF)
 536:bsp/STMicroelectronics/stm32f413/stm32f4xx_hal_driver/Src/stm32f4xx_hal_rcc.c ****       {
 537:bsp/STMicroelectronics/stm32f413/stm32f4xx_hal_driver/Src/stm32f4xx_hal_rcc.c ****         return HAL_ERROR;
 538:bsp/STMicroelectronics/stm32f413/stm32f4xx_hal_driver/Src/stm32f4xx_hal_rcc.c ****       }
 539:bsp/STMicroelectronics/stm32f413/stm32f4xx_hal_driver/Src/stm32f4xx_hal_rcc.c ****       else
 540:bsp/STMicroelectronics/stm32f413/stm32f4xx_hal_driver/Src/stm32f4xx_hal_rcc.c ****       {
 541:bsp/STMicroelectronics/stm32f413/stm32f4xx_hal_driver/Src/stm32f4xx_hal_rcc.c ****         /* Do not return HAL_ERROR if request repeats the current configuration */
 542:bsp/STMicroelectronics/stm32f413/stm32f4xx_hal_driver/Src/stm32f4xx_hal_rcc.c ****         pll_config = RCC->PLLCFGR;
 543:bsp/STMicroelectronics/stm32f413/stm32f4xx_hal_driver/Src/stm32f4xx_hal_rcc.c ****         if((READ_BIT(pll_config, RCC_PLLCFGR_PLLSRC) != RCC_OscInitStruct->PLL.PLLSource) ||
 544:bsp/STMicroelectronics/stm32f413/stm32f4xx_hal_driver/Src/stm32f4xx_hal_rcc.c ****            (READ_BIT(pll_config, RCC_PLLCFGR_PLLM) != RCC_OscInitStruct->PLL.PLLM) ||
 545:bsp/STMicroelectronics/stm32f413/stm32f4xx_hal_driver/Src/stm32f4xx_hal_rcc.c ****            (READ_BIT(pll_config, RCC_PLLCFGR_PLLN) != RCC_OscInitStruct->PLL.PLLN) ||
 546:bsp/STMicroelectronics/stm32f413/stm32f4xx_hal_driver/Src/stm32f4xx_hal_rcc.c ****            (READ_BIT(pll_config, RCC_PLLCFGR_PLLP) != RCC_OscInitStruct->PLL.PLLP) ||
 547:bsp/STMicroelectronics/stm32f413/stm32f4xx_hal_driver/Src/stm32f4xx_hal_rcc.c ****            (READ_BIT(pll_config, RCC_PLLCFGR_PLLQ) != RCC_OscInitStruct->PLL.PLLQ))
 548:bsp/STMicroelectronics/stm32f413/stm32f4xx_hal_driver/Src/stm32f4xx_hal_rcc.c ****         {
 549:bsp/STMicroelectronics/stm32f413/stm32f4xx_hal_driver/Src/stm32f4xx_hal_rcc.c ****           return HAL_ERROR;
 550:bsp/STMicroelectronics/stm32f413/stm32f4xx_hal_driver/Src/stm32f4xx_hal_rcc.c ****         }
 551:bsp/STMicroelectronics/stm32f413/stm32f4xx_hal_driver/Src/stm32f4xx_hal_rcc.c ****       }
 552:bsp/STMicroelectronics/stm32f413/stm32f4xx_hal_driver/Src/stm32f4xx_hal_rcc.c ****     }
 553:bsp/STMicroelectronics/stm32f413/stm32f4xx_hal_driver/Src/stm32f4xx_hal_rcc.c ****   }
 554:bsp/STMicroelectronics/stm32f413/stm32f4xx_hal_driver/Src/stm32f4xx_hal_rcc.c ****   return HAL_OK;
ARM GAS  /tmp/ccUzmqNi.s 			page 26


 781              		.loc 1 554 10 view .LVU260
 782 0370 0020     		movs	r0, #0
 783 0372 28E0     		b	.L3
 784              	.L90:
 785              		.loc 1 554 10 view .LVU261
 786 0374 0020     		movs	r0, #0
 787 0376 26E0     		b	.L3
 788              	.LVL53:
 789              	.L44:
 535:bsp/STMicroelectronics/stm32f413/stm32f4xx_hal_driver/Src/stm32f4xx_hal_rcc.c ****       {
 790              		.loc 1 535 7 is_stmt 1 view .LVU262
 535:bsp/STMicroelectronics/stm32f413/stm32f4xx_hal_driver/Src/stm32f4xx_hal_rcc.c ****       {
 791              		.loc 1 535 9 is_stmt 0 view .LVU263
 792 0378 012B     		cmp	r3, #1
 793 037a 26D0     		beq	.L69
 542:bsp/STMicroelectronics/stm32f413/stm32f4xx_hal_driver/Src/stm32f4xx_hal_rcc.c ****         if((READ_BIT(pll_config, RCC_PLLCFGR_PLLSRC) != RCC_OscInitStruct->PLL.PLLSource) ||
 794              		.loc 1 542 9 is_stmt 1 view .LVU264
 542:bsp/STMicroelectronics/stm32f413/stm32f4xx_hal_driver/Src/stm32f4xx_hal_rcc.c ****         if((READ_BIT(pll_config, RCC_PLLCFGR_PLLSRC) != RCC_OscInitStruct->PLL.PLLSource) ||
 795              		.loc 1 542 20 is_stmt 0 view .LVU265
 796 037c 194B     		ldr	r3, .L95
 797 037e 5B68     		ldr	r3, [r3, #4]
 798              	.LVL54:
 543:bsp/STMicroelectronics/stm32f413/stm32f4xx_hal_driver/Src/stm32f4xx_hal_rcc.c ****            (READ_BIT(pll_config, RCC_PLLCFGR_PLLM) != RCC_OscInitStruct->PLL.PLLM) ||
 799              		.loc 1 543 9 is_stmt 1 view .LVU266
 543:bsp/STMicroelectronics/stm32f413/stm32f4xx_hal_driver/Src/stm32f4xx_hal_rcc.c ****            (READ_BIT(pll_config, RCC_PLLCFGR_PLLM) != RCC_OscInitStruct->PLL.PLLM) ||
 800              		.loc 1 543 13 is_stmt 0 view .LVU267
 801 0380 03F48001 		and	r1, r3, #4194304
 543:bsp/STMicroelectronics/stm32f413/stm32f4xx_hal_driver/Src/stm32f4xx_hal_rcc.c ****            (READ_BIT(pll_config, RCC_PLLCFGR_PLLM) != RCC_OscInitStruct->PLL.PLLM) ||
 802              		.loc 1 543 79 view .LVU268
 803 0384 E269     		ldr	r2, [r4, #28]
 543:bsp/STMicroelectronics/stm32f413/stm32f4xx_hal_driver/Src/stm32f4xx_hal_rcc.c ****            (READ_BIT(pll_config, RCC_PLLCFGR_PLLM) != RCC_OscInitStruct->PLL.PLLM) ||
 804              		.loc 1 543 11 view .LVU269
 805 0386 9142     		cmp	r1, r2
 806 0388 21D1     		bne	.L70
 544:bsp/STMicroelectronics/stm32f413/stm32f4xx_hal_driver/Src/stm32f4xx_hal_rcc.c ****            (READ_BIT(pll_config, RCC_PLLCFGR_PLLN) != RCC_OscInitStruct->PLL.PLLN) ||
 807              		.loc 1 544 13 discriminator 1 view .LVU270
 808 038a 03F03F02 		and	r2, r3, #63
 544:bsp/STMicroelectronics/stm32f413/stm32f4xx_hal_driver/Src/stm32f4xx_hal_rcc.c ****            (READ_BIT(pll_config, RCC_PLLCFGR_PLLN) != RCC_OscInitStruct->PLL.PLLN) ||
 809              		.loc 1 544 77 discriminator 1 view .LVU271
 810 038e 216A     		ldr	r1, [r4, #32]
 543:bsp/STMicroelectronics/stm32f413/stm32f4xx_hal_driver/Src/stm32f4xx_hal_rcc.c ****            (READ_BIT(pll_config, RCC_PLLCFGR_PLLM) != RCC_OscInitStruct->PLL.PLLM) ||
 811              		.loc 1 543 91 discriminator 1 view .LVU272
 812 0390 8A42     		cmp	r2, r1
 813 0392 1ED1     		bne	.L71
 545:bsp/STMicroelectronics/stm32f413/stm32f4xx_hal_driver/Src/stm32f4xx_hal_rcc.c ****            (READ_BIT(pll_config, RCC_PLLCFGR_PLLP) != RCC_OscInitStruct->PLL.PLLP) ||
 814              		.loc 1 545 77 view .LVU273
 815 0394 616A     		ldr	r1, [r4, #36]
 544:bsp/STMicroelectronics/stm32f413/stm32f4xx_hal_driver/Src/stm32f4xx_hal_rcc.c ****            (READ_BIT(pll_config, RCC_PLLCFGR_PLLN) != RCC_OscInitStruct->PLL.PLLN) ||
 816              		.loc 1 544 84 view .LVU274
 817 0396 47F6C072 		movw	r2, #32704
 818 039a 1A40     		ands	r2, r2, r3
 819 039c 8A42     		cmp	r2, r1
 820 039e 1AD1     		bne	.L72
 546:bsp/STMicroelectronics/stm32f413/stm32f4xx_hal_driver/Src/stm32f4xx_hal_rcc.c ****            (READ_BIT(pll_config, RCC_PLLCFGR_PLLQ) != RCC_OscInitStruct->PLL.PLLQ))
 821              		.loc 1 546 13 view .LVU275
 822 03a0 03F44032 		and	r2, r3, #196608
 546:bsp/STMicroelectronics/stm32f413/stm32f4xx_hal_driver/Src/stm32f4xx_hal_rcc.c ****            (READ_BIT(pll_config, RCC_PLLCFGR_PLLQ) != RCC_OscInitStruct->PLL.PLLQ))
ARM GAS  /tmp/ccUzmqNi.s 			page 27


 823              		.loc 1 546 77 view .LVU276
 824 03a4 A16A     		ldr	r1, [r4, #40]
 545:bsp/STMicroelectronics/stm32f413/stm32f4xx_hal_driver/Src/stm32f4xx_hal_rcc.c ****            (READ_BIT(pll_config, RCC_PLLCFGR_PLLP) != RCC_OscInitStruct->PLL.PLLP) ||
 825              		.loc 1 545 84 view .LVU277
 826 03a6 8A42     		cmp	r2, r1
 827 03a8 17D1     		bne	.L73
 547:bsp/STMicroelectronics/stm32f413/stm32f4xx_hal_driver/Src/stm32f4xx_hal_rcc.c ****         {
 828              		.loc 1 547 13 view .LVU278
 829 03aa 03F07063 		and	r3, r3, #251658240
 830              	.LVL55:
 547:bsp/STMicroelectronics/stm32f413/stm32f4xx_hal_driver/Src/stm32f4xx_hal_rcc.c ****         {
 831              		.loc 1 547 77 view .LVU279
 832 03ae E26A     		ldr	r2, [r4, #44]
 546:bsp/STMicroelectronics/stm32f413/stm32f4xx_hal_driver/Src/stm32f4xx_hal_rcc.c ****            (READ_BIT(pll_config, RCC_PLLCFGR_PLLQ) != RCC_OscInitStruct->PLL.PLLQ))
 833              		.loc 1 546 84 view .LVU280
 834 03b0 9342     		cmp	r3, r2
 835 03b2 14D1     		bne	.L74
 836              		.loc 1 554 10 view .LVU281
 837 03b4 0020     		movs	r0, #0
 838 03b6 06E0     		b	.L3
 839              	.LVL56:
 840              	.L52:
 841              	.LCFI2:
 842              		.cfi_def_cfa_offset 0
 843              		.cfi_restore 4
 844              		.cfi_restore 5
 845              		.cfi_restore 6
 846              		.cfi_restore 14
 228:bsp/STMicroelectronics/stm32f413/stm32f4xx_hal_driver/Src/stm32f4xx_hal_rcc.c ****   }
 847              		.loc 1 228 12 view .LVU282
 848 03b8 0120     		movs	r0, #1
 849              	.LVL57:
 555:bsp/STMicroelectronics/stm32f413/stm32f4xx_hal_driver/Src/stm32f4xx_hal_rcc.c **** }
 850              		.loc 1 555 1 view .LVU283
 851 03ba 7047     		bx	lr
 852              	.LVL58:
 853              	.L82:
 854              	.LCFI3:
 855              		.cfi_def_cfa_offset 24
 856              		.cfi_offset 4, -16
 857              		.cfi_offset 5, -12
 858              		.cfi_offset 6, -8
 859              		.cfi_offset 14, -4
 244:bsp/STMicroelectronics/stm32f413/stm32f4xx_hal_driver/Src/stm32f4xx_hal_rcc.c ****       }
 860              		.loc 1 244 16 view .LVU284
 861 03bc 0120     		movs	r0, #1
 862              	.LVL59:
 244:bsp/STMicroelectronics/stm32f413/stm32f4xx_hal_driver/Src/stm32f4xx_hal_rcc.c ****       }
 863              		.loc 1 244 16 view .LVU285
 864 03be 02E0     		b	.L3
 865              	.L56:
 297:bsp/STMicroelectronics/stm32f413/stm32f4xx_hal_driver/Src/stm32f4xx_hal_rcc.c ****       }
 866              		.loc 1 297 16 view .LVU286
 867 03c0 0120     		movs	r0, #1
 868 03c2 00E0     		b	.L3
 869              	.L65:
 554:bsp/STMicroelectronics/stm32f413/stm32f4xx_hal_driver/Src/stm32f4xx_hal_rcc.c **** }
ARM GAS  /tmp/ccUzmqNi.s 			page 28


 870              		.loc 1 554 10 view .LVU287
 871 03c4 0020     		movs	r0, #0
 872              	.LVL60:
 873              	.L3:
 874              		.loc 1 555 1 view .LVU288
 875 03c6 02B0     		add	sp, sp, #8
 876              	.LCFI4:
 877              		.cfi_remember_state
 878              		.cfi_def_cfa_offset 16
 879              		@ sp needed
 880 03c8 70BD     		pop	{r4, r5, r6, pc}
 881              	.LVL61:
 882              	.L69:
 883              	.LCFI5:
 884              		.cfi_restore_state
 537:bsp/STMicroelectronics/stm32f413/stm32f4xx_hal_driver/Src/stm32f4xx_hal_rcc.c ****       }
 885              		.loc 1 537 16 view .LVU289
 886 03ca 0120     		movs	r0, #1
 887 03cc FBE7     		b	.L3
 888              	.LVL62:
 889              	.L70:
 549:bsp/STMicroelectronics/stm32f413/stm32f4xx_hal_driver/Src/stm32f4xx_hal_rcc.c ****         }
 890              		.loc 1 549 18 view .LVU290
 891 03ce 0120     		movs	r0, #1
 892 03d0 F9E7     		b	.L3
 893              	.L71:
 894 03d2 0120     		movs	r0, #1
 895 03d4 F7E7     		b	.L3
 896              	.L72:
 897 03d6 0120     		movs	r0, #1
 898 03d8 F5E7     		b	.L3
 899              	.L73:
 900 03da 0120     		movs	r0, #1
 901 03dc F3E7     		b	.L3
 902              	.LVL63:
 903              	.L74:
 549:bsp/STMicroelectronics/stm32f413/stm32f4xx_hal_driver/Src/stm32f4xx_hal_rcc.c ****         }
 904              		.loc 1 549 18 view .LVU291
 905 03de 0120     		movs	r0, #1
 906 03e0 F1E7     		b	.L3
 907              	.L96:
 908 03e2 00BF     		.align	2
 909              	.L95:
 910 03e4 00380240 		.word	1073887232
 911 03e8 60004742 		.word	1111949408
 912              		.cfi_endproc
 913              	.LFE131:
 915              		.section	.text.HAL_RCC_MCOConfig,"ax",%progbits
 916              		.align	1
 917              		.global	HAL_RCC_MCOConfig
 918              		.syntax unified
 919              		.thumb
 920              		.thumb_func
 921              		.fpu fpv4-sp-d16
 923              	HAL_RCC_MCOConfig:
 924              	.LVL64:
 925              	.LFB133:
ARM GAS  /tmp/ccUzmqNi.s 			page 29


 556:bsp/STMicroelectronics/stm32f413/stm32f4xx_hal_driver/Src/stm32f4xx_hal_rcc.c **** 
 557:bsp/STMicroelectronics/stm32f413/stm32f4xx_hal_driver/Src/stm32f4xx_hal_rcc.c **** /**
 558:bsp/STMicroelectronics/stm32f413/stm32f4xx_hal_driver/Src/stm32f4xx_hal_rcc.c ****   * @brief  Initializes the CPU, AHB and APB busses clocks according to the specified
 559:bsp/STMicroelectronics/stm32f413/stm32f4xx_hal_driver/Src/stm32f4xx_hal_rcc.c ****   *         parameters in the RCC_ClkInitStruct.
 560:bsp/STMicroelectronics/stm32f413/stm32f4xx_hal_driver/Src/stm32f4xx_hal_rcc.c ****   * @param  RCC_ClkInitStruct pointer to an RCC_OscInitTypeDef structure that
 561:bsp/STMicroelectronics/stm32f413/stm32f4xx_hal_driver/Src/stm32f4xx_hal_rcc.c ****   *         contains the configuration information for the RCC peripheral.
 562:bsp/STMicroelectronics/stm32f413/stm32f4xx_hal_driver/Src/stm32f4xx_hal_rcc.c ****   * @param  FLatency FLASH Latency, this parameter depend on device selected
 563:bsp/STMicroelectronics/stm32f413/stm32f4xx_hal_driver/Src/stm32f4xx_hal_rcc.c ****   *
 564:bsp/STMicroelectronics/stm32f413/stm32f4xx_hal_driver/Src/stm32f4xx_hal_rcc.c ****   * @note   The SystemCoreClock CMSIS variable is used to store System Clock Frequency
 565:bsp/STMicroelectronics/stm32f413/stm32f4xx_hal_driver/Src/stm32f4xx_hal_rcc.c ****   *         and updated by HAL_RCC_GetHCLKFreq() function called within this function
 566:bsp/STMicroelectronics/stm32f413/stm32f4xx_hal_driver/Src/stm32f4xx_hal_rcc.c ****   *
 567:bsp/STMicroelectronics/stm32f413/stm32f4xx_hal_driver/Src/stm32f4xx_hal_rcc.c ****   * @note   The HSI is used (enabled by hardware) as system clock source after
 568:bsp/STMicroelectronics/stm32f413/stm32f4xx_hal_driver/Src/stm32f4xx_hal_rcc.c ****   *         startup from Reset, wake-up from STOP and STANDBY mode, or in case
 569:bsp/STMicroelectronics/stm32f413/stm32f4xx_hal_driver/Src/stm32f4xx_hal_rcc.c ****   *         of failure of the HSE used directly or indirectly as system clock
 570:bsp/STMicroelectronics/stm32f413/stm32f4xx_hal_driver/Src/stm32f4xx_hal_rcc.c ****   *         (if the Clock Security System CSS is enabled).
 571:bsp/STMicroelectronics/stm32f413/stm32f4xx_hal_driver/Src/stm32f4xx_hal_rcc.c ****   *
 572:bsp/STMicroelectronics/stm32f413/stm32f4xx_hal_driver/Src/stm32f4xx_hal_rcc.c ****   * @note   A switch from one clock source to another occurs only if the target
 573:bsp/STMicroelectronics/stm32f413/stm32f4xx_hal_driver/Src/stm32f4xx_hal_rcc.c ****   *         clock source is ready (clock stable after startup delay or PLL locked).
 574:bsp/STMicroelectronics/stm32f413/stm32f4xx_hal_driver/Src/stm32f4xx_hal_rcc.c ****   *         If a clock source which is not yet ready is selected, the switch will
 575:bsp/STMicroelectronics/stm32f413/stm32f4xx_hal_driver/Src/stm32f4xx_hal_rcc.c ****   *         occur when the clock source will be ready.
 576:bsp/STMicroelectronics/stm32f413/stm32f4xx_hal_driver/Src/stm32f4xx_hal_rcc.c ****   *
 577:bsp/STMicroelectronics/stm32f413/stm32f4xx_hal_driver/Src/stm32f4xx_hal_rcc.c ****   * @note   Depending on the device voltage range, the software has to set correctly
 578:bsp/STMicroelectronics/stm32f413/stm32f4xx_hal_driver/Src/stm32f4xx_hal_rcc.c ****   *         HPRE[3:0] bits to ensure that HCLK not exceed the maximum allowed frequency
 579:bsp/STMicroelectronics/stm32f413/stm32f4xx_hal_driver/Src/stm32f4xx_hal_rcc.c ****   *         (for more details refer to section above "Initialization/de-initialization functions")
 580:bsp/STMicroelectronics/stm32f413/stm32f4xx_hal_driver/Src/stm32f4xx_hal_rcc.c ****   * @retval None
 581:bsp/STMicroelectronics/stm32f413/stm32f4xx_hal_driver/Src/stm32f4xx_hal_rcc.c ****   */
 582:bsp/STMicroelectronics/stm32f413/stm32f4xx_hal_driver/Src/stm32f4xx_hal_rcc.c **** HAL_StatusTypeDef HAL_RCC_ClockConfig(RCC_ClkInitTypeDef  *RCC_ClkInitStruct, uint32_t FLatency)
 583:bsp/STMicroelectronics/stm32f413/stm32f4xx_hal_driver/Src/stm32f4xx_hal_rcc.c **** {
 584:bsp/STMicroelectronics/stm32f413/stm32f4xx_hal_driver/Src/stm32f4xx_hal_rcc.c ****   uint32_t tickstart;
 585:bsp/STMicroelectronics/stm32f413/stm32f4xx_hal_driver/Src/stm32f4xx_hal_rcc.c **** 
 586:bsp/STMicroelectronics/stm32f413/stm32f4xx_hal_driver/Src/stm32f4xx_hal_rcc.c ****   /* Check Null pointer */
 587:bsp/STMicroelectronics/stm32f413/stm32f4xx_hal_driver/Src/stm32f4xx_hal_rcc.c ****   if(RCC_ClkInitStruct == NULL)
 588:bsp/STMicroelectronics/stm32f413/stm32f4xx_hal_driver/Src/stm32f4xx_hal_rcc.c ****   {
 589:bsp/STMicroelectronics/stm32f413/stm32f4xx_hal_driver/Src/stm32f4xx_hal_rcc.c ****     return HAL_ERROR;
 590:bsp/STMicroelectronics/stm32f413/stm32f4xx_hal_driver/Src/stm32f4xx_hal_rcc.c ****   }
 591:bsp/STMicroelectronics/stm32f413/stm32f4xx_hal_driver/Src/stm32f4xx_hal_rcc.c **** 
 592:bsp/STMicroelectronics/stm32f413/stm32f4xx_hal_driver/Src/stm32f4xx_hal_rcc.c ****   /* Check the parameters */
 593:bsp/STMicroelectronics/stm32f413/stm32f4xx_hal_driver/Src/stm32f4xx_hal_rcc.c ****   assert_param(IS_RCC_CLOCKTYPE(RCC_ClkInitStruct->ClockType));
 594:bsp/STMicroelectronics/stm32f413/stm32f4xx_hal_driver/Src/stm32f4xx_hal_rcc.c ****   assert_param(IS_FLASH_LATENCY(FLatency));
 595:bsp/STMicroelectronics/stm32f413/stm32f4xx_hal_driver/Src/stm32f4xx_hal_rcc.c **** 
 596:bsp/STMicroelectronics/stm32f413/stm32f4xx_hal_driver/Src/stm32f4xx_hal_rcc.c ****   /* To correctly read data from FLASH memory, the number of wait states (LATENCY)
 597:bsp/STMicroelectronics/stm32f413/stm32f4xx_hal_driver/Src/stm32f4xx_hal_rcc.c ****     must be correctly programmed according to the frequency of the CPU clock
 598:bsp/STMicroelectronics/stm32f413/stm32f4xx_hal_driver/Src/stm32f4xx_hal_rcc.c ****     (HCLK) and the supply voltage of the device. */
 599:bsp/STMicroelectronics/stm32f413/stm32f4xx_hal_driver/Src/stm32f4xx_hal_rcc.c **** 
 600:bsp/STMicroelectronics/stm32f413/stm32f4xx_hal_driver/Src/stm32f4xx_hal_rcc.c ****   /* Increasing the number of wait states because of higher CPU frequency */
 601:bsp/STMicroelectronics/stm32f413/stm32f4xx_hal_driver/Src/stm32f4xx_hal_rcc.c ****   if(FLatency > __HAL_FLASH_GET_LATENCY())
 602:bsp/STMicroelectronics/stm32f413/stm32f4xx_hal_driver/Src/stm32f4xx_hal_rcc.c ****   {
 603:bsp/STMicroelectronics/stm32f413/stm32f4xx_hal_driver/Src/stm32f4xx_hal_rcc.c ****     /* Program the new number of wait states to the LATENCY bits in the FLASH_ACR register */
 604:bsp/STMicroelectronics/stm32f413/stm32f4xx_hal_driver/Src/stm32f4xx_hal_rcc.c ****     __HAL_FLASH_SET_LATENCY(FLatency);
 605:bsp/STMicroelectronics/stm32f413/stm32f4xx_hal_driver/Src/stm32f4xx_hal_rcc.c **** 
 606:bsp/STMicroelectronics/stm32f413/stm32f4xx_hal_driver/Src/stm32f4xx_hal_rcc.c ****     /* Check that the new number of wait states is taken into account to access the Flash
 607:bsp/STMicroelectronics/stm32f413/stm32f4xx_hal_driver/Src/stm32f4xx_hal_rcc.c ****     memory by reading the FLASH_ACR register */
 608:bsp/STMicroelectronics/stm32f413/stm32f4xx_hal_driver/Src/stm32f4xx_hal_rcc.c ****     if(__HAL_FLASH_GET_LATENCY() != FLatency)
 609:bsp/STMicroelectronics/stm32f413/stm32f4xx_hal_driver/Src/stm32f4xx_hal_rcc.c ****     {
 610:bsp/STMicroelectronics/stm32f413/stm32f4xx_hal_driver/Src/stm32f4xx_hal_rcc.c ****       return HAL_ERROR;
 611:bsp/STMicroelectronics/stm32f413/stm32f4xx_hal_driver/Src/stm32f4xx_hal_rcc.c ****     }
 612:bsp/STMicroelectronics/stm32f413/stm32f4xx_hal_driver/Src/stm32f4xx_hal_rcc.c ****   }
ARM GAS  /tmp/ccUzmqNi.s 			page 30


 613:bsp/STMicroelectronics/stm32f413/stm32f4xx_hal_driver/Src/stm32f4xx_hal_rcc.c **** 
 614:bsp/STMicroelectronics/stm32f413/stm32f4xx_hal_driver/Src/stm32f4xx_hal_rcc.c ****   /*-------------------------- HCLK Configuration --------------------------*/
 615:bsp/STMicroelectronics/stm32f413/stm32f4xx_hal_driver/Src/stm32f4xx_hal_rcc.c ****   if(((RCC_ClkInitStruct->ClockType) & RCC_CLOCKTYPE_HCLK) == RCC_CLOCKTYPE_HCLK)
 616:bsp/STMicroelectronics/stm32f413/stm32f4xx_hal_driver/Src/stm32f4xx_hal_rcc.c ****   {
 617:bsp/STMicroelectronics/stm32f413/stm32f4xx_hal_driver/Src/stm32f4xx_hal_rcc.c ****     /* Set the highest APBx dividers in order to ensure that we do not go through
 618:bsp/STMicroelectronics/stm32f413/stm32f4xx_hal_driver/Src/stm32f4xx_hal_rcc.c ****        a non-spec phase whatever we decrease or increase HCLK. */
 619:bsp/STMicroelectronics/stm32f413/stm32f4xx_hal_driver/Src/stm32f4xx_hal_rcc.c ****     if(((RCC_ClkInitStruct->ClockType) & RCC_CLOCKTYPE_PCLK1) == RCC_CLOCKTYPE_PCLK1)
 620:bsp/STMicroelectronics/stm32f413/stm32f4xx_hal_driver/Src/stm32f4xx_hal_rcc.c ****     {
 621:bsp/STMicroelectronics/stm32f413/stm32f4xx_hal_driver/Src/stm32f4xx_hal_rcc.c ****       MODIFY_REG(RCC->CFGR, RCC_CFGR_PPRE1, RCC_HCLK_DIV16);
 622:bsp/STMicroelectronics/stm32f413/stm32f4xx_hal_driver/Src/stm32f4xx_hal_rcc.c ****     }
 623:bsp/STMicroelectronics/stm32f413/stm32f4xx_hal_driver/Src/stm32f4xx_hal_rcc.c **** 
 624:bsp/STMicroelectronics/stm32f413/stm32f4xx_hal_driver/Src/stm32f4xx_hal_rcc.c ****     if(((RCC_ClkInitStruct->ClockType) & RCC_CLOCKTYPE_PCLK2) == RCC_CLOCKTYPE_PCLK2)
 625:bsp/STMicroelectronics/stm32f413/stm32f4xx_hal_driver/Src/stm32f4xx_hal_rcc.c ****     {
 626:bsp/STMicroelectronics/stm32f413/stm32f4xx_hal_driver/Src/stm32f4xx_hal_rcc.c ****       MODIFY_REG(RCC->CFGR, RCC_CFGR_PPRE2, (RCC_HCLK_DIV16 << 3));
 627:bsp/STMicroelectronics/stm32f413/stm32f4xx_hal_driver/Src/stm32f4xx_hal_rcc.c ****     }
 628:bsp/STMicroelectronics/stm32f413/stm32f4xx_hal_driver/Src/stm32f4xx_hal_rcc.c **** 
 629:bsp/STMicroelectronics/stm32f413/stm32f4xx_hal_driver/Src/stm32f4xx_hal_rcc.c ****     assert_param(IS_RCC_HCLK(RCC_ClkInitStruct->AHBCLKDivider));
 630:bsp/STMicroelectronics/stm32f413/stm32f4xx_hal_driver/Src/stm32f4xx_hal_rcc.c ****     MODIFY_REG(RCC->CFGR, RCC_CFGR_HPRE, RCC_ClkInitStruct->AHBCLKDivider);
 631:bsp/STMicroelectronics/stm32f413/stm32f4xx_hal_driver/Src/stm32f4xx_hal_rcc.c ****   }
 632:bsp/STMicroelectronics/stm32f413/stm32f4xx_hal_driver/Src/stm32f4xx_hal_rcc.c **** 
 633:bsp/STMicroelectronics/stm32f413/stm32f4xx_hal_driver/Src/stm32f4xx_hal_rcc.c ****   /*------------------------- SYSCLK Configuration ---------------------------*/
 634:bsp/STMicroelectronics/stm32f413/stm32f4xx_hal_driver/Src/stm32f4xx_hal_rcc.c ****   if(((RCC_ClkInitStruct->ClockType) & RCC_CLOCKTYPE_SYSCLK) == RCC_CLOCKTYPE_SYSCLK)
 635:bsp/STMicroelectronics/stm32f413/stm32f4xx_hal_driver/Src/stm32f4xx_hal_rcc.c ****   {
 636:bsp/STMicroelectronics/stm32f413/stm32f4xx_hal_driver/Src/stm32f4xx_hal_rcc.c ****     assert_param(IS_RCC_SYSCLKSOURCE(RCC_ClkInitStruct->SYSCLKSource));
 637:bsp/STMicroelectronics/stm32f413/stm32f4xx_hal_driver/Src/stm32f4xx_hal_rcc.c **** 
 638:bsp/STMicroelectronics/stm32f413/stm32f4xx_hal_driver/Src/stm32f4xx_hal_rcc.c ****     /* HSE is selected as System Clock Source */
 639:bsp/STMicroelectronics/stm32f413/stm32f4xx_hal_driver/Src/stm32f4xx_hal_rcc.c ****     if(RCC_ClkInitStruct->SYSCLKSource == RCC_SYSCLKSOURCE_HSE)
 640:bsp/STMicroelectronics/stm32f413/stm32f4xx_hal_driver/Src/stm32f4xx_hal_rcc.c ****     {
 641:bsp/STMicroelectronics/stm32f413/stm32f4xx_hal_driver/Src/stm32f4xx_hal_rcc.c ****       /* Check the HSE ready flag */
 642:bsp/STMicroelectronics/stm32f413/stm32f4xx_hal_driver/Src/stm32f4xx_hal_rcc.c ****       if(__HAL_RCC_GET_FLAG(RCC_FLAG_HSERDY) == RESET)
 643:bsp/STMicroelectronics/stm32f413/stm32f4xx_hal_driver/Src/stm32f4xx_hal_rcc.c ****       {
 644:bsp/STMicroelectronics/stm32f413/stm32f4xx_hal_driver/Src/stm32f4xx_hal_rcc.c ****         return HAL_ERROR;
 645:bsp/STMicroelectronics/stm32f413/stm32f4xx_hal_driver/Src/stm32f4xx_hal_rcc.c ****       }
 646:bsp/STMicroelectronics/stm32f413/stm32f4xx_hal_driver/Src/stm32f4xx_hal_rcc.c ****     }
 647:bsp/STMicroelectronics/stm32f413/stm32f4xx_hal_driver/Src/stm32f4xx_hal_rcc.c ****     /* PLL is selected as System Clock Source */
 648:bsp/STMicroelectronics/stm32f413/stm32f4xx_hal_driver/Src/stm32f4xx_hal_rcc.c ****     else if((RCC_ClkInitStruct->SYSCLKSource == RCC_SYSCLKSOURCE_PLLCLK)   ||
 649:bsp/STMicroelectronics/stm32f413/stm32f4xx_hal_driver/Src/stm32f4xx_hal_rcc.c ****             (RCC_ClkInitStruct->SYSCLKSource == RCC_SYSCLKSOURCE_PLLRCLK))
 650:bsp/STMicroelectronics/stm32f413/stm32f4xx_hal_driver/Src/stm32f4xx_hal_rcc.c ****     {
 651:bsp/STMicroelectronics/stm32f413/stm32f4xx_hal_driver/Src/stm32f4xx_hal_rcc.c ****       /* Check the PLL ready flag */
 652:bsp/STMicroelectronics/stm32f413/stm32f4xx_hal_driver/Src/stm32f4xx_hal_rcc.c ****       if(__HAL_RCC_GET_FLAG(RCC_FLAG_PLLRDY) == RESET)
 653:bsp/STMicroelectronics/stm32f413/stm32f4xx_hal_driver/Src/stm32f4xx_hal_rcc.c ****       {
 654:bsp/STMicroelectronics/stm32f413/stm32f4xx_hal_driver/Src/stm32f4xx_hal_rcc.c ****         return HAL_ERROR;
 655:bsp/STMicroelectronics/stm32f413/stm32f4xx_hal_driver/Src/stm32f4xx_hal_rcc.c ****       }
 656:bsp/STMicroelectronics/stm32f413/stm32f4xx_hal_driver/Src/stm32f4xx_hal_rcc.c ****     }
 657:bsp/STMicroelectronics/stm32f413/stm32f4xx_hal_driver/Src/stm32f4xx_hal_rcc.c ****     /* HSI is selected as System Clock Source */
 658:bsp/STMicroelectronics/stm32f413/stm32f4xx_hal_driver/Src/stm32f4xx_hal_rcc.c ****     else
 659:bsp/STMicroelectronics/stm32f413/stm32f4xx_hal_driver/Src/stm32f4xx_hal_rcc.c ****     {
 660:bsp/STMicroelectronics/stm32f413/stm32f4xx_hal_driver/Src/stm32f4xx_hal_rcc.c ****       /* Check the HSI ready flag */
 661:bsp/STMicroelectronics/stm32f413/stm32f4xx_hal_driver/Src/stm32f4xx_hal_rcc.c ****       if(__HAL_RCC_GET_FLAG(RCC_FLAG_HSIRDY) == RESET)
 662:bsp/STMicroelectronics/stm32f413/stm32f4xx_hal_driver/Src/stm32f4xx_hal_rcc.c ****       {
 663:bsp/STMicroelectronics/stm32f413/stm32f4xx_hal_driver/Src/stm32f4xx_hal_rcc.c ****         return HAL_ERROR;
 664:bsp/STMicroelectronics/stm32f413/stm32f4xx_hal_driver/Src/stm32f4xx_hal_rcc.c ****       }
 665:bsp/STMicroelectronics/stm32f413/stm32f4xx_hal_driver/Src/stm32f4xx_hal_rcc.c ****     }
 666:bsp/STMicroelectronics/stm32f413/stm32f4xx_hal_driver/Src/stm32f4xx_hal_rcc.c **** 
 667:bsp/STMicroelectronics/stm32f413/stm32f4xx_hal_driver/Src/stm32f4xx_hal_rcc.c ****     __HAL_RCC_SYSCLK_CONFIG(RCC_ClkInitStruct->SYSCLKSource);
 668:bsp/STMicroelectronics/stm32f413/stm32f4xx_hal_driver/Src/stm32f4xx_hal_rcc.c **** 
 669:bsp/STMicroelectronics/stm32f413/stm32f4xx_hal_driver/Src/stm32f4xx_hal_rcc.c ****     /* Get Start Tick */
ARM GAS  /tmp/ccUzmqNi.s 			page 31


 670:bsp/STMicroelectronics/stm32f413/stm32f4xx_hal_driver/Src/stm32f4xx_hal_rcc.c ****     tickstart = HAL_GetTick();
 671:bsp/STMicroelectronics/stm32f413/stm32f4xx_hal_driver/Src/stm32f4xx_hal_rcc.c **** 
 672:bsp/STMicroelectronics/stm32f413/stm32f4xx_hal_driver/Src/stm32f4xx_hal_rcc.c ****     while (__HAL_RCC_GET_SYSCLK_SOURCE() != (RCC_ClkInitStruct->SYSCLKSource << RCC_CFGR_SWS_Pos))
 673:bsp/STMicroelectronics/stm32f413/stm32f4xx_hal_driver/Src/stm32f4xx_hal_rcc.c ****     {
 674:bsp/STMicroelectronics/stm32f413/stm32f4xx_hal_driver/Src/stm32f4xx_hal_rcc.c ****       if ((HAL_GetTick() - tickstart) > CLOCKSWITCH_TIMEOUT_VALUE)
 675:bsp/STMicroelectronics/stm32f413/stm32f4xx_hal_driver/Src/stm32f4xx_hal_rcc.c ****       {
 676:bsp/STMicroelectronics/stm32f413/stm32f4xx_hal_driver/Src/stm32f4xx_hal_rcc.c ****         return HAL_TIMEOUT;
 677:bsp/STMicroelectronics/stm32f413/stm32f4xx_hal_driver/Src/stm32f4xx_hal_rcc.c ****       }
 678:bsp/STMicroelectronics/stm32f413/stm32f4xx_hal_driver/Src/stm32f4xx_hal_rcc.c ****     }
 679:bsp/STMicroelectronics/stm32f413/stm32f4xx_hal_driver/Src/stm32f4xx_hal_rcc.c ****   }
 680:bsp/STMicroelectronics/stm32f413/stm32f4xx_hal_driver/Src/stm32f4xx_hal_rcc.c **** 
 681:bsp/STMicroelectronics/stm32f413/stm32f4xx_hal_driver/Src/stm32f4xx_hal_rcc.c ****   /* Decreasing the number of wait states because of lower CPU frequency */
 682:bsp/STMicroelectronics/stm32f413/stm32f4xx_hal_driver/Src/stm32f4xx_hal_rcc.c ****   if(FLatency < __HAL_FLASH_GET_LATENCY())
 683:bsp/STMicroelectronics/stm32f413/stm32f4xx_hal_driver/Src/stm32f4xx_hal_rcc.c ****   {
 684:bsp/STMicroelectronics/stm32f413/stm32f4xx_hal_driver/Src/stm32f4xx_hal_rcc.c ****      /* Program the new number of wait states to the LATENCY bits in the FLASH_ACR register */
 685:bsp/STMicroelectronics/stm32f413/stm32f4xx_hal_driver/Src/stm32f4xx_hal_rcc.c ****     __HAL_FLASH_SET_LATENCY(FLatency);
 686:bsp/STMicroelectronics/stm32f413/stm32f4xx_hal_driver/Src/stm32f4xx_hal_rcc.c **** 
 687:bsp/STMicroelectronics/stm32f413/stm32f4xx_hal_driver/Src/stm32f4xx_hal_rcc.c ****     /* Check that the new number of wait states is taken into account to access the Flash
 688:bsp/STMicroelectronics/stm32f413/stm32f4xx_hal_driver/Src/stm32f4xx_hal_rcc.c ****     memory by reading the FLASH_ACR register */
 689:bsp/STMicroelectronics/stm32f413/stm32f4xx_hal_driver/Src/stm32f4xx_hal_rcc.c ****     if(__HAL_FLASH_GET_LATENCY() != FLatency)
 690:bsp/STMicroelectronics/stm32f413/stm32f4xx_hal_driver/Src/stm32f4xx_hal_rcc.c ****     {
 691:bsp/STMicroelectronics/stm32f413/stm32f4xx_hal_driver/Src/stm32f4xx_hal_rcc.c ****       return HAL_ERROR;
 692:bsp/STMicroelectronics/stm32f413/stm32f4xx_hal_driver/Src/stm32f4xx_hal_rcc.c ****     }
 693:bsp/STMicroelectronics/stm32f413/stm32f4xx_hal_driver/Src/stm32f4xx_hal_rcc.c ****   }
 694:bsp/STMicroelectronics/stm32f413/stm32f4xx_hal_driver/Src/stm32f4xx_hal_rcc.c **** 
 695:bsp/STMicroelectronics/stm32f413/stm32f4xx_hal_driver/Src/stm32f4xx_hal_rcc.c ****   /*-------------------------- PCLK1 Configuration ---------------------------*/
 696:bsp/STMicroelectronics/stm32f413/stm32f4xx_hal_driver/Src/stm32f4xx_hal_rcc.c ****   if(((RCC_ClkInitStruct->ClockType) & RCC_CLOCKTYPE_PCLK1) == RCC_CLOCKTYPE_PCLK1)
 697:bsp/STMicroelectronics/stm32f413/stm32f4xx_hal_driver/Src/stm32f4xx_hal_rcc.c ****   {
 698:bsp/STMicroelectronics/stm32f413/stm32f4xx_hal_driver/Src/stm32f4xx_hal_rcc.c ****     assert_param(IS_RCC_PCLK(RCC_ClkInitStruct->APB1CLKDivider));
 699:bsp/STMicroelectronics/stm32f413/stm32f4xx_hal_driver/Src/stm32f4xx_hal_rcc.c ****     MODIFY_REG(RCC->CFGR, RCC_CFGR_PPRE1, RCC_ClkInitStruct->APB1CLKDivider);
 700:bsp/STMicroelectronics/stm32f413/stm32f4xx_hal_driver/Src/stm32f4xx_hal_rcc.c ****   }
 701:bsp/STMicroelectronics/stm32f413/stm32f4xx_hal_driver/Src/stm32f4xx_hal_rcc.c **** 
 702:bsp/STMicroelectronics/stm32f413/stm32f4xx_hal_driver/Src/stm32f4xx_hal_rcc.c ****   /*-------------------------- PCLK2 Configuration ---------------------------*/
 703:bsp/STMicroelectronics/stm32f413/stm32f4xx_hal_driver/Src/stm32f4xx_hal_rcc.c ****   if(((RCC_ClkInitStruct->ClockType) & RCC_CLOCKTYPE_PCLK2) == RCC_CLOCKTYPE_PCLK2)
 704:bsp/STMicroelectronics/stm32f413/stm32f4xx_hal_driver/Src/stm32f4xx_hal_rcc.c ****   {
 705:bsp/STMicroelectronics/stm32f413/stm32f4xx_hal_driver/Src/stm32f4xx_hal_rcc.c ****     assert_param(IS_RCC_PCLK(RCC_ClkInitStruct->APB2CLKDivider));
 706:bsp/STMicroelectronics/stm32f413/stm32f4xx_hal_driver/Src/stm32f4xx_hal_rcc.c ****     MODIFY_REG(RCC->CFGR, RCC_CFGR_PPRE2, ((RCC_ClkInitStruct->APB2CLKDivider) << 3U));
 707:bsp/STMicroelectronics/stm32f413/stm32f4xx_hal_driver/Src/stm32f4xx_hal_rcc.c ****   }
 708:bsp/STMicroelectronics/stm32f413/stm32f4xx_hal_driver/Src/stm32f4xx_hal_rcc.c **** 
 709:bsp/STMicroelectronics/stm32f413/stm32f4xx_hal_driver/Src/stm32f4xx_hal_rcc.c ****   /* Update the SystemCoreClock global variable */
 710:bsp/STMicroelectronics/stm32f413/stm32f4xx_hal_driver/Src/stm32f4xx_hal_rcc.c ****   SystemCoreClock = HAL_RCC_GetSysClockFreq() >> AHBPrescTable[(RCC->CFGR & RCC_CFGR_HPRE)>> RCC_CF
 711:bsp/STMicroelectronics/stm32f413/stm32f4xx_hal_driver/Src/stm32f4xx_hal_rcc.c **** 
 712:bsp/STMicroelectronics/stm32f413/stm32f4xx_hal_driver/Src/stm32f4xx_hal_rcc.c ****   /* Configure the source of time base considering new system clocks settings */
 713:bsp/STMicroelectronics/stm32f413/stm32f4xx_hal_driver/Src/stm32f4xx_hal_rcc.c ****   HAL_InitTick (uwTickPrio);
 714:bsp/STMicroelectronics/stm32f413/stm32f4xx_hal_driver/Src/stm32f4xx_hal_rcc.c **** 
 715:bsp/STMicroelectronics/stm32f413/stm32f4xx_hal_driver/Src/stm32f4xx_hal_rcc.c ****   return HAL_OK;
 716:bsp/STMicroelectronics/stm32f413/stm32f4xx_hal_driver/Src/stm32f4xx_hal_rcc.c **** }
 717:bsp/STMicroelectronics/stm32f413/stm32f4xx_hal_driver/Src/stm32f4xx_hal_rcc.c **** 
 718:bsp/STMicroelectronics/stm32f413/stm32f4xx_hal_driver/Src/stm32f4xx_hal_rcc.c **** /**
 719:bsp/STMicroelectronics/stm32f413/stm32f4xx_hal_driver/Src/stm32f4xx_hal_rcc.c ****   * @}
 720:bsp/STMicroelectronics/stm32f413/stm32f4xx_hal_driver/Src/stm32f4xx_hal_rcc.c ****   */
 721:bsp/STMicroelectronics/stm32f413/stm32f4xx_hal_driver/Src/stm32f4xx_hal_rcc.c **** 
 722:bsp/STMicroelectronics/stm32f413/stm32f4xx_hal_driver/Src/stm32f4xx_hal_rcc.c **** /** @defgroup RCC_Exported_Functions_Group2 Peripheral Control functions
 723:bsp/STMicroelectronics/stm32f413/stm32f4xx_hal_driver/Src/stm32f4xx_hal_rcc.c ****  *  @brief   RCC clocks control functions
 724:bsp/STMicroelectronics/stm32f413/stm32f4xx_hal_driver/Src/stm32f4xx_hal_rcc.c ****  *
 725:bsp/STMicroelectronics/stm32f413/stm32f4xx_hal_driver/Src/stm32f4xx_hal_rcc.c **** @verbatim
 726:bsp/STMicroelectronics/stm32f413/stm32f4xx_hal_driver/Src/stm32f4xx_hal_rcc.c ****  ===============================================================================
ARM GAS  /tmp/ccUzmqNi.s 			page 32


 727:bsp/STMicroelectronics/stm32f413/stm32f4xx_hal_driver/Src/stm32f4xx_hal_rcc.c ****                       ##### Peripheral Control functions #####
 728:bsp/STMicroelectronics/stm32f413/stm32f4xx_hal_driver/Src/stm32f4xx_hal_rcc.c ****  ===============================================================================
 729:bsp/STMicroelectronics/stm32f413/stm32f4xx_hal_driver/Src/stm32f4xx_hal_rcc.c ****     [..]
 730:bsp/STMicroelectronics/stm32f413/stm32f4xx_hal_driver/Src/stm32f4xx_hal_rcc.c ****     This subsection provides a set of functions allowing to control the RCC Clocks
 731:bsp/STMicroelectronics/stm32f413/stm32f4xx_hal_driver/Src/stm32f4xx_hal_rcc.c ****     frequencies.
 732:bsp/STMicroelectronics/stm32f413/stm32f4xx_hal_driver/Src/stm32f4xx_hal_rcc.c **** 
 733:bsp/STMicroelectronics/stm32f413/stm32f4xx_hal_driver/Src/stm32f4xx_hal_rcc.c **** @endverbatim
 734:bsp/STMicroelectronics/stm32f413/stm32f4xx_hal_driver/Src/stm32f4xx_hal_rcc.c ****   * @{
 735:bsp/STMicroelectronics/stm32f413/stm32f4xx_hal_driver/Src/stm32f4xx_hal_rcc.c ****   */
 736:bsp/STMicroelectronics/stm32f413/stm32f4xx_hal_driver/Src/stm32f4xx_hal_rcc.c **** 
 737:bsp/STMicroelectronics/stm32f413/stm32f4xx_hal_driver/Src/stm32f4xx_hal_rcc.c **** /**
 738:bsp/STMicroelectronics/stm32f413/stm32f4xx_hal_driver/Src/stm32f4xx_hal_rcc.c ****   * @brief  Selects the clock source to output on MCO1 pin(PA8) or on MCO2 pin(PC9).
 739:bsp/STMicroelectronics/stm32f413/stm32f4xx_hal_driver/Src/stm32f4xx_hal_rcc.c ****   * @note   PA8/PC9 should be configured in alternate function mode.
 740:bsp/STMicroelectronics/stm32f413/stm32f4xx_hal_driver/Src/stm32f4xx_hal_rcc.c ****   * @param  RCC_MCOx specifies the output direction for the clock source.
 741:bsp/STMicroelectronics/stm32f413/stm32f4xx_hal_driver/Src/stm32f4xx_hal_rcc.c ****   *          This parameter can be one of the following values:
 742:bsp/STMicroelectronics/stm32f413/stm32f4xx_hal_driver/Src/stm32f4xx_hal_rcc.c ****   *            @arg RCC_MCO1: Clock source to output on MCO1 pin(PA8).
 743:bsp/STMicroelectronics/stm32f413/stm32f4xx_hal_driver/Src/stm32f4xx_hal_rcc.c ****   *            @arg RCC_MCO2: Clock source to output on MCO2 pin(PC9).
 744:bsp/STMicroelectronics/stm32f413/stm32f4xx_hal_driver/Src/stm32f4xx_hal_rcc.c ****   * @param  RCC_MCOSource specifies the clock source to output.
 745:bsp/STMicroelectronics/stm32f413/stm32f4xx_hal_driver/Src/stm32f4xx_hal_rcc.c ****   *          This parameter can be one of the following values:
 746:bsp/STMicroelectronics/stm32f413/stm32f4xx_hal_driver/Src/stm32f4xx_hal_rcc.c ****   *            @arg RCC_MCO1SOURCE_HSI: HSI clock selected as MCO1 source
 747:bsp/STMicroelectronics/stm32f413/stm32f4xx_hal_driver/Src/stm32f4xx_hal_rcc.c ****   *            @arg RCC_MCO1SOURCE_LSE: LSE clock selected as MCO1 source
 748:bsp/STMicroelectronics/stm32f413/stm32f4xx_hal_driver/Src/stm32f4xx_hal_rcc.c ****   *            @arg RCC_MCO1SOURCE_HSE: HSE clock selected as MCO1 source
 749:bsp/STMicroelectronics/stm32f413/stm32f4xx_hal_driver/Src/stm32f4xx_hal_rcc.c ****   *            @arg RCC_MCO1SOURCE_PLLCLK: main PLL clock selected as MCO1 source
 750:bsp/STMicroelectronics/stm32f413/stm32f4xx_hal_driver/Src/stm32f4xx_hal_rcc.c ****   *            @arg RCC_MCO2SOURCE_SYSCLK: System clock (SYSCLK) selected as MCO2 source
 751:bsp/STMicroelectronics/stm32f413/stm32f4xx_hal_driver/Src/stm32f4xx_hal_rcc.c ****   *            @arg RCC_MCO2SOURCE_PLLI2SCLK: PLLI2S clock selected as MCO2 source, available for a
 752:bsp/STMicroelectronics/stm32f413/stm32f4xx_hal_driver/Src/stm32f4xx_hal_rcc.c ****   *            @arg RCC_MCO2SOURCE_I2SCLK: I2SCLK clock selected as MCO2 source, available only for
 753:bsp/STMicroelectronics/stm32f413/stm32f4xx_hal_driver/Src/stm32f4xx_hal_rcc.c ****   *            @arg RCC_MCO2SOURCE_HSE: HSE clock selected as MCO2 source
 754:bsp/STMicroelectronics/stm32f413/stm32f4xx_hal_driver/Src/stm32f4xx_hal_rcc.c ****   *            @arg RCC_MCO2SOURCE_PLLCLK: main PLL clock selected as MCO2 source
 755:bsp/STMicroelectronics/stm32f413/stm32f4xx_hal_driver/Src/stm32f4xx_hal_rcc.c ****   * @param  RCC_MCODiv specifies the MCOx prescaler.
 756:bsp/STMicroelectronics/stm32f413/stm32f4xx_hal_driver/Src/stm32f4xx_hal_rcc.c ****   *          This parameter can be one of the following values:
 757:bsp/STMicroelectronics/stm32f413/stm32f4xx_hal_driver/Src/stm32f4xx_hal_rcc.c ****   *            @arg RCC_MCODIV_1: no division applied to MCOx clock
 758:bsp/STMicroelectronics/stm32f413/stm32f4xx_hal_driver/Src/stm32f4xx_hal_rcc.c ****   *            @arg RCC_MCODIV_2: division by 2 applied to MCOx clock
 759:bsp/STMicroelectronics/stm32f413/stm32f4xx_hal_driver/Src/stm32f4xx_hal_rcc.c ****   *            @arg RCC_MCODIV_3: division by 3 applied to MCOx clock
 760:bsp/STMicroelectronics/stm32f413/stm32f4xx_hal_driver/Src/stm32f4xx_hal_rcc.c ****   *            @arg RCC_MCODIV_4: division by 4 applied to MCOx clock
 761:bsp/STMicroelectronics/stm32f413/stm32f4xx_hal_driver/Src/stm32f4xx_hal_rcc.c ****   *            @arg RCC_MCODIV_5: division by 5 applied to MCOx clock
 762:bsp/STMicroelectronics/stm32f413/stm32f4xx_hal_driver/Src/stm32f4xx_hal_rcc.c ****   * @note  For STM32F410Rx devices to output I2SCLK clock on MCO2 you should have
 763:bsp/STMicroelectronics/stm32f413/stm32f4xx_hal_driver/Src/stm32f4xx_hal_rcc.c ****   *        at last one of the SPI clocks enabled (SPI1, SPI2 or SPI5).
 764:bsp/STMicroelectronics/stm32f413/stm32f4xx_hal_driver/Src/stm32f4xx_hal_rcc.c ****   * @retval None
 765:bsp/STMicroelectronics/stm32f413/stm32f4xx_hal_driver/Src/stm32f4xx_hal_rcc.c ****   */
 766:bsp/STMicroelectronics/stm32f413/stm32f4xx_hal_driver/Src/stm32f4xx_hal_rcc.c **** void HAL_RCC_MCOConfig(uint32_t RCC_MCOx, uint32_t RCC_MCOSource, uint32_t RCC_MCODiv)
 767:bsp/STMicroelectronics/stm32f413/stm32f4xx_hal_driver/Src/stm32f4xx_hal_rcc.c **** {
 926              		.loc 1 767 1 is_stmt 1 view -0
 927              		.cfi_startproc
 928              		@ args = 0, pretend = 0, frame = 32
 929              		@ frame_needed = 0, uses_anonymous_args = 0
 930              		.loc 1 767 1 is_stmt 0 view .LVU293
 931 0000 70B5     		push	{r4, r5, r6, lr}
 932              	.LCFI6:
 933              		.cfi_def_cfa_offset 16
 934              		.cfi_offset 4, -16
 935              		.cfi_offset 5, -12
 936              		.cfi_offset 6, -8
 937              		.cfi_offset 14, -4
 938 0002 88B0     		sub	sp, sp, #32
 939              	.LCFI7:
 940              		.cfi_def_cfa_offset 48
 941 0004 0C46     		mov	r4, r1
ARM GAS  /tmp/ccUzmqNi.s 			page 33


 942 0006 1546     		mov	r5, r2
 768:bsp/STMicroelectronics/stm32f413/stm32f4xx_hal_driver/Src/stm32f4xx_hal_rcc.c ****   GPIO_InitTypeDef GPIO_InitStruct;
 943              		.loc 1 768 3 is_stmt 1 view .LVU294
 769:bsp/STMicroelectronics/stm32f413/stm32f4xx_hal_driver/Src/stm32f4xx_hal_rcc.c ****   /* Check the parameters */
 770:bsp/STMicroelectronics/stm32f413/stm32f4xx_hal_driver/Src/stm32f4xx_hal_rcc.c ****   assert_param(IS_RCC_MCO(RCC_MCOx));
 944              		.loc 1 770 3 view .LVU295
 771:bsp/STMicroelectronics/stm32f413/stm32f4xx_hal_driver/Src/stm32f4xx_hal_rcc.c ****   assert_param(IS_RCC_MCODIV(RCC_MCODiv));
 945              		.loc 1 771 3 view .LVU296
 772:bsp/STMicroelectronics/stm32f413/stm32f4xx_hal_driver/Src/stm32f4xx_hal_rcc.c ****   /* RCC_MCO1 */
 773:bsp/STMicroelectronics/stm32f413/stm32f4xx_hal_driver/Src/stm32f4xx_hal_rcc.c ****   if(RCC_MCOx == RCC_MCO1)
 946              		.loc 1 773 3 view .LVU297
 947              		.loc 1 773 5 is_stmt 0 view .LVU298
 948 0008 00BB     		cbnz	r0, .L98
 774:bsp/STMicroelectronics/stm32f413/stm32f4xx_hal_driver/Src/stm32f4xx_hal_rcc.c ****   {
 775:bsp/STMicroelectronics/stm32f413/stm32f4xx_hal_driver/Src/stm32f4xx_hal_rcc.c ****     assert_param(IS_RCC_MCO1SOURCE(RCC_MCOSource));
 949              		.loc 1 775 5 is_stmt 1 view .LVU299
 776:bsp/STMicroelectronics/stm32f413/stm32f4xx_hal_driver/Src/stm32f4xx_hal_rcc.c **** 
 777:bsp/STMicroelectronics/stm32f413/stm32f4xx_hal_driver/Src/stm32f4xx_hal_rcc.c ****     /* MCO1 Clock Enable */
 778:bsp/STMicroelectronics/stm32f413/stm32f4xx_hal_driver/Src/stm32f4xx_hal_rcc.c ****     __MCO1_CLK_ENABLE();
 950              		.loc 1 778 5 view .LVU300
 951              	.LBB5:
 952              		.loc 1 778 5 view .LVU301
 953 000a 0023     		movs	r3, #0
 954 000c 0193     		str	r3, [sp, #4]
 955              		.loc 1 778 5 view .LVU302
 956 000e 204E     		ldr	r6, .L101
 957 0010 326B     		ldr	r2, [r6, #48]
 958              	.LVL65:
 959              		.loc 1 778 5 is_stmt 0 view .LVU303
 960 0012 42F00102 		orr	r2, r2, #1
 961 0016 3263     		str	r2, [r6, #48]
 962              		.loc 1 778 5 is_stmt 1 view .LVU304
 963 0018 326B     		ldr	r2, [r6, #48]
 964 001a 02F00102 		and	r2, r2, #1
 965 001e 0192     		str	r2, [sp, #4]
 966              		.loc 1 778 5 view .LVU305
 967 0020 019A     		ldr	r2, [sp, #4]
 968              	.LBE5:
 969              		.loc 1 778 5 view .LVU306
 779:bsp/STMicroelectronics/stm32f413/stm32f4xx_hal_driver/Src/stm32f4xx_hal_rcc.c **** 
 780:bsp/STMicroelectronics/stm32f413/stm32f4xx_hal_driver/Src/stm32f4xx_hal_rcc.c ****     /* Configure the MCO1 pin in alternate function mode */
 781:bsp/STMicroelectronics/stm32f413/stm32f4xx_hal_driver/Src/stm32f4xx_hal_rcc.c ****     GPIO_InitStruct.Pin = MCO1_PIN;
 970              		.loc 1 781 5 view .LVU307
 971              		.loc 1 781 25 is_stmt 0 view .LVU308
 972 0022 4FF48072 		mov	r2, #256
 973 0026 0392     		str	r2, [sp, #12]
 782:bsp/STMicroelectronics/stm32f413/stm32f4xx_hal_driver/Src/stm32f4xx_hal_rcc.c ****     GPIO_InitStruct.Mode = GPIO_MODE_AF_PP;
 974              		.loc 1 782 5 is_stmt 1 view .LVU309
 975              		.loc 1 782 26 is_stmt 0 view .LVU310
 976 0028 0222     		movs	r2, #2
 977 002a 0492     		str	r2, [sp, #16]
 783:bsp/STMicroelectronics/stm32f413/stm32f4xx_hal_driver/Src/stm32f4xx_hal_rcc.c ****     GPIO_InitStruct.Speed = GPIO_SPEED_FREQ_VERY_HIGH;
 978              		.loc 1 783 5 is_stmt 1 view .LVU311
 979              		.loc 1 783 27 is_stmt 0 view .LVU312
 980 002c 0322     		movs	r2, #3
 981 002e 0692     		str	r2, [sp, #24]
 784:bsp/STMicroelectronics/stm32f413/stm32f4xx_hal_driver/Src/stm32f4xx_hal_rcc.c ****     GPIO_InitStruct.Pull = GPIO_NOPULL;
ARM GAS  /tmp/ccUzmqNi.s 			page 34


 982              		.loc 1 784 5 is_stmt 1 view .LVU313
 983              		.loc 1 784 26 is_stmt 0 view .LVU314
 984 0030 0593     		str	r3, [sp, #20]
 785:bsp/STMicroelectronics/stm32f413/stm32f4xx_hal_driver/Src/stm32f4xx_hal_rcc.c ****     GPIO_InitStruct.Alternate = GPIO_AF0_MCO;
 985              		.loc 1 785 5 is_stmt 1 view .LVU315
 986              		.loc 1 785 31 is_stmt 0 view .LVU316
 987 0032 0793     		str	r3, [sp, #28]
 786:bsp/STMicroelectronics/stm32f413/stm32f4xx_hal_driver/Src/stm32f4xx_hal_rcc.c ****     HAL_GPIO_Init(MCO1_GPIO_PORT, &GPIO_InitStruct);
 988              		.loc 1 786 5 is_stmt 1 view .LVU317
 989 0034 03A9     		add	r1, sp, #12
 990              	.LVL66:
 991              		.loc 1 786 5 is_stmt 0 view .LVU318
 992 0036 1748     		ldr	r0, .L101+4
 993              	.LVL67:
 994              		.loc 1 786 5 view .LVU319
 995 0038 FFF7FEFF 		bl	HAL_GPIO_Init
 996              	.LVL68:
 787:bsp/STMicroelectronics/stm32f413/stm32f4xx_hal_driver/Src/stm32f4xx_hal_rcc.c **** 
 788:bsp/STMicroelectronics/stm32f413/stm32f4xx_hal_driver/Src/stm32f4xx_hal_rcc.c ****     /* Mask MCO1 and MCO1PRE[2:0] bits then Select MCO1 clock source and prescaler */
 789:bsp/STMicroelectronics/stm32f413/stm32f4xx_hal_driver/Src/stm32f4xx_hal_rcc.c ****     MODIFY_REG(RCC->CFGR, (RCC_CFGR_MCO1 | RCC_CFGR_MCO1PRE), (RCC_MCOSource | RCC_MCODiv));
 997              		.loc 1 789 5 is_stmt 1 view .LVU320
 998 003c B368     		ldr	r3, [r6, #8]
 999 003e 23F0EC63 		bic	r3, r3, #123731968
 1000 0042 2C43     		orrs	r4, r4, r5
 1001              	.LVL69:
 1002              		.loc 1 789 5 is_stmt 0 view .LVU321
 1003 0044 1C43     		orrs	r4, r4, r3
 1004 0046 B460     		str	r4, [r6, #8]
 1005              	.L97:
 790:bsp/STMicroelectronics/stm32f413/stm32f4xx_hal_driver/Src/stm32f4xx_hal_rcc.c **** 
 791:bsp/STMicroelectronics/stm32f413/stm32f4xx_hal_driver/Src/stm32f4xx_hal_rcc.c ****    /* This RCC MCO1 enable feature is available only on STM32F410xx devices */
 792:bsp/STMicroelectronics/stm32f413/stm32f4xx_hal_driver/Src/stm32f4xx_hal_rcc.c **** #if defined(RCC_CFGR_MCO1EN)
 793:bsp/STMicroelectronics/stm32f413/stm32f4xx_hal_driver/Src/stm32f4xx_hal_rcc.c ****     __HAL_RCC_MCO1_ENABLE();
 794:bsp/STMicroelectronics/stm32f413/stm32f4xx_hal_driver/Src/stm32f4xx_hal_rcc.c **** #endif /* RCC_CFGR_MCO1EN */
 795:bsp/STMicroelectronics/stm32f413/stm32f4xx_hal_driver/Src/stm32f4xx_hal_rcc.c ****   }
 796:bsp/STMicroelectronics/stm32f413/stm32f4xx_hal_driver/Src/stm32f4xx_hal_rcc.c **** #if defined(RCC_CFGR_MCO2)
 797:bsp/STMicroelectronics/stm32f413/stm32f4xx_hal_driver/Src/stm32f4xx_hal_rcc.c ****   else
 798:bsp/STMicroelectronics/stm32f413/stm32f4xx_hal_driver/Src/stm32f4xx_hal_rcc.c ****   {
 799:bsp/STMicroelectronics/stm32f413/stm32f4xx_hal_driver/Src/stm32f4xx_hal_rcc.c ****     assert_param(IS_RCC_MCO2SOURCE(RCC_MCOSource));
 800:bsp/STMicroelectronics/stm32f413/stm32f4xx_hal_driver/Src/stm32f4xx_hal_rcc.c **** 
 801:bsp/STMicroelectronics/stm32f413/stm32f4xx_hal_driver/Src/stm32f4xx_hal_rcc.c ****     /* MCO2 Clock Enable */
 802:bsp/STMicroelectronics/stm32f413/stm32f4xx_hal_driver/Src/stm32f4xx_hal_rcc.c ****     __MCO2_CLK_ENABLE();
 803:bsp/STMicroelectronics/stm32f413/stm32f4xx_hal_driver/Src/stm32f4xx_hal_rcc.c **** 
 804:bsp/STMicroelectronics/stm32f413/stm32f4xx_hal_driver/Src/stm32f4xx_hal_rcc.c ****     /* Configure the MCO2 pin in alternate function mode */
 805:bsp/STMicroelectronics/stm32f413/stm32f4xx_hal_driver/Src/stm32f4xx_hal_rcc.c ****     GPIO_InitStruct.Pin = MCO2_PIN;
 806:bsp/STMicroelectronics/stm32f413/stm32f4xx_hal_driver/Src/stm32f4xx_hal_rcc.c ****     GPIO_InitStruct.Mode = GPIO_MODE_AF_PP;
 807:bsp/STMicroelectronics/stm32f413/stm32f4xx_hal_driver/Src/stm32f4xx_hal_rcc.c ****     GPIO_InitStruct.Speed = GPIO_SPEED_FREQ_VERY_HIGH;
 808:bsp/STMicroelectronics/stm32f413/stm32f4xx_hal_driver/Src/stm32f4xx_hal_rcc.c ****     GPIO_InitStruct.Pull = GPIO_NOPULL;
 809:bsp/STMicroelectronics/stm32f413/stm32f4xx_hal_driver/Src/stm32f4xx_hal_rcc.c ****     GPIO_InitStruct.Alternate = GPIO_AF0_MCO;
 810:bsp/STMicroelectronics/stm32f413/stm32f4xx_hal_driver/Src/stm32f4xx_hal_rcc.c ****     HAL_GPIO_Init(MCO2_GPIO_PORT, &GPIO_InitStruct);
 811:bsp/STMicroelectronics/stm32f413/stm32f4xx_hal_driver/Src/stm32f4xx_hal_rcc.c **** 
 812:bsp/STMicroelectronics/stm32f413/stm32f4xx_hal_driver/Src/stm32f4xx_hal_rcc.c ****     /* Mask MCO2 and MCO2PRE[2:0] bits then Select MCO2 clock source and prescaler */
 813:bsp/STMicroelectronics/stm32f413/stm32f4xx_hal_driver/Src/stm32f4xx_hal_rcc.c ****     MODIFY_REG(RCC->CFGR, (RCC_CFGR_MCO2 | RCC_CFGR_MCO2PRE), (RCC_MCOSource | (RCC_MCODiv << 3U)))
 814:bsp/STMicroelectronics/stm32f413/stm32f4xx_hal_driver/Src/stm32f4xx_hal_rcc.c **** 
 815:bsp/STMicroelectronics/stm32f413/stm32f4xx_hal_driver/Src/stm32f4xx_hal_rcc.c ****    /* This RCC MCO2 enable feature is available only on STM32F410Rx devices */
 816:bsp/STMicroelectronics/stm32f413/stm32f4xx_hal_driver/Src/stm32f4xx_hal_rcc.c **** #if defined(RCC_CFGR_MCO2EN)
 817:bsp/STMicroelectronics/stm32f413/stm32f4xx_hal_driver/Src/stm32f4xx_hal_rcc.c ****     __HAL_RCC_MCO2_ENABLE();
ARM GAS  /tmp/ccUzmqNi.s 			page 35


 818:bsp/STMicroelectronics/stm32f413/stm32f4xx_hal_driver/Src/stm32f4xx_hal_rcc.c **** #endif /* RCC_CFGR_MCO2EN */
 819:bsp/STMicroelectronics/stm32f413/stm32f4xx_hal_driver/Src/stm32f4xx_hal_rcc.c ****   }
 820:bsp/STMicroelectronics/stm32f413/stm32f4xx_hal_driver/Src/stm32f4xx_hal_rcc.c **** #endif /* RCC_CFGR_MCO2 */
 821:bsp/STMicroelectronics/stm32f413/stm32f4xx_hal_driver/Src/stm32f4xx_hal_rcc.c **** }
 1006              		.loc 1 821 1 view .LVU322
 1007 0048 08B0     		add	sp, sp, #32
 1008              	.LCFI8:
 1009              		.cfi_remember_state
 1010              		.cfi_def_cfa_offset 16
 1011              		@ sp needed
 1012 004a 70BD     		pop	{r4, r5, r6, pc}
 1013              	.LVL70:
 1014              	.L98:
 1015              	.LCFI9:
 1016              		.cfi_restore_state
 799:bsp/STMicroelectronics/stm32f413/stm32f4xx_hal_driver/Src/stm32f4xx_hal_rcc.c **** 
 1017              		.loc 1 799 5 is_stmt 1 view .LVU323
 802:bsp/STMicroelectronics/stm32f413/stm32f4xx_hal_driver/Src/stm32f4xx_hal_rcc.c **** 
 1018              		.loc 1 802 5 view .LVU324
 1019              	.LBB6:
 802:bsp/STMicroelectronics/stm32f413/stm32f4xx_hal_driver/Src/stm32f4xx_hal_rcc.c **** 
 1020              		.loc 1 802 5 view .LVU325
 1021 004c 0023     		movs	r3, #0
 1022 004e 0293     		str	r3, [sp, #8]
 802:bsp/STMicroelectronics/stm32f413/stm32f4xx_hal_driver/Src/stm32f4xx_hal_rcc.c **** 
 1023              		.loc 1 802 5 view .LVU326
 1024 0050 0F4E     		ldr	r6, .L101
 1025 0052 326B     		ldr	r2, [r6, #48]
 1026              	.LVL71:
 802:bsp/STMicroelectronics/stm32f413/stm32f4xx_hal_driver/Src/stm32f4xx_hal_rcc.c **** 
 1027              		.loc 1 802 5 is_stmt 0 view .LVU327
 1028 0054 42F00402 		orr	r2, r2, #4
 1029 0058 3263     		str	r2, [r6, #48]
 802:bsp/STMicroelectronics/stm32f413/stm32f4xx_hal_driver/Src/stm32f4xx_hal_rcc.c **** 
 1030              		.loc 1 802 5 is_stmt 1 view .LVU328
 1031 005a 326B     		ldr	r2, [r6, #48]
 1032 005c 02F00402 		and	r2, r2, #4
 1033 0060 0292     		str	r2, [sp, #8]
 802:bsp/STMicroelectronics/stm32f413/stm32f4xx_hal_driver/Src/stm32f4xx_hal_rcc.c **** 
 1034              		.loc 1 802 5 view .LVU329
 1035 0062 029A     		ldr	r2, [sp, #8]
 1036              	.LBE6:
 802:bsp/STMicroelectronics/stm32f413/stm32f4xx_hal_driver/Src/stm32f4xx_hal_rcc.c **** 
 1037              		.loc 1 802 5 view .LVU330
 805:bsp/STMicroelectronics/stm32f413/stm32f4xx_hal_driver/Src/stm32f4xx_hal_rcc.c ****     GPIO_InitStruct.Mode = GPIO_MODE_AF_PP;
 1038              		.loc 1 805 5 view .LVU331
 805:bsp/STMicroelectronics/stm32f413/stm32f4xx_hal_driver/Src/stm32f4xx_hal_rcc.c ****     GPIO_InitStruct.Mode = GPIO_MODE_AF_PP;
 1039              		.loc 1 805 25 is_stmt 0 view .LVU332
 1040 0064 4FF40072 		mov	r2, #512
 1041 0068 0392     		str	r2, [sp, #12]
 806:bsp/STMicroelectronics/stm32f413/stm32f4xx_hal_driver/Src/stm32f4xx_hal_rcc.c ****     GPIO_InitStruct.Speed = GPIO_SPEED_FREQ_VERY_HIGH;
 1042              		.loc 1 806 5 is_stmt 1 view .LVU333
 806:bsp/STMicroelectronics/stm32f413/stm32f4xx_hal_driver/Src/stm32f4xx_hal_rcc.c ****     GPIO_InitStruct.Speed = GPIO_SPEED_FREQ_VERY_HIGH;
 1043              		.loc 1 806 26 is_stmt 0 view .LVU334
 1044 006a 0222     		movs	r2, #2
 1045 006c 0492     		str	r2, [sp, #16]
 807:bsp/STMicroelectronics/stm32f413/stm32f4xx_hal_driver/Src/stm32f4xx_hal_rcc.c ****     GPIO_InitStruct.Pull = GPIO_NOPULL;
ARM GAS  /tmp/ccUzmqNi.s 			page 36


 1046              		.loc 1 807 5 is_stmt 1 view .LVU335
 807:bsp/STMicroelectronics/stm32f413/stm32f4xx_hal_driver/Src/stm32f4xx_hal_rcc.c ****     GPIO_InitStruct.Pull = GPIO_NOPULL;
 1047              		.loc 1 807 27 is_stmt 0 view .LVU336
 1048 006e 0322     		movs	r2, #3
 1049 0070 0692     		str	r2, [sp, #24]
 808:bsp/STMicroelectronics/stm32f413/stm32f4xx_hal_driver/Src/stm32f4xx_hal_rcc.c ****     GPIO_InitStruct.Alternate = GPIO_AF0_MCO;
 1050              		.loc 1 808 5 is_stmt 1 view .LVU337
 808:bsp/STMicroelectronics/stm32f413/stm32f4xx_hal_driver/Src/stm32f4xx_hal_rcc.c ****     GPIO_InitStruct.Alternate = GPIO_AF0_MCO;
 1051              		.loc 1 808 26 is_stmt 0 view .LVU338
 1052 0072 0593     		str	r3, [sp, #20]
 809:bsp/STMicroelectronics/stm32f413/stm32f4xx_hal_driver/Src/stm32f4xx_hal_rcc.c ****     HAL_GPIO_Init(MCO2_GPIO_PORT, &GPIO_InitStruct);
 1053              		.loc 1 809 5 is_stmt 1 view .LVU339
 809:bsp/STMicroelectronics/stm32f413/stm32f4xx_hal_driver/Src/stm32f4xx_hal_rcc.c ****     HAL_GPIO_Init(MCO2_GPIO_PORT, &GPIO_InitStruct);
 1054              		.loc 1 809 31 is_stmt 0 view .LVU340
 1055 0074 0793     		str	r3, [sp, #28]
 810:bsp/STMicroelectronics/stm32f413/stm32f4xx_hal_driver/Src/stm32f4xx_hal_rcc.c **** 
 1056              		.loc 1 810 5 is_stmt 1 view .LVU341
 1057 0076 03A9     		add	r1, sp, #12
 1058              	.LVL72:
 810:bsp/STMicroelectronics/stm32f413/stm32f4xx_hal_driver/Src/stm32f4xx_hal_rcc.c **** 
 1059              		.loc 1 810 5 is_stmt 0 view .LVU342
 1060 0078 0748     		ldr	r0, .L101+8
 1061              	.LVL73:
 810:bsp/STMicroelectronics/stm32f413/stm32f4xx_hal_driver/Src/stm32f4xx_hal_rcc.c **** 
 1062              		.loc 1 810 5 view .LVU343
 1063 007a FFF7FEFF 		bl	HAL_GPIO_Init
 1064              	.LVL74:
 813:bsp/STMicroelectronics/stm32f413/stm32f4xx_hal_driver/Src/stm32f4xx_hal_rcc.c **** 
 1065              		.loc 1 813 5 is_stmt 1 view .LVU344
 1066 007e B368     		ldr	r3, [r6, #8]
 1067 0080 23F07843 		bic	r3, r3, #-134217728
 1068 0084 44EAC504 		orr	r4, r4, r5, lsl #3
 1069              	.LVL75:
 813:bsp/STMicroelectronics/stm32f413/stm32f4xx_hal_driver/Src/stm32f4xx_hal_rcc.c **** 
 1070              		.loc 1 813 5 is_stmt 0 view .LVU345
 1071 0088 1C43     		orrs	r4, r4, r3
 1072 008a B460     		str	r4, [r6, #8]
 1073              		.loc 1 821 1 view .LVU346
 1074 008c DCE7     		b	.L97
 1075              	.L102:
 1076 008e 00BF     		.align	2
 1077              	.L101:
 1078 0090 00380240 		.word	1073887232
 1079 0094 00000240 		.word	1073872896
 1080 0098 00080240 		.word	1073874944
 1081              		.cfi_endproc
 1082              	.LFE133:
 1084              		.section	.text.HAL_RCC_EnableCSS,"ax",%progbits
 1085              		.align	1
 1086              		.global	HAL_RCC_EnableCSS
 1087              		.syntax unified
 1088              		.thumb
 1089              		.thumb_func
 1090              		.fpu fpv4-sp-d16
 1092              	HAL_RCC_EnableCSS:
 1093              	.LFB134:
 822:bsp/STMicroelectronics/stm32f413/stm32f4xx_hal_driver/Src/stm32f4xx_hal_rcc.c **** 
ARM GAS  /tmp/ccUzmqNi.s 			page 37


 823:bsp/STMicroelectronics/stm32f413/stm32f4xx_hal_driver/Src/stm32f4xx_hal_rcc.c **** /**
 824:bsp/STMicroelectronics/stm32f413/stm32f4xx_hal_driver/Src/stm32f4xx_hal_rcc.c ****   * @brief  Enables the Clock Security System.
 825:bsp/STMicroelectronics/stm32f413/stm32f4xx_hal_driver/Src/stm32f4xx_hal_rcc.c ****   * @note   If a failure is detected on the HSE oscillator clock, this oscillator
 826:bsp/STMicroelectronics/stm32f413/stm32f4xx_hal_driver/Src/stm32f4xx_hal_rcc.c ****   *         is automatically disabled and an interrupt is generated to inform the
 827:bsp/STMicroelectronics/stm32f413/stm32f4xx_hal_driver/Src/stm32f4xx_hal_rcc.c ****   *         software about the failure (Clock Security System Interrupt, CSSI),
 828:bsp/STMicroelectronics/stm32f413/stm32f4xx_hal_driver/Src/stm32f4xx_hal_rcc.c ****   *         allowing the MCU to perform rescue operations. The CSSI is linked to
 829:bsp/STMicroelectronics/stm32f413/stm32f4xx_hal_driver/Src/stm32f4xx_hal_rcc.c ****   *         the Cortex-M4 NMI (Non-Maskable Interrupt) exception vector.
 830:bsp/STMicroelectronics/stm32f413/stm32f4xx_hal_driver/Src/stm32f4xx_hal_rcc.c ****   * @retval None
 831:bsp/STMicroelectronics/stm32f413/stm32f4xx_hal_driver/Src/stm32f4xx_hal_rcc.c ****   */
 832:bsp/STMicroelectronics/stm32f413/stm32f4xx_hal_driver/Src/stm32f4xx_hal_rcc.c **** void HAL_RCC_EnableCSS(void)
 833:bsp/STMicroelectronics/stm32f413/stm32f4xx_hal_driver/Src/stm32f4xx_hal_rcc.c **** {
 1094              		.loc 1 833 1 is_stmt 1 view -0
 1095              		.cfi_startproc
 1096              		@ args = 0, pretend = 0, frame = 0
 1097              		@ frame_needed = 0, uses_anonymous_args = 0
 1098              		@ link register save eliminated.
 834:bsp/STMicroelectronics/stm32f413/stm32f4xx_hal_driver/Src/stm32f4xx_hal_rcc.c ****   *(__IO uint32_t *) RCC_CR_CSSON_BB = (uint32_t)ENABLE;
 1099              		.loc 1 834 3 view .LVU348
 1100              		.loc 1 834 38 is_stmt 0 view .LVU349
 1101 0000 014B     		ldr	r3, .L104
 1102 0002 0122     		movs	r2, #1
 1103 0004 1A60     		str	r2, [r3]
 835:bsp/STMicroelectronics/stm32f413/stm32f4xx_hal_driver/Src/stm32f4xx_hal_rcc.c **** }
 1104              		.loc 1 835 1 view .LVU350
 1105 0006 7047     		bx	lr
 1106              	.L105:
 1107              		.align	2
 1108              	.L104:
 1109 0008 4C004742 		.word	1111949388
 1110              		.cfi_endproc
 1111              	.LFE134:
 1113              		.section	.text.HAL_RCC_DisableCSS,"ax",%progbits
 1114              		.align	1
 1115              		.global	HAL_RCC_DisableCSS
 1116              		.syntax unified
 1117              		.thumb
 1118              		.thumb_func
 1119              		.fpu fpv4-sp-d16
 1121              	HAL_RCC_DisableCSS:
 1122              	.LFB135:
 836:bsp/STMicroelectronics/stm32f413/stm32f4xx_hal_driver/Src/stm32f4xx_hal_rcc.c **** 
 837:bsp/STMicroelectronics/stm32f413/stm32f4xx_hal_driver/Src/stm32f4xx_hal_rcc.c **** /**
 838:bsp/STMicroelectronics/stm32f413/stm32f4xx_hal_driver/Src/stm32f4xx_hal_rcc.c ****   * @brief  Disables the Clock Security System.
 839:bsp/STMicroelectronics/stm32f413/stm32f4xx_hal_driver/Src/stm32f4xx_hal_rcc.c ****   * @retval None
 840:bsp/STMicroelectronics/stm32f413/stm32f4xx_hal_driver/Src/stm32f4xx_hal_rcc.c ****   */
 841:bsp/STMicroelectronics/stm32f413/stm32f4xx_hal_driver/Src/stm32f4xx_hal_rcc.c **** void HAL_RCC_DisableCSS(void)
 842:bsp/STMicroelectronics/stm32f413/stm32f4xx_hal_driver/Src/stm32f4xx_hal_rcc.c **** {
 1123              		.loc 1 842 1 is_stmt 1 view -0
 1124              		.cfi_startproc
 1125              		@ args = 0, pretend = 0, frame = 0
 1126              		@ frame_needed = 0, uses_anonymous_args = 0
 1127              		@ link register save eliminated.
 843:bsp/STMicroelectronics/stm32f413/stm32f4xx_hal_driver/Src/stm32f4xx_hal_rcc.c ****   *(__IO uint32_t *) RCC_CR_CSSON_BB = (uint32_t)DISABLE;
 1128              		.loc 1 843 3 view .LVU352
 1129              		.loc 1 843 38 is_stmt 0 view .LVU353
 1130 0000 014B     		ldr	r3, .L107
 1131 0002 0022     		movs	r2, #0
ARM GAS  /tmp/ccUzmqNi.s 			page 38


 1132 0004 1A60     		str	r2, [r3]
 844:bsp/STMicroelectronics/stm32f413/stm32f4xx_hal_driver/Src/stm32f4xx_hal_rcc.c **** }
 1133              		.loc 1 844 1 view .LVU354
 1134 0006 7047     		bx	lr
 1135              	.L108:
 1136              		.align	2
 1137              	.L107:
 1138 0008 4C004742 		.word	1111949388
 1139              		.cfi_endproc
 1140              	.LFE135:
 1142              		.global	__aeabi_uldivmod
 1143              		.section	.text.HAL_RCC_GetSysClockFreq,"ax",%progbits
 1144              		.align	1
 1145              		.weak	HAL_RCC_GetSysClockFreq
 1146              		.syntax unified
 1147              		.thumb
 1148              		.thumb_func
 1149              		.fpu fpv4-sp-d16
 1151              	HAL_RCC_GetSysClockFreq:
 1152              	.LFB136:
 845:bsp/STMicroelectronics/stm32f413/stm32f4xx_hal_driver/Src/stm32f4xx_hal_rcc.c **** 
 846:bsp/STMicroelectronics/stm32f413/stm32f4xx_hal_driver/Src/stm32f4xx_hal_rcc.c **** /**
 847:bsp/STMicroelectronics/stm32f413/stm32f4xx_hal_driver/Src/stm32f4xx_hal_rcc.c ****   * @brief  Returns the SYSCLK frequency
 848:bsp/STMicroelectronics/stm32f413/stm32f4xx_hal_driver/Src/stm32f4xx_hal_rcc.c ****   *
 849:bsp/STMicroelectronics/stm32f413/stm32f4xx_hal_driver/Src/stm32f4xx_hal_rcc.c ****   * @note   The system frequency computed by this function is not the real
 850:bsp/STMicroelectronics/stm32f413/stm32f4xx_hal_driver/Src/stm32f4xx_hal_rcc.c ****   *         frequency in the chip. It is calculated based on the predefined
 851:bsp/STMicroelectronics/stm32f413/stm32f4xx_hal_driver/Src/stm32f4xx_hal_rcc.c ****   *         constant and the selected clock source:
 852:bsp/STMicroelectronics/stm32f413/stm32f4xx_hal_driver/Src/stm32f4xx_hal_rcc.c ****   * @note     If SYSCLK source is HSI, function returns values based on HSI_VALUE(*)
 853:bsp/STMicroelectronics/stm32f413/stm32f4xx_hal_driver/Src/stm32f4xx_hal_rcc.c ****   * @note     If SYSCLK source is HSE, function returns values based on HSE_VALUE(**)
 854:bsp/STMicroelectronics/stm32f413/stm32f4xx_hal_driver/Src/stm32f4xx_hal_rcc.c ****   * @note     If SYSCLK source is PLL, function returns values based on HSE_VALUE(**)
 855:bsp/STMicroelectronics/stm32f413/stm32f4xx_hal_driver/Src/stm32f4xx_hal_rcc.c ****   *           or HSI_VALUE(*) multiplied/divided by the PLL factors.
 856:bsp/STMicroelectronics/stm32f413/stm32f4xx_hal_driver/Src/stm32f4xx_hal_rcc.c ****   * @note     (*) HSI_VALUE is a constant defined in stm32f4xx_hal_conf.h file (default value
 857:bsp/STMicroelectronics/stm32f413/stm32f4xx_hal_driver/Src/stm32f4xx_hal_rcc.c ****   *               16 MHz) but the real value may vary depending on the variations
 858:bsp/STMicroelectronics/stm32f413/stm32f4xx_hal_driver/Src/stm32f4xx_hal_rcc.c ****   *               in voltage and temperature.
 859:bsp/STMicroelectronics/stm32f413/stm32f4xx_hal_driver/Src/stm32f4xx_hal_rcc.c ****   * @note     (**) HSE_VALUE is a constant defined in stm32f4xx_hal_conf.h file (default value
 860:bsp/STMicroelectronics/stm32f413/stm32f4xx_hal_driver/Src/stm32f4xx_hal_rcc.c ****   *                25 MHz), user has to ensure that HSE_VALUE is same as the real
 861:bsp/STMicroelectronics/stm32f413/stm32f4xx_hal_driver/Src/stm32f4xx_hal_rcc.c ****   *                frequency of the crystal used. Otherwise, this function may
 862:bsp/STMicroelectronics/stm32f413/stm32f4xx_hal_driver/Src/stm32f4xx_hal_rcc.c ****   *                have wrong result.
 863:bsp/STMicroelectronics/stm32f413/stm32f4xx_hal_driver/Src/stm32f4xx_hal_rcc.c ****   *
 864:bsp/STMicroelectronics/stm32f413/stm32f4xx_hal_driver/Src/stm32f4xx_hal_rcc.c ****   * @note   The result of this function could be not correct when using fractional
 865:bsp/STMicroelectronics/stm32f413/stm32f4xx_hal_driver/Src/stm32f4xx_hal_rcc.c ****   *         value for HSE crystal.
 866:bsp/STMicroelectronics/stm32f413/stm32f4xx_hal_driver/Src/stm32f4xx_hal_rcc.c ****   *
 867:bsp/STMicroelectronics/stm32f413/stm32f4xx_hal_driver/Src/stm32f4xx_hal_rcc.c ****   * @note   This function can be used by the user application to compute the
 868:bsp/STMicroelectronics/stm32f413/stm32f4xx_hal_driver/Src/stm32f4xx_hal_rcc.c ****   *         baudrate for the communication peripherals or configure other parameters.
 869:bsp/STMicroelectronics/stm32f413/stm32f4xx_hal_driver/Src/stm32f4xx_hal_rcc.c ****   *
 870:bsp/STMicroelectronics/stm32f413/stm32f4xx_hal_driver/Src/stm32f4xx_hal_rcc.c ****   * @note   Each time SYSCLK changes, this function must be called to update the
 871:bsp/STMicroelectronics/stm32f413/stm32f4xx_hal_driver/Src/stm32f4xx_hal_rcc.c ****   *         right SYSCLK value. Otherwise, any configuration based on this function will be incorre
 872:bsp/STMicroelectronics/stm32f413/stm32f4xx_hal_driver/Src/stm32f4xx_hal_rcc.c ****   *
 873:bsp/STMicroelectronics/stm32f413/stm32f4xx_hal_driver/Src/stm32f4xx_hal_rcc.c ****   *
 874:bsp/STMicroelectronics/stm32f413/stm32f4xx_hal_driver/Src/stm32f4xx_hal_rcc.c ****   * @retval SYSCLK frequency
 875:bsp/STMicroelectronics/stm32f413/stm32f4xx_hal_driver/Src/stm32f4xx_hal_rcc.c ****   */
 876:bsp/STMicroelectronics/stm32f413/stm32f4xx_hal_driver/Src/stm32f4xx_hal_rcc.c **** __weak uint32_t HAL_RCC_GetSysClockFreq(void)
 877:bsp/STMicroelectronics/stm32f413/stm32f4xx_hal_driver/Src/stm32f4xx_hal_rcc.c **** {
 1153              		.loc 1 877 1 is_stmt 1 view -0
 1154              		.cfi_startproc
 1155              		@ args = 0, pretend = 0, frame = 0
 1156              		@ frame_needed = 0, uses_anonymous_args = 0
ARM GAS  /tmp/ccUzmqNi.s 			page 39


 1157 0000 F8B5     		push	{r3, r4, r5, r6, r7, lr}
 1158              	.LCFI10:
 1159              		.cfi_def_cfa_offset 24
 1160              		.cfi_offset 3, -24
 1161              		.cfi_offset 4, -20
 1162              		.cfi_offset 5, -16
 1163              		.cfi_offset 6, -12
 1164              		.cfi_offset 7, -8
 1165              		.cfi_offset 14, -4
 878:bsp/STMicroelectronics/stm32f413/stm32f4xx_hal_driver/Src/stm32f4xx_hal_rcc.c ****   uint32_t pllm = 0U, pllvco = 0U, pllp = 0U;
 1166              		.loc 1 878 3 view .LVU356
 1167              	.LVL76:
 879:bsp/STMicroelectronics/stm32f413/stm32f4xx_hal_driver/Src/stm32f4xx_hal_rcc.c ****   uint32_t sysclockfreq = 0U;
 1168              		.loc 1 879 3 view .LVU357
 880:bsp/STMicroelectronics/stm32f413/stm32f4xx_hal_driver/Src/stm32f4xx_hal_rcc.c **** 
 881:bsp/STMicroelectronics/stm32f413/stm32f4xx_hal_driver/Src/stm32f4xx_hal_rcc.c ****   /* Get SYSCLK source -------------------------------------------------------*/
 882:bsp/STMicroelectronics/stm32f413/stm32f4xx_hal_driver/Src/stm32f4xx_hal_rcc.c ****   switch (RCC->CFGR & RCC_CFGR_SWS)
 1169              		.loc 1 882 3 view .LVU358
 1170              		.loc 1 882 14 is_stmt 0 view .LVU359
 1171 0002 244B     		ldr	r3, .L116
 1172 0004 9B68     		ldr	r3, [r3, #8]
 1173              		.loc 1 882 21 view .LVU360
 1174 0006 03F00C03 		and	r3, r3, #12
 1175              		.loc 1 882 3 view .LVU361
 1176 000a 042B     		cmp	r3, #4
 1177 000c 3DD0     		beq	.L113
 1178 000e 082B     		cmp	r3, #8
 1179 0010 3DD1     		bne	.L114
 883:bsp/STMicroelectronics/stm32f413/stm32f4xx_hal_driver/Src/stm32f4xx_hal_rcc.c ****   {
 884:bsp/STMicroelectronics/stm32f413/stm32f4xx_hal_driver/Src/stm32f4xx_hal_rcc.c ****     case RCC_CFGR_SWS_HSI:  /* HSI used as system clock source */
 885:bsp/STMicroelectronics/stm32f413/stm32f4xx_hal_driver/Src/stm32f4xx_hal_rcc.c ****     {
 886:bsp/STMicroelectronics/stm32f413/stm32f4xx_hal_driver/Src/stm32f4xx_hal_rcc.c ****       sysclockfreq = HSI_VALUE;
 887:bsp/STMicroelectronics/stm32f413/stm32f4xx_hal_driver/Src/stm32f4xx_hal_rcc.c ****        break;
 888:bsp/STMicroelectronics/stm32f413/stm32f4xx_hal_driver/Src/stm32f4xx_hal_rcc.c ****     }
 889:bsp/STMicroelectronics/stm32f413/stm32f4xx_hal_driver/Src/stm32f4xx_hal_rcc.c ****     case RCC_CFGR_SWS_HSE:  /* HSE used as system clock  source */
 890:bsp/STMicroelectronics/stm32f413/stm32f4xx_hal_driver/Src/stm32f4xx_hal_rcc.c ****     {
 891:bsp/STMicroelectronics/stm32f413/stm32f4xx_hal_driver/Src/stm32f4xx_hal_rcc.c ****       sysclockfreq = HSE_VALUE;
 892:bsp/STMicroelectronics/stm32f413/stm32f4xx_hal_driver/Src/stm32f4xx_hal_rcc.c ****       break;
 893:bsp/STMicroelectronics/stm32f413/stm32f4xx_hal_driver/Src/stm32f4xx_hal_rcc.c ****     }
 894:bsp/STMicroelectronics/stm32f413/stm32f4xx_hal_driver/Src/stm32f4xx_hal_rcc.c ****     case RCC_CFGR_SWS_PLL:  /* PLL used as system clock  source */
 895:bsp/STMicroelectronics/stm32f413/stm32f4xx_hal_driver/Src/stm32f4xx_hal_rcc.c ****     {
 896:bsp/STMicroelectronics/stm32f413/stm32f4xx_hal_driver/Src/stm32f4xx_hal_rcc.c ****       /* PLL_VCO = (HSE_VALUE or HSI_VALUE / PLLM) * PLLN
 897:bsp/STMicroelectronics/stm32f413/stm32f4xx_hal_driver/Src/stm32f4xx_hal_rcc.c ****       SYSCLK = PLL_VCO / PLLP */
 898:bsp/STMicroelectronics/stm32f413/stm32f4xx_hal_driver/Src/stm32f4xx_hal_rcc.c ****       pllm = RCC->PLLCFGR & RCC_PLLCFGR_PLLM;
 1180              		.loc 1 898 7 is_stmt 1 view .LVU362
 1181              		.loc 1 898 17 is_stmt 0 view .LVU363
 1182 0012 204B     		ldr	r3, .L116
 1183 0014 5A68     		ldr	r2, [r3, #4]
 1184              		.loc 1 898 12 view .LVU364
 1185 0016 02F03F02 		and	r2, r2, #63
 1186              	.LVL77:
 899:bsp/STMicroelectronics/stm32f413/stm32f4xx_hal_driver/Src/stm32f4xx_hal_rcc.c ****       if(__HAL_RCC_GET_PLL_OSCSOURCE() != RCC_PLLSOURCE_HSI)
 1187              		.loc 1 899 7 is_stmt 1 view .LVU365
 1188              		.loc 1 899 10 is_stmt 0 view .LVU366
 1189 001a 5B68     		ldr	r3, [r3, #4]
 1190              		.loc 1 899 9 view .LVU367
 1191 001c 13F4800F 		tst	r3, #4194304
ARM GAS  /tmp/ccUzmqNi.s 			page 40


 1192 0020 12D0     		beq	.L111
 900:bsp/STMicroelectronics/stm32f413/stm32f4xx_hal_driver/Src/stm32f4xx_hal_rcc.c ****       {
 901:bsp/STMicroelectronics/stm32f413/stm32f4xx_hal_driver/Src/stm32f4xx_hal_rcc.c ****         /* HSE used as PLL clock source */
 902:bsp/STMicroelectronics/stm32f413/stm32f4xx_hal_driver/Src/stm32f4xx_hal_rcc.c ****         pllvco = (uint32_t) ((((uint64_t) HSE_VALUE * ((uint64_t) ((RCC->PLLCFGR & RCC_PLLCFGR_PLLN
 1193              		.loc 1 902 9 is_stmt 1 view .LVU368
 1194              		.loc 1 902 72 is_stmt 0 view .LVU369
 1195 0022 1C4B     		ldr	r3, .L116
 1196 0024 5968     		ldr	r1, [r3, #4]
 1197              		.loc 1 902 56 view .LVU370
 1198 0026 C1F38811 		ubfx	r1, r1, #6, #9
 1199              		.loc 1 902 130 view .LVU371
 1200 002a 0023     		movs	r3, #0
 1201 002c 1A48     		ldr	r0, .L116+4
 1202 002e A1FB0001 		umull	r0, r1, r1, r0
 1203 0032 FFF7FEFF 		bl	__aeabi_uldivmod
 1204              	.LVL78:
 1205              	.L112:
 903:bsp/STMicroelectronics/stm32f413/stm32f4xx_hal_driver/Src/stm32f4xx_hal_rcc.c ****       }
 904:bsp/STMicroelectronics/stm32f413/stm32f4xx_hal_driver/Src/stm32f4xx_hal_rcc.c ****       else
 905:bsp/STMicroelectronics/stm32f413/stm32f4xx_hal_driver/Src/stm32f4xx_hal_rcc.c ****       {
 906:bsp/STMicroelectronics/stm32f413/stm32f4xx_hal_driver/Src/stm32f4xx_hal_rcc.c ****         /* HSI used as PLL clock source */
 907:bsp/STMicroelectronics/stm32f413/stm32f4xx_hal_driver/Src/stm32f4xx_hal_rcc.c ****         pllvco = (uint32_t) ((((uint64_t) HSI_VALUE * ((uint64_t) ((RCC->PLLCFGR & RCC_PLLCFGR_PLLN
 908:bsp/STMicroelectronics/stm32f413/stm32f4xx_hal_driver/Src/stm32f4xx_hal_rcc.c ****       }
 909:bsp/STMicroelectronics/stm32f413/stm32f4xx_hal_driver/Src/stm32f4xx_hal_rcc.c ****       pllp = ((((RCC->PLLCFGR & RCC_PLLCFGR_PLLP) >> RCC_PLLCFGR_PLLP_Pos) + 1U) *2U);
 1206              		.loc 1 909 7 is_stmt 1 view .LVU372
 1207              		.loc 1 909 21 is_stmt 0 view .LVU373
 1208 0036 174B     		ldr	r3, .L116
 1209 0038 5B68     		ldr	r3, [r3, #4]
 1210              		.loc 1 909 51 view .LVU374
 1211 003a C3F30143 		ubfx	r3, r3, #16, #2
 1212              		.loc 1 909 76 view .LVU375
 1213 003e 0133     		adds	r3, r3, #1
 1214              		.loc 1 909 12 view .LVU376
 1215 0040 5B00     		lsls	r3, r3, #1
 1216              	.LVL79:
 910:bsp/STMicroelectronics/stm32f413/stm32f4xx_hal_driver/Src/stm32f4xx_hal_rcc.c **** 
 911:bsp/STMicroelectronics/stm32f413/stm32f4xx_hal_driver/Src/stm32f4xx_hal_rcc.c ****       sysclockfreq = pllvco/pllp;
 1217              		.loc 1 911 7 is_stmt 1 view .LVU377
 1218              		.loc 1 911 20 is_stmt 0 view .LVU378
 1219 0042 B0FBF3F0 		udiv	r0, r0, r3
 1220              	.LVL80:
 912:bsp/STMicroelectronics/stm32f413/stm32f4xx_hal_driver/Src/stm32f4xx_hal_rcc.c ****       break;
 1221              		.loc 1 912 7 is_stmt 1 view .LVU379
 1222 0046 23E0     		b	.L109
 1223              	.LVL81:
 1224              	.L111:
 907:bsp/STMicroelectronics/stm32f413/stm32f4xx_hal_driver/Src/stm32f4xx_hal_rcc.c ****       }
 1225              		.loc 1 907 9 view .LVU380
 907:bsp/STMicroelectronics/stm32f413/stm32f4xx_hal_driver/Src/stm32f4xx_hal_rcc.c ****       }
 1226              		.loc 1 907 72 is_stmt 0 view .LVU381
 1227 0048 124B     		ldr	r3, .L116
 1228 004a 5B68     		ldr	r3, [r3, #4]
 907:bsp/STMicroelectronics/stm32f413/stm32f4xx_hal_driver/Src/stm32f4xx_hal_rcc.c ****       }
 1229              		.loc 1 907 56 view .LVU382
 1230 004c C3F38813 		ubfx	r3, r3, #6, #9
 907:bsp/STMicroelectronics/stm32f413/stm32f4xx_hal_driver/Src/stm32f4xx_hal_rcc.c ****       }
 1231              		.loc 1 907 53 view .LVU383
ARM GAS  /tmp/ccUzmqNi.s 			page 41


 1232 0050 5C01     		lsls	r4, r3, #5
 1233 0052 0025     		movs	r5, #0
 1234 0054 E41A     		subs	r4, r4, r3
 1235 0056 65F10005 		sbc	r5, r5, #0
 1236 005a AE01     		lsls	r6, r5, #6
 1237 005c 46EA9466 		orr	r6, r6, r4, lsr #26
 1238 0060 A701     		lsls	r7, r4, #6
 1239 0062 381B     		subs	r0, r7, r4
 1240 0064 66EB0501 		sbc	r1, r6, r5
 1241 0068 CC00     		lsls	r4, r1, #3
 1242 006a 44EA5074 		orr	r4, r4, r0, lsr #29
 1243 006e C500     		lsls	r5, r0, #3
 1244 0070 E818     		adds	r0, r5, r3
 1245 0072 44F10001 		adc	r1, r4, #0
 1246 0076 8B02     		lsls	r3, r1, #10
 1247 0078 43EA9053 		orr	r3, r3, r0, lsr #22
 1248 007c 8402     		lsls	r4, r0, #10
 1249 007e 2046     		mov	r0, r4
 1250 0080 1946     		mov	r1, r3
 907:bsp/STMicroelectronics/stm32f413/stm32f4xx_hal_driver/Src/stm32f4xx_hal_rcc.c ****       }
 1251              		.loc 1 907 130 view .LVU384
 1252 0082 0023     		movs	r3, #0
 1253 0084 FFF7FEFF 		bl	__aeabi_uldivmod
 1254              	.LVL82:
 907:bsp/STMicroelectronics/stm32f413/stm32f4xx_hal_driver/Src/stm32f4xx_hal_rcc.c ****       }
 1255              		.loc 1 907 130 view .LVU385
 1256 0088 D5E7     		b	.L112
 1257              	.LVL83:
 1258              	.L113:
 891:bsp/STMicroelectronics/stm32f413/stm32f4xx_hal_driver/Src/stm32f4xx_hal_rcc.c ****       break;
 1259              		.loc 1 891 20 view .LVU386
 1260 008a 0348     		ldr	r0, .L116+4
 1261 008c 00E0     		b	.L109
 1262              	.L114:
 882:bsp/STMicroelectronics/stm32f413/stm32f4xx_hal_driver/Src/stm32f4xx_hal_rcc.c ****   {
 1263              		.loc 1 882 3 view .LVU387
 1264 008e 0348     		ldr	r0, .L116+8
 1265              	.LVL84:
 913:bsp/STMicroelectronics/stm32f413/stm32f4xx_hal_driver/Src/stm32f4xx_hal_rcc.c ****     }
 914:bsp/STMicroelectronics/stm32f413/stm32f4xx_hal_driver/Src/stm32f4xx_hal_rcc.c ****     default:
 915:bsp/STMicroelectronics/stm32f413/stm32f4xx_hal_driver/Src/stm32f4xx_hal_rcc.c ****     {
 916:bsp/STMicroelectronics/stm32f413/stm32f4xx_hal_driver/Src/stm32f4xx_hal_rcc.c ****       sysclockfreq = HSI_VALUE;
 917:bsp/STMicroelectronics/stm32f413/stm32f4xx_hal_driver/Src/stm32f4xx_hal_rcc.c ****       break;
 918:bsp/STMicroelectronics/stm32f413/stm32f4xx_hal_driver/Src/stm32f4xx_hal_rcc.c ****     }
 919:bsp/STMicroelectronics/stm32f413/stm32f4xx_hal_driver/Src/stm32f4xx_hal_rcc.c ****   }
 920:bsp/STMicroelectronics/stm32f413/stm32f4xx_hal_driver/Src/stm32f4xx_hal_rcc.c ****   return sysclockfreq;
 1266              		.loc 1 920 3 is_stmt 1 view .LVU388
 1267              	.L109:
 921:bsp/STMicroelectronics/stm32f413/stm32f4xx_hal_driver/Src/stm32f4xx_hal_rcc.c **** }
 1268              		.loc 1 921 1 is_stmt 0 view .LVU389
 1269 0090 F8BD     		pop	{r3, r4, r5, r6, r7, pc}
 1270              	.L117:
 1271 0092 00BF     		.align	2
 1272              	.L116:
 1273 0094 00380240 		.word	1073887232
 1274 0098 40787D01 		.word	25000000
 1275 009c 0024F400 		.word	16000000
ARM GAS  /tmp/ccUzmqNi.s 			page 42


 1276              		.cfi_endproc
 1277              	.LFE136:
 1279              		.section	.text.HAL_RCC_ClockConfig,"ax",%progbits
 1280              		.align	1
 1281              		.global	HAL_RCC_ClockConfig
 1282              		.syntax unified
 1283              		.thumb
 1284              		.thumb_func
 1285              		.fpu fpv4-sp-d16
 1287              	HAL_RCC_ClockConfig:
 1288              	.LVL85:
 1289              	.LFB132:
 583:bsp/STMicroelectronics/stm32f413/stm32f4xx_hal_driver/Src/stm32f4xx_hal_rcc.c ****   uint32_t tickstart;
 1290              		.loc 1 583 1 is_stmt 1 view -0
 1291              		.cfi_startproc
 1292              		@ args = 0, pretend = 0, frame = 0
 1293              		@ frame_needed = 0, uses_anonymous_args = 0
 584:bsp/STMicroelectronics/stm32f413/stm32f4xx_hal_driver/Src/stm32f4xx_hal_rcc.c **** 
 1294              		.loc 1 584 3 view .LVU391
 587:bsp/STMicroelectronics/stm32f413/stm32f4xx_hal_driver/Src/stm32f4xx_hal_rcc.c ****   {
 1295              		.loc 1 587 3 view .LVU392
 587:bsp/STMicroelectronics/stm32f413/stm32f4xx_hal_driver/Src/stm32f4xx_hal_rcc.c ****   {
 1296              		.loc 1 587 5 is_stmt 0 view .LVU393
 1297 0000 0028     		cmp	r0, #0
 1298 0002 00F09B80 		beq	.L133
 583:bsp/STMicroelectronics/stm32f413/stm32f4xx_hal_driver/Src/stm32f4xx_hal_rcc.c ****   uint32_t tickstart;
 1299              		.loc 1 583 1 view .LVU394
 1300 0006 70B5     		push	{r4, r5, r6, lr}
 1301              	.LCFI11:
 1302              		.cfi_def_cfa_offset 16
 1303              		.cfi_offset 4, -16
 1304              		.cfi_offset 5, -12
 1305              		.cfi_offset 6, -8
 1306              		.cfi_offset 14, -4
 1307 0008 0D46     		mov	r5, r1
 1308 000a 0446     		mov	r4, r0
 593:bsp/STMicroelectronics/stm32f413/stm32f4xx_hal_driver/Src/stm32f4xx_hal_rcc.c ****   assert_param(IS_FLASH_LATENCY(FLatency));
 1309              		.loc 1 593 3 is_stmt 1 view .LVU395
 594:bsp/STMicroelectronics/stm32f413/stm32f4xx_hal_driver/Src/stm32f4xx_hal_rcc.c **** 
 1310              		.loc 1 594 3 view .LVU396
 601:bsp/STMicroelectronics/stm32f413/stm32f4xx_hal_driver/Src/stm32f4xx_hal_rcc.c ****   {
 1311              		.loc 1 601 3 view .LVU397
 601:bsp/STMicroelectronics/stm32f413/stm32f4xx_hal_driver/Src/stm32f4xx_hal_rcc.c ****   {
 1312              		.loc 1 601 17 is_stmt 0 view .LVU398
 1313 000c 4F4B     		ldr	r3, .L146
 1314 000e 1B68     		ldr	r3, [r3]
 1315 0010 03F00F03 		and	r3, r3, #15
 601:bsp/STMicroelectronics/stm32f413/stm32f4xx_hal_driver/Src/stm32f4xx_hal_rcc.c ****   {
 1316              		.loc 1 601 5 view .LVU399
 1317 0014 8B42     		cmp	r3, r1
 1318 0016 08D2     		bcs	.L120
 604:bsp/STMicroelectronics/stm32f413/stm32f4xx_hal_driver/Src/stm32f4xx_hal_rcc.c **** 
 1319              		.loc 1 604 5 is_stmt 1 view .LVU400
 1320 0018 CBB2     		uxtb	r3, r1
 1321 001a 4C4A     		ldr	r2, .L146
 1322 001c 1370     		strb	r3, [r2]
 608:bsp/STMicroelectronics/stm32f413/stm32f4xx_hal_driver/Src/stm32f4xx_hal_rcc.c ****     {
ARM GAS  /tmp/ccUzmqNi.s 			page 43


 1323              		.loc 1 608 5 view .LVU401
 608:bsp/STMicroelectronics/stm32f413/stm32f4xx_hal_driver/Src/stm32f4xx_hal_rcc.c ****     {
 1324              		.loc 1 608 8 is_stmt 0 view .LVU402
 1325 001e 1368     		ldr	r3, [r2]
 1326 0020 03F00F03 		and	r3, r3, #15
 608:bsp/STMicroelectronics/stm32f413/stm32f4xx_hal_driver/Src/stm32f4xx_hal_rcc.c ****     {
 1327              		.loc 1 608 7 view .LVU403
 1328 0024 8B42     		cmp	r3, r1
 1329 0026 40F08B80 		bne	.L134
 1330              	.L120:
 615:bsp/STMicroelectronics/stm32f413/stm32f4xx_hal_driver/Src/stm32f4xx_hal_rcc.c ****   {
 1331              		.loc 1 615 3 is_stmt 1 view .LVU404
 615:bsp/STMicroelectronics/stm32f413/stm32f4xx_hal_driver/Src/stm32f4xx_hal_rcc.c ****   {
 1332              		.loc 1 615 25 is_stmt 0 view .LVU405
 1333 002a 2368     		ldr	r3, [r4]
 615:bsp/STMicroelectronics/stm32f413/stm32f4xx_hal_driver/Src/stm32f4xx_hal_rcc.c ****   {
 1334              		.loc 1 615 5 view .LVU406
 1335 002c 13F0020F 		tst	r3, #2
 1336 0030 17D0     		beq	.L121
 619:bsp/STMicroelectronics/stm32f413/stm32f4xx_hal_driver/Src/stm32f4xx_hal_rcc.c ****     {
 1337              		.loc 1 619 5 is_stmt 1 view .LVU407
 619:bsp/STMicroelectronics/stm32f413/stm32f4xx_hal_driver/Src/stm32f4xx_hal_rcc.c ****     {
 1338              		.loc 1 619 7 is_stmt 0 view .LVU408
 1339 0032 13F0040F 		tst	r3, #4
 1340 0036 04D0     		beq	.L122
 621:bsp/STMicroelectronics/stm32f413/stm32f4xx_hal_driver/Src/stm32f4xx_hal_rcc.c ****     }
 1341              		.loc 1 621 7 is_stmt 1 view .LVU409
 1342 0038 454A     		ldr	r2, .L146+4
 1343 003a 9368     		ldr	r3, [r2, #8]
 1344 003c 43F4E053 		orr	r3, r3, #7168
 1345 0040 9360     		str	r3, [r2, #8]
 1346              	.L122:
 624:bsp/STMicroelectronics/stm32f413/stm32f4xx_hal_driver/Src/stm32f4xx_hal_rcc.c ****     {
 1347              		.loc 1 624 5 view .LVU410
 624:bsp/STMicroelectronics/stm32f413/stm32f4xx_hal_driver/Src/stm32f4xx_hal_rcc.c ****     {
 1348              		.loc 1 624 27 is_stmt 0 view .LVU411
 1349 0042 2368     		ldr	r3, [r4]
 624:bsp/STMicroelectronics/stm32f413/stm32f4xx_hal_driver/Src/stm32f4xx_hal_rcc.c ****     {
 1350              		.loc 1 624 7 view .LVU412
 1351 0044 13F0080F 		tst	r3, #8
 1352 0048 04D0     		beq	.L123
 626:bsp/STMicroelectronics/stm32f413/stm32f4xx_hal_driver/Src/stm32f4xx_hal_rcc.c ****     }
 1353              		.loc 1 626 7 is_stmt 1 view .LVU413
 1354 004a 414A     		ldr	r2, .L146+4
 1355 004c 9368     		ldr	r3, [r2, #8]
 1356 004e 43F46043 		orr	r3, r3, #57344
 1357 0052 9360     		str	r3, [r2, #8]
 1358              	.L123:
 629:bsp/STMicroelectronics/stm32f413/stm32f4xx_hal_driver/Src/stm32f4xx_hal_rcc.c ****     MODIFY_REG(RCC->CFGR, RCC_CFGR_HPRE, RCC_ClkInitStruct->AHBCLKDivider);
 1359              		.loc 1 629 5 view .LVU414
 630:bsp/STMicroelectronics/stm32f413/stm32f4xx_hal_driver/Src/stm32f4xx_hal_rcc.c ****   }
 1360              		.loc 1 630 5 view .LVU415
 1361 0054 3E4A     		ldr	r2, .L146+4
 1362 0056 9368     		ldr	r3, [r2, #8]
 1363 0058 23F0F003 		bic	r3, r3, #240
 1364 005c A168     		ldr	r1, [r4, #8]
 1365              	.LVL86:
ARM GAS  /tmp/ccUzmqNi.s 			page 44


 630:bsp/STMicroelectronics/stm32f413/stm32f4xx_hal_driver/Src/stm32f4xx_hal_rcc.c ****   }
 1366              		.loc 1 630 5 is_stmt 0 view .LVU416
 1367 005e 0B43     		orrs	r3, r3, r1
 1368 0060 9360     		str	r3, [r2, #8]
 1369              	.L121:
 634:bsp/STMicroelectronics/stm32f413/stm32f4xx_hal_driver/Src/stm32f4xx_hal_rcc.c ****   {
 1370              		.loc 1 634 3 is_stmt 1 view .LVU417
 634:bsp/STMicroelectronics/stm32f413/stm32f4xx_hal_driver/Src/stm32f4xx_hal_rcc.c ****   {
 1371              		.loc 1 634 25 is_stmt 0 view .LVU418
 1372 0062 2368     		ldr	r3, [r4]
 634:bsp/STMicroelectronics/stm32f413/stm32f4xx_hal_driver/Src/stm32f4xx_hal_rcc.c ****   {
 1373              		.loc 1 634 5 view .LVU419
 1374 0064 13F0010F 		tst	r3, #1
 1375 0068 32D0     		beq	.L124
 636:bsp/STMicroelectronics/stm32f413/stm32f4xx_hal_driver/Src/stm32f4xx_hal_rcc.c **** 
 1376              		.loc 1 636 5 is_stmt 1 view .LVU420
 639:bsp/STMicroelectronics/stm32f413/stm32f4xx_hal_driver/Src/stm32f4xx_hal_rcc.c ****     {
 1377              		.loc 1 639 5 view .LVU421
 639:bsp/STMicroelectronics/stm32f413/stm32f4xx_hal_driver/Src/stm32f4xx_hal_rcc.c ****     {
 1378              		.loc 1 639 25 is_stmt 0 view .LVU422
 1379 006a 6368     		ldr	r3, [r4, #4]
 639:bsp/STMicroelectronics/stm32f413/stm32f4xx_hal_driver/Src/stm32f4xx_hal_rcc.c ****     {
 1380              		.loc 1 639 7 view .LVU423
 1381 006c 012B     		cmp	r3, #1
 1382 006e 21D0     		beq	.L144
 648:bsp/STMicroelectronics/stm32f413/stm32f4xx_hal_driver/Src/stm32f4xx_hal_rcc.c ****             (RCC_ClkInitStruct->SYSCLKSource == RCC_SYSCLKSOURCE_PLLRCLK))
 1383              		.loc 1 648 10 is_stmt 1 view .LVU424
 648:bsp/STMicroelectronics/stm32f413/stm32f4xx_hal_driver/Src/stm32f4xx_hal_rcc.c ****             (RCC_ClkInitStruct->SYSCLKSource == RCC_SYSCLKSOURCE_PLLRCLK))
 1384              		.loc 1 648 76 is_stmt 0 view .LVU425
 1385 0070 9A1E     		subs	r2, r3, #2
 648:bsp/STMicroelectronics/stm32f413/stm32f4xx_hal_driver/Src/stm32f4xx_hal_rcc.c ****             (RCC_ClkInitStruct->SYSCLKSource == RCC_SYSCLKSOURCE_PLLRCLK))
 1386              		.loc 1 648 12 view .LVU426
 1387 0072 012A     		cmp	r2, #1
 1388 0074 25D9     		bls	.L145
 661:bsp/STMicroelectronics/stm32f413/stm32f4xx_hal_driver/Src/stm32f4xx_hal_rcc.c ****       {
 1389              		.loc 1 661 7 is_stmt 1 view .LVU427
 661:bsp/STMicroelectronics/stm32f413/stm32f4xx_hal_driver/Src/stm32f4xx_hal_rcc.c ****       {
 1390              		.loc 1 661 10 is_stmt 0 view .LVU428
 1391 0076 364A     		ldr	r2, .L146+4
 1392 0078 1268     		ldr	r2, [r2]
 661:bsp/STMicroelectronics/stm32f413/stm32f4xx_hal_driver/Src/stm32f4xx_hal_rcc.c ****       {
 1393              		.loc 1 661 9 view .LVU429
 1394 007a 12F0020F 		tst	r2, #2
 1395 007e 61D0     		beq	.L137
 1396              	.L126:
 667:bsp/STMicroelectronics/stm32f413/stm32f4xx_hal_driver/Src/stm32f4xx_hal_rcc.c **** 
 1397              		.loc 1 667 5 is_stmt 1 view .LVU430
 1398 0080 3349     		ldr	r1, .L146+4
 1399 0082 8A68     		ldr	r2, [r1, #8]
 1400 0084 22F00302 		bic	r2, r2, #3
 1401 0088 1343     		orrs	r3, r3, r2
 1402 008a 8B60     		str	r3, [r1, #8]
 670:bsp/STMicroelectronics/stm32f413/stm32f4xx_hal_driver/Src/stm32f4xx_hal_rcc.c **** 
 1403              		.loc 1 670 5 view .LVU431
 670:bsp/STMicroelectronics/stm32f413/stm32f4xx_hal_driver/Src/stm32f4xx_hal_rcc.c **** 
 1404              		.loc 1 670 17 is_stmt 0 view .LVU432
 1405 008c FFF7FEFF 		bl	HAL_GetTick
ARM GAS  /tmp/ccUzmqNi.s 			page 45


 1406              	.LVL87:
 670:bsp/STMicroelectronics/stm32f413/stm32f4xx_hal_driver/Src/stm32f4xx_hal_rcc.c **** 
 1407              		.loc 1 670 17 view .LVU433
 1408 0090 0646     		mov	r6, r0
 1409              	.LVL88:
 672:bsp/STMicroelectronics/stm32f413/stm32f4xx_hal_driver/Src/stm32f4xx_hal_rcc.c ****     {
 1410              		.loc 1 672 5 is_stmt 1 view .LVU434
 1411              	.L128:
 672:bsp/STMicroelectronics/stm32f413/stm32f4xx_hal_driver/Src/stm32f4xx_hal_rcc.c ****     {
 1412              		.loc 1 672 11 view .LVU435
 672:bsp/STMicroelectronics/stm32f413/stm32f4xx_hal_driver/Src/stm32f4xx_hal_rcc.c ****     {
 1413              		.loc 1 672 12 is_stmt 0 view .LVU436
 1414 0092 2F4B     		ldr	r3, .L146+4
 1415 0094 9B68     		ldr	r3, [r3, #8]
 1416 0096 03F00C03 		and	r3, r3, #12
 672:bsp/STMicroelectronics/stm32f413/stm32f4xx_hal_driver/Src/stm32f4xx_hal_rcc.c ****     {
 1417              		.loc 1 672 63 view .LVU437
 1418 009a 6268     		ldr	r2, [r4, #4]
 672:bsp/STMicroelectronics/stm32f413/stm32f4xx_hal_driver/Src/stm32f4xx_hal_rcc.c ****     {
 1419              		.loc 1 672 11 view .LVU438
 1420 009c B3EB820F 		cmp	r3, r2, lsl #2
 1421 00a0 16D0     		beq	.L124
 674:bsp/STMicroelectronics/stm32f413/stm32f4xx_hal_driver/Src/stm32f4xx_hal_rcc.c ****       {
 1422              		.loc 1 674 7 is_stmt 1 view .LVU439
 674:bsp/STMicroelectronics/stm32f413/stm32f4xx_hal_driver/Src/stm32f4xx_hal_rcc.c ****       {
 1423              		.loc 1 674 12 is_stmt 0 view .LVU440
 1424 00a2 FFF7FEFF 		bl	HAL_GetTick
 1425              	.LVL89:
 674:bsp/STMicroelectronics/stm32f413/stm32f4xx_hal_driver/Src/stm32f4xx_hal_rcc.c ****       {
 1426              		.loc 1 674 26 view .LVU441
 1427 00a6 801B     		subs	r0, r0, r6
 674:bsp/STMicroelectronics/stm32f413/stm32f4xx_hal_driver/Src/stm32f4xx_hal_rcc.c ****       {
 1428              		.loc 1 674 10 view .LVU442
 1429 00a8 41F28833 		movw	r3, #5000
 1430 00ac 9842     		cmp	r0, r3
 1431 00ae F0D9     		bls	.L128
 676:bsp/STMicroelectronics/stm32f413/stm32f4xx_hal_driver/Src/stm32f4xx_hal_rcc.c ****       }
 1432              		.loc 1 676 16 view .LVU443
 1433 00b0 0320     		movs	r0, #3
 1434 00b2 42E0     		b	.L119
 1435              	.LVL90:
 1436              	.L144:
 642:bsp/STMicroelectronics/stm32f413/stm32f4xx_hal_driver/Src/stm32f4xx_hal_rcc.c ****       {
 1437              		.loc 1 642 7 is_stmt 1 view .LVU444
 642:bsp/STMicroelectronics/stm32f413/stm32f4xx_hal_driver/Src/stm32f4xx_hal_rcc.c ****       {
 1438              		.loc 1 642 10 is_stmt 0 view .LVU445
 1439 00b4 264A     		ldr	r2, .L146+4
 1440 00b6 1268     		ldr	r2, [r2]
 642:bsp/STMicroelectronics/stm32f413/stm32f4xx_hal_driver/Src/stm32f4xx_hal_rcc.c ****       {
 1441              		.loc 1 642 9 view .LVU446
 1442 00b8 12F4003F 		tst	r2, #131072
 1443 00bc E0D1     		bne	.L126
 644:bsp/STMicroelectronics/stm32f413/stm32f4xx_hal_driver/Src/stm32f4xx_hal_rcc.c ****       }
 1444              		.loc 1 644 16 view .LVU447
 1445 00be 0120     		movs	r0, #1
 1446              	.LVL91:
 644:bsp/STMicroelectronics/stm32f413/stm32f4xx_hal_driver/Src/stm32f4xx_hal_rcc.c ****       }
ARM GAS  /tmp/ccUzmqNi.s 			page 46


 1447              		.loc 1 644 16 view .LVU448
 1448 00c0 3BE0     		b	.L119
 1449              	.LVL92:
 1450              	.L145:
 652:bsp/STMicroelectronics/stm32f413/stm32f4xx_hal_driver/Src/stm32f4xx_hal_rcc.c ****       {
 1451              		.loc 1 652 7 is_stmt 1 view .LVU449
 652:bsp/STMicroelectronics/stm32f413/stm32f4xx_hal_driver/Src/stm32f4xx_hal_rcc.c ****       {
 1452              		.loc 1 652 10 is_stmt 0 view .LVU450
 1453 00c2 234A     		ldr	r2, .L146+4
 1454 00c4 1268     		ldr	r2, [r2]
 652:bsp/STMicroelectronics/stm32f413/stm32f4xx_hal_driver/Src/stm32f4xx_hal_rcc.c ****       {
 1455              		.loc 1 652 9 view .LVU451
 1456 00c6 12F0007F 		tst	r2, #33554432
 1457 00ca D9D1     		bne	.L126
 654:bsp/STMicroelectronics/stm32f413/stm32f4xx_hal_driver/Src/stm32f4xx_hal_rcc.c ****       }
 1458              		.loc 1 654 16 view .LVU452
 1459 00cc 0120     		movs	r0, #1
 1460              	.LVL93:
 654:bsp/STMicroelectronics/stm32f413/stm32f4xx_hal_driver/Src/stm32f4xx_hal_rcc.c ****       }
 1461              		.loc 1 654 16 view .LVU453
 1462 00ce 34E0     		b	.L119
 1463              	.L124:
 682:bsp/STMicroelectronics/stm32f413/stm32f4xx_hal_driver/Src/stm32f4xx_hal_rcc.c ****   {
 1464              		.loc 1 682 3 is_stmt 1 view .LVU454
 682:bsp/STMicroelectronics/stm32f413/stm32f4xx_hal_driver/Src/stm32f4xx_hal_rcc.c ****   {
 1465              		.loc 1 682 17 is_stmt 0 view .LVU455
 1466 00d0 1E4B     		ldr	r3, .L146
 1467 00d2 1B68     		ldr	r3, [r3]
 1468 00d4 03F00F03 		and	r3, r3, #15
 682:bsp/STMicroelectronics/stm32f413/stm32f4xx_hal_driver/Src/stm32f4xx_hal_rcc.c ****   {
 1469              		.loc 1 682 5 view .LVU456
 1470 00d8 AB42     		cmp	r3, r5
 1471 00da 07D9     		bls	.L130
 685:bsp/STMicroelectronics/stm32f413/stm32f4xx_hal_driver/Src/stm32f4xx_hal_rcc.c **** 
 1472              		.loc 1 685 5 is_stmt 1 view .LVU457
 1473 00dc EAB2     		uxtb	r2, r5
 1474 00de 1B4B     		ldr	r3, .L146
 1475 00e0 1A70     		strb	r2, [r3]
 689:bsp/STMicroelectronics/stm32f413/stm32f4xx_hal_driver/Src/stm32f4xx_hal_rcc.c ****     {
 1476              		.loc 1 689 5 view .LVU458
 689:bsp/STMicroelectronics/stm32f413/stm32f4xx_hal_driver/Src/stm32f4xx_hal_rcc.c ****     {
 1477              		.loc 1 689 8 is_stmt 0 view .LVU459
 1478 00e2 1B68     		ldr	r3, [r3]
 1479 00e4 03F00F03 		and	r3, r3, #15
 689:bsp/STMicroelectronics/stm32f413/stm32f4xx_hal_driver/Src/stm32f4xx_hal_rcc.c ****     {
 1480              		.loc 1 689 7 view .LVU460
 1481 00e8 AB42     		cmp	r3, r5
 1482 00ea 2DD1     		bne	.L139
 1483              	.L130:
 696:bsp/STMicroelectronics/stm32f413/stm32f4xx_hal_driver/Src/stm32f4xx_hal_rcc.c ****   {
 1484              		.loc 1 696 3 is_stmt 1 view .LVU461
 696:bsp/STMicroelectronics/stm32f413/stm32f4xx_hal_driver/Src/stm32f4xx_hal_rcc.c ****   {
 1485              		.loc 1 696 25 is_stmt 0 view .LVU462
 1486 00ec 2368     		ldr	r3, [r4]
 696:bsp/STMicroelectronics/stm32f413/stm32f4xx_hal_driver/Src/stm32f4xx_hal_rcc.c ****   {
 1487              		.loc 1 696 5 view .LVU463
 1488 00ee 13F0040F 		tst	r3, #4
ARM GAS  /tmp/ccUzmqNi.s 			page 47


 1489 00f2 06D0     		beq	.L131
 698:bsp/STMicroelectronics/stm32f413/stm32f4xx_hal_driver/Src/stm32f4xx_hal_rcc.c ****     MODIFY_REG(RCC->CFGR, RCC_CFGR_PPRE1, RCC_ClkInitStruct->APB1CLKDivider);
 1490              		.loc 1 698 5 is_stmt 1 view .LVU464
 699:bsp/STMicroelectronics/stm32f413/stm32f4xx_hal_driver/Src/stm32f4xx_hal_rcc.c ****   }
 1491              		.loc 1 699 5 view .LVU465
 1492 00f4 164A     		ldr	r2, .L146+4
 1493 00f6 9368     		ldr	r3, [r2, #8]
 1494 00f8 23F4E053 		bic	r3, r3, #7168
 1495 00fc E168     		ldr	r1, [r4, #12]
 1496 00fe 0B43     		orrs	r3, r3, r1
 1497 0100 9360     		str	r3, [r2, #8]
 1498              	.L131:
 703:bsp/STMicroelectronics/stm32f413/stm32f4xx_hal_driver/Src/stm32f4xx_hal_rcc.c ****   {
 1499              		.loc 1 703 3 view .LVU466
 703:bsp/STMicroelectronics/stm32f413/stm32f4xx_hal_driver/Src/stm32f4xx_hal_rcc.c ****   {
 1500              		.loc 1 703 25 is_stmt 0 view .LVU467
 1501 0102 2368     		ldr	r3, [r4]
 703:bsp/STMicroelectronics/stm32f413/stm32f4xx_hal_driver/Src/stm32f4xx_hal_rcc.c ****   {
 1502              		.loc 1 703 5 view .LVU468
 1503 0104 13F0080F 		tst	r3, #8
 1504 0108 07D0     		beq	.L132
 705:bsp/STMicroelectronics/stm32f413/stm32f4xx_hal_driver/Src/stm32f4xx_hal_rcc.c ****     MODIFY_REG(RCC->CFGR, RCC_CFGR_PPRE2, ((RCC_ClkInitStruct->APB2CLKDivider) << 3U));
 1505              		.loc 1 705 5 is_stmt 1 view .LVU469
 706:bsp/STMicroelectronics/stm32f413/stm32f4xx_hal_driver/Src/stm32f4xx_hal_rcc.c ****   }
 1506              		.loc 1 706 5 view .LVU470
 1507 010a 114A     		ldr	r2, .L146+4
 1508 010c 9368     		ldr	r3, [r2, #8]
 1509 010e 23F46043 		bic	r3, r3, #57344
 1510 0112 2169     		ldr	r1, [r4, #16]
 1511 0114 43EAC103 		orr	r3, r3, r1, lsl #3
 1512 0118 9360     		str	r3, [r2, #8]
 1513              	.L132:
 710:bsp/STMicroelectronics/stm32f413/stm32f4xx_hal_driver/Src/stm32f4xx_hal_rcc.c **** 
 1514              		.loc 1 710 3 view .LVU471
 710:bsp/STMicroelectronics/stm32f413/stm32f4xx_hal_driver/Src/stm32f4xx_hal_rcc.c **** 
 1515              		.loc 1 710 21 is_stmt 0 view .LVU472
 1516 011a FFF7FEFF 		bl	HAL_RCC_GetSysClockFreq
 1517              	.LVL94:
 710:bsp/STMicroelectronics/stm32f413/stm32f4xx_hal_driver/Src/stm32f4xx_hal_rcc.c **** 
 1518              		.loc 1 710 68 view .LVU473
 1519 011e 0C4B     		ldr	r3, .L146+4
 1520 0120 9B68     		ldr	r3, [r3, #8]
 710:bsp/STMicroelectronics/stm32f413/stm32f4xx_hal_driver/Src/stm32f4xx_hal_rcc.c **** 
 1521              		.loc 1 710 91 view .LVU474
 1522 0122 C3F30313 		ubfx	r3, r3, #4, #4
 710:bsp/STMicroelectronics/stm32f413/stm32f4xx_hal_driver/Src/stm32f4xx_hal_rcc.c **** 
 1523              		.loc 1 710 63 view .LVU475
 1524 0126 0B4A     		ldr	r2, .L146+8
 1525 0128 D35C     		ldrb	r3, [r2, r3]	@ zero_extendqisi2
 710:bsp/STMicroelectronics/stm32f413/stm32f4xx_hal_driver/Src/stm32f4xx_hal_rcc.c **** 
 1526              		.loc 1 710 47 view .LVU476
 1527 012a D840     		lsrs	r0, r0, r3
 710:bsp/STMicroelectronics/stm32f413/stm32f4xx_hal_driver/Src/stm32f4xx_hal_rcc.c **** 
 1528              		.loc 1 710 19 view .LVU477
 1529 012c 0A4B     		ldr	r3, .L146+12
 1530 012e 1860     		str	r0, [r3]
 713:bsp/STMicroelectronics/stm32f413/stm32f4xx_hal_driver/Src/stm32f4xx_hal_rcc.c **** 
ARM GAS  /tmp/ccUzmqNi.s 			page 48


 1531              		.loc 1 713 3 is_stmt 1 view .LVU478
 1532 0130 0A4B     		ldr	r3, .L146+16
 1533 0132 1868     		ldr	r0, [r3]
 1534 0134 FFF7FEFF 		bl	HAL_InitTick
 1535              	.LVL95:
 715:bsp/STMicroelectronics/stm32f413/stm32f4xx_hal_driver/Src/stm32f4xx_hal_rcc.c **** }
 1536              		.loc 1 715 3 view .LVU479
 715:bsp/STMicroelectronics/stm32f413/stm32f4xx_hal_driver/Src/stm32f4xx_hal_rcc.c **** }
 1537              		.loc 1 715 10 is_stmt 0 view .LVU480
 1538 0138 0020     		movs	r0, #0
 1539              	.L119:
 716:bsp/STMicroelectronics/stm32f413/stm32f4xx_hal_driver/Src/stm32f4xx_hal_rcc.c **** 
 1540              		.loc 1 716 1 view .LVU481
 1541 013a 70BD     		pop	{r4, r5, r6, pc}
 1542              	.LVL96:
 1543              	.L133:
 1544              	.LCFI12:
 1545              		.cfi_def_cfa_offset 0
 1546              		.cfi_restore 4
 1547              		.cfi_restore 5
 1548              		.cfi_restore 6
 1549              		.cfi_restore 14
 589:bsp/STMicroelectronics/stm32f413/stm32f4xx_hal_driver/Src/stm32f4xx_hal_rcc.c ****   }
 1550              		.loc 1 589 12 view .LVU482
 1551 013c 0120     		movs	r0, #1
 1552              	.LVL97:
 716:bsp/STMicroelectronics/stm32f413/stm32f4xx_hal_driver/Src/stm32f4xx_hal_rcc.c **** 
 1553              		.loc 1 716 1 view .LVU483
 1554 013e 7047     		bx	lr
 1555              	.LVL98:
 1556              	.L134:
 1557              	.LCFI13:
 1558              		.cfi_def_cfa_offset 16
 1559              		.cfi_offset 4, -16
 1560              		.cfi_offset 5, -12
 1561              		.cfi_offset 6, -8
 1562              		.cfi_offset 14, -4
 610:bsp/STMicroelectronics/stm32f413/stm32f4xx_hal_driver/Src/stm32f4xx_hal_rcc.c ****     }
 1563              		.loc 1 610 14 view .LVU484
 1564 0140 0120     		movs	r0, #1
 1565              	.LVL99:
 610:bsp/STMicroelectronics/stm32f413/stm32f4xx_hal_driver/Src/stm32f4xx_hal_rcc.c ****     }
 1566              		.loc 1 610 14 view .LVU485
 1567 0142 FAE7     		b	.L119
 1568              	.LVL100:
 1569              	.L137:
 663:bsp/STMicroelectronics/stm32f413/stm32f4xx_hal_driver/Src/stm32f4xx_hal_rcc.c ****       }
 1570              		.loc 1 663 16 view .LVU486
 1571 0144 0120     		movs	r0, #1
 1572              	.LVL101:
 663:bsp/STMicroelectronics/stm32f413/stm32f4xx_hal_driver/Src/stm32f4xx_hal_rcc.c ****       }
 1573              		.loc 1 663 16 view .LVU487
 1574 0146 F8E7     		b	.L119
 1575              	.L139:
 691:bsp/STMicroelectronics/stm32f413/stm32f4xx_hal_driver/Src/stm32f4xx_hal_rcc.c ****     }
 1576              		.loc 1 691 14 view .LVU488
 1577 0148 0120     		movs	r0, #1
ARM GAS  /tmp/ccUzmqNi.s 			page 49


 1578 014a F6E7     		b	.L119
 1579              	.L147:
 1580              		.align	2
 1581              	.L146:
 1582 014c 003C0240 		.word	1073888256
 1583 0150 00380240 		.word	1073887232
 1584 0154 00000000 		.word	AHBPrescTable
 1585 0158 00000000 		.word	SystemCoreClock
 1586 015c 00000000 		.word	uwTickPrio
 1587              		.cfi_endproc
 1588              	.LFE132:
 1590              		.section	.text.HAL_RCC_GetHCLKFreq,"ax",%progbits
 1591              		.align	1
 1592              		.global	HAL_RCC_GetHCLKFreq
 1593              		.syntax unified
 1594              		.thumb
 1595              		.thumb_func
 1596              		.fpu fpv4-sp-d16
 1598              	HAL_RCC_GetHCLKFreq:
 1599              	.LFB137:
 922:bsp/STMicroelectronics/stm32f413/stm32f4xx_hal_driver/Src/stm32f4xx_hal_rcc.c **** 
 923:bsp/STMicroelectronics/stm32f413/stm32f4xx_hal_driver/Src/stm32f4xx_hal_rcc.c **** /**
 924:bsp/STMicroelectronics/stm32f413/stm32f4xx_hal_driver/Src/stm32f4xx_hal_rcc.c ****   * @brief  Returns the HCLK frequency
 925:bsp/STMicroelectronics/stm32f413/stm32f4xx_hal_driver/Src/stm32f4xx_hal_rcc.c ****   * @note   Each time HCLK changes, this function must be called to update the
 926:bsp/STMicroelectronics/stm32f413/stm32f4xx_hal_driver/Src/stm32f4xx_hal_rcc.c ****   *         right HCLK value. Otherwise, any configuration based on this function will be incorrect
 927:bsp/STMicroelectronics/stm32f413/stm32f4xx_hal_driver/Src/stm32f4xx_hal_rcc.c ****   *
 928:bsp/STMicroelectronics/stm32f413/stm32f4xx_hal_driver/Src/stm32f4xx_hal_rcc.c ****   * @note   The SystemCoreClock CMSIS variable is used to store System Clock Frequency
 929:bsp/STMicroelectronics/stm32f413/stm32f4xx_hal_driver/Src/stm32f4xx_hal_rcc.c ****   *         and updated within this function
 930:bsp/STMicroelectronics/stm32f413/stm32f4xx_hal_driver/Src/stm32f4xx_hal_rcc.c ****   * @retval HCLK frequency
 931:bsp/STMicroelectronics/stm32f413/stm32f4xx_hal_driver/Src/stm32f4xx_hal_rcc.c ****   */
 932:bsp/STMicroelectronics/stm32f413/stm32f4xx_hal_driver/Src/stm32f4xx_hal_rcc.c **** uint32_t HAL_RCC_GetHCLKFreq(void)
 933:bsp/STMicroelectronics/stm32f413/stm32f4xx_hal_driver/Src/stm32f4xx_hal_rcc.c **** {
 1600              		.loc 1 933 1 is_stmt 1 view -0
 1601              		.cfi_startproc
 1602              		@ args = 0, pretend = 0, frame = 0
 1603              		@ frame_needed = 0, uses_anonymous_args = 0
 1604              		@ link register save eliminated.
 934:bsp/STMicroelectronics/stm32f413/stm32f4xx_hal_driver/Src/stm32f4xx_hal_rcc.c ****   return SystemCoreClock;
 1605              		.loc 1 934 3 view .LVU490
 935:bsp/STMicroelectronics/stm32f413/stm32f4xx_hal_driver/Src/stm32f4xx_hal_rcc.c **** }
 1606              		.loc 1 935 1 is_stmt 0 view .LVU491
 1607 0000 014B     		ldr	r3, .L149
 1608 0002 1868     		ldr	r0, [r3]
 1609 0004 7047     		bx	lr
 1610              	.L150:
 1611 0006 00BF     		.align	2
 1612              	.L149:
 1613 0008 00000000 		.word	SystemCoreClock
 1614              		.cfi_endproc
 1615              	.LFE137:
 1617              		.section	.text.HAL_RCC_GetPCLK1Freq,"ax",%progbits
 1618              		.align	1
 1619              		.global	HAL_RCC_GetPCLK1Freq
 1620              		.syntax unified
 1621              		.thumb
 1622              		.thumb_func
 1623              		.fpu fpv4-sp-d16
ARM GAS  /tmp/ccUzmqNi.s 			page 50


 1625              	HAL_RCC_GetPCLK1Freq:
 1626              	.LFB138:
 936:bsp/STMicroelectronics/stm32f413/stm32f4xx_hal_driver/Src/stm32f4xx_hal_rcc.c **** 
 937:bsp/STMicroelectronics/stm32f413/stm32f4xx_hal_driver/Src/stm32f4xx_hal_rcc.c **** /**
 938:bsp/STMicroelectronics/stm32f413/stm32f4xx_hal_driver/Src/stm32f4xx_hal_rcc.c ****   * @brief  Returns the PCLK1 frequency
 939:bsp/STMicroelectronics/stm32f413/stm32f4xx_hal_driver/Src/stm32f4xx_hal_rcc.c ****   * @note   Each time PCLK1 changes, this function must be called to update the
 940:bsp/STMicroelectronics/stm32f413/stm32f4xx_hal_driver/Src/stm32f4xx_hal_rcc.c ****   *         right PCLK1 value. Otherwise, any configuration based on this function will be incorrec
 941:bsp/STMicroelectronics/stm32f413/stm32f4xx_hal_driver/Src/stm32f4xx_hal_rcc.c ****   * @retval PCLK1 frequency
 942:bsp/STMicroelectronics/stm32f413/stm32f4xx_hal_driver/Src/stm32f4xx_hal_rcc.c ****   */
 943:bsp/STMicroelectronics/stm32f413/stm32f4xx_hal_driver/Src/stm32f4xx_hal_rcc.c **** uint32_t HAL_RCC_GetPCLK1Freq(void)
 944:bsp/STMicroelectronics/stm32f413/stm32f4xx_hal_driver/Src/stm32f4xx_hal_rcc.c **** {
 1627              		.loc 1 944 1 is_stmt 1 view -0
 1628              		.cfi_startproc
 1629              		@ args = 0, pretend = 0, frame = 0
 1630              		@ frame_needed = 0, uses_anonymous_args = 0
 1631 0000 08B5     		push	{r3, lr}
 1632              	.LCFI14:
 1633              		.cfi_def_cfa_offset 8
 1634              		.cfi_offset 3, -8
 1635              		.cfi_offset 14, -4
 945:bsp/STMicroelectronics/stm32f413/stm32f4xx_hal_driver/Src/stm32f4xx_hal_rcc.c ****   /* Get HCLK source and Compute PCLK1 frequency ---------------------------*/
 946:bsp/STMicroelectronics/stm32f413/stm32f4xx_hal_driver/Src/stm32f4xx_hal_rcc.c ****   return (HAL_RCC_GetHCLKFreq() >> APBPrescTable[(RCC->CFGR & RCC_CFGR_PPRE1)>> RCC_CFGR_PPRE1_Pos]
 1636              		.loc 1 946 3 view .LVU493
 1637              		.loc 1 946 11 is_stmt 0 view .LVU494
 1638 0002 FFF7FEFF 		bl	HAL_RCC_GetHCLKFreq
 1639              	.LVL102:
 1640              		.loc 1 946 54 view .LVU495
 1641 0006 044B     		ldr	r3, .L153
 1642 0008 9B68     		ldr	r3, [r3, #8]
 1643              		.loc 1 946 78 view .LVU496
 1644 000a C3F38223 		ubfx	r3, r3, #10, #3
 1645              		.loc 1 946 49 view .LVU497
 1646 000e 034A     		ldr	r2, .L153+4
 1647 0010 D35C     		ldrb	r3, [r2, r3]	@ zero_extendqisi2
 947:bsp/STMicroelectronics/stm32f413/stm32f4xx_hal_driver/Src/stm32f4xx_hal_rcc.c **** }
 1648              		.loc 1 947 1 view .LVU498
 1649 0012 D840     		lsrs	r0, r0, r3
 1650 0014 08BD     		pop	{r3, pc}
 1651              	.L154:
 1652 0016 00BF     		.align	2
 1653              	.L153:
 1654 0018 00380240 		.word	1073887232
 1655 001c 00000000 		.word	APBPrescTable
 1656              		.cfi_endproc
 1657              	.LFE138:
 1659              		.section	.text.HAL_RCC_GetPCLK2Freq,"ax",%progbits
 1660              		.align	1
 1661              		.global	HAL_RCC_GetPCLK2Freq
 1662              		.syntax unified
 1663              		.thumb
 1664              		.thumb_func
 1665              		.fpu fpv4-sp-d16
 1667              	HAL_RCC_GetPCLK2Freq:
 1668              	.LFB139:
 948:bsp/STMicroelectronics/stm32f413/stm32f4xx_hal_driver/Src/stm32f4xx_hal_rcc.c **** 
 949:bsp/STMicroelectronics/stm32f413/stm32f4xx_hal_driver/Src/stm32f4xx_hal_rcc.c **** /**
 950:bsp/STMicroelectronics/stm32f413/stm32f4xx_hal_driver/Src/stm32f4xx_hal_rcc.c ****   * @brief  Returns the PCLK2 frequency
ARM GAS  /tmp/ccUzmqNi.s 			page 51


 951:bsp/STMicroelectronics/stm32f413/stm32f4xx_hal_driver/Src/stm32f4xx_hal_rcc.c ****   * @note   Each time PCLK2 changes, this function must be called to update the
 952:bsp/STMicroelectronics/stm32f413/stm32f4xx_hal_driver/Src/stm32f4xx_hal_rcc.c ****   *         right PCLK2 value. Otherwise, any configuration based on this function will be incorrec
 953:bsp/STMicroelectronics/stm32f413/stm32f4xx_hal_driver/Src/stm32f4xx_hal_rcc.c ****   * @retval PCLK2 frequency
 954:bsp/STMicroelectronics/stm32f413/stm32f4xx_hal_driver/Src/stm32f4xx_hal_rcc.c ****   */
 955:bsp/STMicroelectronics/stm32f413/stm32f4xx_hal_driver/Src/stm32f4xx_hal_rcc.c **** uint32_t HAL_RCC_GetPCLK2Freq(void)
 956:bsp/STMicroelectronics/stm32f413/stm32f4xx_hal_driver/Src/stm32f4xx_hal_rcc.c **** {
 1669              		.loc 1 956 1 is_stmt 1 view -0
 1670              		.cfi_startproc
 1671              		@ args = 0, pretend = 0, frame = 0
 1672              		@ frame_needed = 0, uses_anonymous_args = 0
 1673 0000 08B5     		push	{r3, lr}
 1674              	.LCFI15:
 1675              		.cfi_def_cfa_offset 8
 1676              		.cfi_offset 3, -8
 1677              		.cfi_offset 14, -4
 957:bsp/STMicroelectronics/stm32f413/stm32f4xx_hal_driver/Src/stm32f4xx_hal_rcc.c ****   /* Get HCLK source and Compute PCLK2 frequency ---------------------------*/
 958:bsp/STMicroelectronics/stm32f413/stm32f4xx_hal_driver/Src/stm32f4xx_hal_rcc.c ****   return (HAL_RCC_GetHCLKFreq()>> APBPrescTable[(RCC->CFGR & RCC_CFGR_PPRE2)>> RCC_CFGR_PPRE2_Pos])
 1678              		.loc 1 958 3 view .LVU500
 1679              		.loc 1 958 11 is_stmt 0 view .LVU501
 1680 0002 FFF7FEFF 		bl	HAL_RCC_GetHCLKFreq
 1681              	.LVL103:
 1682              		.loc 1 958 53 view .LVU502
 1683 0006 044B     		ldr	r3, .L157
 1684 0008 9B68     		ldr	r3, [r3, #8]
 1685              		.loc 1 958 77 view .LVU503
 1686 000a C3F34233 		ubfx	r3, r3, #13, #3
 1687              		.loc 1 958 48 view .LVU504
 1688 000e 034A     		ldr	r2, .L157+4
 1689 0010 D35C     		ldrb	r3, [r2, r3]	@ zero_extendqisi2
 959:bsp/STMicroelectronics/stm32f413/stm32f4xx_hal_driver/Src/stm32f4xx_hal_rcc.c **** }
 1690              		.loc 1 959 1 view .LVU505
 1691 0012 D840     		lsrs	r0, r0, r3
 1692 0014 08BD     		pop	{r3, pc}
 1693              	.L158:
 1694 0016 00BF     		.align	2
 1695              	.L157:
 1696 0018 00380240 		.word	1073887232
 1697 001c 00000000 		.word	APBPrescTable
 1698              		.cfi_endproc
 1699              	.LFE139:
 1701              		.section	.text.HAL_RCC_GetOscConfig,"ax",%progbits
 1702              		.align	1
 1703              		.weak	HAL_RCC_GetOscConfig
 1704              		.syntax unified
 1705              		.thumb
 1706              		.thumb_func
 1707              		.fpu fpv4-sp-d16
 1709              	HAL_RCC_GetOscConfig:
 1710              	.LVL104:
 1711              	.LFB140:
 960:bsp/STMicroelectronics/stm32f413/stm32f4xx_hal_driver/Src/stm32f4xx_hal_rcc.c **** 
 961:bsp/STMicroelectronics/stm32f413/stm32f4xx_hal_driver/Src/stm32f4xx_hal_rcc.c **** /**
 962:bsp/STMicroelectronics/stm32f413/stm32f4xx_hal_driver/Src/stm32f4xx_hal_rcc.c ****   * @brief  Configures the RCC_OscInitStruct according to the internal
 963:bsp/STMicroelectronics/stm32f413/stm32f4xx_hal_driver/Src/stm32f4xx_hal_rcc.c ****   * RCC configuration registers.
 964:bsp/STMicroelectronics/stm32f413/stm32f4xx_hal_driver/Src/stm32f4xx_hal_rcc.c ****   * @param  RCC_OscInitStruct pointer to an RCC_OscInitTypeDef structure that
 965:bsp/STMicroelectronics/stm32f413/stm32f4xx_hal_driver/Src/stm32f4xx_hal_rcc.c ****   * will be configured.
 966:bsp/STMicroelectronics/stm32f413/stm32f4xx_hal_driver/Src/stm32f4xx_hal_rcc.c ****   * @retval None
ARM GAS  /tmp/ccUzmqNi.s 			page 52


 967:bsp/STMicroelectronics/stm32f413/stm32f4xx_hal_driver/Src/stm32f4xx_hal_rcc.c ****   */
 968:bsp/STMicroelectronics/stm32f413/stm32f4xx_hal_driver/Src/stm32f4xx_hal_rcc.c **** __weak void HAL_RCC_GetOscConfig(RCC_OscInitTypeDef  *RCC_OscInitStruct)
 969:bsp/STMicroelectronics/stm32f413/stm32f4xx_hal_driver/Src/stm32f4xx_hal_rcc.c **** {
 1712              		.loc 1 969 1 is_stmt 1 view -0
 1713              		.cfi_startproc
 1714              		@ args = 0, pretend = 0, frame = 0
 1715              		@ frame_needed = 0, uses_anonymous_args = 0
 1716              		@ link register save eliminated.
 970:bsp/STMicroelectronics/stm32f413/stm32f4xx_hal_driver/Src/stm32f4xx_hal_rcc.c ****   /* Set all possible values for the Oscillator type parameter ---------------*/
 971:bsp/STMicroelectronics/stm32f413/stm32f4xx_hal_driver/Src/stm32f4xx_hal_rcc.c ****   RCC_OscInitStruct->OscillatorType = RCC_OSCILLATORTYPE_HSE | RCC_OSCILLATORTYPE_HSI | RCC_OSCILLA
 1717              		.loc 1 971 3 view .LVU507
 1718              		.loc 1 971 37 is_stmt 0 view .LVU508
 1719 0000 0F23     		movs	r3, #15
 1720 0002 0360     		str	r3, [r0]
 972:bsp/STMicroelectronics/stm32f413/stm32f4xx_hal_driver/Src/stm32f4xx_hal_rcc.c **** 
 973:bsp/STMicroelectronics/stm32f413/stm32f4xx_hal_driver/Src/stm32f4xx_hal_rcc.c ****   /* Get the HSE configuration -----------------------------------------------*/
 974:bsp/STMicroelectronics/stm32f413/stm32f4xx_hal_driver/Src/stm32f4xx_hal_rcc.c ****   if((RCC->CR &RCC_CR_HSEBYP) == RCC_CR_HSEBYP)
 1721              		.loc 1 974 3 is_stmt 1 view .LVU509
 1722              		.loc 1 974 10 is_stmt 0 view .LVU510
 1723 0004 304B     		ldr	r3, .L172
 1724 0006 1B68     		ldr	r3, [r3]
 1725              		.loc 1 974 5 view .LVU511
 1726 0008 13F4802F 		tst	r3, #262144
 1727 000c 3BD0     		beq	.L160
 975:bsp/STMicroelectronics/stm32f413/stm32f4xx_hal_driver/Src/stm32f4xx_hal_rcc.c ****   {
 976:bsp/STMicroelectronics/stm32f413/stm32f4xx_hal_driver/Src/stm32f4xx_hal_rcc.c ****     RCC_OscInitStruct->HSEState = RCC_HSE_BYPASS;
 1728              		.loc 1 976 5 is_stmt 1 view .LVU512
 1729              		.loc 1 976 33 is_stmt 0 view .LVU513
 1730 000e 4FF4A023 		mov	r3, #327680
 1731 0012 4360     		str	r3, [r0, #4]
 1732              	.L161:
 977:bsp/STMicroelectronics/stm32f413/stm32f4xx_hal_driver/Src/stm32f4xx_hal_rcc.c ****   }
 978:bsp/STMicroelectronics/stm32f413/stm32f4xx_hal_driver/Src/stm32f4xx_hal_rcc.c ****   else if((RCC->CR &RCC_CR_HSEON) == RCC_CR_HSEON)
 979:bsp/STMicroelectronics/stm32f413/stm32f4xx_hal_driver/Src/stm32f4xx_hal_rcc.c ****   {
 980:bsp/STMicroelectronics/stm32f413/stm32f4xx_hal_driver/Src/stm32f4xx_hal_rcc.c ****     RCC_OscInitStruct->HSEState = RCC_HSE_ON;
 981:bsp/STMicroelectronics/stm32f413/stm32f4xx_hal_driver/Src/stm32f4xx_hal_rcc.c ****   }
 982:bsp/STMicroelectronics/stm32f413/stm32f4xx_hal_driver/Src/stm32f4xx_hal_rcc.c ****   else
 983:bsp/STMicroelectronics/stm32f413/stm32f4xx_hal_driver/Src/stm32f4xx_hal_rcc.c ****   {
 984:bsp/STMicroelectronics/stm32f413/stm32f4xx_hal_driver/Src/stm32f4xx_hal_rcc.c ****     RCC_OscInitStruct->HSEState = RCC_HSE_OFF;
 985:bsp/STMicroelectronics/stm32f413/stm32f4xx_hal_driver/Src/stm32f4xx_hal_rcc.c ****   }
 986:bsp/STMicroelectronics/stm32f413/stm32f4xx_hal_driver/Src/stm32f4xx_hal_rcc.c **** 
 987:bsp/STMicroelectronics/stm32f413/stm32f4xx_hal_driver/Src/stm32f4xx_hal_rcc.c ****   /* Get the HSI configuration -----------------------------------------------*/
 988:bsp/STMicroelectronics/stm32f413/stm32f4xx_hal_driver/Src/stm32f4xx_hal_rcc.c ****   if((RCC->CR &RCC_CR_HSION) == RCC_CR_HSION)
 1733              		.loc 1 988 3 is_stmt 1 view .LVU514
 1734              		.loc 1 988 10 is_stmt 0 view .LVU515
 1735 0014 2C4B     		ldr	r3, .L172
 1736 0016 1B68     		ldr	r3, [r3]
 1737              		.loc 1 988 5 view .LVU516
 1738 0018 13F0010F 		tst	r3, #1
 1739 001c 3FD0     		beq	.L163
 989:bsp/STMicroelectronics/stm32f413/stm32f4xx_hal_driver/Src/stm32f4xx_hal_rcc.c ****   {
 990:bsp/STMicroelectronics/stm32f413/stm32f4xx_hal_driver/Src/stm32f4xx_hal_rcc.c ****     RCC_OscInitStruct->HSIState = RCC_HSI_ON;
 1740              		.loc 1 990 5 is_stmt 1 view .LVU517
 1741              		.loc 1 990 33 is_stmt 0 view .LVU518
 1742 001e 0123     		movs	r3, #1
 1743 0020 C360     		str	r3, [r0, #12]
 1744              	.L164:
ARM GAS  /tmp/ccUzmqNi.s 			page 53


 991:bsp/STMicroelectronics/stm32f413/stm32f4xx_hal_driver/Src/stm32f4xx_hal_rcc.c ****   }
 992:bsp/STMicroelectronics/stm32f413/stm32f4xx_hal_driver/Src/stm32f4xx_hal_rcc.c ****   else
 993:bsp/STMicroelectronics/stm32f413/stm32f4xx_hal_driver/Src/stm32f4xx_hal_rcc.c ****   {
 994:bsp/STMicroelectronics/stm32f413/stm32f4xx_hal_driver/Src/stm32f4xx_hal_rcc.c ****     RCC_OscInitStruct->HSIState = RCC_HSI_OFF;
 995:bsp/STMicroelectronics/stm32f413/stm32f4xx_hal_driver/Src/stm32f4xx_hal_rcc.c ****   }
 996:bsp/STMicroelectronics/stm32f413/stm32f4xx_hal_driver/Src/stm32f4xx_hal_rcc.c **** 
 997:bsp/STMicroelectronics/stm32f413/stm32f4xx_hal_driver/Src/stm32f4xx_hal_rcc.c ****   RCC_OscInitStruct->HSICalibrationValue = (uint32_t)((RCC->CR &RCC_CR_HSITRIM) >> RCC_CR_HSITRIM_P
 1745              		.loc 1 997 3 is_stmt 1 view .LVU519
 1746              		.loc 1 997 59 is_stmt 0 view .LVU520
 1747 0022 294A     		ldr	r2, .L172
 1748 0024 1368     		ldr	r3, [r2]
 1749              		.loc 1 997 44 view .LVU521
 1750 0026 C3F3C403 		ubfx	r3, r3, #3, #5
 1751              		.loc 1 997 42 view .LVU522
 1752 002a 0361     		str	r3, [r0, #16]
 998:bsp/STMicroelectronics/stm32f413/stm32f4xx_hal_driver/Src/stm32f4xx_hal_rcc.c **** 
 999:bsp/STMicroelectronics/stm32f413/stm32f4xx_hal_driver/Src/stm32f4xx_hal_rcc.c ****   /* Get the LSE configuration -----------------------------------------------*/
1000:bsp/STMicroelectronics/stm32f413/stm32f4xx_hal_driver/Src/stm32f4xx_hal_rcc.c ****   if((RCC->BDCR &RCC_BDCR_LSEBYP) == RCC_BDCR_LSEBYP)
 1753              		.loc 1 1000 3 is_stmt 1 view .LVU523
 1754              		.loc 1 1000 10 is_stmt 0 view .LVU524
 1755 002c 136F     		ldr	r3, [r2, #112]
 1756              		.loc 1 1000 5 view .LVU525
 1757 002e 13F0040F 		tst	r3, #4
 1758 0032 37D0     		beq	.L165
1001:bsp/STMicroelectronics/stm32f413/stm32f4xx_hal_driver/Src/stm32f4xx_hal_rcc.c ****   {
1002:bsp/STMicroelectronics/stm32f413/stm32f4xx_hal_driver/Src/stm32f4xx_hal_rcc.c ****     RCC_OscInitStruct->LSEState = RCC_LSE_BYPASS;
 1759              		.loc 1 1002 5 is_stmt 1 view .LVU526
 1760              		.loc 1 1002 33 is_stmt 0 view .LVU527
 1761 0034 0523     		movs	r3, #5
 1762 0036 8360     		str	r3, [r0, #8]
 1763              	.L166:
1003:bsp/STMicroelectronics/stm32f413/stm32f4xx_hal_driver/Src/stm32f4xx_hal_rcc.c ****   }
1004:bsp/STMicroelectronics/stm32f413/stm32f4xx_hal_driver/Src/stm32f4xx_hal_rcc.c ****   else if((RCC->BDCR &RCC_BDCR_LSEON) == RCC_BDCR_LSEON)
1005:bsp/STMicroelectronics/stm32f413/stm32f4xx_hal_driver/Src/stm32f4xx_hal_rcc.c ****   {
1006:bsp/STMicroelectronics/stm32f413/stm32f4xx_hal_driver/Src/stm32f4xx_hal_rcc.c ****     RCC_OscInitStruct->LSEState = RCC_LSE_ON;
1007:bsp/STMicroelectronics/stm32f413/stm32f4xx_hal_driver/Src/stm32f4xx_hal_rcc.c ****   }
1008:bsp/STMicroelectronics/stm32f413/stm32f4xx_hal_driver/Src/stm32f4xx_hal_rcc.c ****   else
1009:bsp/STMicroelectronics/stm32f413/stm32f4xx_hal_driver/Src/stm32f4xx_hal_rcc.c ****   {
1010:bsp/STMicroelectronics/stm32f413/stm32f4xx_hal_driver/Src/stm32f4xx_hal_rcc.c ****     RCC_OscInitStruct->LSEState = RCC_LSE_OFF;
1011:bsp/STMicroelectronics/stm32f413/stm32f4xx_hal_driver/Src/stm32f4xx_hal_rcc.c ****   }
1012:bsp/STMicroelectronics/stm32f413/stm32f4xx_hal_driver/Src/stm32f4xx_hal_rcc.c **** 
1013:bsp/STMicroelectronics/stm32f413/stm32f4xx_hal_driver/Src/stm32f4xx_hal_rcc.c ****   /* Get the LSI configuration -----------------------------------------------*/
1014:bsp/STMicroelectronics/stm32f413/stm32f4xx_hal_driver/Src/stm32f4xx_hal_rcc.c ****   if((RCC->CSR &RCC_CSR_LSION) == RCC_CSR_LSION)
 1764              		.loc 1 1014 3 is_stmt 1 view .LVU528
 1765              		.loc 1 1014 10 is_stmt 0 view .LVU529
 1766 0038 234B     		ldr	r3, .L172
 1767 003a 5B6F     		ldr	r3, [r3, #116]
 1768              		.loc 1 1014 5 view .LVU530
 1769 003c 13F0010F 		tst	r3, #1
 1770 0040 3BD0     		beq	.L168
1015:bsp/STMicroelectronics/stm32f413/stm32f4xx_hal_driver/Src/stm32f4xx_hal_rcc.c ****   {
1016:bsp/STMicroelectronics/stm32f413/stm32f4xx_hal_driver/Src/stm32f4xx_hal_rcc.c ****     RCC_OscInitStruct->LSIState = RCC_LSI_ON;
 1771              		.loc 1 1016 5 is_stmt 1 view .LVU531
 1772              		.loc 1 1016 33 is_stmt 0 view .LVU532
 1773 0042 0123     		movs	r3, #1
 1774 0044 4361     		str	r3, [r0, #20]
 1775              	.L169:
ARM GAS  /tmp/ccUzmqNi.s 			page 54


1017:bsp/STMicroelectronics/stm32f413/stm32f4xx_hal_driver/Src/stm32f4xx_hal_rcc.c ****   }
1018:bsp/STMicroelectronics/stm32f413/stm32f4xx_hal_driver/Src/stm32f4xx_hal_rcc.c ****   else
1019:bsp/STMicroelectronics/stm32f413/stm32f4xx_hal_driver/Src/stm32f4xx_hal_rcc.c ****   {
1020:bsp/STMicroelectronics/stm32f413/stm32f4xx_hal_driver/Src/stm32f4xx_hal_rcc.c ****     RCC_OscInitStruct->LSIState = RCC_LSI_OFF;
1021:bsp/STMicroelectronics/stm32f413/stm32f4xx_hal_driver/Src/stm32f4xx_hal_rcc.c ****   }
1022:bsp/STMicroelectronics/stm32f413/stm32f4xx_hal_driver/Src/stm32f4xx_hal_rcc.c **** 
1023:bsp/STMicroelectronics/stm32f413/stm32f4xx_hal_driver/Src/stm32f4xx_hal_rcc.c ****   /* Get the PLL configuration -----------------------------------------------*/
1024:bsp/STMicroelectronics/stm32f413/stm32f4xx_hal_driver/Src/stm32f4xx_hal_rcc.c ****   if((RCC->CR &RCC_CR_PLLON) == RCC_CR_PLLON)
 1776              		.loc 1 1024 3 is_stmt 1 view .LVU533
 1777              		.loc 1 1024 10 is_stmt 0 view .LVU534
 1778 0046 204B     		ldr	r3, .L172
 1779 0048 1B68     		ldr	r3, [r3]
 1780              		.loc 1 1024 5 view .LVU535
 1781 004a 13F0807F 		tst	r3, #16777216
 1782 004e 37D0     		beq	.L170
1025:bsp/STMicroelectronics/stm32f413/stm32f4xx_hal_driver/Src/stm32f4xx_hal_rcc.c ****   {
1026:bsp/STMicroelectronics/stm32f413/stm32f4xx_hal_driver/Src/stm32f4xx_hal_rcc.c ****     RCC_OscInitStruct->PLL.PLLState = RCC_PLL_ON;
 1783              		.loc 1 1026 5 is_stmt 1 view .LVU536
 1784              		.loc 1 1026 37 is_stmt 0 view .LVU537
 1785 0050 0223     		movs	r3, #2
 1786 0052 8361     		str	r3, [r0, #24]
 1787              	.L171:
1027:bsp/STMicroelectronics/stm32f413/stm32f4xx_hal_driver/Src/stm32f4xx_hal_rcc.c ****   }
1028:bsp/STMicroelectronics/stm32f413/stm32f4xx_hal_driver/Src/stm32f4xx_hal_rcc.c ****   else
1029:bsp/STMicroelectronics/stm32f413/stm32f4xx_hal_driver/Src/stm32f4xx_hal_rcc.c ****   {
1030:bsp/STMicroelectronics/stm32f413/stm32f4xx_hal_driver/Src/stm32f4xx_hal_rcc.c ****     RCC_OscInitStruct->PLL.PLLState = RCC_PLL_OFF;
1031:bsp/STMicroelectronics/stm32f413/stm32f4xx_hal_driver/Src/stm32f4xx_hal_rcc.c ****   }
1032:bsp/STMicroelectronics/stm32f413/stm32f4xx_hal_driver/Src/stm32f4xx_hal_rcc.c ****   RCC_OscInitStruct->PLL.PLLSource = (uint32_t)(RCC->PLLCFGR & RCC_PLLCFGR_PLLSRC);
 1788              		.loc 1 1032 3 is_stmt 1 view .LVU538
 1789              		.loc 1 1032 52 is_stmt 0 view .LVU539
 1790 0054 1C4A     		ldr	r2, .L172
 1791 0056 5368     		ldr	r3, [r2, #4]
 1792              		.loc 1 1032 38 view .LVU540
 1793 0058 03F48003 		and	r3, r3, #4194304
 1794              		.loc 1 1032 36 view .LVU541
 1795 005c C361     		str	r3, [r0, #28]
1033:bsp/STMicroelectronics/stm32f413/stm32f4xx_hal_driver/Src/stm32f4xx_hal_rcc.c ****   RCC_OscInitStruct->PLL.PLLM = (uint32_t)(RCC->PLLCFGR & RCC_PLLCFGR_PLLM);
 1796              		.loc 1 1033 3 is_stmt 1 view .LVU542
 1797              		.loc 1 1033 47 is_stmt 0 view .LVU543
 1798 005e 5368     		ldr	r3, [r2, #4]
 1799              		.loc 1 1033 33 view .LVU544
 1800 0060 03F03F03 		and	r3, r3, #63
 1801              		.loc 1 1033 31 view .LVU545
 1802 0064 0362     		str	r3, [r0, #32]
1034:bsp/STMicroelectronics/stm32f413/stm32f4xx_hal_driver/Src/stm32f4xx_hal_rcc.c ****   RCC_OscInitStruct->PLL.PLLN = (uint32_t)((RCC->PLLCFGR & RCC_PLLCFGR_PLLN) >> RCC_PLLCFGR_PLLN_Po
 1803              		.loc 1 1034 3 is_stmt 1 view .LVU546
 1804              		.loc 1 1034 48 is_stmt 0 view .LVU547
 1805 0066 5368     		ldr	r3, [r2, #4]
 1806              		.loc 1 1034 33 view .LVU548
 1807 0068 C3F38813 		ubfx	r3, r3, #6, #9
 1808              		.loc 1 1034 31 view .LVU549
 1809 006c 4362     		str	r3, [r0, #36]
1035:bsp/STMicroelectronics/stm32f413/stm32f4xx_hal_driver/Src/stm32f4xx_hal_rcc.c ****   RCC_OscInitStruct->PLL.PLLP = (uint32_t)((((RCC->PLLCFGR & RCC_PLLCFGR_PLLP) + RCC_PLLCFGR_PLLP_0
 1810              		.loc 1 1035 3 is_stmt 1 view .LVU550
 1811              		.loc 1 1035 50 is_stmt 0 view .LVU551
 1812 006e 5368     		ldr	r3, [r2, #4]
 1813              		.loc 1 1035 60 view .LVU552
ARM GAS  /tmp/ccUzmqNi.s 			page 55


 1814 0070 03F44033 		and	r3, r3, #196608
 1815              		.loc 1 1035 80 view .LVU553
 1816 0074 03F58033 		add	r3, r3, #65536
 1817              		.loc 1 1035 33 view .LVU554
 1818 0078 DB0B     		lsrs	r3, r3, #15
 1819              		.loc 1 1035 31 view .LVU555
 1820 007a 8362     		str	r3, [r0, #40]
1036:bsp/STMicroelectronics/stm32f413/stm32f4xx_hal_driver/Src/stm32f4xx_hal_rcc.c ****   RCC_OscInitStruct->PLL.PLLQ = (uint32_t)((RCC->PLLCFGR & RCC_PLLCFGR_PLLQ) >> RCC_PLLCFGR_PLLQ_Po
 1821              		.loc 1 1036 3 is_stmt 1 view .LVU556
 1822              		.loc 1 1036 48 is_stmt 0 view .LVU557
 1823 007c 5368     		ldr	r3, [r2, #4]
 1824              		.loc 1 1036 33 view .LVU558
 1825 007e C3F30363 		ubfx	r3, r3, #24, #4
 1826              		.loc 1 1036 31 view .LVU559
 1827 0082 C362     		str	r3, [r0, #44]
1037:bsp/STMicroelectronics/stm32f413/stm32f4xx_hal_driver/Src/stm32f4xx_hal_rcc.c **** }
 1828              		.loc 1 1037 1 view .LVU560
 1829 0084 7047     		bx	lr
 1830              	.L160:
 978:bsp/STMicroelectronics/stm32f413/stm32f4xx_hal_driver/Src/stm32f4xx_hal_rcc.c ****   {
 1831              		.loc 1 978 8 is_stmt 1 view .LVU561
 978:bsp/STMicroelectronics/stm32f413/stm32f4xx_hal_driver/Src/stm32f4xx_hal_rcc.c ****   {
 1832              		.loc 1 978 15 is_stmt 0 view .LVU562
 1833 0086 104B     		ldr	r3, .L172
 1834 0088 1B68     		ldr	r3, [r3]
 978:bsp/STMicroelectronics/stm32f413/stm32f4xx_hal_driver/Src/stm32f4xx_hal_rcc.c ****   {
 1835              		.loc 1 978 10 view .LVU563
 1836 008a 13F4803F 		tst	r3, #65536
 1837 008e 03D0     		beq	.L162
 980:bsp/STMicroelectronics/stm32f413/stm32f4xx_hal_driver/Src/stm32f4xx_hal_rcc.c ****   }
 1838              		.loc 1 980 5 is_stmt 1 view .LVU564
 980:bsp/STMicroelectronics/stm32f413/stm32f4xx_hal_driver/Src/stm32f4xx_hal_rcc.c ****   }
 1839              		.loc 1 980 33 is_stmt 0 view .LVU565
 1840 0090 4FF48033 		mov	r3, #65536
 1841 0094 4360     		str	r3, [r0, #4]
 1842 0096 BDE7     		b	.L161
 1843              	.L162:
 984:bsp/STMicroelectronics/stm32f413/stm32f4xx_hal_driver/Src/stm32f4xx_hal_rcc.c ****   }
 1844              		.loc 1 984 5 is_stmt 1 view .LVU566
 984:bsp/STMicroelectronics/stm32f413/stm32f4xx_hal_driver/Src/stm32f4xx_hal_rcc.c ****   }
 1845              		.loc 1 984 33 is_stmt 0 view .LVU567
 1846 0098 0023     		movs	r3, #0
 1847 009a 4360     		str	r3, [r0, #4]
 1848 009c BAE7     		b	.L161
 1849              	.L163:
 994:bsp/STMicroelectronics/stm32f413/stm32f4xx_hal_driver/Src/stm32f4xx_hal_rcc.c ****   }
 1850              		.loc 1 994 5 is_stmt 1 view .LVU568
 994:bsp/STMicroelectronics/stm32f413/stm32f4xx_hal_driver/Src/stm32f4xx_hal_rcc.c ****   }
 1851              		.loc 1 994 33 is_stmt 0 view .LVU569
 1852 009e 0023     		movs	r3, #0
 1853 00a0 C360     		str	r3, [r0, #12]
 1854 00a2 BEE7     		b	.L164
 1855              	.L165:
1004:bsp/STMicroelectronics/stm32f413/stm32f4xx_hal_driver/Src/stm32f4xx_hal_rcc.c ****   {
 1856              		.loc 1 1004 8 is_stmt 1 view .LVU570
1004:bsp/STMicroelectronics/stm32f413/stm32f4xx_hal_driver/Src/stm32f4xx_hal_rcc.c ****   {
 1857              		.loc 1 1004 15 is_stmt 0 view .LVU571
ARM GAS  /tmp/ccUzmqNi.s 			page 56


 1858 00a4 084B     		ldr	r3, .L172
 1859 00a6 1B6F     		ldr	r3, [r3, #112]
1004:bsp/STMicroelectronics/stm32f413/stm32f4xx_hal_driver/Src/stm32f4xx_hal_rcc.c ****   {
 1860              		.loc 1 1004 10 view .LVU572
 1861 00a8 13F0010F 		tst	r3, #1
 1862 00ac 02D0     		beq	.L167
1006:bsp/STMicroelectronics/stm32f413/stm32f4xx_hal_driver/Src/stm32f4xx_hal_rcc.c ****   }
 1863              		.loc 1 1006 5 is_stmt 1 view .LVU573
1006:bsp/STMicroelectronics/stm32f413/stm32f4xx_hal_driver/Src/stm32f4xx_hal_rcc.c ****   }
 1864              		.loc 1 1006 33 is_stmt 0 view .LVU574
 1865 00ae 0123     		movs	r3, #1
 1866 00b0 8360     		str	r3, [r0, #8]
 1867 00b2 C1E7     		b	.L166
 1868              	.L167:
1010:bsp/STMicroelectronics/stm32f413/stm32f4xx_hal_driver/Src/stm32f4xx_hal_rcc.c ****   }
 1869              		.loc 1 1010 5 is_stmt 1 view .LVU575
1010:bsp/STMicroelectronics/stm32f413/stm32f4xx_hal_driver/Src/stm32f4xx_hal_rcc.c ****   }
 1870              		.loc 1 1010 33 is_stmt 0 view .LVU576
 1871 00b4 0023     		movs	r3, #0
 1872 00b6 8360     		str	r3, [r0, #8]
 1873 00b8 BEE7     		b	.L166
 1874              	.L168:
1020:bsp/STMicroelectronics/stm32f413/stm32f4xx_hal_driver/Src/stm32f4xx_hal_rcc.c ****   }
 1875              		.loc 1 1020 5 is_stmt 1 view .LVU577
1020:bsp/STMicroelectronics/stm32f413/stm32f4xx_hal_driver/Src/stm32f4xx_hal_rcc.c ****   }
 1876              		.loc 1 1020 33 is_stmt 0 view .LVU578
 1877 00ba 0023     		movs	r3, #0
 1878 00bc 4361     		str	r3, [r0, #20]
 1879 00be C2E7     		b	.L169
 1880              	.L170:
1030:bsp/STMicroelectronics/stm32f413/stm32f4xx_hal_driver/Src/stm32f4xx_hal_rcc.c ****   }
 1881              		.loc 1 1030 5 is_stmt 1 view .LVU579
1030:bsp/STMicroelectronics/stm32f413/stm32f4xx_hal_driver/Src/stm32f4xx_hal_rcc.c ****   }
 1882              		.loc 1 1030 37 is_stmt 0 view .LVU580
 1883 00c0 0123     		movs	r3, #1
 1884 00c2 8361     		str	r3, [r0, #24]
 1885 00c4 C6E7     		b	.L171
 1886              	.L173:
 1887 00c6 00BF     		.align	2
 1888              	.L172:
 1889 00c8 00380240 		.word	1073887232
 1890              		.cfi_endproc
 1891              	.LFE140:
 1893              		.section	.text.HAL_RCC_GetClockConfig,"ax",%progbits
 1894              		.align	1
 1895              		.global	HAL_RCC_GetClockConfig
 1896              		.syntax unified
 1897              		.thumb
 1898              		.thumb_func
 1899              		.fpu fpv4-sp-d16
 1901              	HAL_RCC_GetClockConfig:
 1902              	.LVL105:
 1903              	.LFB141:
1038:bsp/STMicroelectronics/stm32f413/stm32f4xx_hal_driver/Src/stm32f4xx_hal_rcc.c **** 
1039:bsp/STMicroelectronics/stm32f413/stm32f4xx_hal_driver/Src/stm32f4xx_hal_rcc.c **** /**
1040:bsp/STMicroelectronics/stm32f413/stm32f4xx_hal_driver/Src/stm32f4xx_hal_rcc.c ****   * @brief  Configures the RCC_ClkInitStruct according to the internal
1041:bsp/STMicroelectronics/stm32f413/stm32f4xx_hal_driver/Src/stm32f4xx_hal_rcc.c ****   * RCC configuration registers.
ARM GAS  /tmp/ccUzmqNi.s 			page 57


1042:bsp/STMicroelectronics/stm32f413/stm32f4xx_hal_driver/Src/stm32f4xx_hal_rcc.c ****   * @param  RCC_ClkInitStruct pointer to an RCC_ClkInitTypeDef structure that
1043:bsp/STMicroelectronics/stm32f413/stm32f4xx_hal_driver/Src/stm32f4xx_hal_rcc.c ****   * will be configured.
1044:bsp/STMicroelectronics/stm32f413/stm32f4xx_hal_driver/Src/stm32f4xx_hal_rcc.c ****   * @param  pFLatency Pointer on the Flash Latency.
1045:bsp/STMicroelectronics/stm32f413/stm32f4xx_hal_driver/Src/stm32f4xx_hal_rcc.c ****   * @retval None
1046:bsp/STMicroelectronics/stm32f413/stm32f4xx_hal_driver/Src/stm32f4xx_hal_rcc.c ****   */
1047:bsp/STMicroelectronics/stm32f413/stm32f4xx_hal_driver/Src/stm32f4xx_hal_rcc.c **** void HAL_RCC_GetClockConfig(RCC_ClkInitTypeDef  *RCC_ClkInitStruct, uint32_t *pFLatency)
1048:bsp/STMicroelectronics/stm32f413/stm32f4xx_hal_driver/Src/stm32f4xx_hal_rcc.c **** {
 1904              		.loc 1 1048 1 is_stmt 1 view -0
 1905              		.cfi_startproc
 1906              		@ args = 0, pretend = 0, frame = 0
 1907              		@ frame_needed = 0, uses_anonymous_args = 0
 1908              		@ link register save eliminated.
1049:bsp/STMicroelectronics/stm32f413/stm32f4xx_hal_driver/Src/stm32f4xx_hal_rcc.c ****   /* Set all possible values for the Clock type parameter --------------------*/
1050:bsp/STMicroelectronics/stm32f413/stm32f4xx_hal_driver/Src/stm32f4xx_hal_rcc.c ****   RCC_ClkInitStruct->ClockType = RCC_CLOCKTYPE_SYSCLK | RCC_CLOCKTYPE_HCLK | RCC_CLOCKTYPE_PCLK1 | 
 1909              		.loc 1 1050 3 view .LVU582
 1910              		.loc 1 1050 32 is_stmt 0 view .LVU583
 1911 0000 0F23     		movs	r3, #15
 1912 0002 0360     		str	r3, [r0]
1051:bsp/STMicroelectronics/stm32f413/stm32f4xx_hal_driver/Src/stm32f4xx_hal_rcc.c **** 
1052:bsp/STMicroelectronics/stm32f413/stm32f4xx_hal_driver/Src/stm32f4xx_hal_rcc.c ****   /* Get the SYSCLK configuration --------------------------------------------*/
1053:bsp/STMicroelectronics/stm32f413/stm32f4xx_hal_driver/Src/stm32f4xx_hal_rcc.c ****   RCC_ClkInitStruct->SYSCLKSource = (uint32_t)(RCC->CFGR & RCC_CFGR_SW);
 1913              		.loc 1 1053 3 is_stmt 1 view .LVU584
 1914              		.loc 1 1053 51 is_stmt 0 view .LVU585
 1915 0004 0B4B     		ldr	r3, .L175
 1916 0006 9A68     		ldr	r2, [r3, #8]
 1917              		.loc 1 1053 37 view .LVU586
 1918 0008 02F00302 		and	r2, r2, #3
 1919              		.loc 1 1053 35 view .LVU587
 1920 000c 4260     		str	r2, [r0, #4]
1054:bsp/STMicroelectronics/stm32f413/stm32f4xx_hal_driver/Src/stm32f4xx_hal_rcc.c **** 
1055:bsp/STMicroelectronics/stm32f413/stm32f4xx_hal_driver/Src/stm32f4xx_hal_rcc.c ****   /* Get the HCLK configuration ----------------------------------------------*/
1056:bsp/STMicroelectronics/stm32f413/stm32f4xx_hal_driver/Src/stm32f4xx_hal_rcc.c ****   RCC_ClkInitStruct->AHBCLKDivider = (uint32_t)(RCC->CFGR & RCC_CFGR_HPRE);
 1921              		.loc 1 1056 3 is_stmt 1 view .LVU588
 1922              		.loc 1 1056 52 is_stmt 0 view .LVU589
 1923 000e 9A68     		ldr	r2, [r3, #8]
 1924              		.loc 1 1056 38 view .LVU590
 1925 0010 02F0F002 		and	r2, r2, #240
 1926              		.loc 1 1056 36 view .LVU591
 1927 0014 8260     		str	r2, [r0, #8]
1057:bsp/STMicroelectronics/stm32f413/stm32f4xx_hal_driver/Src/stm32f4xx_hal_rcc.c **** 
1058:bsp/STMicroelectronics/stm32f413/stm32f4xx_hal_driver/Src/stm32f4xx_hal_rcc.c ****   /* Get the APB1 configuration ----------------------------------------------*/
1059:bsp/STMicroelectronics/stm32f413/stm32f4xx_hal_driver/Src/stm32f4xx_hal_rcc.c ****   RCC_ClkInitStruct->APB1CLKDivider = (uint32_t)(RCC->CFGR & RCC_CFGR_PPRE1);
 1928              		.loc 1 1059 3 is_stmt 1 view .LVU592
 1929              		.loc 1 1059 53 is_stmt 0 view .LVU593
 1930 0016 9A68     		ldr	r2, [r3, #8]
 1931              		.loc 1 1059 39 view .LVU594
 1932 0018 02F4E052 		and	r2, r2, #7168
 1933              		.loc 1 1059 37 view .LVU595
 1934 001c C260     		str	r2, [r0, #12]
1060:bsp/STMicroelectronics/stm32f413/stm32f4xx_hal_driver/Src/stm32f4xx_hal_rcc.c **** 
1061:bsp/STMicroelectronics/stm32f413/stm32f4xx_hal_driver/Src/stm32f4xx_hal_rcc.c ****   /* Get the APB2 configuration ----------------------------------------------*/
1062:bsp/STMicroelectronics/stm32f413/stm32f4xx_hal_driver/Src/stm32f4xx_hal_rcc.c ****   RCC_ClkInitStruct->APB2CLKDivider = (uint32_t)((RCC->CFGR & RCC_CFGR_PPRE2) >> 3U);
 1935              		.loc 1 1062 3 is_stmt 1 view .LVU596
 1936              		.loc 1 1062 54 is_stmt 0 view .LVU597
 1937 001e 9B68     		ldr	r3, [r3, #8]
 1938              		.loc 1 1062 39 view .LVU598
 1939 0020 DB08     		lsrs	r3, r3, #3
ARM GAS  /tmp/ccUzmqNi.s 			page 58


 1940 0022 03F4E053 		and	r3, r3, #7168
 1941              		.loc 1 1062 37 view .LVU599
 1942 0026 0361     		str	r3, [r0, #16]
1063:bsp/STMicroelectronics/stm32f413/stm32f4xx_hal_driver/Src/stm32f4xx_hal_rcc.c **** 
1064:bsp/STMicroelectronics/stm32f413/stm32f4xx_hal_driver/Src/stm32f4xx_hal_rcc.c ****   /* Get the Flash Wait State (Latency) configuration ------------------------*/
1065:bsp/STMicroelectronics/stm32f413/stm32f4xx_hal_driver/Src/stm32f4xx_hal_rcc.c ****   *pFLatency = (uint32_t)(FLASH->ACR & FLASH_ACR_LATENCY);
 1943              		.loc 1 1065 3 is_stmt 1 view .LVU600
 1944              		.loc 1 1065 32 is_stmt 0 view .LVU601
 1945 0028 034B     		ldr	r3, .L175+4
 1946 002a 1B68     		ldr	r3, [r3]
 1947              		.loc 1 1065 16 view .LVU602
 1948 002c 03F00F03 		and	r3, r3, #15
 1949              		.loc 1 1065 14 view .LVU603
 1950 0030 0B60     		str	r3, [r1]
1066:bsp/STMicroelectronics/stm32f413/stm32f4xx_hal_driver/Src/stm32f4xx_hal_rcc.c **** }
 1951              		.loc 1 1066 1 view .LVU604
 1952 0032 7047     		bx	lr
 1953              	.L176:
 1954              		.align	2
 1955              	.L175:
 1956 0034 00380240 		.word	1073887232
 1957 0038 003C0240 		.word	1073888256
 1958              		.cfi_endproc
 1959              	.LFE141:
 1961              		.section	.text.HAL_RCC_CSSCallback,"ax",%progbits
 1962              		.align	1
 1963              		.weak	HAL_RCC_CSSCallback
 1964              		.syntax unified
 1965              		.thumb
 1966              		.thumb_func
 1967              		.fpu fpv4-sp-d16
 1969              	HAL_RCC_CSSCallback:
 1970              	.LFB143:
1067:bsp/STMicroelectronics/stm32f413/stm32f4xx_hal_driver/Src/stm32f4xx_hal_rcc.c **** 
1068:bsp/STMicroelectronics/stm32f413/stm32f4xx_hal_driver/Src/stm32f4xx_hal_rcc.c **** /**
1069:bsp/STMicroelectronics/stm32f413/stm32f4xx_hal_driver/Src/stm32f4xx_hal_rcc.c ****   * @brief This function handles the RCC CSS interrupt request.
1070:bsp/STMicroelectronics/stm32f413/stm32f4xx_hal_driver/Src/stm32f4xx_hal_rcc.c ****   * @note This API should be called under the NMI_Handler().
1071:bsp/STMicroelectronics/stm32f413/stm32f4xx_hal_driver/Src/stm32f4xx_hal_rcc.c ****   * @retval None
1072:bsp/STMicroelectronics/stm32f413/stm32f4xx_hal_driver/Src/stm32f4xx_hal_rcc.c ****   */
1073:bsp/STMicroelectronics/stm32f413/stm32f4xx_hal_driver/Src/stm32f4xx_hal_rcc.c **** void HAL_RCC_NMI_IRQHandler(void)
1074:bsp/STMicroelectronics/stm32f413/stm32f4xx_hal_driver/Src/stm32f4xx_hal_rcc.c **** {
1075:bsp/STMicroelectronics/stm32f413/stm32f4xx_hal_driver/Src/stm32f4xx_hal_rcc.c ****   /* Check RCC CSSF flag  */
1076:bsp/STMicroelectronics/stm32f413/stm32f4xx_hal_driver/Src/stm32f4xx_hal_rcc.c ****   if(__HAL_RCC_GET_IT(RCC_IT_CSS))
1077:bsp/STMicroelectronics/stm32f413/stm32f4xx_hal_driver/Src/stm32f4xx_hal_rcc.c ****   {
1078:bsp/STMicroelectronics/stm32f413/stm32f4xx_hal_driver/Src/stm32f4xx_hal_rcc.c ****     /* RCC Clock Security System interrupt user callback */
1079:bsp/STMicroelectronics/stm32f413/stm32f4xx_hal_driver/Src/stm32f4xx_hal_rcc.c ****     HAL_RCC_CSSCallback();
1080:bsp/STMicroelectronics/stm32f413/stm32f4xx_hal_driver/Src/stm32f4xx_hal_rcc.c **** 
1081:bsp/STMicroelectronics/stm32f413/stm32f4xx_hal_driver/Src/stm32f4xx_hal_rcc.c ****     /* Clear RCC CSS pending bit */
1082:bsp/STMicroelectronics/stm32f413/stm32f4xx_hal_driver/Src/stm32f4xx_hal_rcc.c ****     __HAL_RCC_CLEAR_IT(RCC_IT_CSS);
1083:bsp/STMicroelectronics/stm32f413/stm32f4xx_hal_driver/Src/stm32f4xx_hal_rcc.c ****   }
1084:bsp/STMicroelectronics/stm32f413/stm32f4xx_hal_driver/Src/stm32f4xx_hal_rcc.c **** }
1085:bsp/STMicroelectronics/stm32f413/stm32f4xx_hal_driver/Src/stm32f4xx_hal_rcc.c **** 
1086:bsp/STMicroelectronics/stm32f413/stm32f4xx_hal_driver/Src/stm32f4xx_hal_rcc.c **** /**
1087:bsp/STMicroelectronics/stm32f413/stm32f4xx_hal_driver/Src/stm32f4xx_hal_rcc.c ****   * @brief  RCC Clock Security System interrupt callback
1088:bsp/STMicroelectronics/stm32f413/stm32f4xx_hal_driver/Src/stm32f4xx_hal_rcc.c ****   * @retval None
1089:bsp/STMicroelectronics/stm32f413/stm32f4xx_hal_driver/Src/stm32f4xx_hal_rcc.c ****   */
1090:bsp/STMicroelectronics/stm32f413/stm32f4xx_hal_driver/Src/stm32f4xx_hal_rcc.c **** __weak void HAL_RCC_CSSCallback(void)
ARM GAS  /tmp/ccUzmqNi.s 			page 59


1091:bsp/STMicroelectronics/stm32f413/stm32f4xx_hal_driver/Src/stm32f4xx_hal_rcc.c **** {
 1971              		.loc 1 1091 1 is_stmt 1 view -0
 1972              		.cfi_startproc
 1973              		@ args = 0, pretend = 0, frame = 0
 1974              		@ frame_needed = 0, uses_anonymous_args = 0
 1975              		@ link register save eliminated.
1092:bsp/STMicroelectronics/stm32f413/stm32f4xx_hal_driver/Src/stm32f4xx_hal_rcc.c ****   /* NOTE : This function Should not be modified, when the callback is needed,
1093:bsp/STMicroelectronics/stm32f413/stm32f4xx_hal_driver/Src/stm32f4xx_hal_rcc.c ****             the HAL_RCC_CSSCallback could be implemented in the user file
1094:bsp/STMicroelectronics/stm32f413/stm32f4xx_hal_driver/Src/stm32f4xx_hal_rcc.c ****    */
1095:bsp/STMicroelectronics/stm32f413/stm32f4xx_hal_driver/Src/stm32f4xx_hal_rcc.c **** }
 1976              		.loc 1 1095 1 view .LVU606
 1977 0000 7047     		bx	lr
 1978              		.cfi_endproc
 1979              	.LFE143:
 1981              		.section	.text.HAL_RCC_NMI_IRQHandler,"ax",%progbits
 1982              		.align	1
 1983              		.global	HAL_RCC_NMI_IRQHandler
 1984              		.syntax unified
 1985              		.thumb
 1986              		.thumb_func
 1987              		.fpu fpv4-sp-d16
 1989              	HAL_RCC_NMI_IRQHandler:
 1990              	.LFB142:
1074:bsp/STMicroelectronics/stm32f413/stm32f4xx_hal_driver/Src/stm32f4xx_hal_rcc.c ****   /* Check RCC CSSF flag  */
 1991              		.loc 1 1074 1 view -0
 1992              		.cfi_startproc
 1993              		@ args = 0, pretend = 0, frame = 0
 1994              		@ frame_needed = 0, uses_anonymous_args = 0
 1995 0000 08B5     		push	{r3, lr}
 1996              	.LCFI16:
 1997              		.cfi_def_cfa_offset 8
 1998              		.cfi_offset 3, -8
 1999              		.cfi_offset 14, -4
1076:bsp/STMicroelectronics/stm32f413/stm32f4xx_hal_driver/Src/stm32f4xx_hal_rcc.c ****   {
 2000              		.loc 1 1076 3 view .LVU608
1076:bsp/STMicroelectronics/stm32f413/stm32f4xx_hal_driver/Src/stm32f4xx_hal_rcc.c ****   {
 2001              		.loc 1 1076 6 is_stmt 0 view .LVU609
 2002 0002 064B     		ldr	r3, .L182
 2003 0004 DB68     		ldr	r3, [r3, #12]
1076:bsp/STMicroelectronics/stm32f413/stm32f4xx_hal_driver/Src/stm32f4xx_hal_rcc.c ****   {
 2004              		.loc 1 1076 5 view .LVU610
 2005 0006 13F0800F 		tst	r3, #128
 2006 000a 00D1     		bne	.L181
 2007              	.L178:
1084:bsp/STMicroelectronics/stm32f413/stm32f4xx_hal_driver/Src/stm32f4xx_hal_rcc.c **** 
 2008              		.loc 1 1084 1 view .LVU611
 2009 000c 08BD     		pop	{r3, pc}
 2010              	.L181:
1079:bsp/STMicroelectronics/stm32f413/stm32f4xx_hal_driver/Src/stm32f4xx_hal_rcc.c **** 
 2011              		.loc 1 1079 5 is_stmt 1 view .LVU612
 2012 000e FFF7FEFF 		bl	HAL_RCC_CSSCallback
 2013              	.LVL106:
1082:bsp/STMicroelectronics/stm32f413/stm32f4xx_hal_driver/Src/stm32f4xx_hal_rcc.c ****   }
 2014              		.loc 1 1082 5 view .LVU613
 2015 0012 034B     		ldr	r3, .L182+4
 2016 0014 8022     		movs	r2, #128
 2017 0016 1A70     		strb	r2, [r3]
ARM GAS  /tmp/ccUzmqNi.s 			page 60


1084:bsp/STMicroelectronics/stm32f413/stm32f4xx_hal_driver/Src/stm32f4xx_hal_rcc.c **** 
 2018              		.loc 1 1084 1 is_stmt 0 view .LVU614
 2019 0018 F8E7     		b	.L178
 2020              	.L183:
 2021 001a 00BF     		.align	2
 2022              	.L182:
 2023 001c 00380240 		.word	1073887232
 2024 0020 0E380240 		.word	1073887246
 2025              		.cfi_endproc
 2026              	.LFE142:
 2028              		.text
 2029              	.Letext0:
 2030              		.file 2 "/home/sijin/Git/ARM-Toolchain-Setup/gcc-arm-none-eabi/arm-none-eabi/include/machine/_defa
 2031              		.file 3 "/home/sijin/Git/ARM-Toolchain-Setup/gcc-arm-none-eabi/arm-none-eabi/include/sys/_stdint.h
 2032              		.file 4 "cmsis/Include/core_cm4.h"
 2033              		.file 5 "cmsis/Device/ST/Include/system_stm32f4xx.h"
 2034              		.file 6 "cmsis/Device/ST/Include/stm32f413xx.h"
 2035              		.file 7 "cmsis/Device/ST/Include/stm32f4xx.h"
