ARM GAS  /tmp/ccE8aqdh.s 			page 1


   1              		.cpu cortex-m4
   2              		.eabi_attribute 27, 1
   3              		.eabi_attribute 28, 1
   4              		.eabi_attribute 20, 1
   5              		.eabi_attribute 21, 1
   6              		.eabi_attribute 23, 3
   7              		.eabi_attribute 24, 1
   8              		.eabi_attribute 25, 1
   9              		.eabi_attribute 26, 1
  10              		.eabi_attribute 30, 1
  11              		.eabi_attribute 34, 1
  12              		.eabi_attribute 18, 4
  13              		.file	"stm32f4xx_hal_gpio.c"
  14              		.text
  15              	.Ltext0:
  16              		.cfi_sections	.debug_frame
  17              		.section	.text.HAL_GPIO_Init,"ax",%progbits
  18              		.align	1
  19              		.global	HAL_GPIO_Init
  20              		.arch armv7e-m
  21              		.syntax unified
  22              		.thumb
  23              		.thumb_func
  24              		.fpu fpv4-sp-d16
  26              	HAL_GPIO_Init:
  27              	.LVL0:
  28              	.LFB130:
  29              		.file 1 "bsp/STMicroelectronics/stm32f413/stm32f4xx_hal_driver/Src/stm32f4xx_hal_gpio.c"
   1:bsp/STMicroelectronics/stm32f413/stm32f4xx_hal_driver/Src/stm32f4xx_hal_gpio.c **** /**
   2:bsp/STMicroelectronics/stm32f413/stm32f4xx_hal_driver/Src/stm32f4xx_hal_gpio.c ****   ******************************************************************************
   3:bsp/STMicroelectronics/stm32f413/stm32f4xx_hal_driver/Src/stm32f4xx_hal_gpio.c ****   * @file    stm32f4xx_hal_gpio.c
   4:bsp/STMicroelectronics/stm32f413/stm32f4xx_hal_driver/Src/stm32f4xx_hal_gpio.c ****   * @author  MCD Application Team
   5:bsp/STMicroelectronics/stm32f413/stm32f4xx_hal_driver/Src/stm32f4xx_hal_gpio.c ****   * @brief   GPIO HAL module driver.
   6:bsp/STMicroelectronics/stm32f413/stm32f4xx_hal_driver/Src/stm32f4xx_hal_gpio.c ****   *          This file provides firmware functions to manage the following 
   7:bsp/STMicroelectronics/stm32f413/stm32f4xx_hal_driver/Src/stm32f4xx_hal_gpio.c ****   *          functionalities of the General Purpose Input/Output (GPIO) peripheral:
   8:bsp/STMicroelectronics/stm32f413/stm32f4xx_hal_driver/Src/stm32f4xx_hal_gpio.c ****   *           + Initialization and de-initialization functions
   9:bsp/STMicroelectronics/stm32f413/stm32f4xx_hal_driver/Src/stm32f4xx_hal_gpio.c ****   *           + IO operation functions
  10:bsp/STMicroelectronics/stm32f413/stm32f4xx_hal_driver/Src/stm32f4xx_hal_gpio.c ****   *
  11:bsp/STMicroelectronics/stm32f413/stm32f4xx_hal_driver/Src/stm32f4xx_hal_gpio.c ****   @verbatim
  12:bsp/STMicroelectronics/stm32f413/stm32f4xx_hal_driver/Src/stm32f4xx_hal_gpio.c ****   ==============================================================================
  13:bsp/STMicroelectronics/stm32f413/stm32f4xx_hal_driver/Src/stm32f4xx_hal_gpio.c ****                     ##### GPIO Peripheral features #####
  14:bsp/STMicroelectronics/stm32f413/stm32f4xx_hal_driver/Src/stm32f4xx_hal_gpio.c ****   ==============================================================================
  15:bsp/STMicroelectronics/stm32f413/stm32f4xx_hal_driver/Src/stm32f4xx_hal_gpio.c ****   [..] 
  16:bsp/STMicroelectronics/stm32f413/stm32f4xx_hal_driver/Src/stm32f4xx_hal_gpio.c ****   Subject to the specific hardware characteristics of each I/O port listed in the datasheet, each
  17:bsp/STMicroelectronics/stm32f413/stm32f4xx_hal_driver/Src/stm32f4xx_hal_gpio.c ****   port bit of the General Purpose IO (GPIO) Ports, can be individually configured by software
  18:bsp/STMicroelectronics/stm32f413/stm32f4xx_hal_driver/Src/stm32f4xx_hal_gpio.c ****   in several modes:
  19:bsp/STMicroelectronics/stm32f413/stm32f4xx_hal_driver/Src/stm32f4xx_hal_gpio.c ****   (+) Input mode 
  20:bsp/STMicroelectronics/stm32f413/stm32f4xx_hal_driver/Src/stm32f4xx_hal_gpio.c ****   (+) Analog mode
  21:bsp/STMicroelectronics/stm32f413/stm32f4xx_hal_driver/Src/stm32f4xx_hal_gpio.c ****   (+) Output mode
  22:bsp/STMicroelectronics/stm32f413/stm32f4xx_hal_driver/Src/stm32f4xx_hal_gpio.c ****   (+) Alternate function mode
  23:bsp/STMicroelectronics/stm32f413/stm32f4xx_hal_driver/Src/stm32f4xx_hal_gpio.c ****   (+) External interrupt/event lines
  24:bsp/STMicroelectronics/stm32f413/stm32f4xx_hal_driver/Src/stm32f4xx_hal_gpio.c **** 
  25:bsp/STMicroelectronics/stm32f413/stm32f4xx_hal_driver/Src/stm32f4xx_hal_gpio.c ****   [..]  
  26:bsp/STMicroelectronics/stm32f413/stm32f4xx_hal_driver/Src/stm32f4xx_hal_gpio.c ****   During and just after reset, the alternate functions and external interrupt  
  27:bsp/STMicroelectronics/stm32f413/stm32f4xx_hal_driver/Src/stm32f4xx_hal_gpio.c ****   lines are not active and the I/O ports are configured in input floating mode.
  28:bsp/STMicroelectronics/stm32f413/stm32f4xx_hal_driver/Src/stm32f4xx_hal_gpio.c ****   
  29:bsp/STMicroelectronics/stm32f413/stm32f4xx_hal_driver/Src/stm32f4xx_hal_gpio.c ****   [..]   
ARM GAS  /tmp/ccE8aqdh.s 			page 2


  30:bsp/STMicroelectronics/stm32f413/stm32f4xx_hal_driver/Src/stm32f4xx_hal_gpio.c ****   All GPIO pins have weak internal pull-up and pull-down resistors, which can be 
  31:bsp/STMicroelectronics/stm32f413/stm32f4xx_hal_driver/Src/stm32f4xx_hal_gpio.c ****   activated or not.
  32:bsp/STMicroelectronics/stm32f413/stm32f4xx_hal_driver/Src/stm32f4xx_hal_gpio.c **** 
  33:bsp/STMicroelectronics/stm32f413/stm32f4xx_hal_driver/Src/stm32f4xx_hal_gpio.c ****   [..]
  34:bsp/STMicroelectronics/stm32f413/stm32f4xx_hal_driver/Src/stm32f4xx_hal_gpio.c ****   In Output or Alternate mode, each IO can be configured on open-drain or push-pull
  35:bsp/STMicroelectronics/stm32f413/stm32f4xx_hal_driver/Src/stm32f4xx_hal_gpio.c ****   type and the IO speed can be selected depending on the VDD value.
  36:bsp/STMicroelectronics/stm32f413/stm32f4xx_hal_driver/Src/stm32f4xx_hal_gpio.c **** 
  37:bsp/STMicroelectronics/stm32f413/stm32f4xx_hal_driver/Src/stm32f4xx_hal_gpio.c ****   [..]  
  38:bsp/STMicroelectronics/stm32f413/stm32f4xx_hal_driver/Src/stm32f4xx_hal_gpio.c ****   All ports have external interrupt/event capability. To use external interrupt 
  39:bsp/STMicroelectronics/stm32f413/stm32f4xx_hal_driver/Src/stm32f4xx_hal_gpio.c ****   lines, the port must be configured in input mode. All available GPIO pins are 
  40:bsp/STMicroelectronics/stm32f413/stm32f4xx_hal_driver/Src/stm32f4xx_hal_gpio.c ****   connected to the 16 external interrupt/event lines from EXTI0 to EXTI15.
  41:bsp/STMicroelectronics/stm32f413/stm32f4xx_hal_driver/Src/stm32f4xx_hal_gpio.c ****   
  42:bsp/STMicroelectronics/stm32f413/stm32f4xx_hal_driver/Src/stm32f4xx_hal_gpio.c ****   [..]
  43:bsp/STMicroelectronics/stm32f413/stm32f4xx_hal_driver/Src/stm32f4xx_hal_gpio.c ****   The external interrupt/event controller consists of up to 23 edge detectors 
  44:bsp/STMicroelectronics/stm32f413/stm32f4xx_hal_driver/Src/stm32f4xx_hal_gpio.c ****   (16 lines are connected to GPIO) for generating event/interrupt requests (each 
  45:bsp/STMicroelectronics/stm32f413/stm32f4xx_hal_driver/Src/stm32f4xx_hal_gpio.c ****   input line can be independently configured to select the type (interrupt or event) 
  46:bsp/STMicroelectronics/stm32f413/stm32f4xx_hal_driver/Src/stm32f4xx_hal_gpio.c ****   and the corresponding trigger event (rising or falling or both). Each line can 
  47:bsp/STMicroelectronics/stm32f413/stm32f4xx_hal_driver/Src/stm32f4xx_hal_gpio.c ****   also be masked independently. 
  48:bsp/STMicroelectronics/stm32f413/stm32f4xx_hal_driver/Src/stm32f4xx_hal_gpio.c **** 
  49:bsp/STMicroelectronics/stm32f413/stm32f4xx_hal_driver/Src/stm32f4xx_hal_gpio.c ****                      ##### How to use this driver #####
  50:bsp/STMicroelectronics/stm32f413/stm32f4xx_hal_driver/Src/stm32f4xx_hal_gpio.c ****   ==============================================================================  
  51:bsp/STMicroelectronics/stm32f413/stm32f4xx_hal_driver/Src/stm32f4xx_hal_gpio.c ****   [..]
  52:bsp/STMicroelectronics/stm32f413/stm32f4xx_hal_driver/Src/stm32f4xx_hal_gpio.c ****     (#) Enable the GPIO AHB clock using the following function: __HAL_RCC_GPIOx_CLK_ENABLE(). 
  53:bsp/STMicroelectronics/stm32f413/stm32f4xx_hal_driver/Src/stm32f4xx_hal_gpio.c **** 
  54:bsp/STMicroelectronics/stm32f413/stm32f4xx_hal_driver/Src/stm32f4xx_hal_gpio.c ****     (#) Configure the GPIO pin(s) using HAL_GPIO_Init().
  55:bsp/STMicroelectronics/stm32f413/stm32f4xx_hal_driver/Src/stm32f4xx_hal_gpio.c ****         (++) Configure the IO mode using "Mode" member from GPIO_InitTypeDef structure
  56:bsp/STMicroelectronics/stm32f413/stm32f4xx_hal_driver/Src/stm32f4xx_hal_gpio.c ****         (++) Activate Pull-up, Pull-down resistor using "Pull" member from GPIO_InitTypeDef 
  57:bsp/STMicroelectronics/stm32f413/stm32f4xx_hal_driver/Src/stm32f4xx_hal_gpio.c ****              structure.
  58:bsp/STMicroelectronics/stm32f413/stm32f4xx_hal_driver/Src/stm32f4xx_hal_gpio.c ****         (++) In case of Output or alternate function mode selection: the speed is 
  59:bsp/STMicroelectronics/stm32f413/stm32f4xx_hal_driver/Src/stm32f4xx_hal_gpio.c ****              configured through "Speed" member from GPIO_InitTypeDef structure.
  60:bsp/STMicroelectronics/stm32f413/stm32f4xx_hal_driver/Src/stm32f4xx_hal_gpio.c ****         (++) In alternate mode is selection, the alternate function connected to the IO
  61:bsp/STMicroelectronics/stm32f413/stm32f4xx_hal_driver/Src/stm32f4xx_hal_gpio.c ****              is configured through "Alternate" member from GPIO_InitTypeDef structure.
  62:bsp/STMicroelectronics/stm32f413/stm32f4xx_hal_driver/Src/stm32f4xx_hal_gpio.c ****         (++) Analog mode is required when a pin is to be used as ADC channel 
  63:bsp/STMicroelectronics/stm32f413/stm32f4xx_hal_driver/Src/stm32f4xx_hal_gpio.c ****              or DAC output.
  64:bsp/STMicroelectronics/stm32f413/stm32f4xx_hal_driver/Src/stm32f4xx_hal_gpio.c ****         (++) In case of external interrupt/event selection the "Mode" member from 
  65:bsp/STMicroelectronics/stm32f413/stm32f4xx_hal_driver/Src/stm32f4xx_hal_gpio.c ****              GPIO_InitTypeDef structure select the type (interrupt or event) and 
  66:bsp/STMicroelectronics/stm32f413/stm32f4xx_hal_driver/Src/stm32f4xx_hal_gpio.c ****              the corresponding trigger event (rising or falling or both).
  67:bsp/STMicroelectronics/stm32f413/stm32f4xx_hal_driver/Src/stm32f4xx_hal_gpio.c **** 
  68:bsp/STMicroelectronics/stm32f413/stm32f4xx_hal_driver/Src/stm32f4xx_hal_gpio.c ****     (#) In case of external interrupt/event mode selection, configure NVIC IRQ priority 
  69:bsp/STMicroelectronics/stm32f413/stm32f4xx_hal_driver/Src/stm32f4xx_hal_gpio.c ****         mapped to the EXTI line using HAL_NVIC_SetPriority() and enable it using
  70:bsp/STMicroelectronics/stm32f413/stm32f4xx_hal_driver/Src/stm32f4xx_hal_gpio.c ****         HAL_NVIC_EnableIRQ().
  71:bsp/STMicroelectronics/stm32f413/stm32f4xx_hal_driver/Src/stm32f4xx_hal_gpio.c ****          
  72:bsp/STMicroelectronics/stm32f413/stm32f4xx_hal_driver/Src/stm32f4xx_hal_gpio.c ****     (#) To get the level of a pin configured in input mode use HAL_GPIO_ReadPin().
  73:bsp/STMicroelectronics/stm32f413/stm32f4xx_hal_driver/Src/stm32f4xx_hal_gpio.c ****             
  74:bsp/STMicroelectronics/stm32f413/stm32f4xx_hal_driver/Src/stm32f4xx_hal_gpio.c ****     (#) To set/reset the level of a pin configured in output mode use 
  75:bsp/STMicroelectronics/stm32f413/stm32f4xx_hal_driver/Src/stm32f4xx_hal_gpio.c ****         HAL_GPIO_WritePin()/HAL_GPIO_TogglePin().
  76:bsp/STMicroelectronics/stm32f413/stm32f4xx_hal_driver/Src/stm32f4xx_hal_gpio.c ****     
  77:bsp/STMicroelectronics/stm32f413/stm32f4xx_hal_driver/Src/stm32f4xx_hal_gpio.c ****     (#) To lock pin configuration until next reset use HAL_GPIO_LockPin().
  78:bsp/STMicroelectronics/stm32f413/stm32f4xx_hal_driver/Src/stm32f4xx_hal_gpio.c **** 
  79:bsp/STMicroelectronics/stm32f413/stm32f4xx_hal_driver/Src/stm32f4xx_hal_gpio.c ****                  
  80:bsp/STMicroelectronics/stm32f413/stm32f4xx_hal_driver/Src/stm32f4xx_hal_gpio.c ****     (#) During and just after reset, the alternate functions are not 
  81:bsp/STMicroelectronics/stm32f413/stm32f4xx_hal_driver/Src/stm32f4xx_hal_gpio.c ****         active and the GPIO pins are configured in input floating mode (except JTAG
  82:bsp/STMicroelectronics/stm32f413/stm32f4xx_hal_driver/Src/stm32f4xx_hal_gpio.c ****         pins).
  83:bsp/STMicroelectronics/stm32f413/stm32f4xx_hal_driver/Src/stm32f4xx_hal_gpio.c ****   
  84:bsp/STMicroelectronics/stm32f413/stm32f4xx_hal_driver/Src/stm32f4xx_hal_gpio.c ****     (#) The LSE oscillator pins OSC32_IN and OSC32_OUT can be used as general purpose 
  85:bsp/STMicroelectronics/stm32f413/stm32f4xx_hal_driver/Src/stm32f4xx_hal_gpio.c ****         (PC14 and PC15, respectively) when the LSE oscillator is off. The LSE has 
  86:bsp/STMicroelectronics/stm32f413/stm32f4xx_hal_driver/Src/stm32f4xx_hal_gpio.c ****         priority over the GPIO function.
ARM GAS  /tmp/ccE8aqdh.s 			page 3


  87:bsp/STMicroelectronics/stm32f413/stm32f4xx_hal_driver/Src/stm32f4xx_hal_gpio.c ****   
  88:bsp/STMicroelectronics/stm32f413/stm32f4xx_hal_driver/Src/stm32f4xx_hal_gpio.c ****     (#) The HSE oscillator pins OSC_IN/OSC_OUT can be used as 
  89:bsp/STMicroelectronics/stm32f413/stm32f4xx_hal_driver/Src/stm32f4xx_hal_gpio.c ****         general purpose PH0 and PH1, respectively, when the HSE oscillator is off. 
  90:bsp/STMicroelectronics/stm32f413/stm32f4xx_hal_driver/Src/stm32f4xx_hal_gpio.c ****         The HSE has priority over the GPIO function.
  91:bsp/STMicroelectronics/stm32f413/stm32f4xx_hal_driver/Src/stm32f4xx_hal_gpio.c ****   
  92:bsp/STMicroelectronics/stm32f413/stm32f4xx_hal_driver/Src/stm32f4xx_hal_gpio.c ****   @endverbatim
  93:bsp/STMicroelectronics/stm32f413/stm32f4xx_hal_driver/Src/stm32f4xx_hal_gpio.c ****   ******************************************************************************
  94:bsp/STMicroelectronics/stm32f413/stm32f4xx_hal_driver/Src/stm32f4xx_hal_gpio.c ****   * @attention
  95:bsp/STMicroelectronics/stm32f413/stm32f4xx_hal_driver/Src/stm32f4xx_hal_gpio.c ****   *
  96:bsp/STMicroelectronics/stm32f413/stm32f4xx_hal_driver/Src/stm32f4xx_hal_gpio.c ****   * <h2><center>&copy; Copyright (c) 2017 STMicroelectronics.
  97:bsp/STMicroelectronics/stm32f413/stm32f4xx_hal_driver/Src/stm32f4xx_hal_gpio.c ****   * All rights reserved.</center></h2>
  98:bsp/STMicroelectronics/stm32f413/stm32f4xx_hal_driver/Src/stm32f4xx_hal_gpio.c ****   *
  99:bsp/STMicroelectronics/stm32f413/stm32f4xx_hal_driver/Src/stm32f4xx_hal_gpio.c ****   * This software component is licensed by ST under BSD 3-Clause license,
 100:bsp/STMicroelectronics/stm32f413/stm32f4xx_hal_driver/Src/stm32f4xx_hal_gpio.c ****   * the "License"; You may not use this file except in compliance with the
 101:bsp/STMicroelectronics/stm32f413/stm32f4xx_hal_driver/Src/stm32f4xx_hal_gpio.c ****   * License. You may obtain a copy of the License at:
 102:bsp/STMicroelectronics/stm32f413/stm32f4xx_hal_driver/Src/stm32f4xx_hal_gpio.c ****   *                        opensource.org/licenses/BSD-3-Clause
 103:bsp/STMicroelectronics/stm32f413/stm32f4xx_hal_driver/Src/stm32f4xx_hal_gpio.c ****   *
 104:bsp/STMicroelectronics/stm32f413/stm32f4xx_hal_driver/Src/stm32f4xx_hal_gpio.c ****   ******************************************************************************
 105:bsp/STMicroelectronics/stm32f413/stm32f4xx_hal_driver/Src/stm32f4xx_hal_gpio.c ****   */ 
 106:bsp/STMicroelectronics/stm32f413/stm32f4xx_hal_driver/Src/stm32f4xx_hal_gpio.c **** 
 107:bsp/STMicroelectronics/stm32f413/stm32f4xx_hal_driver/Src/stm32f4xx_hal_gpio.c **** /* Includes ------------------------------------------------------------------*/
 108:bsp/STMicroelectronics/stm32f413/stm32f4xx_hal_driver/Src/stm32f4xx_hal_gpio.c **** #include "stm32f4xx_hal.h"
 109:bsp/STMicroelectronics/stm32f413/stm32f4xx_hal_driver/Src/stm32f4xx_hal_gpio.c **** 
 110:bsp/STMicroelectronics/stm32f413/stm32f4xx_hal_driver/Src/stm32f4xx_hal_gpio.c **** /** @addtogroup STM32F4xx_HAL_Driver
 111:bsp/STMicroelectronics/stm32f413/stm32f4xx_hal_driver/Src/stm32f4xx_hal_gpio.c ****   * @{
 112:bsp/STMicroelectronics/stm32f413/stm32f4xx_hal_driver/Src/stm32f4xx_hal_gpio.c ****   */
 113:bsp/STMicroelectronics/stm32f413/stm32f4xx_hal_driver/Src/stm32f4xx_hal_gpio.c **** 
 114:bsp/STMicroelectronics/stm32f413/stm32f4xx_hal_driver/Src/stm32f4xx_hal_gpio.c **** /** @defgroup GPIO GPIO
 115:bsp/STMicroelectronics/stm32f413/stm32f4xx_hal_driver/Src/stm32f4xx_hal_gpio.c ****   * @brief GPIO HAL module driver
 116:bsp/STMicroelectronics/stm32f413/stm32f4xx_hal_driver/Src/stm32f4xx_hal_gpio.c ****   * @{
 117:bsp/STMicroelectronics/stm32f413/stm32f4xx_hal_driver/Src/stm32f4xx_hal_gpio.c ****   */
 118:bsp/STMicroelectronics/stm32f413/stm32f4xx_hal_driver/Src/stm32f4xx_hal_gpio.c **** 
 119:bsp/STMicroelectronics/stm32f413/stm32f4xx_hal_driver/Src/stm32f4xx_hal_gpio.c **** #ifdef HAL_GPIO_MODULE_ENABLED
 120:bsp/STMicroelectronics/stm32f413/stm32f4xx_hal_driver/Src/stm32f4xx_hal_gpio.c **** 
 121:bsp/STMicroelectronics/stm32f413/stm32f4xx_hal_driver/Src/stm32f4xx_hal_gpio.c **** /* Private typedef -----------------------------------------------------------*/
 122:bsp/STMicroelectronics/stm32f413/stm32f4xx_hal_driver/Src/stm32f4xx_hal_gpio.c **** /* Private define ------------------------------------------------------------*/
 123:bsp/STMicroelectronics/stm32f413/stm32f4xx_hal_driver/Src/stm32f4xx_hal_gpio.c **** /** @addtogroup GPIO_Private_Constants GPIO Private Constants
 124:bsp/STMicroelectronics/stm32f413/stm32f4xx_hal_driver/Src/stm32f4xx_hal_gpio.c ****   * @{
 125:bsp/STMicroelectronics/stm32f413/stm32f4xx_hal_driver/Src/stm32f4xx_hal_gpio.c ****   */
 126:bsp/STMicroelectronics/stm32f413/stm32f4xx_hal_driver/Src/stm32f4xx_hal_gpio.c **** #define GPIO_MODE             0x00000003U
 127:bsp/STMicroelectronics/stm32f413/stm32f4xx_hal_driver/Src/stm32f4xx_hal_gpio.c **** #define EXTI_MODE             0x10000000U
 128:bsp/STMicroelectronics/stm32f413/stm32f4xx_hal_driver/Src/stm32f4xx_hal_gpio.c **** #define GPIO_MODE_IT          0x00010000U
 129:bsp/STMicroelectronics/stm32f413/stm32f4xx_hal_driver/Src/stm32f4xx_hal_gpio.c **** #define GPIO_MODE_EVT         0x00020000U
 130:bsp/STMicroelectronics/stm32f413/stm32f4xx_hal_driver/Src/stm32f4xx_hal_gpio.c **** #define RISING_EDGE           0x00100000U
 131:bsp/STMicroelectronics/stm32f413/stm32f4xx_hal_driver/Src/stm32f4xx_hal_gpio.c **** #define FALLING_EDGE          0x00200000U
 132:bsp/STMicroelectronics/stm32f413/stm32f4xx_hal_driver/Src/stm32f4xx_hal_gpio.c **** #define GPIO_OUTPUT_TYPE      0x00000010U
 133:bsp/STMicroelectronics/stm32f413/stm32f4xx_hal_driver/Src/stm32f4xx_hal_gpio.c **** 
 134:bsp/STMicroelectronics/stm32f413/stm32f4xx_hal_driver/Src/stm32f4xx_hal_gpio.c **** #define GPIO_NUMBER           16U
 135:bsp/STMicroelectronics/stm32f413/stm32f4xx_hal_driver/Src/stm32f4xx_hal_gpio.c **** /**
 136:bsp/STMicroelectronics/stm32f413/stm32f4xx_hal_driver/Src/stm32f4xx_hal_gpio.c ****   * @}
 137:bsp/STMicroelectronics/stm32f413/stm32f4xx_hal_driver/Src/stm32f4xx_hal_gpio.c ****   */
 138:bsp/STMicroelectronics/stm32f413/stm32f4xx_hal_driver/Src/stm32f4xx_hal_gpio.c **** /* Private macro -------------------------------------------------------------*/
 139:bsp/STMicroelectronics/stm32f413/stm32f4xx_hal_driver/Src/stm32f4xx_hal_gpio.c **** /* Private variables ---------------------------------------------------------*/
 140:bsp/STMicroelectronics/stm32f413/stm32f4xx_hal_driver/Src/stm32f4xx_hal_gpio.c **** /* Private function prototypes -----------------------------------------------*/
 141:bsp/STMicroelectronics/stm32f413/stm32f4xx_hal_driver/Src/stm32f4xx_hal_gpio.c **** /* Private functions ---------------------------------------------------------*/
 142:bsp/STMicroelectronics/stm32f413/stm32f4xx_hal_driver/Src/stm32f4xx_hal_gpio.c **** /* Exported functions --------------------------------------------------------*/
 143:bsp/STMicroelectronics/stm32f413/stm32f4xx_hal_driver/Src/stm32f4xx_hal_gpio.c **** /** @defgroup GPIO_Exported_Functions GPIO Exported Functions
ARM GAS  /tmp/ccE8aqdh.s 			page 4


 144:bsp/STMicroelectronics/stm32f413/stm32f4xx_hal_driver/Src/stm32f4xx_hal_gpio.c ****   * @{
 145:bsp/STMicroelectronics/stm32f413/stm32f4xx_hal_driver/Src/stm32f4xx_hal_gpio.c ****   */
 146:bsp/STMicroelectronics/stm32f413/stm32f4xx_hal_driver/Src/stm32f4xx_hal_gpio.c **** 
 147:bsp/STMicroelectronics/stm32f413/stm32f4xx_hal_driver/Src/stm32f4xx_hal_gpio.c **** /** @defgroup GPIO_Exported_Functions_Group1 Initialization and de-initialization functions
 148:bsp/STMicroelectronics/stm32f413/stm32f4xx_hal_driver/Src/stm32f4xx_hal_gpio.c ****   *  @brief    Initialization and Configuration functions
 149:bsp/STMicroelectronics/stm32f413/stm32f4xx_hal_driver/Src/stm32f4xx_hal_gpio.c ****   *
 150:bsp/STMicroelectronics/stm32f413/stm32f4xx_hal_driver/Src/stm32f4xx_hal_gpio.c **** @verbatim    
 151:bsp/STMicroelectronics/stm32f413/stm32f4xx_hal_driver/Src/stm32f4xx_hal_gpio.c ****  ===============================================================================
 152:bsp/STMicroelectronics/stm32f413/stm32f4xx_hal_driver/Src/stm32f4xx_hal_gpio.c ****               ##### Initialization and de-initialization functions #####
 153:bsp/STMicroelectronics/stm32f413/stm32f4xx_hal_driver/Src/stm32f4xx_hal_gpio.c ****  ===============================================================================
 154:bsp/STMicroelectronics/stm32f413/stm32f4xx_hal_driver/Src/stm32f4xx_hal_gpio.c ****   [..]
 155:bsp/STMicroelectronics/stm32f413/stm32f4xx_hal_driver/Src/stm32f4xx_hal_gpio.c ****     This section provides functions allowing to initialize and de-initialize the GPIOs
 156:bsp/STMicroelectronics/stm32f413/stm32f4xx_hal_driver/Src/stm32f4xx_hal_gpio.c ****     to be ready for use.
 157:bsp/STMicroelectronics/stm32f413/stm32f4xx_hal_driver/Src/stm32f4xx_hal_gpio.c ****  
 158:bsp/STMicroelectronics/stm32f413/stm32f4xx_hal_driver/Src/stm32f4xx_hal_gpio.c **** @endverbatim
 159:bsp/STMicroelectronics/stm32f413/stm32f4xx_hal_driver/Src/stm32f4xx_hal_gpio.c ****   * @{
 160:bsp/STMicroelectronics/stm32f413/stm32f4xx_hal_driver/Src/stm32f4xx_hal_gpio.c ****   */
 161:bsp/STMicroelectronics/stm32f413/stm32f4xx_hal_driver/Src/stm32f4xx_hal_gpio.c **** 
 162:bsp/STMicroelectronics/stm32f413/stm32f4xx_hal_driver/Src/stm32f4xx_hal_gpio.c **** 
 163:bsp/STMicroelectronics/stm32f413/stm32f4xx_hal_driver/Src/stm32f4xx_hal_gpio.c **** /**
 164:bsp/STMicroelectronics/stm32f413/stm32f4xx_hal_driver/Src/stm32f4xx_hal_gpio.c ****   * @brief  Initializes the GPIOx peripheral according to the specified parameters in the GPIO_Init
 165:bsp/STMicroelectronics/stm32f413/stm32f4xx_hal_driver/Src/stm32f4xx_hal_gpio.c ****   * @param  GPIOx where x can be (A..K) to select the GPIO peripheral for STM32F429X device or
 166:bsp/STMicroelectronics/stm32f413/stm32f4xx_hal_driver/Src/stm32f4xx_hal_gpio.c ****   *                      x can be (A..I) to select the GPIO peripheral for STM32F40XX and STM32F427
 167:bsp/STMicroelectronics/stm32f413/stm32f4xx_hal_driver/Src/stm32f4xx_hal_gpio.c ****   * @param  GPIO_Init pointer to a GPIO_InitTypeDef structure that contains
 168:bsp/STMicroelectronics/stm32f413/stm32f4xx_hal_driver/Src/stm32f4xx_hal_gpio.c ****   *         the configuration information for the specified GPIO peripheral.
 169:bsp/STMicroelectronics/stm32f413/stm32f4xx_hal_driver/Src/stm32f4xx_hal_gpio.c ****   * @retval None
 170:bsp/STMicroelectronics/stm32f413/stm32f4xx_hal_driver/Src/stm32f4xx_hal_gpio.c ****   */
 171:bsp/STMicroelectronics/stm32f413/stm32f4xx_hal_driver/Src/stm32f4xx_hal_gpio.c **** void HAL_GPIO_Init(GPIO_TypeDef  *GPIOx, GPIO_InitTypeDef *GPIO_Init)
 172:bsp/STMicroelectronics/stm32f413/stm32f4xx_hal_driver/Src/stm32f4xx_hal_gpio.c **** {
  30              		.loc 1 172 1 view -0
  31              		.cfi_startproc
  32              		@ args = 0, pretend = 0, frame = 8
  33              		@ frame_needed = 0, uses_anonymous_args = 0
 173:bsp/STMicroelectronics/stm32f413/stm32f4xx_hal_driver/Src/stm32f4xx_hal_gpio.c ****   uint32_t position;
  34              		.loc 1 173 3 view .LVU1
 174:bsp/STMicroelectronics/stm32f413/stm32f4xx_hal_driver/Src/stm32f4xx_hal_gpio.c ****   uint32_t ioposition = 0x00U;
  35              		.loc 1 174 3 view .LVU2
 175:bsp/STMicroelectronics/stm32f413/stm32f4xx_hal_driver/Src/stm32f4xx_hal_gpio.c ****   uint32_t iocurrent = 0x00U;
  36              		.loc 1 175 3 view .LVU3
 176:bsp/STMicroelectronics/stm32f413/stm32f4xx_hal_driver/Src/stm32f4xx_hal_gpio.c ****   uint32_t temp = 0x00U;
  37              		.loc 1 176 3 view .LVU4
 177:bsp/STMicroelectronics/stm32f413/stm32f4xx_hal_driver/Src/stm32f4xx_hal_gpio.c **** 
 178:bsp/STMicroelectronics/stm32f413/stm32f4xx_hal_driver/Src/stm32f4xx_hal_gpio.c ****   /* Check the parameters */
 179:bsp/STMicroelectronics/stm32f413/stm32f4xx_hal_driver/Src/stm32f4xx_hal_gpio.c ****   assert_param(IS_GPIO_ALL_INSTANCE(GPIOx));
  38              		.loc 1 179 3 view .LVU5
 180:bsp/STMicroelectronics/stm32f413/stm32f4xx_hal_driver/Src/stm32f4xx_hal_gpio.c ****   assert_param(IS_GPIO_PIN(GPIO_Init->Pin));
  39              		.loc 1 180 3 view .LVU6
 181:bsp/STMicroelectronics/stm32f413/stm32f4xx_hal_driver/Src/stm32f4xx_hal_gpio.c ****   assert_param(IS_GPIO_MODE(GPIO_Init->Mode));
  40              		.loc 1 181 3 view .LVU7
 182:bsp/STMicroelectronics/stm32f413/stm32f4xx_hal_driver/Src/stm32f4xx_hal_gpio.c ****   assert_param(IS_GPIO_PULL(GPIO_Init->Pull));
  41              		.loc 1 182 3 view .LVU8
 183:bsp/STMicroelectronics/stm32f413/stm32f4xx_hal_driver/Src/stm32f4xx_hal_gpio.c **** 
 184:bsp/STMicroelectronics/stm32f413/stm32f4xx_hal_driver/Src/stm32f4xx_hal_gpio.c ****   /* Configure the port pins */
 185:bsp/STMicroelectronics/stm32f413/stm32f4xx_hal_driver/Src/stm32f4xx_hal_gpio.c ****   for(position = 0U; position < GPIO_NUMBER; position++)
  42              		.loc 1 185 3 view .LVU9
  43              		.loc 1 185 16 is_stmt 0 view .LVU10
  44 0000 0023     		movs	r3, #0
ARM GAS  /tmp/ccE8aqdh.s 			page 5


  45              	.LVL1:
  46              		.loc 1 185 22 is_stmt 1 view .LVU11
  47              		.loc 1 185 3 is_stmt 0 view .LVU12
  48 0002 0F2B     		cmp	r3, #15
  49 0004 00F2D380 		bhi	.L24
 172:bsp/STMicroelectronics/stm32f413/stm32f4xx_hal_driver/Src/stm32f4xx_hal_gpio.c ****   uint32_t position;
  50              		.loc 1 172 1 view .LVU13
  51 0008 F0B5     		push	{r4, r5, r6, r7, lr}
  52              	.LCFI0:
  53              		.cfi_def_cfa_offset 20
  54              		.cfi_offset 4, -20
  55              		.cfi_offset 5, -16
  56              		.cfi_offset 6, -12
  57              		.cfi_offset 7, -8
  58              		.cfi_offset 14, -4
  59 000a 83B0     		sub	sp, sp, #12
  60              	.LCFI1:
  61              		.cfi_def_cfa_offset 32
  62 000c 39E0     		b	.L13
  63              	.LVL2:
  64              	.L26:
 186:bsp/STMicroelectronics/stm32f413/stm32f4xx_hal_driver/Src/stm32f4xx_hal_gpio.c ****   {
 187:bsp/STMicroelectronics/stm32f413/stm32f4xx_hal_driver/Src/stm32f4xx_hal_gpio.c ****     /* Get the IO position */
 188:bsp/STMicroelectronics/stm32f413/stm32f4xx_hal_driver/Src/stm32f4xx_hal_gpio.c ****     ioposition = 0x01U << position;
 189:bsp/STMicroelectronics/stm32f413/stm32f4xx_hal_driver/Src/stm32f4xx_hal_gpio.c ****     /* Get the current IO position */
 190:bsp/STMicroelectronics/stm32f413/stm32f4xx_hal_driver/Src/stm32f4xx_hal_gpio.c ****     iocurrent = (uint32_t)(GPIO_Init->Pin) & ioposition;
 191:bsp/STMicroelectronics/stm32f413/stm32f4xx_hal_driver/Src/stm32f4xx_hal_gpio.c **** 
 192:bsp/STMicroelectronics/stm32f413/stm32f4xx_hal_driver/Src/stm32f4xx_hal_gpio.c ****     if(iocurrent == ioposition)
 193:bsp/STMicroelectronics/stm32f413/stm32f4xx_hal_driver/Src/stm32f4xx_hal_gpio.c ****     {
 194:bsp/STMicroelectronics/stm32f413/stm32f4xx_hal_driver/Src/stm32f4xx_hal_gpio.c ****       /*--------------------- GPIO Mode Configuration ------------------------*/
 195:bsp/STMicroelectronics/stm32f413/stm32f4xx_hal_driver/Src/stm32f4xx_hal_gpio.c ****       /* In case of Output or Alternate function mode selection */
 196:bsp/STMicroelectronics/stm32f413/stm32f4xx_hal_driver/Src/stm32f4xx_hal_gpio.c ****       if((GPIO_Init->Mode == GPIO_MODE_OUTPUT_PP) || (GPIO_Init->Mode == GPIO_MODE_AF_PP) ||
 197:bsp/STMicroelectronics/stm32f413/stm32f4xx_hal_driver/Src/stm32f4xx_hal_gpio.c ****          (GPIO_Init->Mode == GPIO_MODE_OUTPUT_OD) || (GPIO_Init->Mode == GPIO_MODE_AF_OD))
 198:bsp/STMicroelectronics/stm32f413/stm32f4xx_hal_driver/Src/stm32f4xx_hal_gpio.c ****       {
 199:bsp/STMicroelectronics/stm32f413/stm32f4xx_hal_driver/Src/stm32f4xx_hal_gpio.c ****         /* Check the Speed parameter */
 200:bsp/STMicroelectronics/stm32f413/stm32f4xx_hal_driver/Src/stm32f4xx_hal_gpio.c ****         assert_param(IS_GPIO_SPEED(GPIO_Init->Speed));
 201:bsp/STMicroelectronics/stm32f413/stm32f4xx_hal_driver/Src/stm32f4xx_hal_gpio.c ****         /* Configure the IO Speed */
 202:bsp/STMicroelectronics/stm32f413/stm32f4xx_hal_driver/Src/stm32f4xx_hal_gpio.c ****         temp = GPIOx->OSPEEDR; 
 203:bsp/STMicroelectronics/stm32f413/stm32f4xx_hal_driver/Src/stm32f4xx_hal_gpio.c ****         temp &= ~(GPIO_OSPEEDER_OSPEEDR0 << (position * 2U));
 204:bsp/STMicroelectronics/stm32f413/stm32f4xx_hal_driver/Src/stm32f4xx_hal_gpio.c ****         temp |= (GPIO_Init->Speed << (position * 2U));
 205:bsp/STMicroelectronics/stm32f413/stm32f4xx_hal_driver/Src/stm32f4xx_hal_gpio.c ****         GPIOx->OSPEEDR = temp;
 206:bsp/STMicroelectronics/stm32f413/stm32f4xx_hal_driver/Src/stm32f4xx_hal_gpio.c **** 
 207:bsp/STMicroelectronics/stm32f413/stm32f4xx_hal_driver/Src/stm32f4xx_hal_gpio.c ****         /* Configure the IO Output Type */
 208:bsp/STMicroelectronics/stm32f413/stm32f4xx_hal_driver/Src/stm32f4xx_hal_gpio.c ****         temp = GPIOx->OTYPER;
 209:bsp/STMicroelectronics/stm32f413/stm32f4xx_hal_driver/Src/stm32f4xx_hal_gpio.c ****         temp &= ~(GPIO_OTYPER_OT_0 << position) ;
 210:bsp/STMicroelectronics/stm32f413/stm32f4xx_hal_driver/Src/stm32f4xx_hal_gpio.c ****         temp |= (((GPIO_Init->Mode & GPIO_OUTPUT_TYPE) >> 4U) << position);
 211:bsp/STMicroelectronics/stm32f413/stm32f4xx_hal_driver/Src/stm32f4xx_hal_gpio.c ****         GPIOx->OTYPER = temp;
 212:bsp/STMicroelectronics/stm32f413/stm32f4xx_hal_driver/Src/stm32f4xx_hal_gpio.c ****        }
 213:bsp/STMicroelectronics/stm32f413/stm32f4xx_hal_driver/Src/stm32f4xx_hal_gpio.c **** 
 214:bsp/STMicroelectronics/stm32f413/stm32f4xx_hal_driver/Src/stm32f4xx_hal_gpio.c ****       /* Activate the Pull-up or Pull down resistor for the current IO */
 215:bsp/STMicroelectronics/stm32f413/stm32f4xx_hal_driver/Src/stm32f4xx_hal_gpio.c ****       temp = GPIOx->PUPDR;
 216:bsp/STMicroelectronics/stm32f413/stm32f4xx_hal_driver/Src/stm32f4xx_hal_gpio.c ****       temp &= ~(GPIO_PUPDR_PUPDR0 << (position * 2U));
 217:bsp/STMicroelectronics/stm32f413/stm32f4xx_hal_driver/Src/stm32f4xx_hal_gpio.c ****       temp |= ((GPIO_Init->Pull) << (position * 2U));
 218:bsp/STMicroelectronics/stm32f413/stm32f4xx_hal_driver/Src/stm32f4xx_hal_gpio.c ****       GPIOx->PUPDR = temp;
 219:bsp/STMicroelectronics/stm32f413/stm32f4xx_hal_driver/Src/stm32f4xx_hal_gpio.c **** 
 220:bsp/STMicroelectronics/stm32f413/stm32f4xx_hal_driver/Src/stm32f4xx_hal_gpio.c ****       /* In case of Alternate function mode selection */
 221:bsp/STMicroelectronics/stm32f413/stm32f4xx_hal_driver/Src/stm32f4xx_hal_gpio.c ****       if((GPIO_Init->Mode == GPIO_MODE_AF_PP) || (GPIO_Init->Mode == GPIO_MODE_AF_OD))
ARM GAS  /tmp/ccE8aqdh.s 			page 6


 222:bsp/STMicroelectronics/stm32f413/stm32f4xx_hal_driver/Src/stm32f4xx_hal_gpio.c ****       {
 223:bsp/STMicroelectronics/stm32f413/stm32f4xx_hal_driver/Src/stm32f4xx_hal_gpio.c ****         /* Check the Alternate function parameter */
 224:bsp/STMicroelectronics/stm32f413/stm32f4xx_hal_driver/Src/stm32f4xx_hal_gpio.c ****         assert_param(IS_GPIO_AF(GPIO_Init->Alternate));
 225:bsp/STMicroelectronics/stm32f413/stm32f4xx_hal_driver/Src/stm32f4xx_hal_gpio.c ****         /* Configure Alternate function mapped with the current IO */
 226:bsp/STMicroelectronics/stm32f413/stm32f4xx_hal_driver/Src/stm32f4xx_hal_gpio.c ****         temp = GPIOx->AFR[position >> 3U];
 227:bsp/STMicroelectronics/stm32f413/stm32f4xx_hal_driver/Src/stm32f4xx_hal_gpio.c ****         temp &= ~(0xFU << ((uint32_t)(position & 0x07U) * 4U)) ;
 228:bsp/STMicroelectronics/stm32f413/stm32f4xx_hal_driver/Src/stm32f4xx_hal_gpio.c ****         temp |= ((uint32_t)(GPIO_Init->Alternate) << (((uint32_t)position & 0x07U) * 4U));
 229:bsp/STMicroelectronics/stm32f413/stm32f4xx_hal_driver/Src/stm32f4xx_hal_gpio.c ****         GPIOx->AFR[position >> 3U] = temp;
 230:bsp/STMicroelectronics/stm32f413/stm32f4xx_hal_driver/Src/stm32f4xx_hal_gpio.c ****       }
 231:bsp/STMicroelectronics/stm32f413/stm32f4xx_hal_driver/Src/stm32f4xx_hal_gpio.c **** 
 232:bsp/STMicroelectronics/stm32f413/stm32f4xx_hal_driver/Src/stm32f4xx_hal_gpio.c ****       /* Configure IO Direction mode (Input, Output, Alternate or Analog) */
 233:bsp/STMicroelectronics/stm32f413/stm32f4xx_hal_driver/Src/stm32f4xx_hal_gpio.c ****       temp = GPIOx->MODER;
 234:bsp/STMicroelectronics/stm32f413/stm32f4xx_hal_driver/Src/stm32f4xx_hal_gpio.c ****       temp &= ~(GPIO_MODER_MODER0 << (position * 2U));
 235:bsp/STMicroelectronics/stm32f413/stm32f4xx_hal_driver/Src/stm32f4xx_hal_gpio.c ****       temp |= ((GPIO_Init->Mode & GPIO_MODE) << (position * 2U));
 236:bsp/STMicroelectronics/stm32f413/stm32f4xx_hal_driver/Src/stm32f4xx_hal_gpio.c ****       GPIOx->MODER = temp;
 237:bsp/STMicroelectronics/stm32f413/stm32f4xx_hal_driver/Src/stm32f4xx_hal_gpio.c **** 
 238:bsp/STMicroelectronics/stm32f413/stm32f4xx_hal_driver/Src/stm32f4xx_hal_gpio.c ****       /*--------------------- EXTI Mode Configuration ------------------------*/
 239:bsp/STMicroelectronics/stm32f413/stm32f4xx_hal_driver/Src/stm32f4xx_hal_gpio.c ****       /* Configure the External Interrupt or event for the current IO */
 240:bsp/STMicroelectronics/stm32f413/stm32f4xx_hal_driver/Src/stm32f4xx_hal_gpio.c ****       if((GPIO_Init->Mode & EXTI_MODE) == EXTI_MODE)
 241:bsp/STMicroelectronics/stm32f413/stm32f4xx_hal_driver/Src/stm32f4xx_hal_gpio.c ****       {
 242:bsp/STMicroelectronics/stm32f413/stm32f4xx_hal_driver/Src/stm32f4xx_hal_gpio.c ****         /* Enable SYSCFG Clock */
 243:bsp/STMicroelectronics/stm32f413/stm32f4xx_hal_driver/Src/stm32f4xx_hal_gpio.c ****         __HAL_RCC_SYSCFG_CLK_ENABLE();
 244:bsp/STMicroelectronics/stm32f413/stm32f4xx_hal_driver/Src/stm32f4xx_hal_gpio.c **** 
 245:bsp/STMicroelectronics/stm32f413/stm32f4xx_hal_driver/Src/stm32f4xx_hal_gpio.c ****         temp = SYSCFG->EXTICR[position >> 2U];
 246:bsp/STMicroelectronics/stm32f413/stm32f4xx_hal_driver/Src/stm32f4xx_hal_gpio.c ****         temp &= ~(0x0FU << (4U * (position & 0x03U)));
 247:bsp/STMicroelectronics/stm32f413/stm32f4xx_hal_driver/Src/stm32f4xx_hal_gpio.c ****         temp |= ((uint32_t)(GPIO_GET_INDEX(GPIOx)) << (4U * (position & 0x03U)));
  65              		.loc 1 247 29 view .LVU14
  66 000e 0622     		movs	r2, #6
  67 0010 00E0     		b	.L8
  68              	.L14:
  69              		.loc 1 247 18 view .LVU15
  70 0012 0022     		movs	r2, #0
  71              	.L8:
  72              		.loc 1 247 52 discriminator 28 view .LVU16
  73 0014 B240     		lsls	r2, r2, r6
  74              		.loc 1 247 14 discriminator 28 view .LVU17
  75 0016 3A43     		orrs	r2, r2, r7
  76              	.LVL3:
 248:bsp/STMicroelectronics/stm32f413/stm32f4xx_hal_driver/Src/stm32f4xx_hal_gpio.c ****         SYSCFG->EXTICR[position >> 2U] = temp;
  77              		.loc 1 248 9 is_stmt 1 discriminator 28 view .LVU18
  78              		.loc 1 248 40 is_stmt 0 discriminator 28 view .LVU19
  79 0018 0234     		adds	r4, r4, #2
  80 001a 654E     		ldr	r6, .L27
  81 001c 46F82420 		str	r2, [r6, r4, lsl #2]
 249:bsp/STMicroelectronics/stm32f413/stm32f4xx_hal_driver/Src/stm32f4xx_hal_gpio.c **** 
 250:bsp/STMicroelectronics/stm32f413/stm32f4xx_hal_driver/Src/stm32f4xx_hal_gpio.c ****         /* Clear EXTI line configuration */
 251:bsp/STMicroelectronics/stm32f413/stm32f4xx_hal_driver/Src/stm32f4xx_hal_gpio.c ****         temp = EXTI->IMR;
  82              		.loc 1 251 9 is_stmt 1 discriminator 28 view .LVU20
  83              		.loc 1 251 14 is_stmt 0 discriminator 28 view .LVU21
  84 0020 644A     		ldr	r2, .L27+4
  85              	.LVL4:
  86              		.loc 1 251 14 discriminator 28 view .LVU22
  87 0022 1468     		ldr	r4, [r2]
  88              	.LVL5:
 252:bsp/STMicroelectronics/stm32f413/stm32f4xx_hal_driver/Src/stm32f4xx_hal_gpio.c ****         temp &= ~((uint32_t)iocurrent);
  89              		.loc 1 252 9 is_stmt 1 discriminator 28 view .LVU23
  90              		.loc 1 252 17 is_stmt 0 discriminator 28 view .LVU24
ARM GAS  /tmp/ccE8aqdh.s 			page 7


  91 0024 EA43     		mvns	r2, r5
  92              		.loc 1 252 14 discriminator 28 view .LVU25
  93 0026 24EA0506 		bic	r6, r4, r5
  94              	.LVL6:
 253:bsp/STMicroelectronics/stm32f413/stm32f4xx_hal_driver/Src/stm32f4xx_hal_gpio.c ****         if((GPIO_Init->Mode & GPIO_MODE_IT) == GPIO_MODE_IT)
  95              		.loc 1 253 9 is_stmt 1 discriminator 28 view .LVU26
  96              		.loc 1 253 22 is_stmt 0 discriminator 28 view .LVU27
  97 002a 4F68     		ldr	r7, [r1, #4]
  98              		.loc 1 253 11 discriminator 28 view .LVU28
  99 002c 17F4803F 		tst	r7, #65536
 100 0030 01D0     		beq	.L9
 254:bsp/STMicroelectronics/stm32f413/stm32f4xx_hal_driver/Src/stm32f4xx_hal_gpio.c ****         {
 255:bsp/STMicroelectronics/stm32f413/stm32f4xx_hal_driver/Src/stm32f4xx_hal_gpio.c ****           temp |= iocurrent;
 101              		.loc 1 255 11 is_stmt 1 view .LVU29
 102              		.loc 1 255 16 is_stmt 0 view .LVU30
 103 0032 45EA0406 		orr	r6, r5, r4
 104              	.LVL7:
 105              	.L9:
 256:bsp/STMicroelectronics/stm32f413/stm32f4xx_hal_driver/Src/stm32f4xx_hal_gpio.c ****         }
 257:bsp/STMicroelectronics/stm32f413/stm32f4xx_hal_driver/Src/stm32f4xx_hal_gpio.c ****         EXTI->IMR = temp;
 106              		.loc 1 257 9 is_stmt 1 view .LVU31
 107              		.loc 1 257 19 is_stmt 0 view .LVU32
 108 0036 5F4C     		ldr	r4, .L27+4
 109 0038 2660     		str	r6, [r4]
 258:bsp/STMicroelectronics/stm32f413/stm32f4xx_hal_driver/Src/stm32f4xx_hal_gpio.c **** 
 259:bsp/STMicroelectronics/stm32f413/stm32f4xx_hal_driver/Src/stm32f4xx_hal_gpio.c ****         temp = EXTI->EMR;
 110              		.loc 1 259 9 is_stmt 1 view .LVU33
 111              		.loc 1 259 14 is_stmt 0 view .LVU34
 112 003a 6468     		ldr	r4, [r4, #4]
 113              	.LVL8:
 260:bsp/STMicroelectronics/stm32f413/stm32f4xx_hal_driver/Src/stm32f4xx_hal_gpio.c ****         temp &= ~((uint32_t)iocurrent);
 114              		.loc 1 260 9 is_stmt 1 view .LVU35
 115              		.loc 1 260 14 is_stmt 0 view .LVU36
 116 003c 02EA0406 		and	r6, r2, r4
 117              	.LVL9:
 261:bsp/STMicroelectronics/stm32f413/stm32f4xx_hal_driver/Src/stm32f4xx_hal_gpio.c ****         if((GPIO_Init->Mode & GPIO_MODE_EVT) == GPIO_MODE_EVT)
 118              		.loc 1 261 9 is_stmt 1 view .LVU37
 119              		.loc 1 261 22 is_stmt 0 view .LVU38
 120 0040 4F68     		ldr	r7, [r1, #4]
 121              		.loc 1 261 11 view .LVU39
 122 0042 17F4003F 		tst	r7, #131072
 123 0046 01D0     		beq	.L10
 262:bsp/STMicroelectronics/stm32f413/stm32f4xx_hal_driver/Src/stm32f4xx_hal_gpio.c ****         {
 263:bsp/STMicroelectronics/stm32f413/stm32f4xx_hal_driver/Src/stm32f4xx_hal_gpio.c ****           temp |= iocurrent;
 124              		.loc 1 263 11 is_stmt 1 view .LVU40
 125              		.loc 1 263 16 is_stmt 0 view .LVU41
 126 0048 45EA0406 		orr	r6, r5, r4
 127              	.LVL10:
 128              	.L10:
 264:bsp/STMicroelectronics/stm32f413/stm32f4xx_hal_driver/Src/stm32f4xx_hal_gpio.c ****         }
 265:bsp/STMicroelectronics/stm32f413/stm32f4xx_hal_driver/Src/stm32f4xx_hal_gpio.c ****         EXTI->EMR = temp;
 129              		.loc 1 265 9 is_stmt 1 view .LVU42
 130              		.loc 1 265 19 is_stmt 0 view .LVU43
 131 004c 594C     		ldr	r4, .L27+4
 132 004e 6660     		str	r6, [r4, #4]
 266:bsp/STMicroelectronics/stm32f413/stm32f4xx_hal_driver/Src/stm32f4xx_hal_gpio.c **** 
 267:bsp/STMicroelectronics/stm32f413/stm32f4xx_hal_driver/Src/stm32f4xx_hal_gpio.c ****         /* Clear Rising Falling edge configuration */
ARM GAS  /tmp/ccE8aqdh.s 			page 8


 268:bsp/STMicroelectronics/stm32f413/stm32f4xx_hal_driver/Src/stm32f4xx_hal_gpio.c ****         temp = EXTI->RTSR;
 133              		.loc 1 268 9 is_stmt 1 view .LVU44
 134              		.loc 1 268 14 is_stmt 0 view .LVU45
 135 0050 A468     		ldr	r4, [r4, #8]
 136              	.LVL11:
 269:bsp/STMicroelectronics/stm32f413/stm32f4xx_hal_driver/Src/stm32f4xx_hal_gpio.c ****         temp &= ~((uint32_t)iocurrent);
 137              		.loc 1 269 9 is_stmt 1 view .LVU46
 138              		.loc 1 269 14 is_stmt 0 view .LVU47
 139 0052 02EA0406 		and	r6, r2, r4
 140              	.LVL12:
 270:bsp/STMicroelectronics/stm32f413/stm32f4xx_hal_driver/Src/stm32f4xx_hal_gpio.c ****         if((GPIO_Init->Mode & RISING_EDGE) == RISING_EDGE)
 141              		.loc 1 270 9 is_stmt 1 view .LVU48
 142              		.loc 1 270 22 is_stmt 0 view .LVU49
 143 0056 4F68     		ldr	r7, [r1, #4]
 144              		.loc 1 270 11 view .LVU50
 145 0058 17F4801F 		tst	r7, #1048576
 146 005c 01D0     		beq	.L11
 271:bsp/STMicroelectronics/stm32f413/stm32f4xx_hal_driver/Src/stm32f4xx_hal_gpio.c ****         {
 272:bsp/STMicroelectronics/stm32f413/stm32f4xx_hal_driver/Src/stm32f4xx_hal_gpio.c ****           temp |= iocurrent;
 147              		.loc 1 272 11 is_stmt 1 view .LVU51
 148              		.loc 1 272 16 is_stmt 0 view .LVU52
 149 005e 45EA0406 		orr	r6, r5, r4
 150              	.LVL13:
 151              	.L11:
 273:bsp/STMicroelectronics/stm32f413/stm32f4xx_hal_driver/Src/stm32f4xx_hal_gpio.c ****         }
 274:bsp/STMicroelectronics/stm32f413/stm32f4xx_hal_driver/Src/stm32f4xx_hal_gpio.c ****         EXTI->RTSR = temp;
 152              		.loc 1 274 9 is_stmt 1 view .LVU53
 153              		.loc 1 274 20 is_stmt 0 view .LVU54
 154 0062 544C     		ldr	r4, .L27+4
 155 0064 A660     		str	r6, [r4, #8]
 275:bsp/STMicroelectronics/stm32f413/stm32f4xx_hal_driver/Src/stm32f4xx_hal_gpio.c **** 
 276:bsp/STMicroelectronics/stm32f413/stm32f4xx_hal_driver/Src/stm32f4xx_hal_gpio.c ****         temp = EXTI->FTSR;
 156              		.loc 1 276 9 is_stmt 1 view .LVU55
 157              		.loc 1 276 14 is_stmt 0 view .LVU56
 158 0066 E468     		ldr	r4, [r4, #12]
 159              	.LVL14:
 277:bsp/STMicroelectronics/stm32f413/stm32f4xx_hal_driver/Src/stm32f4xx_hal_gpio.c ****         temp &= ~((uint32_t)iocurrent);
 160              		.loc 1 277 9 is_stmt 1 view .LVU57
 161              		.loc 1 277 14 is_stmt 0 view .LVU58
 162 0068 2240     		ands	r2, r2, r4
 163              	.LVL15:
 278:bsp/STMicroelectronics/stm32f413/stm32f4xx_hal_driver/Src/stm32f4xx_hal_gpio.c ****         if((GPIO_Init->Mode & FALLING_EDGE) == FALLING_EDGE)
 164              		.loc 1 278 9 is_stmt 1 view .LVU59
 165              		.loc 1 278 22 is_stmt 0 view .LVU60
 166 006a 4E68     		ldr	r6, [r1, #4]
 167              		.loc 1 278 11 view .LVU61
 168 006c 16F4001F 		tst	r6, #2097152
 169 0070 01D0     		beq	.L12
 279:bsp/STMicroelectronics/stm32f413/stm32f4xx_hal_driver/Src/stm32f4xx_hal_gpio.c ****         {
 280:bsp/STMicroelectronics/stm32f413/stm32f4xx_hal_driver/Src/stm32f4xx_hal_gpio.c ****           temp |= iocurrent;
 170              		.loc 1 280 11 is_stmt 1 view .LVU62
 171              		.loc 1 280 16 is_stmt 0 view .LVU63
 172 0072 45EA0402 		orr	r2, r5, r4
 173              	.LVL16:
 174              	.L12:
 281:bsp/STMicroelectronics/stm32f413/stm32f4xx_hal_driver/Src/stm32f4xx_hal_gpio.c ****         }
 282:bsp/STMicroelectronics/stm32f413/stm32f4xx_hal_driver/Src/stm32f4xx_hal_gpio.c ****         EXTI->FTSR = temp;
ARM GAS  /tmp/ccE8aqdh.s 			page 9


 175              		.loc 1 282 9 is_stmt 1 view .LVU64
 176              		.loc 1 282 20 is_stmt 0 view .LVU65
 177 0076 4F4C     		ldr	r4, .L27+4
 178 0078 E260     		str	r2, [r4, #12]
 179              	.LVL17:
 180              	.L3:
 185:bsp/STMicroelectronics/stm32f413/stm32f4xx_hal_driver/Src/stm32f4xx_hal_gpio.c ****   {
 181              		.loc 1 185 46 is_stmt 1 discriminator 2 view .LVU66
 185:bsp/STMicroelectronics/stm32f413/stm32f4xx_hal_driver/Src/stm32f4xx_hal_gpio.c ****   {
 182              		.loc 1 185 54 is_stmt 0 discriminator 2 view .LVU67
 183 007a 0133     		adds	r3, r3, #1
 184              	.LVL18:
 185:bsp/STMicroelectronics/stm32f413/stm32f4xx_hal_driver/Src/stm32f4xx_hal_gpio.c ****   {
 185              		.loc 1 185 22 is_stmt 1 discriminator 2 view .LVU68
 185:bsp/STMicroelectronics/stm32f413/stm32f4xx_hal_driver/Src/stm32f4xx_hal_gpio.c ****   {
 186              		.loc 1 185 3 is_stmt 0 discriminator 2 view .LVU69
 187 007c 0F2B     		cmp	r3, #15
 188 007e 00F29480 		bhi	.L25
 189              	.LVL19:
 190              	.L13:
 188:bsp/STMicroelectronics/stm32f413/stm32f4xx_hal_driver/Src/stm32f4xx_hal_gpio.c ****     /* Get the current IO position */
 191              		.loc 1 188 5 is_stmt 1 view .LVU70
 188:bsp/STMicroelectronics/stm32f413/stm32f4xx_hal_driver/Src/stm32f4xx_hal_gpio.c ****     /* Get the current IO position */
 192              		.loc 1 188 16 is_stmt 0 view .LVU71
 193 0082 0122     		movs	r2, #1
 194 0084 9A40     		lsls	r2, r2, r3
 195              	.LVL20:
 190:bsp/STMicroelectronics/stm32f413/stm32f4xx_hal_driver/Src/stm32f4xx_hal_gpio.c **** 
 196              		.loc 1 190 5 is_stmt 1 view .LVU72
 190:bsp/STMicroelectronics/stm32f413/stm32f4xx_hal_driver/Src/stm32f4xx_hal_gpio.c **** 
 197              		.loc 1 190 37 is_stmt 0 view .LVU73
 198 0086 0C68     		ldr	r4, [r1]
 190:bsp/STMicroelectronics/stm32f413/stm32f4xx_hal_driver/Src/stm32f4xx_hal_gpio.c **** 
 199              		.loc 1 190 15 view .LVU74
 200 0088 04EA0205 		and	r5, r4, r2
 201              	.LVL21:
 192:bsp/STMicroelectronics/stm32f413/stm32f4xx_hal_driver/Src/stm32f4xx_hal_gpio.c ****     {
 202              		.loc 1 192 5 is_stmt 1 view .LVU75
 192:bsp/STMicroelectronics/stm32f413/stm32f4xx_hal_driver/Src/stm32f4xx_hal_gpio.c ****     {
 203              		.loc 1 192 7 is_stmt 0 view .LVU76
 204 008c 32EA0404 		bics	r4, r2, r4
 205 0090 F3D1     		bne	.L3
 196:bsp/STMicroelectronics/stm32f413/stm32f4xx_hal_driver/Src/stm32f4xx_hal_gpio.c ****          (GPIO_Init->Mode == GPIO_MODE_OUTPUT_OD) || (GPIO_Init->Mode == GPIO_MODE_AF_OD))
 206              		.loc 1 196 7 is_stmt 1 view .LVU77
 196:bsp/STMicroelectronics/stm32f413/stm32f4xx_hal_driver/Src/stm32f4xx_hal_gpio.c ****          (GPIO_Init->Mode == GPIO_MODE_OUTPUT_OD) || (GPIO_Init->Mode == GPIO_MODE_AF_OD))
 207              		.loc 1 196 20 is_stmt 0 view .LVU78
 208 0092 4C68     		ldr	r4, [r1, #4]
 196:bsp/STMicroelectronics/stm32f413/stm32f4xx_hal_driver/Src/stm32f4xx_hal_gpio.c ****          (GPIO_Init->Mode == GPIO_MODE_OUTPUT_OD) || (GPIO_Init->Mode == GPIO_MODE_AF_OD))
 209              		.loc 1 196 51 view .LVU79
 210 0094 661E     		subs	r6, r4, #1
 196:bsp/STMicroelectronics/stm32f413/stm32f4xx_hal_driver/Src/stm32f4xx_hal_gpio.c ****          (GPIO_Init->Mode == GPIO_MODE_OUTPUT_OD) || (GPIO_Init->Mode == GPIO_MODE_AF_OD))
 211              		.loc 1 196 9 view .LVU80
 212 0096 012E     		cmp	r6, #1
 213 0098 03D9     		bls	.L4
 196:bsp/STMicroelectronics/stm32f413/stm32f4xx_hal_driver/Src/stm32f4xx_hal_gpio.c ****          (GPIO_Init->Mode == GPIO_MODE_OUTPUT_OD) || (GPIO_Init->Mode == GPIO_MODE_AF_OD))
 214              		.loc 1 196 91 discriminator 1 view .LVU81
 215 009a 112C     		cmp	r4, #17
ARM GAS  /tmp/ccE8aqdh.s 			page 10


 216 009c 01D0     		beq	.L4
 197:bsp/STMicroelectronics/stm32f413/stm32f4xx_hal_driver/Src/stm32f4xx_hal_gpio.c ****       {
 217              		.loc 1 197 51 view .LVU82
 218 009e 122C     		cmp	r4, #18
 219 00a0 12D1     		bne	.L5
 220              	.L4:
 200:bsp/STMicroelectronics/stm32f413/stm32f4xx_hal_driver/Src/stm32f4xx_hal_gpio.c ****         /* Configure the IO Speed */
 221              		.loc 1 200 9 is_stmt 1 view .LVU83
 202:bsp/STMicroelectronics/stm32f413/stm32f4xx_hal_driver/Src/stm32f4xx_hal_gpio.c ****         temp &= ~(GPIO_OSPEEDER_OSPEEDR0 << (position * 2U));
 222              		.loc 1 202 9 view .LVU84
 202:bsp/STMicroelectronics/stm32f413/stm32f4xx_hal_driver/Src/stm32f4xx_hal_gpio.c ****         temp &= ~(GPIO_OSPEEDER_OSPEEDR0 << (position * 2U));
 223              		.loc 1 202 14 is_stmt 0 view .LVU85
 224 00a2 8668     		ldr	r6, [r0, #8]
 225              	.LVL22:
 203:bsp/STMicroelectronics/stm32f413/stm32f4xx_hal_driver/Src/stm32f4xx_hal_gpio.c ****         temp |= (GPIO_Init->Speed << (position * 2U));
 226              		.loc 1 203 9 is_stmt 1 view .LVU86
 203:bsp/STMicroelectronics/stm32f413/stm32f4xx_hal_driver/Src/stm32f4xx_hal_gpio.c ****         temp |= (GPIO_Init->Speed << (position * 2U));
 227              		.loc 1 203 55 is_stmt 0 view .LVU87
 228 00a4 5F00     		lsls	r7, r3, #1
 203:bsp/STMicroelectronics/stm32f413/stm32f4xx_hal_driver/Src/stm32f4xx_hal_gpio.c ****         temp |= (GPIO_Init->Speed << (position * 2U));
 229              		.loc 1 203 42 view .LVU88
 230 00a6 0324     		movs	r4, #3
 231 00a8 BC40     		lsls	r4, r4, r7
 203:bsp/STMicroelectronics/stm32f413/stm32f4xx_hal_driver/Src/stm32f4xx_hal_gpio.c ****         temp |= (GPIO_Init->Speed << (position * 2U));
 232              		.loc 1 203 14 view .LVU89
 233 00aa 26EA0406 		bic	r6, r6, r4
 234              	.LVL23:
 204:bsp/STMicroelectronics/stm32f413/stm32f4xx_hal_driver/Src/stm32f4xx_hal_gpio.c ****         GPIOx->OSPEEDR = temp;
 235              		.loc 1 204 9 is_stmt 1 view .LVU90
 204:bsp/STMicroelectronics/stm32f413/stm32f4xx_hal_driver/Src/stm32f4xx_hal_gpio.c ****         GPIOx->OSPEEDR = temp;
 236              		.loc 1 204 27 is_stmt 0 view .LVU91
 237 00ae CC68     		ldr	r4, [r1, #12]
 204:bsp/STMicroelectronics/stm32f413/stm32f4xx_hal_driver/Src/stm32f4xx_hal_gpio.c ****         GPIOx->OSPEEDR = temp;
 238              		.loc 1 204 35 view .LVU92
 239 00b0 BC40     		lsls	r4, r4, r7
 204:bsp/STMicroelectronics/stm32f413/stm32f4xx_hal_driver/Src/stm32f4xx_hal_gpio.c ****         GPIOx->OSPEEDR = temp;
 240              		.loc 1 204 14 view .LVU93
 241 00b2 3443     		orrs	r4, r4, r6
 242              	.LVL24:
 205:bsp/STMicroelectronics/stm32f413/stm32f4xx_hal_driver/Src/stm32f4xx_hal_gpio.c **** 
 243              		.loc 1 205 9 is_stmt 1 view .LVU94
 205:bsp/STMicroelectronics/stm32f413/stm32f4xx_hal_driver/Src/stm32f4xx_hal_gpio.c **** 
 244              		.loc 1 205 24 is_stmt 0 view .LVU95
 245 00b4 8460     		str	r4, [r0, #8]
 208:bsp/STMicroelectronics/stm32f413/stm32f4xx_hal_driver/Src/stm32f4xx_hal_gpio.c ****         temp &= ~(GPIO_OTYPER_OT_0 << position) ;
 246              		.loc 1 208 9 is_stmt 1 view .LVU96
 208:bsp/STMicroelectronics/stm32f413/stm32f4xx_hal_driver/Src/stm32f4xx_hal_gpio.c ****         temp &= ~(GPIO_OTYPER_OT_0 << position) ;
 247              		.loc 1 208 14 is_stmt 0 view .LVU97
 248 00b6 4668     		ldr	r6, [r0, #4]
 249              	.LVL25:
 209:bsp/STMicroelectronics/stm32f413/stm32f4xx_hal_driver/Src/stm32f4xx_hal_gpio.c ****         temp |= (((GPIO_Init->Mode & GPIO_OUTPUT_TYPE) >> 4U) << position);
 250              		.loc 1 209 9 is_stmt 1 view .LVU98
 209:bsp/STMicroelectronics/stm32f413/stm32f4xx_hal_driver/Src/stm32f4xx_hal_gpio.c ****         temp |= (((GPIO_Init->Mode & GPIO_OUTPUT_TYPE) >> 4U) << position);
 251              		.loc 1 209 14 is_stmt 0 view .LVU99
 252 00b8 26EA0206 		bic	r6, r6, r2
 253              	.LVL26:
 210:bsp/STMicroelectronics/stm32f413/stm32f4xx_hal_driver/Src/stm32f4xx_hal_gpio.c ****         GPIOx->OTYPER = temp;
ARM GAS  /tmp/ccE8aqdh.s 			page 11


 254              		.loc 1 210 9 is_stmt 1 view .LVU100
 210:bsp/STMicroelectronics/stm32f413/stm32f4xx_hal_driver/Src/stm32f4xx_hal_gpio.c ****         GPIOx->OTYPER = temp;
 255              		.loc 1 210 29 is_stmt 0 view .LVU101
 256 00bc 4C68     		ldr	r4, [r1, #4]
 210:bsp/STMicroelectronics/stm32f413/stm32f4xx_hal_driver/Src/stm32f4xx_hal_gpio.c ****         GPIOx->OTYPER = temp;
 257              		.loc 1 210 56 view .LVU102
 258 00be C4F30012 		ubfx	r2, r4, #4, #1
 259              	.LVL27:
 210:bsp/STMicroelectronics/stm32f413/stm32f4xx_hal_driver/Src/stm32f4xx_hal_gpio.c ****         GPIOx->OTYPER = temp;
 260              		.loc 1 210 63 view .LVU103
 261 00c2 9A40     		lsls	r2, r2, r3
 210:bsp/STMicroelectronics/stm32f413/stm32f4xx_hal_driver/Src/stm32f4xx_hal_gpio.c ****         GPIOx->OTYPER = temp;
 262              		.loc 1 210 14 view .LVU104
 263 00c4 3243     		orrs	r2, r2, r6
 264              	.LVL28:
 211:bsp/STMicroelectronics/stm32f413/stm32f4xx_hal_driver/Src/stm32f4xx_hal_gpio.c ****        }
 265              		.loc 1 211 9 is_stmt 1 view .LVU105
 211:bsp/STMicroelectronics/stm32f413/stm32f4xx_hal_driver/Src/stm32f4xx_hal_gpio.c ****        }
 266              		.loc 1 211 23 is_stmt 0 view .LVU106
 267 00c6 4260     		str	r2, [r0, #4]
 268              	.LVL29:
 269              	.L5:
 215:bsp/STMicroelectronics/stm32f413/stm32f4xx_hal_driver/Src/stm32f4xx_hal_gpio.c ****       temp &= ~(GPIO_PUPDR_PUPDR0 << (position * 2U));
 270              		.loc 1 215 7 is_stmt 1 view .LVU107
 215:bsp/STMicroelectronics/stm32f413/stm32f4xx_hal_driver/Src/stm32f4xx_hal_gpio.c ****       temp &= ~(GPIO_PUPDR_PUPDR0 << (position * 2U));
 271              		.loc 1 215 12 is_stmt 0 view .LVU108
 272 00c8 C768     		ldr	r7, [r0, #12]
 273              	.LVL30:
 216:bsp/STMicroelectronics/stm32f413/stm32f4xx_hal_driver/Src/stm32f4xx_hal_gpio.c ****       temp |= ((GPIO_Init->Pull) << (position * 2U));
 274              		.loc 1 216 7 is_stmt 1 view .LVU109
 216:bsp/STMicroelectronics/stm32f413/stm32f4xx_hal_driver/Src/stm32f4xx_hal_gpio.c ****       temp |= ((GPIO_Init->Pull) << (position * 2U));
 275              		.loc 1 216 48 is_stmt 0 view .LVU110
 276 00ca 5E00     		lsls	r6, r3, #1
 216:bsp/STMicroelectronics/stm32f413/stm32f4xx_hal_driver/Src/stm32f4xx_hal_gpio.c ****       temp |= ((GPIO_Init->Pull) << (position * 2U));
 277              		.loc 1 216 35 view .LVU111
 278 00cc 0324     		movs	r4, #3
 279 00ce B440     		lsls	r4, r4, r6
 216:bsp/STMicroelectronics/stm32f413/stm32f4xx_hal_driver/Src/stm32f4xx_hal_gpio.c ****       temp |= ((GPIO_Init->Pull) << (position * 2U));
 280              		.loc 1 216 15 view .LVU112
 281 00d0 E243     		mvns	r2, r4
 216:bsp/STMicroelectronics/stm32f413/stm32f4xx_hal_driver/Src/stm32f4xx_hal_gpio.c ****       temp |= ((GPIO_Init->Pull) << (position * 2U));
 282              		.loc 1 216 12 view .LVU113
 283 00d2 27EA0407 		bic	r7, r7, r4
 284              	.LVL31:
 217:bsp/STMicroelectronics/stm32f413/stm32f4xx_hal_driver/Src/stm32f4xx_hal_gpio.c ****       GPIOx->PUPDR = temp;
 285              		.loc 1 217 7 is_stmt 1 view .LVU114
 217:bsp/STMicroelectronics/stm32f413/stm32f4xx_hal_driver/Src/stm32f4xx_hal_gpio.c ****       GPIOx->PUPDR = temp;
 286              		.loc 1 217 26 is_stmt 0 view .LVU115
 287 00d6 8C68     		ldr	r4, [r1, #8]
 217:bsp/STMicroelectronics/stm32f413/stm32f4xx_hal_driver/Src/stm32f4xx_hal_gpio.c ****       GPIOx->PUPDR = temp;
 288              		.loc 1 217 34 view .LVU116
 289 00d8 B440     		lsls	r4, r4, r6
 217:bsp/STMicroelectronics/stm32f413/stm32f4xx_hal_driver/Src/stm32f4xx_hal_gpio.c ****       GPIOx->PUPDR = temp;
 290              		.loc 1 217 12 view .LVU117
 291 00da 3C43     		orrs	r4, r4, r7
 292              	.LVL32:
 218:bsp/STMicroelectronics/stm32f413/stm32f4xx_hal_driver/Src/stm32f4xx_hal_gpio.c **** 
ARM GAS  /tmp/ccE8aqdh.s 			page 12


 293              		.loc 1 218 7 is_stmt 1 view .LVU118
 218:bsp/STMicroelectronics/stm32f413/stm32f4xx_hal_driver/Src/stm32f4xx_hal_gpio.c **** 
 294              		.loc 1 218 20 is_stmt 0 view .LVU119
 295 00dc C460     		str	r4, [r0, #12]
 221:bsp/STMicroelectronics/stm32f413/stm32f4xx_hal_driver/Src/stm32f4xx_hal_gpio.c ****       {
 296              		.loc 1 221 7 is_stmt 1 view .LVU120
 221:bsp/STMicroelectronics/stm32f413/stm32f4xx_hal_driver/Src/stm32f4xx_hal_gpio.c ****       {
 297              		.loc 1 221 20 is_stmt 0 view .LVU121
 298 00de 4C68     		ldr	r4, [r1, #4]
 299              	.LVL33:
 221:bsp/STMicroelectronics/stm32f413/stm32f4xx_hal_driver/Src/stm32f4xx_hal_gpio.c ****       {
 300              		.loc 1 221 9 view .LVU122
 301 00e0 022C     		cmp	r4, #2
 302 00e2 01D0     		beq	.L6
 221:bsp/STMicroelectronics/stm32f413/stm32f4xx_hal_driver/Src/stm32f4xx_hal_gpio.c ****       {
 303              		.loc 1 221 47 discriminator 1 view .LVU123
 304 00e4 122C     		cmp	r4, #18
 305 00e6 13D1     		bne	.L7
 306              	.L6:
 224:bsp/STMicroelectronics/stm32f413/stm32f4xx_hal_driver/Src/stm32f4xx_hal_gpio.c ****         /* Configure Alternate function mapped with the current IO */
 307              		.loc 1 224 9 is_stmt 1 view .LVU124
 226:bsp/STMicroelectronics/stm32f413/stm32f4xx_hal_driver/Src/stm32f4xx_hal_gpio.c ****         temp &= ~(0xFU << ((uint32_t)(position & 0x07U) * 4U)) ;
 308              		.loc 1 226 9 view .LVU125
 226:bsp/STMicroelectronics/stm32f413/stm32f4xx_hal_driver/Src/stm32f4xx_hal_gpio.c ****         temp &= ~(0xFU << ((uint32_t)(position & 0x07U) * 4U)) ;
 309              		.loc 1 226 36 is_stmt 0 view .LVU126
 310 00e8 DF08     		lsrs	r7, r3, #3
 226:bsp/STMicroelectronics/stm32f413/stm32f4xx_hal_driver/Src/stm32f4xx_hal_gpio.c ****         temp &= ~(0xFU << ((uint32_t)(position & 0x07U) * 4U)) ;
 311              		.loc 1 226 14 view .LVU127
 312 00ea 0837     		adds	r7, r7, #8
 313 00ec 50F827E0 		ldr	lr, [r0, r7, lsl #2]
 314              	.LVL34:
 227:bsp/STMicroelectronics/stm32f413/stm32f4xx_hal_driver/Src/stm32f4xx_hal_gpio.c ****         temp |= ((uint32_t)(GPIO_Init->Alternate) << (((uint32_t)position & 0x07U) * 4U));
 315              		.loc 1 227 9 is_stmt 1 view .LVU128
 227:bsp/STMicroelectronics/stm32f413/stm32f4xx_hal_driver/Src/stm32f4xx_hal_gpio.c ****         temp |= ((uint32_t)(GPIO_Init->Alternate) << (((uint32_t)position & 0x07U) * 4U));
 316              		.loc 1 227 28 is_stmt 0 view .LVU129
 317 00f0 03F00704 		and	r4, r3, #7
 227:bsp/STMicroelectronics/stm32f413/stm32f4xx_hal_driver/Src/stm32f4xx_hal_gpio.c ****         temp |= ((uint32_t)(GPIO_Init->Alternate) << (((uint32_t)position & 0x07U) * 4U));
 318              		.loc 1 227 57 view .LVU130
 319 00f4 4FEA840C 		lsl	ip, r4, #2
 227:bsp/STMicroelectronics/stm32f413/stm32f4xx_hal_driver/Src/stm32f4xx_hal_gpio.c ****         temp |= ((uint32_t)(GPIO_Init->Alternate) << (((uint32_t)position & 0x07U) * 4U));
 320              		.loc 1 227 24 view .LVU131
 321 00f8 0F24     		movs	r4, #15
 322 00fa 04FA0CF4 		lsl	r4, r4, ip
 227:bsp/STMicroelectronics/stm32f413/stm32f4xx_hal_driver/Src/stm32f4xx_hal_gpio.c ****         temp |= ((uint32_t)(GPIO_Init->Alternate) << (((uint32_t)position & 0x07U) * 4U));
 323              		.loc 1 227 14 view .LVU132
 324 00fe 2EEA040E 		bic	lr, lr, r4
 325              	.LVL35:
 228:bsp/STMicroelectronics/stm32f413/stm32f4xx_hal_driver/Src/stm32f4xx_hal_gpio.c ****         GPIOx->AFR[position >> 3U] = temp;
 326              		.loc 1 228 9 is_stmt 1 view .LVU133
 228:bsp/STMicroelectronics/stm32f413/stm32f4xx_hal_driver/Src/stm32f4xx_hal_gpio.c ****         GPIOx->AFR[position >> 3U] = temp;
 327              		.loc 1 228 38 is_stmt 0 view .LVU134
 328 0102 0C69     		ldr	r4, [r1, #16]
 228:bsp/STMicroelectronics/stm32f413/stm32f4xx_hal_driver/Src/stm32f4xx_hal_gpio.c ****         GPIOx->AFR[position >> 3U] = temp;
 329              		.loc 1 228 51 view .LVU135
 330 0104 04FA0CF4 		lsl	r4, r4, ip
 228:bsp/STMicroelectronics/stm32f413/stm32f4xx_hal_driver/Src/stm32f4xx_hal_gpio.c ****         GPIOx->AFR[position >> 3U] = temp;
 331              		.loc 1 228 14 view .LVU136
ARM GAS  /tmp/ccE8aqdh.s 			page 13


 332 0108 44EA0E04 		orr	r4, r4, lr
 333              	.LVL36:
 229:bsp/STMicroelectronics/stm32f413/stm32f4xx_hal_driver/Src/stm32f4xx_hal_gpio.c ****       }
 334              		.loc 1 229 9 is_stmt 1 view .LVU137
 229:bsp/STMicroelectronics/stm32f413/stm32f4xx_hal_driver/Src/stm32f4xx_hal_gpio.c ****       }
 335              		.loc 1 229 36 is_stmt 0 view .LVU138
 336 010c 40F82740 		str	r4, [r0, r7, lsl #2]
 337              	.LVL37:
 338              	.L7:
 233:bsp/STMicroelectronics/stm32f413/stm32f4xx_hal_driver/Src/stm32f4xx_hal_gpio.c ****       temp &= ~(GPIO_MODER_MODER0 << (position * 2U));
 339              		.loc 1 233 7 is_stmt 1 view .LVU139
 233:bsp/STMicroelectronics/stm32f413/stm32f4xx_hal_driver/Src/stm32f4xx_hal_gpio.c ****       temp &= ~(GPIO_MODER_MODER0 << (position * 2U));
 340              		.loc 1 233 12 is_stmt 0 view .LVU140
 341 0110 0468     		ldr	r4, [r0]
 342              	.LVL38:
 234:bsp/STMicroelectronics/stm32f413/stm32f4xx_hal_driver/Src/stm32f4xx_hal_gpio.c ****       temp |= ((GPIO_Init->Mode & GPIO_MODE) << (position * 2U));
 343              		.loc 1 234 7 is_stmt 1 view .LVU141
 234:bsp/STMicroelectronics/stm32f413/stm32f4xx_hal_driver/Src/stm32f4xx_hal_gpio.c ****       temp |= ((GPIO_Init->Mode & GPIO_MODE) << (position * 2U));
 344              		.loc 1 234 12 is_stmt 0 view .LVU142
 345 0112 1440     		ands	r4, r4, r2
 346              	.LVL39:
 235:bsp/STMicroelectronics/stm32f413/stm32f4xx_hal_driver/Src/stm32f4xx_hal_gpio.c ****       GPIOx->MODER = temp;
 347              		.loc 1 235 7 is_stmt 1 view .LVU143
 235:bsp/STMicroelectronics/stm32f413/stm32f4xx_hal_driver/Src/stm32f4xx_hal_gpio.c ****       GPIOx->MODER = temp;
 348              		.loc 1 235 26 is_stmt 0 view .LVU144
 349 0114 4A68     		ldr	r2, [r1, #4]
 235:bsp/STMicroelectronics/stm32f413/stm32f4xx_hal_driver/Src/stm32f4xx_hal_gpio.c ****       GPIOx->MODER = temp;
 350              		.loc 1 235 33 view .LVU145
 351 0116 02F00302 		and	r2, r2, #3
 235:bsp/STMicroelectronics/stm32f413/stm32f4xx_hal_driver/Src/stm32f4xx_hal_gpio.c ****       GPIOx->MODER = temp;
 352              		.loc 1 235 46 view .LVU146
 353 011a B240     		lsls	r2, r2, r6
 235:bsp/STMicroelectronics/stm32f413/stm32f4xx_hal_driver/Src/stm32f4xx_hal_gpio.c ****       GPIOx->MODER = temp;
 354              		.loc 1 235 12 view .LVU147
 355 011c 2243     		orrs	r2, r2, r4
 356              	.LVL40:
 236:bsp/STMicroelectronics/stm32f413/stm32f4xx_hal_driver/Src/stm32f4xx_hal_gpio.c **** 
 357              		.loc 1 236 7 is_stmt 1 view .LVU148
 236:bsp/STMicroelectronics/stm32f413/stm32f4xx_hal_driver/Src/stm32f4xx_hal_gpio.c **** 
 358              		.loc 1 236 20 is_stmt 0 view .LVU149
 359 011e 0260     		str	r2, [r0]
 240:bsp/STMicroelectronics/stm32f413/stm32f4xx_hal_driver/Src/stm32f4xx_hal_gpio.c ****       {
 360              		.loc 1 240 7 is_stmt 1 view .LVU150
 240:bsp/STMicroelectronics/stm32f413/stm32f4xx_hal_driver/Src/stm32f4xx_hal_gpio.c ****       {
 361              		.loc 1 240 20 is_stmt 0 view .LVU151
 362 0120 4A68     		ldr	r2, [r1, #4]
 363              	.LVL41:
 240:bsp/STMicroelectronics/stm32f413/stm32f4xx_hal_driver/Src/stm32f4xx_hal_gpio.c ****       {
 364              		.loc 1 240 9 view .LVU152
 365 0122 12F0805F 		tst	r2, #268435456
 366 0126 A8D0     		beq	.L3
 243:bsp/STMicroelectronics/stm32f413/stm32f4xx_hal_driver/Src/stm32f4xx_hal_gpio.c **** 
 367              		.loc 1 243 9 is_stmt 1 view .LVU153
 368              	.LBB2:
 243:bsp/STMicroelectronics/stm32f413/stm32f4xx_hal_driver/Src/stm32f4xx_hal_gpio.c **** 
 369              		.loc 1 243 9 view .LVU154
 370 0128 0022     		movs	r2, #0
ARM GAS  /tmp/ccE8aqdh.s 			page 14


 371 012a 0192     		str	r2, [sp, #4]
 372              	.LVL42:
 243:bsp/STMicroelectronics/stm32f413/stm32f4xx_hal_driver/Src/stm32f4xx_hal_gpio.c **** 
 373              		.loc 1 243 9 view .LVU155
 374 012c 224A     		ldr	r2, .L27+8
 375 012e 546C     		ldr	r4, [r2, #68]
 376 0130 44F48044 		orr	r4, r4, #16384
 377 0134 5464     		str	r4, [r2, #68]
 243:bsp/STMicroelectronics/stm32f413/stm32f4xx_hal_driver/Src/stm32f4xx_hal_gpio.c **** 
 378              		.loc 1 243 9 view .LVU156
 379 0136 526C     		ldr	r2, [r2, #68]
 380 0138 02F48042 		and	r2, r2, #16384
 381 013c 0192     		str	r2, [sp, #4]
 243:bsp/STMicroelectronics/stm32f413/stm32f4xx_hal_driver/Src/stm32f4xx_hal_gpio.c **** 
 382              		.loc 1 243 9 view .LVU157
 383 013e 019A     		ldr	r2, [sp, #4]
 384              	.LBE2:
 243:bsp/STMicroelectronics/stm32f413/stm32f4xx_hal_driver/Src/stm32f4xx_hal_gpio.c **** 
 385              		.loc 1 243 9 view .LVU158
 245:bsp/STMicroelectronics/stm32f413/stm32f4xx_hal_driver/Src/stm32f4xx_hal_gpio.c ****         temp &= ~(0x0FU << (4U * (position & 0x03U)));
 386              		.loc 1 245 9 view .LVU159
 245:bsp/STMicroelectronics/stm32f413/stm32f4xx_hal_driver/Src/stm32f4xx_hal_gpio.c ****         temp &= ~(0x0FU << (4U * (position & 0x03U)));
 387              		.loc 1 245 40 is_stmt 0 view .LVU160
 388 0140 9C08     		lsrs	r4, r3, #2
 245:bsp/STMicroelectronics/stm32f413/stm32f4xx_hal_driver/Src/stm32f4xx_hal_gpio.c ****         temp &= ~(0x0FU << (4U * (position & 0x03U)));
 389              		.loc 1 245 14 view .LVU161
 390 0142 A61C     		adds	r6, r4, #2
 391 0144 1A4A     		ldr	r2, .L27
 392 0146 52F82670 		ldr	r7, [r2, r6, lsl #2]
 393              	.LVL43:
 246:bsp/STMicroelectronics/stm32f413/stm32f4xx_hal_driver/Src/stm32f4xx_hal_gpio.c ****         temp |= ((uint32_t)(GPIO_GET_INDEX(GPIOx)) << (4U * (position & 0x03U)));
 394              		.loc 1 246 9 is_stmt 1 view .LVU162
 246:bsp/STMicroelectronics/stm32f413/stm32f4xx_hal_driver/Src/stm32f4xx_hal_gpio.c ****         temp |= ((uint32_t)(GPIO_GET_INDEX(GPIOx)) << (4U * (position & 0x03U)));
 395              		.loc 1 246 44 is_stmt 0 view .LVU163
 396 014a 03F00302 		and	r2, r3, #3
 246:bsp/STMicroelectronics/stm32f413/stm32f4xx_hal_driver/Src/stm32f4xx_hal_gpio.c ****         temp |= ((uint32_t)(GPIO_GET_INDEX(GPIOx)) << (4U * (position & 0x03U)));
 397              		.loc 1 246 32 view .LVU164
 398 014e 9600     		lsls	r6, r2, #2
 246:bsp/STMicroelectronics/stm32f413/stm32f4xx_hal_driver/Src/stm32f4xx_hal_gpio.c ****         temp |= ((uint32_t)(GPIO_GET_INDEX(GPIOx)) << (4U * (position & 0x03U)));
 399              		.loc 1 246 25 view .LVU165
 400 0150 0F22     		movs	r2, #15
 401 0152 B240     		lsls	r2, r2, r6
 246:bsp/STMicroelectronics/stm32f413/stm32f4xx_hal_driver/Src/stm32f4xx_hal_gpio.c ****         temp |= ((uint32_t)(GPIO_GET_INDEX(GPIOx)) << (4U * (position & 0x03U)));
 402              		.loc 1 246 14 view .LVU166
 403 0154 27EA0207 		bic	r7, r7, r2
 404              	.LVL44:
 247:bsp/STMicroelectronics/stm32f413/stm32f4xx_hal_driver/Src/stm32f4xx_hal_gpio.c ****         SYSCFG->EXTICR[position >> 2U] = temp;
 405              		.loc 1 247 9 is_stmt 1 view .LVU167
 247:bsp/STMicroelectronics/stm32f413/stm32f4xx_hal_driver/Src/stm32f4xx_hal_gpio.c ****         SYSCFG->EXTICR[position >> 2U] = temp;
 406              		.loc 1 247 18 is_stmt 0 view .LVU168
 407 0158 184A     		ldr	r2, .L27+12
 408 015a 9042     		cmp	r0, r2
 409 015c 3FF459AF 		beq	.L14
 247:bsp/STMicroelectronics/stm32f413/stm32f4xx_hal_driver/Src/stm32f4xx_hal_gpio.c ****         SYSCFG->EXTICR[position >> 2U] = temp;
 410              		.loc 1 247 29 discriminator 1 view .LVU169
 411 0160 02F58062 		add	r2, r2, #1024
 412 0164 9042     		cmp	r0, r2
ARM GAS  /tmp/ccE8aqdh.s 			page 15


 413 0166 16D0     		beq	.L15
 247:bsp/STMicroelectronics/stm32f413/stm32f4xx_hal_driver/Src/stm32f4xx_hal_gpio.c ****         SYSCFG->EXTICR[position >> 2U] = temp;
 414              		.loc 1 247 29 discriminator 3 view .LVU170
 415 0168 02F58062 		add	r2, r2, #1024
 416 016c 9042     		cmp	r0, r2
 417 016e 14D0     		beq	.L16
 247:bsp/STMicroelectronics/stm32f413/stm32f4xx_hal_driver/Src/stm32f4xx_hal_gpio.c ****         SYSCFG->EXTICR[position >> 2U] = temp;
 418              		.loc 1 247 29 discriminator 5 view .LVU171
 419 0170 02F58062 		add	r2, r2, #1024
 420 0174 9042     		cmp	r0, r2
 421 0176 12D0     		beq	.L17
 247:bsp/STMicroelectronics/stm32f413/stm32f4xx_hal_driver/Src/stm32f4xx_hal_gpio.c ****         SYSCFG->EXTICR[position >> 2U] = temp;
 422              		.loc 1 247 29 discriminator 7 view .LVU172
 423 0178 02F58062 		add	r2, r2, #1024
 424 017c 9042     		cmp	r0, r2
 425 017e 10D0     		beq	.L18
 247:bsp/STMicroelectronics/stm32f413/stm32f4xx_hal_driver/Src/stm32f4xx_hal_gpio.c ****         SYSCFG->EXTICR[position >> 2U] = temp;
 426              		.loc 1 247 29 discriminator 9 view .LVU173
 427 0180 02F58062 		add	r2, r2, #1024
 428 0184 9042     		cmp	r0, r2
 429 0186 0ED0     		beq	.L19
 247:bsp/STMicroelectronics/stm32f413/stm32f4xx_hal_driver/Src/stm32f4xx_hal_gpio.c ****         SYSCFG->EXTICR[position >> 2U] = temp;
 430              		.loc 1 247 29 discriminator 11 view .LVU174
 431 0188 02F58062 		add	r2, r2, #1024
 432 018c 9042     		cmp	r0, r2
 433 018e 3FF43EAF 		beq	.L26
 247:bsp/STMicroelectronics/stm32f413/stm32f4xx_hal_driver/Src/stm32f4xx_hal_gpio.c ****         SYSCFG->EXTICR[position >> 2U] = temp;
 434              		.loc 1 247 29 view .LVU175
 435 0192 0722     		movs	r2, #7
 436 0194 3EE7     		b	.L8
 437              	.L15:
 438 0196 0122     		movs	r2, #1
 439              	.LVL45:
 247:bsp/STMicroelectronics/stm32f413/stm32f4xx_hal_driver/Src/stm32f4xx_hal_gpio.c ****         SYSCFG->EXTICR[position >> 2U] = temp;
 440              		.loc 1 247 29 view .LVU176
 441 0198 3CE7     		b	.L8
 442              	.LVL46:
 443              	.L16:
 247:bsp/STMicroelectronics/stm32f413/stm32f4xx_hal_driver/Src/stm32f4xx_hal_gpio.c ****         SYSCFG->EXTICR[position >> 2U] = temp;
 444              		.loc 1 247 29 view .LVU177
 445 019a 0222     		movs	r2, #2
 446 019c 3AE7     		b	.L8
 447              	.L17:
 448 019e 0322     		movs	r2, #3
 449 01a0 38E7     		b	.L8
 450              	.L18:
 451 01a2 0422     		movs	r2, #4
 452 01a4 36E7     		b	.L8
 453              	.L19:
 454 01a6 0522     		movs	r2, #5
 455 01a8 34E7     		b	.L8
 456              	.LVL47:
 457              	.L25:
 283:bsp/STMicroelectronics/stm32f413/stm32f4xx_hal_driver/Src/stm32f4xx_hal_gpio.c ****       }
 284:bsp/STMicroelectronics/stm32f413/stm32f4xx_hal_driver/Src/stm32f4xx_hal_gpio.c ****     }
 285:bsp/STMicroelectronics/stm32f413/stm32f4xx_hal_driver/Src/stm32f4xx_hal_gpio.c ****   }
 286:bsp/STMicroelectronics/stm32f413/stm32f4xx_hal_driver/Src/stm32f4xx_hal_gpio.c **** }
ARM GAS  /tmp/ccE8aqdh.s 			page 16


 458              		.loc 1 286 1 view .LVU178
 459 01aa 03B0     		add	sp, sp, #12
 460              	.LCFI2:
 461              		.cfi_def_cfa_offset 20
 462              		@ sp needed
 463 01ac F0BD     		pop	{r4, r5, r6, r7, pc}
 464              	.LVL48:
 465              	.L24:
 466              	.LCFI3:
 467              		.cfi_def_cfa_offset 0
 468              		.cfi_restore 4
 469              		.cfi_restore 5
 470              		.cfi_restore 6
 471              		.cfi_restore 7
 472              		.cfi_restore 14
 473              		.loc 1 286 1 view .LVU179
 474 01ae 7047     		bx	lr
 475              	.L28:
 476              		.align	2
 477              	.L27:
 478 01b0 00380140 		.word	1073821696
 479 01b4 003C0140 		.word	1073822720
 480 01b8 00380240 		.word	1073887232
 481 01bc 00000240 		.word	1073872896
 482              		.cfi_endproc
 483              	.LFE130:
 485              		.section	.text.HAL_GPIO_DeInit,"ax",%progbits
 486              		.align	1
 487              		.global	HAL_GPIO_DeInit
 488              		.syntax unified
 489              		.thumb
 490              		.thumb_func
 491              		.fpu fpv4-sp-d16
 493              	HAL_GPIO_DeInit:
 494              	.LVL49:
 495              	.LFB131:
 287:bsp/STMicroelectronics/stm32f413/stm32f4xx_hal_driver/Src/stm32f4xx_hal_gpio.c **** 
 288:bsp/STMicroelectronics/stm32f413/stm32f4xx_hal_driver/Src/stm32f4xx_hal_gpio.c **** /**
 289:bsp/STMicroelectronics/stm32f413/stm32f4xx_hal_driver/Src/stm32f4xx_hal_gpio.c ****   * @brief  De-initializes the GPIOx peripheral registers to their default reset values.
 290:bsp/STMicroelectronics/stm32f413/stm32f4xx_hal_driver/Src/stm32f4xx_hal_gpio.c ****   * @param  GPIOx where x can be (A..K) to select the GPIO peripheral for STM32F429X device or
 291:bsp/STMicroelectronics/stm32f413/stm32f4xx_hal_driver/Src/stm32f4xx_hal_gpio.c ****   *                      x can be (A..I) to select the GPIO peripheral for STM32F40XX and STM32F427
 292:bsp/STMicroelectronics/stm32f413/stm32f4xx_hal_driver/Src/stm32f4xx_hal_gpio.c ****   * @param  GPIO_Pin specifies the port bit to be written.
 293:bsp/STMicroelectronics/stm32f413/stm32f4xx_hal_driver/Src/stm32f4xx_hal_gpio.c ****   *          This parameter can be one of GPIO_PIN_x where x can be (0..15).
 294:bsp/STMicroelectronics/stm32f413/stm32f4xx_hal_driver/Src/stm32f4xx_hal_gpio.c ****   * @retval None
 295:bsp/STMicroelectronics/stm32f413/stm32f4xx_hal_driver/Src/stm32f4xx_hal_gpio.c ****   */
 296:bsp/STMicroelectronics/stm32f413/stm32f4xx_hal_driver/Src/stm32f4xx_hal_gpio.c **** void HAL_GPIO_DeInit(GPIO_TypeDef  *GPIOx, uint32_t GPIO_Pin)
 297:bsp/STMicroelectronics/stm32f413/stm32f4xx_hal_driver/Src/stm32f4xx_hal_gpio.c **** {
 496              		.loc 1 297 1 is_stmt 1 view -0
 497              		.cfi_startproc
 498              		@ args = 0, pretend = 0, frame = 0
 499              		@ frame_needed = 0, uses_anonymous_args = 0
 298:bsp/STMicroelectronics/stm32f413/stm32f4xx_hal_driver/Src/stm32f4xx_hal_gpio.c ****   uint32_t position;
 500              		.loc 1 298 3 view .LVU181
 299:bsp/STMicroelectronics/stm32f413/stm32f4xx_hal_driver/Src/stm32f4xx_hal_gpio.c ****   uint32_t ioposition = 0x00U;
 501              		.loc 1 299 3 view .LVU182
 300:bsp/STMicroelectronics/stm32f413/stm32f4xx_hal_driver/Src/stm32f4xx_hal_gpio.c ****   uint32_t iocurrent = 0x00U;
 502              		.loc 1 300 3 view .LVU183
ARM GAS  /tmp/ccE8aqdh.s 			page 17


 301:bsp/STMicroelectronics/stm32f413/stm32f4xx_hal_driver/Src/stm32f4xx_hal_gpio.c ****   uint32_t tmp = 0x00U;
 503              		.loc 1 301 3 view .LVU184
 302:bsp/STMicroelectronics/stm32f413/stm32f4xx_hal_driver/Src/stm32f4xx_hal_gpio.c **** 
 303:bsp/STMicroelectronics/stm32f413/stm32f4xx_hal_driver/Src/stm32f4xx_hal_gpio.c ****   /* Check the parameters */
 304:bsp/STMicroelectronics/stm32f413/stm32f4xx_hal_driver/Src/stm32f4xx_hal_gpio.c ****   assert_param(IS_GPIO_ALL_INSTANCE(GPIOx));
 504              		.loc 1 304 3 view .LVU185
 305:bsp/STMicroelectronics/stm32f413/stm32f4xx_hal_driver/Src/stm32f4xx_hal_gpio.c ****   
 306:bsp/STMicroelectronics/stm32f413/stm32f4xx_hal_driver/Src/stm32f4xx_hal_gpio.c ****   /* Configure the port pins */
 307:bsp/STMicroelectronics/stm32f413/stm32f4xx_hal_driver/Src/stm32f4xx_hal_gpio.c ****   for(position = 0U; position < GPIO_NUMBER; position++)
 505              		.loc 1 307 3 view .LVU186
 506              		.loc 1 307 16 is_stmt 0 view .LVU187
 507 0000 0023     		movs	r3, #0
 508              	.LVL50:
 509              		.loc 1 307 22 is_stmt 1 view .LVU188
 510              		.loc 1 307 3 is_stmt 0 view .LVU189
 511 0002 0F2B     		cmp	r3, #15
 512 0004 00F28980 		bhi	.L45
 297:bsp/STMicroelectronics/stm32f413/stm32f4xx_hal_driver/Src/stm32f4xx_hal_gpio.c ****   uint32_t position;
 513              		.loc 1 297 1 view .LVU190
 514 0008 F0B5     		push	{r4, r5, r6, r7, lr}
 515              	.LCFI4:
 516              		.cfi_def_cfa_offset 20
 517              		.cfi_offset 4, -20
 518              		.cfi_offset 5, -16
 519              		.cfi_offset 6, -12
 520              		.cfi_offset 7, -8
 521              		.cfi_offset 14, -4
 522 000a 2DE0     		b	.L34
 523              	.LVL51:
 524              	.L48:
 308:bsp/STMicroelectronics/stm32f413/stm32f4xx_hal_driver/Src/stm32f4xx_hal_gpio.c ****   {
 309:bsp/STMicroelectronics/stm32f413/stm32f4xx_hal_driver/Src/stm32f4xx_hal_gpio.c ****     /* Get the IO position */
 310:bsp/STMicroelectronics/stm32f413/stm32f4xx_hal_driver/Src/stm32f4xx_hal_gpio.c ****     ioposition = 0x01U << position;
 311:bsp/STMicroelectronics/stm32f413/stm32f4xx_hal_driver/Src/stm32f4xx_hal_gpio.c ****     /* Get the current IO position */
 312:bsp/STMicroelectronics/stm32f413/stm32f4xx_hal_driver/Src/stm32f4xx_hal_gpio.c ****     iocurrent = (GPIO_Pin) & ioposition;
 313:bsp/STMicroelectronics/stm32f413/stm32f4xx_hal_driver/Src/stm32f4xx_hal_gpio.c **** 
 314:bsp/STMicroelectronics/stm32f413/stm32f4xx_hal_driver/Src/stm32f4xx_hal_gpio.c ****     if(iocurrent == ioposition)
 315:bsp/STMicroelectronics/stm32f413/stm32f4xx_hal_driver/Src/stm32f4xx_hal_gpio.c ****     {
 316:bsp/STMicroelectronics/stm32f413/stm32f4xx_hal_driver/Src/stm32f4xx_hal_gpio.c ****       /*------------------------- EXTI Mode Configuration --------------------*/
 317:bsp/STMicroelectronics/stm32f413/stm32f4xx_hal_driver/Src/stm32f4xx_hal_gpio.c ****       tmp = SYSCFG->EXTICR[position >> 2U];
 318:bsp/STMicroelectronics/stm32f413/stm32f4xx_hal_driver/Src/stm32f4xx_hal_gpio.c ****       tmp &= (0x0FU << (4U * (position & 0x03U)));
 319:bsp/STMicroelectronics/stm32f413/stm32f4xx_hal_driver/Src/stm32f4xx_hal_gpio.c ****       if(tmp == ((uint32_t)(GPIO_GET_INDEX(GPIOx)) << (4U * (position & 0x03U))))
 525              		.loc 1 319 29 view .LVU191
 526 000c 0626     		movs	r6, #6
 527 000e 00E0     		b	.L32
 528              	.L35:
 529              		.loc 1 319 18 view .LVU192
 530 0010 0026     		movs	r6, #0
 531              	.L32:
 532              		.loc 1 319 52 discriminator 28 view .LVU193
 533 0012 06FA04F4 		lsl	r4, r6, r4
 534              		.loc 1 319 9 discriminator 28 view .LVU194
 535 0016 AC42     		cmp	r4, r5
 536 0018 63D0     		beq	.L46
 537              	.LVL52:
 538              	.L33:
 320:bsp/STMicroelectronics/stm32f413/stm32f4xx_hal_driver/Src/stm32f4xx_hal_gpio.c ****       {
ARM GAS  /tmp/ccE8aqdh.s 			page 18


 321:bsp/STMicroelectronics/stm32f413/stm32f4xx_hal_driver/Src/stm32f4xx_hal_gpio.c ****         /* Clear EXTI line configuration */
 322:bsp/STMicroelectronics/stm32f413/stm32f4xx_hal_driver/Src/stm32f4xx_hal_gpio.c ****         EXTI->IMR &= ~((uint32_t)iocurrent);
 323:bsp/STMicroelectronics/stm32f413/stm32f4xx_hal_driver/Src/stm32f4xx_hal_gpio.c ****         EXTI->EMR &= ~((uint32_t)iocurrent);
 324:bsp/STMicroelectronics/stm32f413/stm32f4xx_hal_driver/Src/stm32f4xx_hal_gpio.c ****         
 325:bsp/STMicroelectronics/stm32f413/stm32f4xx_hal_driver/Src/stm32f4xx_hal_gpio.c ****         /* Clear Rising Falling edge configuration */
 326:bsp/STMicroelectronics/stm32f413/stm32f4xx_hal_driver/Src/stm32f4xx_hal_gpio.c ****         EXTI->RTSR &= ~((uint32_t)iocurrent);
 327:bsp/STMicroelectronics/stm32f413/stm32f4xx_hal_driver/Src/stm32f4xx_hal_gpio.c ****         EXTI->FTSR &= ~((uint32_t)iocurrent);
 328:bsp/STMicroelectronics/stm32f413/stm32f4xx_hal_driver/Src/stm32f4xx_hal_gpio.c **** 
 329:bsp/STMicroelectronics/stm32f413/stm32f4xx_hal_driver/Src/stm32f4xx_hal_gpio.c ****         /* Configure the External Interrupt or event for the current IO */
 330:bsp/STMicroelectronics/stm32f413/stm32f4xx_hal_driver/Src/stm32f4xx_hal_gpio.c ****         tmp = 0x0FU << (4U * (position & 0x03U));
 331:bsp/STMicroelectronics/stm32f413/stm32f4xx_hal_driver/Src/stm32f4xx_hal_gpio.c ****         SYSCFG->EXTICR[position >> 2U] &= ~tmp;
 332:bsp/STMicroelectronics/stm32f413/stm32f4xx_hal_driver/Src/stm32f4xx_hal_gpio.c ****       }
 333:bsp/STMicroelectronics/stm32f413/stm32f4xx_hal_driver/Src/stm32f4xx_hal_gpio.c **** 
 334:bsp/STMicroelectronics/stm32f413/stm32f4xx_hal_driver/Src/stm32f4xx_hal_gpio.c ****       /*------------------------- GPIO Mode Configuration --------------------*/
 335:bsp/STMicroelectronics/stm32f413/stm32f4xx_hal_driver/Src/stm32f4xx_hal_gpio.c ****       /* Configure IO Direction in Input Floating Mode */
 336:bsp/STMicroelectronics/stm32f413/stm32f4xx_hal_driver/Src/stm32f4xx_hal_gpio.c ****       GPIOx->MODER &= ~(GPIO_MODER_MODER0 << (position * 2U));
 539              		.loc 1 336 7 is_stmt 1 view .LVU195
 540              		.loc 1 336 20 is_stmt 0 view .LVU196
 541 001a 0568     		ldr	r5, [r0]
 542              		.loc 1 336 56 view .LVU197
 543 001c 5C00     		lsls	r4, r3, #1
 544              		.loc 1 336 43 view .LVU198
 545 001e 0326     		movs	r6, #3
 546 0020 06FA04F4 		lsl	r4, r6, r4
 547              		.loc 1 336 20 view .LVU199
 548 0024 25EA0405 		bic	r5, r5, r4
 549 0028 0560     		str	r5, [r0]
 337:bsp/STMicroelectronics/stm32f413/stm32f4xx_hal_driver/Src/stm32f4xx_hal_gpio.c **** 
 338:bsp/STMicroelectronics/stm32f413/stm32f4xx_hal_driver/Src/stm32f4xx_hal_gpio.c ****       /* Configure the default Alternate Function in current IO */
 339:bsp/STMicroelectronics/stm32f413/stm32f4xx_hal_driver/Src/stm32f4xx_hal_gpio.c ****       GPIOx->AFR[position >> 3U] &= ~(0xFU << ((uint32_t)(position & 0x07U) * 4U)) ;
 550              		.loc 1 339 7 is_stmt 1 view .LVU200
 551              		.loc 1 339 34 is_stmt 0 view .LVU201
 552 002a 23FA06F5 		lsr	r5, r3, r6
 553 002e 0835     		adds	r5, r5, #8
 554 0030 50F82560 		ldr	r6, [r0, r5, lsl #2]
 555              		.loc 1 339 48 view .LVU202
 556 0034 03F00707 		and	r7, r3, #7
 557              		.loc 1 339 77 view .LVU203
 558 0038 4FEA870C 		lsl	ip, r7, #2
 559              		.loc 1 339 44 view .LVU204
 560 003c 0F27     		movs	r7, #15
 561 003e 07FA0CF7 		lsl	r7, r7, ip
 562              		.loc 1 339 34 view .LVU205
 563 0042 26EA0706 		bic	r6, r6, r7
 564 0046 40F82560 		str	r6, [r0, r5, lsl #2]
 340:bsp/STMicroelectronics/stm32f413/stm32f4xx_hal_driver/Src/stm32f4xx_hal_gpio.c **** 
 341:bsp/STMicroelectronics/stm32f413/stm32f4xx_hal_driver/Src/stm32f4xx_hal_gpio.c ****       /* Deactivate the Pull-up and Pull-down resistor for the current IO */
 342:bsp/STMicroelectronics/stm32f413/stm32f4xx_hal_driver/Src/stm32f4xx_hal_gpio.c ****       GPIOx->PUPDR &= ~(GPIO_PUPDR_PUPDR0 << (position * 2U));
 565              		.loc 1 342 7 is_stmt 1 view .LVU206
 566              		.loc 1 342 20 is_stmt 0 view .LVU207
 567 004a C568     		ldr	r5, [r0, #12]
 568 004c 25EA0405 		bic	r5, r5, r4
 569 0050 C560     		str	r5, [r0, #12]
 343:bsp/STMicroelectronics/stm32f413/stm32f4xx_hal_driver/Src/stm32f4xx_hal_gpio.c **** 
 344:bsp/STMicroelectronics/stm32f413/stm32f4xx_hal_driver/Src/stm32f4xx_hal_gpio.c ****       /* Configure the default value IO Output Type */
 345:bsp/STMicroelectronics/stm32f413/stm32f4xx_hal_driver/Src/stm32f4xx_hal_gpio.c ****       GPIOx->OTYPER  &= ~(GPIO_OTYPER_OT_0 << position) ;
 570              		.loc 1 345 7 is_stmt 1 view .LVU208
ARM GAS  /tmp/ccE8aqdh.s 			page 19


 571              		.loc 1 345 22 is_stmt 0 view .LVU209
 572 0052 4568     		ldr	r5, [r0, #4]
 573 0054 25EA0202 		bic	r2, r5, r2
 574              	.LVL53:
 575              		.loc 1 345 22 view .LVU210
 576 0058 4260     		str	r2, [r0, #4]
 346:bsp/STMicroelectronics/stm32f413/stm32f4xx_hal_driver/Src/stm32f4xx_hal_gpio.c **** 
 347:bsp/STMicroelectronics/stm32f413/stm32f4xx_hal_driver/Src/stm32f4xx_hal_gpio.c ****       /* Configure the default value for IO Speed */
 348:bsp/STMicroelectronics/stm32f413/stm32f4xx_hal_driver/Src/stm32f4xx_hal_gpio.c ****       GPIOx->OSPEEDR &= ~(GPIO_OSPEEDER_OSPEEDR0 << (position * 2U));
 577              		.loc 1 348 7 is_stmt 1 view .LVU211
 578              		.loc 1 348 22 is_stmt 0 view .LVU212
 579 005a 8268     		ldr	r2, [r0, #8]
 580 005c 22EA0404 		bic	r4, r2, r4
 581 0060 8460     		str	r4, [r0, #8]
 582              	.L31:
 307:bsp/STMicroelectronics/stm32f413/stm32f4xx_hal_driver/Src/stm32f4xx_hal_gpio.c ****   {
 583              		.loc 1 307 46 is_stmt 1 discriminator 2 view .LVU213
 307:bsp/STMicroelectronics/stm32f413/stm32f4xx_hal_driver/Src/stm32f4xx_hal_gpio.c ****   {
 584              		.loc 1 307 54 is_stmt 0 discriminator 2 view .LVU214
 585 0062 0133     		adds	r3, r3, #1
 586              	.LVL54:
 307:bsp/STMicroelectronics/stm32f413/stm32f4xx_hal_driver/Src/stm32f4xx_hal_gpio.c ****   {
 587              		.loc 1 307 22 is_stmt 1 discriminator 2 view .LVU215
 307:bsp/STMicroelectronics/stm32f413/stm32f4xx_hal_driver/Src/stm32f4xx_hal_gpio.c ****   {
 588              		.loc 1 307 3 is_stmt 0 discriminator 2 view .LVU216
 589 0064 0F2B     		cmp	r3, #15
 590 0066 57D8     		bhi	.L47
 591              	.LVL55:
 592              	.L34:
 310:bsp/STMicroelectronics/stm32f413/stm32f4xx_hal_driver/Src/stm32f4xx_hal_gpio.c ****     /* Get the current IO position */
 593              		.loc 1 310 5 is_stmt 1 view .LVU217
 310:bsp/STMicroelectronics/stm32f413/stm32f4xx_hal_driver/Src/stm32f4xx_hal_gpio.c ****     /* Get the current IO position */
 594              		.loc 1 310 16 is_stmt 0 view .LVU218
 595 0068 0122     		movs	r2, #1
 596 006a 9A40     		lsls	r2, r2, r3
 597              	.LVL56:
 312:bsp/STMicroelectronics/stm32f413/stm32f4xx_hal_driver/Src/stm32f4xx_hal_gpio.c **** 
 598              		.loc 1 312 5 is_stmt 1 view .LVU219
 312:bsp/STMicroelectronics/stm32f413/stm32f4xx_hal_driver/Src/stm32f4xx_hal_gpio.c **** 
 599              		.loc 1 312 15 is_stmt 0 view .LVU220
 600 006c 02EA0107 		and	r7, r2, r1
 601              	.LVL57:
 314:bsp/STMicroelectronics/stm32f413/stm32f4xx_hal_driver/Src/stm32f4xx_hal_gpio.c ****     {
 602              		.loc 1 314 5 is_stmt 1 view .LVU221
 314:bsp/STMicroelectronics/stm32f413/stm32f4xx_hal_driver/Src/stm32f4xx_hal_gpio.c ****     {
 603              		.loc 1 314 7 is_stmt 0 view .LVU222
 604 0070 32EA0104 		bics	r4, r2, r1
 605 0074 F5D1     		bne	.L31
 317:bsp/STMicroelectronics/stm32f413/stm32f4xx_hal_driver/Src/stm32f4xx_hal_gpio.c ****       tmp &= (0x0FU << (4U * (position & 0x03U)));
 606              		.loc 1 317 7 is_stmt 1 view .LVU223
 317:bsp/STMicroelectronics/stm32f413/stm32f4xx_hal_driver/Src/stm32f4xx_hal_gpio.c ****       tmp &= (0x0FU << (4U * (position & 0x03U)));
 607              		.loc 1 317 37 is_stmt 0 view .LVU224
 608 0076 4FEA930C 		lsr	ip, r3, #2
 317:bsp/STMicroelectronics/stm32f413/stm32f4xx_hal_driver/Src/stm32f4xx_hal_gpio.c ****       tmp &= (0x0FU << (4U * (position & 0x03U)));
 609              		.loc 1 317 11 view .LVU225
 610 007a 0CF10205 		add	r5, ip, #2
 611 007e 274C     		ldr	r4, .L49
ARM GAS  /tmp/ccE8aqdh.s 			page 20


 612 0080 54F82550 		ldr	r5, [r4, r5, lsl #2]
 613              	.LVL58:
 318:bsp/STMicroelectronics/stm32f413/stm32f4xx_hal_driver/Src/stm32f4xx_hal_gpio.c ****       if(tmp == ((uint32_t)(GPIO_GET_INDEX(GPIOx)) << (4U * (position & 0x03U))))
 614              		.loc 1 318 7 is_stmt 1 view .LVU226
 318:bsp/STMicroelectronics/stm32f413/stm32f4xx_hal_driver/Src/stm32f4xx_hal_gpio.c ****       if(tmp == ((uint32_t)(GPIO_GET_INDEX(GPIOx)) << (4U * (position & 0x03U))))
 615              		.loc 1 318 40 is_stmt 0 view .LVU227
 616 0084 03F00304 		and	r4, r3, #3
 318:bsp/STMicroelectronics/stm32f413/stm32f4xx_hal_driver/Src/stm32f4xx_hal_gpio.c ****       if(tmp == ((uint32_t)(GPIO_GET_INDEX(GPIOx)) << (4U * (position & 0x03U))))
 617              		.loc 1 318 28 view .LVU228
 618 0088 A400     		lsls	r4, r4, #2
 318:bsp/STMicroelectronics/stm32f413/stm32f4xx_hal_driver/Src/stm32f4xx_hal_gpio.c ****       if(tmp == ((uint32_t)(GPIO_GET_INDEX(GPIOx)) << (4U * (position & 0x03U))))
 619              		.loc 1 318 21 view .LVU229
 620 008a 0F26     		movs	r6, #15
 621 008c 06FA04FE 		lsl	lr, r6, r4
 318:bsp/STMicroelectronics/stm32f413/stm32f4xx_hal_driver/Src/stm32f4xx_hal_gpio.c ****       if(tmp == ((uint32_t)(GPIO_GET_INDEX(GPIOx)) << (4U * (position & 0x03U))))
 622              		.loc 1 318 11 view .LVU230
 623 0090 0EEA0505 		and	r5, lr, r5
 624              	.LVL59:
 319:bsp/STMicroelectronics/stm32f413/stm32f4xx_hal_driver/Src/stm32f4xx_hal_gpio.c ****       {
 625              		.loc 1 319 7 is_stmt 1 view .LVU231
 319:bsp/STMicroelectronics/stm32f413/stm32f4xx_hal_driver/Src/stm32f4xx_hal_gpio.c ****       {
 626              		.loc 1 319 18 is_stmt 0 view .LVU232
 627 0094 224E     		ldr	r6, .L49+4
 628 0096 B042     		cmp	r0, r6
 629 0098 BAD0     		beq	.L35
 319:bsp/STMicroelectronics/stm32f413/stm32f4xx_hal_driver/Src/stm32f4xx_hal_gpio.c ****       {
 630              		.loc 1 319 29 discriminator 1 view .LVU233
 631 009a 06F58066 		add	r6, r6, #1024
 632 009e B042     		cmp	r0, r6
 633 00a0 15D0     		beq	.L36
 319:bsp/STMicroelectronics/stm32f413/stm32f4xx_hal_driver/Src/stm32f4xx_hal_gpio.c ****       {
 634              		.loc 1 319 29 discriminator 3 view .LVU234
 635 00a2 06F58066 		add	r6, r6, #1024
 636 00a6 B042     		cmp	r0, r6
 637 00a8 13D0     		beq	.L37
 319:bsp/STMicroelectronics/stm32f413/stm32f4xx_hal_driver/Src/stm32f4xx_hal_gpio.c ****       {
 638              		.loc 1 319 29 discriminator 5 view .LVU235
 639 00aa 06F58066 		add	r6, r6, #1024
 640 00ae B042     		cmp	r0, r6
 641 00b0 11D0     		beq	.L38
 319:bsp/STMicroelectronics/stm32f413/stm32f4xx_hal_driver/Src/stm32f4xx_hal_gpio.c ****       {
 642              		.loc 1 319 29 discriminator 7 view .LVU236
 643 00b2 06F58066 		add	r6, r6, #1024
 644 00b6 B042     		cmp	r0, r6
 645 00b8 0FD0     		beq	.L39
 319:bsp/STMicroelectronics/stm32f413/stm32f4xx_hal_driver/Src/stm32f4xx_hal_gpio.c ****       {
 646              		.loc 1 319 29 discriminator 9 view .LVU237
 647 00ba 06F58066 		add	r6, r6, #1024
 648 00be B042     		cmp	r0, r6
 649 00c0 0DD0     		beq	.L40
 319:bsp/STMicroelectronics/stm32f413/stm32f4xx_hal_driver/Src/stm32f4xx_hal_gpio.c ****       {
 650              		.loc 1 319 29 discriminator 11 view .LVU238
 651 00c2 06F58066 		add	r6, r6, #1024
 652 00c6 B042     		cmp	r0, r6
 653 00c8 A0D0     		beq	.L48
 319:bsp/STMicroelectronics/stm32f413/stm32f4xx_hal_driver/Src/stm32f4xx_hal_gpio.c ****       {
 654              		.loc 1 319 29 view .LVU239
ARM GAS  /tmp/ccE8aqdh.s 			page 21


 655 00ca 0726     		movs	r6, #7
 656 00cc A1E7     		b	.L32
 657              	.L36:
 658 00ce 0126     		movs	r6, #1
 659 00d0 9FE7     		b	.L32
 660              	.L37:
 661 00d2 0226     		movs	r6, #2
 662 00d4 9DE7     		b	.L32
 663              	.L38:
 664 00d6 0326     		movs	r6, #3
 665 00d8 9BE7     		b	.L32
 666              	.L39:
 667 00da 0426     		movs	r6, #4
 668 00dc 99E7     		b	.L32
 669              	.L40:
 670 00de 0526     		movs	r6, #5
 671 00e0 97E7     		b	.L32
 672              	.L46:
 322:bsp/STMicroelectronics/stm32f413/stm32f4xx_hal_driver/Src/stm32f4xx_hal_gpio.c ****         EXTI->EMR &= ~((uint32_t)iocurrent);
 673              		.loc 1 322 9 is_stmt 1 view .LVU240
 322:bsp/STMicroelectronics/stm32f413/stm32f4xx_hal_driver/Src/stm32f4xx_hal_gpio.c ****         EXTI->EMR &= ~((uint32_t)iocurrent);
 674              		.loc 1 322 19 is_stmt 0 view .LVU241
 675 00e2 104C     		ldr	r4, .L49+8
 676 00e4 2568     		ldr	r5, [r4]
 677              	.LVL60:
 322:bsp/STMicroelectronics/stm32f413/stm32f4xx_hal_driver/Src/stm32f4xx_hal_gpio.c ****         EXTI->EMR &= ~((uint32_t)iocurrent);
 678              		.loc 1 322 19 view .LVU242
 679 00e6 25EA0705 		bic	r5, r5, r7
 680 00ea 2560     		str	r5, [r4]
 323:bsp/STMicroelectronics/stm32f413/stm32f4xx_hal_driver/Src/stm32f4xx_hal_gpio.c ****         
 681              		.loc 1 323 9 is_stmt 1 view .LVU243
 323:bsp/STMicroelectronics/stm32f413/stm32f4xx_hal_driver/Src/stm32f4xx_hal_gpio.c ****         
 682              		.loc 1 323 19 is_stmt 0 view .LVU244
 683 00ec 6568     		ldr	r5, [r4, #4]
 684 00ee 25EA0705 		bic	r5, r5, r7
 685 00f2 6560     		str	r5, [r4, #4]
 326:bsp/STMicroelectronics/stm32f413/stm32f4xx_hal_driver/Src/stm32f4xx_hal_gpio.c ****         EXTI->FTSR &= ~((uint32_t)iocurrent);
 686              		.loc 1 326 9 is_stmt 1 view .LVU245
 326:bsp/STMicroelectronics/stm32f413/stm32f4xx_hal_driver/Src/stm32f4xx_hal_gpio.c ****         EXTI->FTSR &= ~((uint32_t)iocurrent);
 687              		.loc 1 326 20 is_stmt 0 view .LVU246
 688 00f4 A568     		ldr	r5, [r4, #8]
 689 00f6 25EA0705 		bic	r5, r5, r7
 690 00fa A560     		str	r5, [r4, #8]
 327:bsp/STMicroelectronics/stm32f413/stm32f4xx_hal_driver/Src/stm32f4xx_hal_gpio.c **** 
 691              		.loc 1 327 9 is_stmt 1 view .LVU247
 327:bsp/STMicroelectronics/stm32f413/stm32f4xx_hal_driver/Src/stm32f4xx_hal_gpio.c **** 
 692              		.loc 1 327 20 is_stmt 0 view .LVU248
 693 00fc E568     		ldr	r5, [r4, #12]
 694 00fe 25EA0707 		bic	r7, r5, r7
 695              	.LVL61:
 327:bsp/STMicroelectronics/stm32f413/stm32f4xx_hal_driver/Src/stm32f4xx_hal_gpio.c **** 
 696              		.loc 1 327 20 view .LVU249
 697 0102 E760     		str	r7, [r4, #12]
 330:bsp/STMicroelectronics/stm32f413/stm32f4xx_hal_driver/Src/stm32f4xx_hal_gpio.c ****         SYSCFG->EXTICR[position >> 2U] &= ~tmp;
 698              		.loc 1 330 9 is_stmt 1 view .LVU250
 699              	.LVL62:
 331:bsp/STMicroelectronics/stm32f413/stm32f4xx_hal_driver/Src/stm32f4xx_hal_gpio.c ****       }
ARM GAS  /tmp/ccE8aqdh.s 			page 22


 700              		.loc 1 331 9 view .LVU251
 331:bsp/STMicroelectronics/stm32f413/stm32f4xx_hal_driver/Src/stm32f4xx_hal_gpio.c ****       }
 701              		.loc 1 331 40 is_stmt 0 view .LVU252
 702 0104 054D     		ldr	r5, .L49
 703 0106 0CF10204 		add	r4, ip, #2
 704 010a 55F82460 		ldr	r6, [r5, r4, lsl #2]
 705 010e 26EA0E06 		bic	r6, r6, lr
 706 0112 45F82460 		str	r6, [r5, r4, lsl #2]
 707 0116 80E7     		b	.L33
 708              	.LVL63:
 709              	.L47:
 349:bsp/STMicroelectronics/stm32f413/stm32f4xx_hal_driver/Src/stm32f4xx_hal_gpio.c ****     }
 350:bsp/STMicroelectronics/stm32f413/stm32f4xx_hal_driver/Src/stm32f4xx_hal_gpio.c ****   }
 351:bsp/STMicroelectronics/stm32f413/stm32f4xx_hal_driver/Src/stm32f4xx_hal_gpio.c **** }
 710              		.loc 1 351 1 view .LVU253
 711 0118 F0BD     		pop	{r4, r5, r6, r7, pc}
 712              	.LVL64:
 713              	.L45:
 714              	.LCFI5:
 715              		.cfi_def_cfa_offset 0
 716              		.cfi_restore 4
 717              		.cfi_restore 5
 718              		.cfi_restore 6
 719              		.cfi_restore 7
 720              		.cfi_restore 14
 721              		.loc 1 351 1 view .LVU254
 722 011a 7047     		bx	lr
 723              	.L50:
 724              		.align	2
 725              	.L49:
 726 011c 00380140 		.word	1073821696
 727 0120 00000240 		.word	1073872896
 728 0124 003C0140 		.word	1073822720
 729              		.cfi_endproc
 730              	.LFE131:
 732              		.section	.text.HAL_GPIO_ReadPin,"ax",%progbits
 733              		.align	1
 734              		.global	HAL_GPIO_ReadPin
 735              		.syntax unified
 736              		.thumb
 737              		.thumb_func
 738              		.fpu fpv4-sp-d16
 740              	HAL_GPIO_ReadPin:
 741              	.LVL65:
 742              	.LFB132:
 352:bsp/STMicroelectronics/stm32f413/stm32f4xx_hal_driver/Src/stm32f4xx_hal_gpio.c **** 
 353:bsp/STMicroelectronics/stm32f413/stm32f4xx_hal_driver/Src/stm32f4xx_hal_gpio.c **** /**
 354:bsp/STMicroelectronics/stm32f413/stm32f4xx_hal_driver/Src/stm32f4xx_hal_gpio.c ****   * @}
 355:bsp/STMicroelectronics/stm32f413/stm32f4xx_hal_driver/Src/stm32f4xx_hal_gpio.c ****   */
 356:bsp/STMicroelectronics/stm32f413/stm32f4xx_hal_driver/Src/stm32f4xx_hal_gpio.c **** 
 357:bsp/STMicroelectronics/stm32f413/stm32f4xx_hal_driver/Src/stm32f4xx_hal_gpio.c **** /** @defgroup GPIO_Exported_Functions_Group2 IO operation functions 
 358:bsp/STMicroelectronics/stm32f413/stm32f4xx_hal_driver/Src/stm32f4xx_hal_gpio.c ****   *  @brief   GPIO Read and Write
 359:bsp/STMicroelectronics/stm32f413/stm32f4xx_hal_driver/Src/stm32f4xx_hal_gpio.c ****   *
 360:bsp/STMicroelectronics/stm32f413/stm32f4xx_hal_driver/Src/stm32f4xx_hal_gpio.c **** @verbatim
 361:bsp/STMicroelectronics/stm32f413/stm32f4xx_hal_driver/Src/stm32f4xx_hal_gpio.c ****  ===============================================================================
 362:bsp/STMicroelectronics/stm32f413/stm32f4xx_hal_driver/Src/stm32f4xx_hal_gpio.c ****                        ##### IO operation functions #####
 363:bsp/STMicroelectronics/stm32f413/stm32f4xx_hal_driver/Src/stm32f4xx_hal_gpio.c ****  ===============================================================================
ARM GAS  /tmp/ccE8aqdh.s 			page 23


 364:bsp/STMicroelectronics/stm32f413/stm32f4xx_hal_driver/Src/stm32f4xx_hal_gpio.c **** 
 365:bsp/STMicroelectronics/stm32f413/stm32f4xx_hal_driver/Src/stm32f4xx_hal_gpio.c **** @endverbatim
 366:bsp/STMicroelectronics/stm32f413/stm32f4xx_hal_driver/Src/stm32f4xx_hal_gpio.c ****   * @{
 367:bsp/STMicroelectronics/stm32f413/stm32f4xx_hal_driver/Src/stm32f4xx_hal_gpio.c ****   */
 368:bsp/STMicroelectronics/stm32f413/stm32f4xx_hal_driver/Src/stm32f4xx_hal_gpio.c **** 
 369:bsp/STMicroelectronics/stm32f413/stm32f4xx_hal_driver/Src/stm32f4xx_hal_gpio.c **** /**
 370:bsp/STMicroelectronics/stm32f413/stm32f4xx_hal_driver/Src/stm32f4xx_hal_gpio.c ****   * @brief  Reads the specified input port pin.
 371:bsp/STMicroelectronics/stm32f413/stm32f4xx_hal_driver/Src/stm32f4xx_hal_gpio.c ****   * @param  GPIOx where x can be (A..K) to select the GPIO peripheral for STM32F429X device or
 372:bsp/STMicroelectronics/stm32f413/stm32f4xx_hal_driver/Src/stm32f4xx_hal_gpio.c ****   *                      x can be (A..I) to select the GPIO peripheral for STM32F40XX and STM32F427
 373:bsp/STMicroelectronics/stm32f413/stm32f4xx_hal_driver/Src/stm32f4xx_hal_gpio.c ****   * @param  GPIO_Pin specifies the port bit to read.
 374:bsp/STMicroelectronics/stm32f413/stm32f4xx_hal_driver/Src/stm32f4xx_hal_gpio.c ****   *         This parameter can be GPIO_PIN_x where x can be (0..15).
 375:bsp/STMicroelectronics/stm32f413/stm32f4xx_hal_driver/Src/stm32f4xx_hal_gpio.c ****   * @retval The input port pin value.
 376:bsp/STMicroelectronics/stm32f413/stm32f4xx_hal_driver/Src/stm32f4xx_hal_gpio.c ****   */
 377:bsp/STMicroelectronics/stm32f413/stm32f4xx_hal_driver/Src/stm32f4xx_hal_gpio.c **** GPIO_PinState HAL_GPIO_ReadPin(GPIO_TypeDef* GPIOx, uint16_t GPIO_Pin)
 378:bsp/STMicroelectronics/stm32f413/stm32f4xx_hal_driver/Src/stm32f4xx_hal_gpio.c **** {
 743              		.loc 1 378 1 is_stmt 1 view -0
 744              		.cfi_startproc
 745              		@ args = 0, pretend = 0, frame = 0
 746              		@ frame_needed = 0, uses_anonymous_args = 0
 747              		@ link register save eliminated.
 379:bsp/STMicroelectronics/stm32f413/stm32f4xx_hal_driver/Src/stm32f4xx_hal_gpio.c ****   GPIO_PinState bitstatus;
 748              		.loc 1 379 3 view .LVU256
 380:bsp/STMicroelectronics/stm32f413/stm32f4xx_hal_driver/Src/stm32f4xx_hal_gpio.c **** 
 381:bsp/STMicroelectronics/stm32f413/stm32f4xx_hal_driver/Src/stm32f4xx_hal_gpio.c ****   /* Check the parameters */
 382:bsp/STMicroelectronics/stm32f413/stm32f4xx_hal_driver/Src/stm32f4xx_hal_gpio.c ****   assert_param(IS_GPIO_PIN(GPIO_Pin));
 749              		.loc 1 382 3 view .LVU257
 383:bsp/STMicroelectronics/stm32f413/stm32f4xx_hal_driver/Src/stm32f4xx_hal_gpio.c **** 
 384:bsp/STMicroelectronics/stm32f413/stm32f4xx_hal_driver/Src/stm32f4xx_hal_gpio.c ****   if((GPIOx->IDR & GPIO_Pin) != (uint32_t)GPIO_PIN_RESET)
 750              		.loc 1 384 3 view .LVU258
 751              		.loc 1 384 12 is_stmt 0 view .LVU259
 752 0000 0369     		ldr	r3, [r0, #16]
 753              		.loc 1 384 5 view .LVU260
 754 0002 1942     		tst	r1, r3
 755 0004 01D0     		beq	.L53
 385:bsp/STMicroelectronics/stm32f413/stm32f4xx_hal_driver/Src/stm32f4xx_hal_gpio.c ****   {
 386:bsp/STMicroelectronics/stm32f413/stm32f4xx_hal_driver/Src/stm32f4xx_hal_gpio.c ****     bitstatus = GPIO_PIN_SET;
 756              		.loc 1 386 15 view .LVU261
 757 0006 0120     		movs	r0, #1
 758              	.LVL66:
 759              		.loc 1 386 15 view .LVU262
 760 0008 7047     		bx	lr
 761              	.LVL67:
 762              	.L53:
 387:bsp/STMicroelectronics/stm32f413/stm32f4xx_hal_driver/Src/stm32f4xx_hal_gpio.c ****   }
 388:bsp/STMicroelectronics/stm32f413/stm32f4xx_hal_driver/Src/stm32f4xx_hal_gpio.c ****   else
 389:bsp/STMicroelectronics/stm32f413/stm32f4xx_hal_driver/Src/stm32f4xx_hal_gpio.c ****   {
 390:bsp/STMicroelectronics/stm32f413/stm32f4xx_hal_driver/Src/stm32f4xx_hal_gpio.c ****     bitstatus = GPIO_PIN_RESET;
 763              		.loc 1 390 15 view .LVU263
 764 000a 0020     		movs	r0, #0
 765              	.LVL68:
 391:bsp/STMicroelectronics/stm32f413/stm32f4xx_hal_driver/Src/stm32f4xx_hal_gpio.c ****   }
 392:bsp/STMicroelectronics/stm32f413/stm32f4xx_hal_driver/Src/stm32f4xx_hal_gpio.c ****   return bitstatus;
 766              		.loc 1 392 3 is_stmt 1 view .LVU264
 393:bsp/STMicroelectronics/stm32f413/stm32f4xx_hal_driver/Src/stm32f4xx_hal_gpio.c **** }
 767              		.loc 1 393 1 is_stmt 0 view .LVU265
 768 000c 7047     		bx	lr
 769              		.cfi_endproc
ARM GAS  /tmp/ccE8aqdh.s 			page 24


 770              	.LFE132:
 772              		.section	.text.HAL_GPIO_WritePin,"ax",%progbits
 773              		.align	1
 774              		.global	HAL_GPIO_WritePin
 775              		.syntax unified
 776              		.thumb
 777              		.thumb_func
 778              		.fpu fpv4-sp-d16
 780              	HAL_GPIO_WritePin:
 781              	.LVL69:
 782              	.LFB133:
 394:bsp/STMicroelectronics/stm32f413/stm32f4xx_hal_driver/Src/stm32f4xx_hal_gpio.c **** 
 395:bsp/STMicroelectronics/stm32f413/stm32f4xx_hal_driver/Src/stm32f4xx_hal_gpio.c **** /**
 396:bsp/STMicroelectronics/stm32f413/stm32f4xx_hal_driver/Src/stm32f4xx_hal_gpio.c ****   * @brief  Sets or clears the selected data port bit.
 397:bsp/STMicroelectronics/stm32f413/stm32f4xx_hal_driver/Src/stm32f4xx_hal_gpio.c ****   *
 398:bsp/STMicroelectronics/stm32f413/stm32f4xx_hal_driver/Src/stm32f4xx_hal_gpio.c ****   * @note   This function uses GPIOx_BSRR register to allow atomic read/modify
 399:bsp/STMicroelectronics/stm32f413/stm32f4xx_hal_driver/Src/stm32f4xx_hal_gpio.c ****   *         accesses. In this way, there is no risk of an IRQ occurring between
 400:bsp/STMicroelectronics/stm32f413/stm32f4xx_hal_driver/Src/stm32f4xx_hal_gpio.c ****   *         the read and the modify access.
 401:bsp/STMicroelectronics/stm32f413/stm32f4xx_hal_driver/Src/stm32f4xx_hal_gpio.c ****   *
 402:bsp/STMicroelectronics/stm32f413/stm32f4xx_hal_driver/Src/stm32f4xx_hal_gpio.c ****   * @param  GPIOx where x can be (A..K) to select the GPIO peripheral for STM32F429X device or
 403:bsp/STMicroelectronics/stm32f413/stm32f4xx_hal_driver/Src/stm32f4xx_hal_gpio.c ****   *                      x can be (A..I) to select the GPIO peripheral for STM32F40XX and STM32F427
 404:bsp/STMicroelectronics/stm32f413/stm32f4xx_hal_driver/Src/stm32f4xx_hal_gpio.c ****   * @param  GPIO_Pin specifies the port bit to be written.
 405:bsp/STMicroelectronics/stm32f413/stm32f4xx_hal_driver/Src/stm32f4xx_hal_gpio.c ****   *          This parameter can be one of GPIO_PIN_x where x can be (0..15).
 406:bsp/STMicroelectronics/stm32f413/stm32f4xx_hal_driver/Src/stm32f4xx_hal_gpio.c ****   * @param  PinState specifies the value to be written to the selected bit.
 407:bsp/STMicroelectronics/stm32f413/stm32f4xx_hal_driver/Src/stm32f4xx_hal_gpio.c ****   *          This parameter can be one of the GPIO_PinState enum values:
 408:bsp/STMicroelectronics/stm32f413/stm32f4xx_hal_driver/Src/stm32f4xx_hal_gpio.c ****   *            @arg GPIO_PIN_RESET: to clear the port pin
 409:bsp/STMicroelectronics/stm32f413/stm32f4xx_hal_driver/Src/stm32f4xx_hal_gpio.c ****   *            @arg GPIO_PIN_SET: to set the port pin
 410:bsp/STMicroelectronics/stm32f413/stm32f4xx_hal_driver/Src/stm32f4xx_hal_gpio.c ****   * @retval None
 411:bsp/STMicroelectronics/stm32f413/stm32f4xx_hal_driver/Src/stm32f4xx_hal_gpio.c ****   */
 412:bsp/STMicroelectronics/stm32f413/stm32f4xx_hal_driver/Src/stm32f4xx_hal_gpio.c **** void HAL_GPIO_WritePin(GPIO_TypeDef* GPIOx, uint16_t GPIO_Pin, GPIO_PinState PinState)
 413:bsp/STMicroelectronics/stm32f413/stm32f4xx_hal_driver/Src/stm32f4xx_hal_gpio.c **** {
 783              		.loc 1 413 1 is_stmt 1 view -0
 784              		.cfi_startproc
 785              		@ args = 0, pretend = 0, frame = 0
 786              		@ frame_needed = 0, uses_anonymous_args = 0
 787              		@ link register save eliminated.
 414:bsp/STMicroelectronics/stm32f413/stm32f4xx_hal_driver/Src/stm32f4xx_hal_gpio.c ****   /* Check the parameters */
 415:bsp/STMicroelectronics/stm32f413/stm32f4xx_hal_driver/Src/stm32f4xx_hal_gpio.c ****   assert_param(IS_GPIO_PIN(GPIO_Pin));
 788              		.loc 1 415 3 view .LVU267
 416:bsp/STMicroelectronics/stm32f413/stm32f4xx_hal_driver/Src/stm32f4xx_hal_gpio.c ****   assert_param(IS_GPIO_PIN_ACTION(PinState));
 789              		.loc 1 416 3 view .LVU268
 417:bsp/STMicroelectronics/stm32f413/stm32f4xx_hal_driver/Src/stm32f4xx_hal_gpio.c **** 
 418:bsp/STMicroelectronics/stm32f413/stm32f4xx_hal_driver/Src/stm32f4xx_hal_gpio.c ****   if(PinState != GPIO_PIN_RESET)
 790              		.loc 1 418 3 view .LVU269
 791              		.loc 1 418 5 is_stmt 0 view .LVU270
 792 0000 0AB1     		cbz	r2, .L55
 419:bsp/STMicroelectronics/stm32f413/stm32f4xx_hal_driver/Src/stm32f4xx_hal_gpio.c ****   {
 420:bsp/STMicroelectronics/stm32f413/stm32f4xx_hal_driver/Src/stm32f4xx_hal_gpio.c ****     GPIOx->BSRR = GPIO_Pin;
 793              		.loc 1 420 5 is_stmt 1 view .LVU271
 794              		.loc 1 420 17 is_stmt 0 view .LVU272
 795 0002 8161     		str	r1, [r0, #24]
 796 0004 7047     		bx	lr
 797              	.L55:
 421:bsp/STMicroelectronics/stm32f413/stm32f4xx_hal_driver/Src/stm32f4xx_hal_gpio.c ****   }
 422:bsp/STMicroelectronics/stm32f413/stm32f4xx_hal_driver/Src/stm32f4xx_hal_gpio.c ****   else
 423:bsp/STMicroelectronics/stm32f413/stm32f4xx_hal_driver/Src/stm32f4xx_hal_gpio.c ****   {
 424:bsp/STMicroelectronics/stm32f413/stm32f4xx_hal_driver/Src/stm32f4xx_hal_gpio.c ****     GPIOx->BSRR = (uint32_t)GPIO_Pin << 16U;
ARM GAS  /tmp/ccE8aqdh.s 			page 25


 798              		.loc 1 424 5 is_stmt 1 view .LVU273
 799              		.loc 1 424 38 is_stmt 0 view .LVU274
 800 0006 0904     		lsls	r1, r1, #16
 801              	.LVL70:
 802              		.loc 1 424 17 view .LVU275
 803 0008 8161     		str	r1, [r0, #24]
 425:bsp/STMicroelectronics/stm32f413/stm32f4xx_hal_driver/Src/stm32f4xx_hal_gpio.c ****   }
 426:bsp/STMicroelectronics/stm32f413/stm32f4xx_hal_driver/Src/stm32f4xx_hal_gpio.c **** }
 804              		.loc 1 426 1 view .LVU276
 805 000a 7047     		bx	lr
 806              		.cfi_endproc
 807              	.LFE133:
 809              		.section	.text.HAL_GPIO_TogglePin,"ax",%progbits
 810              		.align	1
 811              		.global	HAL_GPIO_TogglePin
 812              		.syntax unified
 813              		.thumb
 814              		.thumb_func
 815              		.fpu fpv4-sp-d16
 817              	HAL_GPIO_TogglePin:
 818              	.LVL71:
 819              	.LFB134:
 427:bsp/STMicroelectronics/stm32f413/stm32f4xx_hal_driver/Src/stm32f4xx_hal_gpio.c **** 
 428:bsp/STMicroelectronics/stm32f413/stm32f4xx_hal_driver/Src/stm32f4xx_hal_gpio.c **** /**
 429:bsp/STMicroelectronics/stm32f413/stm32f4xx_hal_driver/Src/stm32f4xx_hal_gpio.c ****   * @brief  Toggles the specified GPIO pins.
 430:bsp/STMicroelectronics/stm32f413/stm32f4xx_hal_driver/Src/stm32f4xx_hal_gpio.c ****   * @param  GPIOx Where x can be (A..K) to select the GPIO peripheral for STM32F429X device or
 431:bsp/STMicroelectronics/stm32f413/stm32f4xx_hal_driver/Src/stm32f4xx_hal_gpio.c ****   *                      x can be (A..I) to select the GPIO peripheral for STM32F40XX and STM32F427
 432:bsp/STMicroelectronics/stm32f413/stm32f4xx_hal_driver/Src/stm32f4xx_hal_gpio.c ****   * @param  GPIO_Pin Specifies the pins to be toggled.
 433:bsp/STMicroelectronics/stm32f413/stm32f4xx_hal_driver/Src/stm32f4xx_hal_gpio.c ****   * @retval None
 434:bsp/STMicroelectronics/stm32f413/stm32f4xx_hal_driver/Src/stm32f4xx_hal_gpio.c ****   */
 435:bsp/STMicroelectronics/stm32f413/stm32f4xx_hal_driver/Src/stm32f4xx_hal_gpio.c **** void HAL_GPIO_TogglePin(GPIO_TypeDef* GPIOx, uint16_t GPIO_Pin)
 436:bsp/STMicroelectronics/stm32f413/stm32f4xx_hal_driver/Src/stm32f4xx_hal_gpio.c **** {
 820              		.loc 1 436 1 is_stmt 1 view -0
 821              		.cfi_startproc
 822              		@ args = 0, pretend = 0, frame = 0
 823              		@ frame_needed = 0, uses_anonymous_args = 0
 824              		@ link register save eliminated.
 437:bsp/STMicroelectronics/stm32f413/stm32f4xx_hal_driver/Src/stm32f4xx_hal_gpio.c ****   /* Check the parameters */
 438:bsp/STMicroelectronics/stm32f413/stm32f4xx_hal_driver/Src/stm32f4xx_hal_gpio.c ****   assert_param(IS_GPIO_PIN(GPIO_Pin));
 825              		.loc 1 438 3 view .LVU278
 439:bsp/STMicroelectronics/stm32f413/stm32f4xx_hal_driver/Src/stm32f4xx_hal_gpio.c **** 
 440:bsp/STMicroelectronics/stm32f413/stm32f4xx_hal_driver/Src/stm32f4xx_hal_gpio.c ****   if ((GPIOx->ODR & GPIO_Pin) == GPIO_Pin)
 826              		.loc 1 440 3 view .LVU279
 827              		.loc 1 440 13 is_stmt 0 view .LVU280
 828 0000 4369     		ldr	r3, [r0, #20]
 829              		.loc 1 440 6 view .LVU281
 830 0002 31EA0303 		bics	r3, r1, r3
 831 0006 01D0     		beq	.L60
 441:bsp/STMicroelectronics/stm32f413/stm32f4xx_hal_driver/Src/stm32f4xx_hal_gpio.c ****   {
 442:bsp/STMicroelectronics/stm32f413/stm32f4xx_hal_driver/Src/stm32f4xx_hal_gpio.c ****     GPIOx->BSRR = (uint32_t)GPIO_Pin << GPIO_NUMBER;
 443:bsp/STMicroelectronics/stm32f413/stm32f4xx_hal_driver/Src/stm32f4xx_hal_gpio.c ****   }
 444:bsp/STMicroelectronics/stm32f413/stm32f4xx_hal_driver/Src/stm32f4xx_hal_gpio.c ****   else
 445:bsp/STMicroelectronics/stm32f413/stm32f4xx_hal_driver/Src/stm32f4xx_hal_gpio.c ****   {
 446:bsp/STMicroelectronics/stm32f413/stm32f4xx_hal_driver/Src/stm32f4xx_hal_gpio.c ****     GPIOx->BSRR = GPIO_Pin;
 832              		.loc 1 446 5 is_stmt 1 view .LVU282
 833              		.loc 1 446 17 is_stmt 0 view .LVU283
 834 0008 8161     		str	r1, [r0, #24]
ARM GAS  /tmp/ccE8aqdh.s 			page 26


 447:bsp/STMicroelectronics/stm32f413/stm32f4xx_hal_driver/Src/stm32f4xx_hal_gpio.c ****   }
 448:bsp/STMicroelectronics/stm32f413/stm32f4xx_hal_driver/Src/stm32f4xx_hal_gpio.c **** }
 835              		.loc 1 448 1 view .LVU284
 836 000a 7047     		bx	lr
 837              	.L60:
 442:bsp/STMicroelectronics/stm32f413/stm32f4xx_hal_driver/Src/stm32f4xx_hal_gpio.c ****   }
 838              		.loc 1 442 5 is_stmt 1 view .LVU285
 442:bsp/STMicroelectronics/stm32f413/stm32f4xx_hal_driver/Src/stm32f4xx_hal_gpio.c ****   }
 839              		.loc 1 442 38 is_stmt 0 view .LVU286
 840 000c 0904     		lsls	r1, r1, #16
 841              	.LVL72:
 442:bsp/STMicroelectronics/stm32f413/stm32f4xx_hal_driver/Src/stm32f4xx_hal_gpio.c ****   }
 842              		.loc 1 442 17 view .LVU287
 843 000e 8161     		str	r1, [r0, #24]
 844 0010 7047     		bx	lr
 845              		.cfi_endproc
 846              	.LFE134:
 848              		.section	.text.HAL_GPIO_LockPin,"ax",%progbits
 849              		.align	1
 850              		.global	HAL_GPIO_LockPin
 851              		.syntax unified
 852              		.thumb
 853              		.thumb_func
 854              		.fpu fpv4-sp-d16
 856              	HAL_GPIO_LockPin:
 857              	.LVL73:
 858              	.LFB135:
 449:bsp/STMicroelectronics/stm32f413/stm32f4xx_hal_driver/Src/stm32f4xx_hal_gpio.c **** 
 450:bsp/STMicroelectronics/stm32f413/stm32f4xx_hal_driver/Src/stm32f4xx_hal_gpio.c **** /**
 451:bsp/STMicroelectronics/stm32f413/stm32f4xx_hal_driver/Src/stm32f4xx_hal_gpio.c ****   * @brief  Locks GPIO Pins configuration registers.
 452:bsp/STMicroelectronics/stm32f413/stm32f4xx_hal_driver/Src/stm32f4xx_hal_gpio.c ****   * @note   The locked registers are GPIOx_MODER, GPIOx_OTYPER, GPIOx_OSPEEDR,
 453:bsp/STMicroelectronics/stm32f413/stm32f4xx_hal_driver/Src/stm32f4xx_hal_gpio.c ****   *         GPIOx_PUPDR, GPIOx_AFRL and GPIOx_AFRH.
 454:bsp/STMicroelectronics/stm32f413/stm32f4xx_hal_driver/Src/stm32f4xx_hal_gpio.c ****   * @note   The configuration of the locked GPIO pins can no longer be modified
 455:bsp/STMicroelectronics/stm32f413/stm32f4xx_hal_driver/Src/stm32f4xx_hal_gpio.c ****   *         until the next reset.
 456:bsp/STMicroelectronics/stm32f413/stm32f4xx_hal_driver/Src/stm32f4xx_hal_gpio.c ****   * @param  GPIOx where x can be (A..F) to select the GPIO peripheral for STM32F4 family
 457:bsp/STMicroelectronics/stm32f413/stm32f4xx_hal_driver/Src/stm32f4xx_hal_gpio.c ****   * @param  GPIO_Pin specifies the port bit to be locked.
 458:bsp/STMicroelectronics/stm32f413/stm32f4xx_hal_driver/Src/stm32f4xx_hal_gpio.c ****   *         This parameter can be any combination of GPIO_PIN_x where x can be (0..15).
 459:bsp/STMicroelectronics/stm32f413/stm32f4xx_hal_driver/Src/stm32f4xx_hal_gpio.c ****   * @retval None
 460:bsp/STMicroelectronics/stm32f413/stm32f4xx_hal_driver/Src/stm32f4xx_hal_gpio.c ****   */
 461:bsp/STMicroelectronics/stm32f413/stm32f4xx_hal_driver/Src/stm32f4xx_hal_gpio.c **** HAL_StatusTypeDef HAL_GPIO_LockPin(GPIO_TypeDef* GPIOx, uint16_t GPIO_Pin)
 462:bsp/STMicroelectronics/stm32f413/stm32f4xx_hal_driver/Src/stm32f4xx_hal_gpio.c **** {
 859              		.loc 1 462 1 is_stmt 1 view -0
 860              		.cfi_startproc
 861              		@ args = 0, pretend = 0, frame = 8
 862              		@ frame_needed = 0, uses_anonymous_args = 0
 863              		@ link register save eliminated.
 864              		.loc 1 462 1 is_stmt 0 view .LVU289
 865 0000 82B0     		sub	sp, sp, #8
 866              	.LCFI6:
 867              		.cfi_def_cfa_offset 8
 463:bsp/STMicroelectronics/stm32f413/stm32f4xx_hal_driver/Src/stm32f4xx_hal_gpio.c ****   __IO uint32_t tmp = GPIO_LCKR_LCKK;
 868              		.loc 1 463 3 is_stmt 1 view .LVU290
 869              		.loc 1 463 17 is_stmt 0 view .LVU291
 870 0002 4FF48033 		mov	r3, #65536
 871 0006 0193     		str	r3, [sp, #4]
 464:bsp/STMicroelectronics/stm32f413/stm32f4xx_hal_driver/Src/stm32f4xx_hal_gpio.c **** 
 465:bsp/STMicroelectronics/stm32f413/stm32f4xx_hal_driver/Src/stm32f4xx_hal_gpio.c ****   /* Check the parameters */
ARM GAS  /tmp/ccE8aqdh.s 			page 27


 466:bsp/STMicroelectronics/stm32f413/stm32f4xx_hal_driver/Src/stm32f4xx_hal_gpio.c ****   assert_param(IS_GPIO_PIN(GPIO_Pin));
 872              		.loc 1 466 3 is_stmt 1 view .LVU292
 467:bsp/STMicroelectronics/stm32f413/stm32f4xx_hal_driver/Src/stm32f4xx_hal_gpio.c **** 
 468:bsp/STMicroelectronics/stm32f413/stm32f4xx_hal_driver/Src/stm32f4xx_hal_gpio.c ****   /* Apply lock key write sequence */
 469:bsp/STMicroelectronics/stm32f413/stm32f4xx_hal_driver/Src/stm32f4xx_hal_gpio.c ****   tmp |= GPIO_Pin;
 873              		.loc 1 469 3 view .LVU293
 874              		.loc 1 469 7 is_stmt 0 view .LVU294
 875 0008 019B     		ldr	r3, [sp, #4]
 876 000a 0B43     		orrs	r3, r3, r1
 877 000c 0193     		str	r3, [sp, #4]
 470:bsp/STMicroelectronics/stm32f413/stm32f4xx_hal_driver/Src/stm32f4xx_hal_gpio.c ****   /* Set LCKx bit(s): LCKK='1' + LCK[15-0] */
 471:bsp/STMicroelectronics/stm32f413/stm32f4xx_hal_driver/Src/stm32f4xx_hal_gpio.c ****   GPIOx->LCKR = tmp;
 878              		.loc 1 471 3 is_stmt 1 view .LVU295
 879              		.loc 1 471 15 is_stmt 0 view .LVU296
 880 000e 019B     		ldr	r3, [sp, #4]
 881 0010 C361     		str	r3, [r0, #28]
 472:bsp/STMicroelectronics/stm32f413/stm32f4xx_hal_driver/Src/stm32f4xx_hal_gpio.c ****   /* Reset LCKx bit(s): LCKK='0' + LCK[15-0] */
 473:bsp/STMicroelectronics/stm32f413/stm32f4xx_hal_driver/Src/stm32f4xx_hal_gpio.c ****   GPIOx->LCKR = GPIO_Pin;
 882              		.loc 1 473 3 is_stmt 1 view .LVU297
 883              		.loc 1 473 15 is_stmt 0 view .LVU298
 884 0012 C161     		str	r1, [r0, #28]
 474:bsp/STMicroelectronics/stm32f413/stm32f4xx_hal_driver/Src/stm32f4xx_hal_gpio.c ****   /* Set LCKx bit(s): LCKK='1' + LCK[15-0] */
 475:bsp/STMicroelectronics/stm32f413/stm32f4xx_hal_driver/Src/stm32f4xx_hal_gpio.c ****   GPIOx->LCKR = tmp;
 885              		.loc 1 475 3 is_stmt 1 view .LVU299
 886              		.loc 1 475 15 is_stmt 0 view .LVU300
 887 0014 019B     		ldr	r3, [sp, #4]
 888 0016 C361     		str	r3, [r0, #28]
 476:bsp/STMicroelectronics/stm32f413/stm32f4xx_hal_driver/Src/stm32f4xx_hal_gpio.c ****   /* Read LCKR register. This read is mandatory to complete key lock sequence */
 477:bsp/STMicroelectronics/stm32f413/stm32f4xx_hal_driver/Src/stm32f4xx_hal_gpio.c ****   tmp = GPIOx->LCKR;
 889              		.loc 1 477 3 is_stmt 1 view .LVU301
 890              		.loc 1 477 14 is_stmt 0 view .LVU302
 891 0018 C369     		ldr	r3, [r0, #28]
 892              		.loc 1 477 7 view .LVU303
 893 001a 0193     		str	r3, [sp, #4]
 478:bsp/STMicroelectronics/stm32f413/stm32f4xx_hal_driver/Src/stm32f4xx_hal_gpio.c **** 
 479:bsp/STMicroelectronics/stm32f413/stm32f4xx_hal_driver/Src/stm32f4xx_hal_gpio.c ****   /* Read again in order to confirm lock is active */
 480:bsp/STMicroelectronics/stm32f413/stm32f4xx_hal_driver/Src/stm32f4xx_hal_gpio.c ****  if((GPIOx->LCKR & GPIO_LCKR_LCKK) != RESET)
 894              		.loc 1 480 2 is_stmt 1 view .LVU304
 895              		.loc 1 480 11 is_stmt 0 view .LVU305
 896 001c C369     		ldr	r3, [r0, #28]
 897              		.loc 1 480 4 view .LVU306
 898 001e 13F4803F 		tst	r3, #65536
 899 0022 02D0     		beq	.L63
 481:bsp/STMicroelectronics/stm32f413/stm32f4xx_hal_driver/Src/stm32f4xx_hal_gpio.c ****   {
 482:bsp/STMicroelectronics/stm32f413/stm32f4xx_hal_driver/Src/stm32f4xx_hal_gpio.c ****     return HAL_OK;
 900              		.loc 1 482 12 view .LVU307
 901 0024 0020     		movs	r0, #0
 902              	.LVL74:
 903              	.L62:
 483:bsp/STMicroelectronics/stm32f413/stm32f4xx_hal_driver/Src/stm32f4xx_hal_gpio.c ****   }
 484:bsp/STMicroelectronics/stm32f413/stm32f4xx_hal_driver/Src/stm32f4xx_hal_gpio.c ****   else
 485:bsp/STMicroelectronics/stm32f413/stm32f4xx_hal_driver/Src/stm32f4xx_hal_gpio.c ****   {
 486:bsp/STMicroelectronics/stm32f413/stm32f4xx_hal_driver/Src/stm32f4xx_hal_gpio.c ****     return HAL_ERROR;
 487:bsp/STMicroelectronics/stm32f413/stm32f4xx_hal_driver/Src/stm32f4xx_hal_gpio.c ****   }
 488:bsp/STMicroelectronics/stm32f413/stm32f4xx_hal_driver/Src/stm32f4xx_hal_gpio.c **** }
 904              		.loc 1 488 1 view .LVU308
 905 0026 02B0     		add	sp, sp, #8
ARM GAS  /tmp/ccE8aqdh.s 			page 28


 906              	.LCFI7:
 907              		.cfi_remember_state
 908              		.cfi_def_cfa_offset 0
 909              		@ sp needed
 910 0028 7047     		bx	lr
 911              	.LVL75:
 912              	.L63:
 913              	.LCFI8:
 914              		.cfi_restore_state
 486:bsp/STMicroelectronics/stm32f413/stm32f4xx_hal_driver/Src/stm32f4xx_hal_gpio.c ****   }
 915              		.loc 1 486 12 view .LVU309
 916 002a 0120     		movs	r0, #1
 917              	.LVL76:
 486:bsp/STMicroelectronics/stm32f413/stm32f4xx_hal_driver/Src/stm32f4xx_hal_gpio.c ****   }
 918              		.loc 1 486 12 view .LVU310
 919 002c FBE7     		b	.L62
 920              		.cfi_endproc
 921              	.LFE135:
 923              		.section	.text.HAL_GPIO_EXTI_Callback,"ax",%progbits
 924              		.align	1
 925              		.weak	HAL_GPIO_EXTI_Callback
 926              		.syntax unified
 927              		.thumb
 928              		.thumb_func
 929              		.fpu fpv4-sp-d16
 931              	HAL_GPIO_EXTI_Callback:
 932              	.LVL77:
 933              	.LFB137:
 489:bsp/STMicroelectronics/stm32f413/stm32f4xx_hal_driver/Src/stm32f4xx_hal_gpio.c **** 
 490:bsp/STMicroelectronics/stm32f413/stm32f4xx_hal_driver/Src/stm32f4xx_hal_gpio.c **** /**
 491:bsp/STMicroelectronics/stm32f413/stm32f4xx_hal_driver/Src/stm32f4xx_hal_gpio.c ****   * @brief  This function handles EXTI interrupt request.
 492:bsp/STMicroelectronics/stm32f413/stm32f4xx_hal_driver/Src/stm32f4xx_hal_gpio.c ****   * @param  GPIO_Pin Specifies the pins connected EXTI line
 493:bsp/STMicroelectronics/stm32f413/stm32f4xx_hal_driver/Src/stm32f4xx_hal_gpio.c ****   * @retval None
 494:bsp/STMicroelectronics/stm32f413/stm32f4xx_hal_driver/Src/stm32f4xx_hal_gpio.c ****   */
 495:bsp/STMicroelectronics/stm32f413/stm32f4xx_hal_driver/Src/stm32f4xx_hal_gpio.c **** void HAL_GPIO_EXTI_IRQHandler(uint16_t GPIO_Pin)
 496:bsp/STMicroelectronics/stm32f413/stm32f4xx_hal_driver/Src/stm32f4xx_hal_gpio.c **** {
 497:bsp/STMicroelectronics/stm32f413/stm32f4xx_hal_driver/Src/stm32f4xx_hal_gpio.c ****   /* EXTI line interrupt detected */
 498:bsp/STMicroelectronics/stm32f413/stm32f4xx_hal_driver/Src/stm32f4xx_hal_gpio.c ****   if(__HAL_GPIO_EXTI_GET_IT(GPIO_Pin) != RESET)
 499:bsp/STMicroelectronics/stm32f413/stm32f4xx_hal_driver/Src/stm32f4xx_hal_gpio.c ****   {
 500:bsp/STMicroelectronics/stm32f413/stm32f4xx_hal_driver/Src/stm32f4xx_hal_gpio.c ****     __HAL_GPIO_EXTI_CLEAR_IT(GPIO_Pin);
 501:bsp/STMicroelectronics/stm32f413/stm32f4xx_hal_driver/Src/stm32f4xx_hal_gpio.c ****     HAL_GPIO_EXTI_Callback(GPIO_Pin);
 502:bsp/STMicroelectronics/stm32f413/stm32f4xx_hal_driver/Src/stm32f4xx_hal_gpio.c ****   }
 503:bsp/STMicroelectronics/stm32f413/stm32f4xx_hal_driver/Src/stm32f4xx_hal_gpio.c **** }
 504:bsp/STMicroelectronics/stm32f413/stm32f4xx_hal_driver/Src/stm32f4xx_hal_gpio.c **** 
 505:bsp/STMicroelectronics/stm32f413/stm32f4xx_hal_driver/Src/stm32f4xx_hal_gpio.c **** /**
 506:bsp/STMicroelectronics/stm32f413/stm32f4xx_hal_driver/Src/stm32f4xx_hal_gpio.c ****   * @brief  EXTI line detection callbacks.
 507:bsp/STMicroelectronics/stm32f413/stm32f4xx_hal_driver/Src/stm32f4xx_hal_gpio.c ****   * @param  GPIO_Pin Specifies the pins connected EXTI line
 508:bsp/STMicroelectronics/stm32f413/stm32f4xx_hal_driver/Src/stm32f4xx_hal_gpio.c ****   * @retval None
 509:bsp/STMicroelectronics/stm32f413/stm32f4xx_hal_driver/Src/stm32f4xx_hal_gpio.c ****   */
 510:bsp/STMicroelectronics/stm32f413/stm32f4xx_hal_driver/Src/stm32f4xx_hal_gpio.c **** __weak void HAL_GPIO_EXTI_Callback(uint16_t GPIO_Pin)
 511:bsp/STMicroelectronics/stm32f413/stm32f4xx_hal_driver/Src/stm32f4xx_hal_gpio.c **** {
 934              		.loc 1 511 1 is_stmt 1 view -0
 935              		.cfi_startproc
 936              		@ args = 0, pretend = 0, frame = 0
 937              		@ frame_needed = 0, uses_anonymous_args = 0
 938              		@ link register save eliminated.
 512:bsp/STMicroelectronics/stm32f413/stm32f4xx_hal_driver/Src/stm32f4xx_hal_gpio.c ****   /* Prevent unused argument(s) compilation warning */
ARM GAS  /tmp/ccE8aqdh.s 			page 29


 513:bsp/STMicroelectronics/stm32f413/stm32f4xx_hal_driver/Src/stm32f4xx_hal_gpio.c ****   UNUSED(GPIO_Pin);
 939              		.loc 1 513 3 view .LVU312
 514:bsp/STMicroelectronics/stm32f413/stm32f4xx_hal_driver/Src/stm32f4xx_hal_gpio.c ****   /* NOTE: This function Should not be modified, when the callback is needed,
 515:bsp/STMicroelectronics/stm32f413/stm32f4xx_hal_driver/Src/stm32f4xx_hal_gpio.c ****            the HAL_GPIO_EXTI_Callback could be implemented in the user file
 516:bsp/STMicroelectronics/stm32f413/stm32f4xx_hal_driver/Src/stm32f4xx_hal_gpio.c ****    */
 517:bsp/STMicroelectronics/stm32f413/stm32f4xx_hal_driver/Src/stm32f4xx_hal_gpio.c **** }
 940              		.loc 1 517 1 is_stmt 0 view .LVU313
 941 0000 7047     		bx	lr
 942              		.cfi_endproc
 943              	.LFE137:
 945              		.section	.text.HAL_GPIO_EXTI_IRQHandler,"ax",%progbits
 946              		.align	1
 947              		.global	HAL_GPIO_EXTI_IRQHandler
 948              		.syntax unified
 949              		.thumb
 950              		.thumb_func
 951              		.fpu fpv4-sp-d16
 953              	HAL_GPIO_EXTI_IRQHandler:
 954              	.LVL78:
 955              	.LFB136:
 496:bsp/STMicroelectronics/stm32f413/stm32f4xx_hal_driver/Src/stm32f4xx_hal_gpio.c ****   /* EXTI line interrupt detected */
 956              		.loc 1 496 1 is_stmt 1 view -0
 957              		.cfi_startproc
 958              		@ args = 0, pretend = 0, frame = 0
 959              		@ frame_needed = 0, uses_anonymous_args = 0
 496:bsp/STMicroelectronics/stm32f413/stm32f4xx_hal_driver/Src/stm32f4xx_hal_gpio.c ****   /* EXTI line interrupt detected */
 960              		.loc 1 496 1 is_stmt 0 view .LVU315
 961 0000 08B5     		push	{r3, lr}
 962              	.LCFI9:
 963              		.cfi_def_cfa_offset 8
 964              		.cfi_offset 3, -8
 965              		.cfi_offset 14, -4
 498:bsp/STMicroelectronics/stm32f413/stm32f4xx_hal_driver/Src/stm32f4xx_hal_gpio.c ****   {
 966              		.loc 1 498 3 is_stmt 1 view .LVU316
 498:bsp/STMicroelectronics/stm32f413/stm32f4xx_hal_driver/Src/stm32f4xx_hal_gpio.c ****   {
 967              		.loc 1 498 6 is_stmt 0 view .LVU317
 968 0002 054B     		ldr	r3, .L70
 969 0004 5B69     		ldr	r3, [r3, #20]
 498:bsp/STMicroelectronics/stm32f413/stm32f4xx_hal_driver/Src/stm32f4xx_hal_gpio.c ****   {
 970              		.loc 1 498 5 view .LVU318
 971 0006 0342     		tst	r3, r0
 972 0008 00D1     		bne	.L69
 973              	.LVL79:
 974              	.L66:
 503:bsp/STMicroelectronics/stm32f413/stm32f4xx_hal_driver/Src/stm32f4xx_hal_gpio.c **** 
 975              		.loc 1 503 1 view .LVU319
 976 000a 08BD     		pop	{r3, pc}
 977              	.LVL80:
 978              	.L69:
 500:bsp/STMicroelectronics/stm32f413/stm32f4xx_hal_driver/Src/stm32f4xx_hal_gpio.c ****     HAL_GPIO_EXTI_Callback(GPIO_Pin);
 979              		.loc 1 500 5 is_stmt 1 view .LVU320
 980 000c 024B     		ldr	r3, .L70
 981 000e 5861     		str	r0, [r3, #20]
 501:bsp/STMicroelectronics/stm32f413/stm32f4xx_hal_driver/Src/stm32f4xx_hal_gpio.c ****   }
 982              		.loc 1 501 5 view .LVU321
 983 0010 FFF7FEFF 		bl	HAL_GPIO_EXTI_Callback
 984              	.LVL81:
ARM GAS  /tmp/ccE8aqdh.s 			page 30


 503:bsp/STMicroelectronics/stm32f413/stm32f4xx_hal_driver/Src/stm32f4xx_hal_gpio.c **** 
 985              		.loc 1 503 1 is_stmt 0 view .LVU322
 986 0014 F9E7     		b	.L66
 987              	.L71:
 988 0016 00BF     		.align	2
 989              	.L70:
 990 0018 003C0140 		.word	1073822720
 991              		.cfi_endproc
 992              	.LFE136:
 994              		.text
 995              	.Letext0:
 996              		.file 2 "/home/sijin/Git/ARM-Toolchain-Setup/gcc-arm-none-eabi/arm-none-eabi/include/machine/_defa
 997              		.file 3 "/home/sijin/Git/ARM-Toolchain-Setup/gcc-arm-none-eabi/arm-none-eabi/include/sys/_stdint.h
 998              		.file 4 "cmsis/Include/core_cm4.h"
 999              		.file 5 "cmsis/Device/ST/Include/system_stm32f4xx.h"
 1000              		.file 6 "cmsis/Device/ST/Include/stm32f413xx.h"
 1001              		.file 7 "cmsis/Device/ST/Include/stm32f4xx.h"
 1002              		.file 8 "bsp/STMicroelectronics/stm32f413/stm32f4xx_hal_driver/Inc/stm32f4xx_hal_def.h"
 1003              		.file 9 "bsp/STMicroelectronics/stm32f413/stm32f4xx_hal_driver/Inc/stm32f4xx_hal_gpio.h"
 1004              		.file 10 "bsp/STMicroelectronics/stm32f413/stm32f4xx_hal_driver/Inc/stm32f4xx_hal.h"
ARM GAS  /tmp/ccE8aqdh.s 			page 31

