ARM GAS  /tmp/cciyuUhu.s 			page 1


   1              		.cpu cortex-m4
   2              		.eabi_attribute 27, 1
   3              		.eabi_attribute 28, 1
   4              		.eabi_attribute 20, 1
   5              		.eabi_attribute 21, 1
   6              		.eabi_attribute 23, 3
   7              		.eabi_attribute 24, 1
   8              		.eabi_attribute 25, 1
   9              		.eabi_attribute 26, 1
  10              		.eabi_attribute 30, 1
  11              		.eabi_attribute 34, 1
  12              		.eabi_attribute 18, 4
  13              		.file	"usbd_hid_report.c"
  14              		.text
  15              	.Ltext0:
  16              		.cfi_sections	.debug_frame
  17              		.section	.text.USBD_HID_ReportClr,"ax",%progbits
  18              		.align	1
  19              		.arch armv7e-m
  20              		.syntax unified
  21              		.thumb
  22              		.thumb_func
  23              		.fpu fpv4-sp-d16
  25              	USBD_HID_ReportClr:
  26              	.LVL0:
  27              	.LFB7:
  28              		.file 1 "rtos/uC-USB-Device/Class/HID/usbd_hid_report.c"
   1:rtos/uC-USB-Device/Class/HID/usbd_hid_report.c **** /*
   2:rtos/uC-USB-Device/Class/HID/usbd_hid_report.c **** ***************************************************************************************************
   3:rtos/uC-USB-Device/Class/HID/usbd_hid_report.c **** *                                            uC/USB-Device
   4:rtos/uC-USB-Device/Class/HID/usbd_hid_report.c **** *                                    The Embedded USB Device Stack
   5:rtos/uC-USB-Device/Class/HID/usbd_hid_report.c **** *
   6:rtos/uC-USB-Device/Class/HID/usbd_hid_report.c **** *                         (c) Copyright 2004-2019; Silicon Laboratories Inc.,
   7:rtos/uC-USB-Device/Class/HID/usbd_hid_report.c **** *                                400 W. Cesar Chavez, Austin, TX 78701
   8:rtos/uC-USB-Device/Class/HID/usbd_hid_report.c **** *
   9:rtos/uC-USB-Device/Class/HID/usbd_hid_report.c **** *                   All rights reserved. Protected by international copyright laws.
  10:rtos/uC-USB-Device/Class/HID/usbd_hid_report.c **** *
  11:rtos/uC-USB-Device/Class/HID/usbd_hid_report.c **** *                  Your use of this software is subject to your acceptance of the terms
  12:rtos/uC-USB-Device/Class/HID/usbd_hid_report.c **** *                  of a Silicon Labs Micrium software license, which can be obtained by
  13:rtos/uC-USB-Device/Class/HID/usbd_hid_report.c **** *                  contacting info@micrium.com. If you do not agree to the terms of this
  14:rtos/uC-USB-Device/Class/HID/usbd_hid_report.c **** *                  license, you may not use this software.
  15:rtos/uC-USB-Device/Class/HID/usbd_hid_report.c **** *
  16:rtos/uC-USB-Device/Class/HID/usbd_hid_report.c **** *                  Please help us continue to provide the Embedded community with the finest
  17:rtos/uC-USB-Device/Class/HID/usbd_hid_report.c **** *                  software available. Your honesty is greatly appreciated.
  18:rtos/uC-USB-Device/Class/HID/usbd_hid_report.c **** *
  19:rtos/uC-USB-Device/Class/HID/usbd_hid_report.c **** *                    You can find our product's documentation at: doc.micrium.com
  20:rtos/uC-USB-Device/Class/HID/usbd_hid_report.c **** *
  21:rtos/uC-USB-Device/Class/HID/usbd_hid_report.c **** *                          For more information visit us at: www.micrium.com
  22:rtos/uC-USB-Device/Class/HID/usbd_hid_report.c **** ***************************************************************************************************
  23:rtos/uC-USB-Device/Class/HID/usbd_hid_report.c **** */
  24:rtos/uC-USB-Device/Class/HID/usbd_hid_report.c **** 
  25:rtos/uC-USB-Device/Class/HID/usbd_hid_report.c **** /*
  26:rtos/uC-USB-Device/Class/HID/usbd_hid_report.c **** ***************************************************************************************************
  27:rtos/uC-USB-Device/Class/HID/usbd_hid_report.c **** *
  28:rtos/uC-USB-Device/Class/HID/usbd_hid_report.c **** *                                        USB DEVICE HID REPORT
  29:rtos/uC-USB-Device/Class/HID/usbd_hid_report.c **** *
  30:rtos/uC-USB-Device/Class/HID/usbd_hid_report.c **** * Filename : usbd_hid_report.c
ARM GAS  /tmp/cciyuUhu.s 			page 2


  31:rtos/uC-USB-Device/Class/HID/usbd_hid_report.c **** * Version  : V4.05.06
  32:rtos/uC-USB-Device/Class/HID/usbd_hid_report.c **** ***************************************************************************************************
  33:rtos/uC-USB-Device/Class/HID/usbd_hid_report.c **** */
  34:rtos/uC-USB-Device/Class/HID/usbd_hid_report.c **** 
  35:rtos/uC-USB-Device/Class/HID/usbd_hid_report.c **** /*
  36:rtos/uC-USB-Device/Class/HID/usbd_hid_report.c **** ***************************************************************************************************
  37:rtos/uC-USB-Device/Class/HID/usbd_hid_report.c **** *                                            INCLUDE FILES
  38:rtos/uC-USB-Device/Class/HID/usbd_hid_report.c **** ***************************************************************************************************
  39:rtos/uC-USB-Device/Class/HID/usbd_hid_report.c **** */
  40:rtos/uC-USB-Device/Class/HID/usbd_hid_report.c **** 
  41:rtos/uC-USB-Device/Class/HID/usbd_hid_report.c **** #define    MICRIUM_SOURCE
  42:rtos/uC-USB-Device/Class/HID/usbd_hid_report.c **** #include  "../../Source/usbd_core.h"
  43:rtos/uC-USB-Device/Class/HID/usbd_hid_report.c **** #include  "usbd_hid_report.h"
  44:rtos/uC-USB-Device/Class/HID/usbd_hid_report.c **** #include  "usbd_hid.h"
  45:rtos/uC-USB-Device/Class/HID/usbd_hid_report.c **** #include  <lib_mem.h>
  46:rtos/uC-USB-Device/Class/HID/usbd_hid_report.c **** 
  47:rtos/uC-USB-Device/Class/HID/usbd_hid_report.c **** 
  48:rtos/uC-USB-Device/Class/HID/usbd_hid_report.c **** /*
  49:rtos/uC-USB-Device/Class/HID/usbd_hid_report.c **** ***************************************************************************************************
  50:rtos/uC-USB-Device/Class/HID/usbd_hid_report.c **** *                                            LOCAL DEFINES
  51:rtos/uC-USB-Device/Class/HID/usbd_hid_report.c **** ***************************************************************************************************
  52:rtos/uC-USB-Device/Class/HID/usbd_hid_report.c **** */
  53:rtos/uC-USB-Device/Class/HID/usbd_hid_report.c **** 
  54:rtos/uC-USB-Device/Class/HID/usbd_hid_report.c **** #define  USBD_HID_REPORT_ITEM_SIZE_MASK                 0x03u
  55:rtos/uC-USB-Device/Class/HID/usbd_hid_report.c **** #define  USBD_HID_REPORT_ITEM_TYPE_MASK                 0x0Cu
  56:rtos/uC-USB-Device/Class/HID/usbd_hid_report.c **** #define  USBD_HID_REPORT_ITEM_TAG_MASK                  0xF0u
  57:rtos/uC-USB-Device/Class/HID/usbd_hid_report.c **** 
  58:rtos/uC-USB-Device/Class/HID/usbd_hid_report.c **** #define  USBD_HID_IDLE_INFINITE                         0x00u
  59:rtos/uC-USB-Device/Class/HID/usbd_hid_report.c **** #define  USBD_HID_IDLE_ALL_REPORT                       0x00u
  60:rtos/uC-USB-Device/Class/HID/usbd_hid_report.c **** 
  61:rtos/uC-USB-Device/Class/HID/usbd_hid_report.c **** 
  62:rtos/uC-USB-Device/Class/HID/usbd_hid_report.c **** /*
  63:rtos/uC-USB-Device/Class/HID/usbd_hid_report.c **** ***************************************************************************************************
  64:rtos/uC-USB-Device/Class/HID/usbd_hid_report.c **** *                                           LOCAL CONSTANTS
  65:rtos/uC-USB-Device/Class/HID/usbd_hid_report.c **** ***************************************************************************************************
  66:rtos/uC-USB-Device/Class/HID/usbd_hid_report.c **** */
  67:rtos/uC-USB-Device/Class/HID/usbd_hid_report.c **** 
  68:rtos/uC-USB-Device/Class/HID/usbd_hid_report.c **** 
  69:rtos/uC-USB-Device/Class/HID/usbd_hid_report.c **** /*
  70:rtos/uC-USB-Device/Class/HID/usbd_hid_report.c **** ***************************************************************************************************
  71:rtos/uC-USB-Device/Class/HID/usbd_hid_report.c **** *                                        FORWARD DECLARATIONS
  72:rtos/uC-USB-Device/Class/HID/usbd_hid_report.c **** ***************************************************************************************************
  73:rtos/uC-USB-Device/Class/HID/usbd_hid_report.c **** */
  74:rtos/uC-USB-Device/Class/HID/usbd_hid_report.c **** 
  75:rtos/uC-USB-Device/Class/HID/usbd_hid_report.c **** 
  76:rtos/uC-USB-Device/Class/HID/usbd_hid_report.c **** /*
  77:rtos/uC-USB-Device/Class/HID/usbd_hid_report.c **** ***************************************************************************************************
  78:rtos/uC-USB-Device/Class/HID/usbd_hid_report.c **** *                                          LOCAL DATA TYPES
  79:rtos/uC-USB-Device/Class/HID/usbd_hid_report.c **** ***************************************************************************************************
  80:rtos/uC-USB-Device/Class/HID/usbd_hid_report.c **** */
  81:rtos/uC-USB-Device/Class/HID/usbd_hid_report.c **** 
  82:rtos/uC-USB-Device/Class/HID/usbd_hid_report.c **** typedef  struct  usbd_hid_report_item {
  83:rtos/uC-USB-Device/Class/HID/usbd_hid_report.c ****     CPU_INT08U  ReportID;
  84:rtos/uC-USB-Device/Class/HID/usbd_hid_report.c ****     CPU_INT16U  Size;
  85:rtos/uC-USB-Device/Class/HID/usbd_hid_report.c ****     CPU_INT16U  Cnt;
  86:rtos/uC-USB-Device/Class/HID/usbd_hid_report.c **** } USBD_HID_REPORT_ITEM;
  87:rtos/uC-USB-Device/Class/HID/usbd_hid_report.c **** 
ARM GAS  /tmp/cciyuUhu.s 			page 3


  88:rtos/uC-USB-Device/Class/HID/usbd_hid_report.c **** 
  89:rtos/uC-USB-Device/Class/HID/usbd_hid_report.c **** /*
  90:rtos/uC-USB-Device/Class/HID/usbd_hid_report.c **** ***************************************************************************************************
  91:rtos/uC-USB-Device/Class/HID/usbd_hid_report.c **** *                                            LOCAL TABLES
  92:rtos/uC-USB-Device/Class/HID/usbd_hid_report.c **** ***************************************************************************************************
  93:rtos/uC-USB-Device/Class/HID/usbd_hid_report.c **** */
  94:rtos/uC-USB-Device/Class/HID/usbd_hid_report.c **** 
  95:rtos/uC-USB-Device/Class/HID/usbd_hid_report.c **** static  USBD_HID_REPORT_ID   USBD_HID_ReportID_Tbl[USBD_HID_CFG_MAX_NBR_REPORT_ID];
  96:rtos/uC-USB-Device/Class/HID/usbd_hid_report.c **** 
  97:rtos/uC-USB-Device/Class/HID/usbd_hid_report.c **** 
  98:rtos/uC-USB-Device/Class/HID/usbd_hid_report.c **** /*
  99:rtos/uC-USB-Device/Class/HID/usbd_hid_report.c **** ***************************************************************************************************
 100:rtos/uC-USB-Device/Class/HID/usbd_hid_report.c **** *                                       LOCAL GLOBAL VARIABLES
 101:rtos/uC-USB-Device/Class/HID/usbd_hid_report.c **** ***************************************************************************************************
 102:rtos/uC-USB-Device/Class/HID/usbd_hid_report.c **** */
 103:rtos/uC-USB-Device/Class/HID/usbd_hid_report.c **** 
 104:rtos/uC-USB-Device/Class/HID/usbd_hid_report.c **** static  CPU_INT16U           USBD_HID_ReportID_Tbl_Ix;
 105:rtos/uC-USB-Device/Class/HID/usbd_hid_report.c **** static  USBD_HID_REPORT_ID  *USBD_HID_ReportID_TmrList;
 106:rtos/uC-USB-Device/Class/HID/usbd_hid_report.c **** 
 107:rtos/uC-USB-Device/Class/HID/usbd_hid_report.c **** 
 108:rtos/uC-USB-Device/Class/HID/usbd_hid_report.c **** /*
 109:rtos/uC-USB-Device/Class/HID/usbd_hid_report.c **** ***************************************************************************************************
 110:rtos/uC-USB-Device/Class/HID/usbd_hid_report.c **** *                                      LOCAL FUNCTION PROTOTYPES
 111:rtos/uC-USB-Device/Class/HID/usbd_hid_report.c **** ***************************************************************************************************
 112:rtos/uC-USB-Device/Class/HID/usbd_hid_report.c **** */
 113:rtos/uC-USB-Device/Class/HID/usbd_hid_report.c **** 
 114:rtos/uC-USB-Device/Class/HID/usbd_hid_report.c **** static  void                  USBD_HID_ReportClr     (USBD_HID_REPORT       *p_report);
 115:rtos/uC-USB-Device/Class/HID/usbd_hid_report.c **** 
 116:rtos/uC-USB-Device/Class/HID/usbd_hid_report.c **** static  USBD_HID_REPORT_ID   *USBD_HID_ReportID_Alloc(void);
 117:rtos/uC-USB-Device/Class/HID/usbd_hid_report.c **** 
 118:rtos/uC-USB-Device/Class/HID/usbd_hid_report.c **** static  USBD_HID_REPORT_ID   *USBD_HID_ReportID_Get  (USBD_HID_REPORT       *p_report,
 119:rtos/uC-USB-Device/Class/HID/usbd_hid_report.c ****                                                       USBD_HID_REPORT_TYPE     report_type,
 120:rtos/uC-USB-Device/Class/HID/usbd_hid_report.c ****                                                       CPU_INT08U               report_id);
 121:rtos/uC-USB-Device/Class/HID/usbd_hid_report.c **** 
 122:rtos/uC-USB-Device/Class/HID/usbd_hid_report.c **** 
 123:rtos/uC-USB-Device/Class/HID/usbd_hid_report.c **** /*
 124:rtos/uC-USB-Device/Class/HID/usbd_hid_report.c **** ***************************************************************************************************
 125:rtos/uC-USB-Device/Class/HID/usbd_hid_report.c **** *                                     LOCAL CONFIGURATION ERRORS
 126:rtos/uC-USB-Device/Class/HID/usbd_hid_report.c **** ***************************************************************************************************
 127:rtos/uC-USB-Device/Class/HID/usbd_hid_report.c **** */
 128:rtos/uC-USB-Device/Class/HID/usbd_hid_report.c **** 
 129:rtos/uC-USB-Device/Class/HID/usbd_hid_report.c **** 
 130:rtos/uC-USB-Device/Class/HID/usbd_hid_report.c **** /*
 131:rtos/uC-USB-Device/Class/HID/usbd_hid_report.c **** ***************************************************************************************************
 132:rtos/uC-USB-Device/Class/HID/usbd_hid_report.c **** ***************************************************************************************************
 133:rtos/uC-USB-Device/Class/HID/usbd_hid_report.c **** *                                          GLOBAL FUNCTIONS
 134:rtos/uC-USB-Device/Class/HID/usbd_hid_report.c **** ***************************************************************************************************
 135:rtos/uC-USB-Device/Class/HID/usbd_hid_report.c **** ***************************************************************************************************
 136:rtos/uC-USB-Device/Class/HID/usbd_hid_report.c **** */
 137:rtos/uC-USB-Device/Class/HID/usbd_hid_report.c **** 
 138:rtos/uC-USB-Device/Class/HID/usbd_hid_report.c **** /*
 139:rtos/uC-USB-Device/Class/HID/usbd_hid_report.c **** ***************************************************************************************************
 140:rtos/uC-USB-Device/Class/HID/usbd_hid_report.c **** *                                       USBD_HID_Report_Init()
 141:rtos/uC-USB-Device/Class/HID/usbd_hid_report.c **** *
 142:rtos/uC-USB-Device/Class/HID/usbd_hid_report.c **** * Description : Initialize HID report module.
 143:rtos/uC-USB-Device/Class/HID/usbd_hid_report.c **** *
 144:rtos/uC-USB-Device/Class/HID/usbd_hid_report.c **** * Argument(s) : p_err       Pointer to variable that will receive the return error code from this f
ARM GAS  /tmp/cciyuUhu.s 			page 4


 145:rtos/uC-USB-Device/Class/HID/usbd_hid_report.c **** *
 146:rtos/uC-USB-Device/Class/HID/usbd_hid_report.c **** *                               USBD_ERR_NONE   HID report module initialized successfully.
 147:rtos/uC-USB-Device/Class/HID/usbd_hid_report.c **** *
 148:rtos/uC-USB-Device/Class/HID/usbd_hid_report.c **** * Return(s)   : none.
 149:rtos/uC-USB-Device/Class/HID/usbd_hid_report.c **** *
 150:rtos/uC-USB-Device/Class/HID/usbd_hid_report.c **** * Note(s)     : none.
 151:rtos/uC-USB-Device/Class/HID/usbd_hid_report.c **** ***************************************************************************************************
 152:rtos/uC-USB-Device/Class/HID/usbd_hid_report.c **** */
 153:rtos/uC-USB-Device/Class/HID/usbd_hid_report.c **** 
 154:rtos/uC-USB-Device/Class/HID/usbd_hid_report.c **** void  USBD_HID_Report_Init (USBD_ERR  *p_err)
 155:rtos/uC-USB-Device/Class/HID/usbd_hid_report.c **** {
 156:rtos/uC-USB-Device/Class/HID/usbd_hid_report.c ****     USBD_HID_REPORT_ID  *p_report_id;
 157:rtos/uC-USB-Device/Class/HID/usbd_hid_report.c ****     CPU_INT16U           ix;
 158:rtos/uC-USB-Device/Class/HID/usbd_hid_report.c **** 
 159:rtos/uC-USB-Device/Class/HID/usbd_hid_report.c **** 
 160:rtos/uC-USB-Device/Class/HID/usbd_hid_report.c ****     for (ix = 0; ix < USBD_HID_CFG_MAX_NBR_REPORT_ID; ix++) {
 161:rtos/uC-USB-Device/Class/HID/usbd_hid_report.c ****         p_report_id = &USBD_HID_ReportID_Tbl[ix];
 162:rtos/uC-USB-Device/Class/HID/usbd_hid_report.c **** 
 163:rtos/uC-USB-Device/Class/HID/usbd_hid_report.c ****         p_report_id->ID      =  0;
 164:rtos/uC-USB-Device/Class/HID/usbd_hid_report.c ****         p_report_id->Size    =  0;
 165:rtos/uC-USB-Device/Class/HID/usbd_hid_report.c ****         p_report_id->DataPtr = (CPU_INT08U         *)0;
 166:rtos/uC-USB-Device/Class/HID/usbd_hid_report.c ****         p_report_id->NextPtr = (USBD_HID_REPORT_ID *)0;
 167:rtos/uC-USB-Device/Class/HID/usbd_hid_report.c **** 
 168:rtos/uC-USB-Device/Class/HID/usbd_hid_report.c ****         p_report_id->ClassNbr   =  USBD_CLASS_NBR_NONE;
 169:rtos/uC-USB-Device/Class/HID/usbd_hid_report.c ****         p_report_id->IdleCnt    =  0;
 170:rtos/uC-USB-Device/Class/HID/usbd_hid_report.c ****         p_report_id->IdleRate   =  USBD_HID_IDLE_INFINITE;
 171:rtos/uC-USB-Device/Class/HID/usbd_hid_report.c ****         p_report_id->Update     =  DEF_NO;
 172:rtos/uC-USB-Device/Class/HID/usbd_hid_report.c ****         p_report_id->TmrNextPtr = (USBD_HID_REPORT_ID *)0;
 173:rtos/uC-USB-Device/Class/HID/usbd_hid_report.c ****     }
 174:rtos/uC-USB-Device/Class/HID/usbd_hid_report.c **** 
 175:rtos/uC-USB-Device/Class/HID/usbd_hid_report.c ****     USBD_HID_ReportID_Tbl_Ix  = 0;
 176:rtos/uC-USB-Device/Class/HID/usbd_hid_report.c ****     USBD_HID_ReportID_TmrList = (USBD_HID_REPORT_ID *)0;
 177:rtos/uC-USB-Device/Class/HID/usbd_hid_report.c **** 
 178:rtos/uC-USB-Device/Class/HID/usbd_hid_report.c ****    *p_err = USBD_ERR_NONE;
 179:rtos/uC-USB-Device/Class/HID/usbd_hid_report.c **** }
 180:rtos/uC-USB-Device/Class/HID/usbd_hid_report.c **** 
 181:rtos/uC-USB-Device/Class/HID/usbd_hid_report.c **** 
 182:rtos/uC-USB-Device/Class/HID/usbd_hid_report.c **** /*
 183:rtos/uC-USB-Device/Class/HID/usbd_hid_report.c **** ***************************************************************************************************
 184:rtos/uC-USB-Device/Class/HID/usbd_hid_report.c **** *                                       USBD_HID_Report_Parse()
 185:rtos/uC-USB-Device/Class/HID/usbd_hid_report.c **** *
 186:rtos/uC-USB-Device/Class/HID/usbd_hid_report.c **** * Description : Parse HID report.
 187:rtos/uC-USB-Device/Class/HID/usbd_hid_report.c **** *
 188:rtos/uC-USB-Device/Class/HID/usbd_hid_report.c **** * Argument(s) : class_nbr           Class instance number.
 189:rtos/uC-USB-Device/Class/HID/usbd_hid_report.c **** *
 190:rtos/uC-USB-Device/Class/HID/usbd_hid_report.c **** *               p_report_data       Pointer to HID report descriptor.
 191:rtos/uC-USB-Device/Class/HID/usbd_hid_report.c **** *
 192:rtos/uC-USB-Device/Class/HID/usbd_hid_report.c **** *               report_data_len     Length of  HID report descriptor.
 193:rtos/uC-USB-Device/Class/HID/usbd_hid_report.c **** *
 194:rtos/uC-USB-Device/Class/HID/usbd_hid_report.c **** *               p_report            Pointer to HID report structure.
 195:rtos/uC-USB-Device/Class/HID/usbd_hid_report.c **** *
 196:rtos/uC-USB-Device/Class/HID/usbd_hid_report.c **** *               p_err       Pointer to variable that will receive the return error code from this f
 197:rtos/uC-USB-Device/Class/HID/usbd_hid_report.c **** *
 198:rtos/uC-USB-Device/Class/HID/usbd_hid_report.c **** *                               USBD_ERR_NONE           HID report parsed successfully.
 199:rtos/uC-USB-Device/Class/HID/usbd_hid_report.c **** *                               USBD_ERR_NULL_PTR       Argument 'p_report_data'/'p_report' passed 
 200:rtos/uC-USB-Device/Class/HID/usbd_hid_report.c **** *                                                           pointer.
 201:rtos/uC-USB-Device/Class/HID/usbd_hid_report.c **** *                               USBD_ERR_INVALID_ARG    Invalid argument(s) passed to 'p_report_dat
ARM GAS  /tmp/cciyuUhu.s 			page 5


 202:rtos/uC-USB-Device/Class/HID/usbd_hid_report.c **** *                                                           'report_data_len'.
 203:rtos/uC-USB-Device/Class/HID/usbd_hid_report.c **** *                               USBD_ERR_FAIL           Invalid HID descriptor data, mismatch on en
 204:rtos/uC-USB-Device/Class/HID/usbd_hid_report.c **** *                                                           collection, or mismatch on pop items.
 205:rtos/uC-USB-Device/Class/HID/usbd_hid_report.c **** *                               USBD_ERR_ALLOC          No more Report ID or global item structure 
 206:rtos/uC-USB-Device/Class/HID/usbd_hid_report.c **** *                                                           or memory allocation failed for report 
 207:rtos/uC-USB-Device/Class/HID/usbd_hid_report.c **** *
 208:rtos/uC-USB-Device/Class/HID/usbd_hid_report.c **** * Return(s)   : none.
 209:rtos/uC-USB-Device/Class/HID/usbd_hid_report.c **** *
 210:rtos/uC-USB-Device/Class/HID/usbd_hid_report.c **** * Note(s)     : none.
 211:rtos/uC-USB-Device/Class/HID/usbd_hid_report.c **** ***************************************************************************************************
 212:rtos/uC-USB-Device/Class/HID/usbd_hid_report.c **** */
 213:rtos/uC-USB-Device/Class/HID/usbd_hid_report.c **** 
 214:rtos/uC-USB-Device/Class/HID/usbd_hid_report.c **** void  USBD_HID_Report_Parse (       CPU_INT08U        class_nbr,
 215:rtos/uC-USB-Device/Class/HID/usbd_hid_report.c ****                              const  CPU_INT08U       *p_report_data,
 216:rtos/uC-USB-Device/Class/HID/usbd_hid_report.c ****                                     CPU_INT16U          report_data_len,
 217:rtos/uC-USB-Device/Class/HID/usbd_hid_report.c ****                                     USBD_HID_REPORT  *p_report,
 218:rtos/uC-USB-Device/Class/HID/usbd_hid_report.c ****                                     USBD_ERR         *p_err)
 219:rtos/uC-USB-Device/Class/HID/usbd_hid_report.c **** {
 220:rtos/uC-USB-Device/Class/HID/usbd_hid_report.c ****     USBD_HID_REPORT_ID    *p_report_id;
 221:rtos/uC-USB-Device/Class/HID/usbd_hid_report.c ****     USBD_HID_REPORT_ITEM  *p_item;
 222:rtos/uC-USB-Device/Class/HID/usbd_hid_report.c ****     USBD_HID_REPORT_ITEM   item_tbl[USBD_HID_CFG_MAX_NBR_REPORT_PUSHPOP + 1];
 223:rtos/uC-USB-Device/Class/HID/usbd_hid_report.c ****     CPU_INT08U             item_tbl_size;
 224:rtos/uC-USB-Device/Class/HID/usbd_hid_report.c ****     CPU_INT08U             col_nesting;
 225:rtos/uC-USB-Device/Class/HID/usbd_hid_report.c ****     CPU_INT32U             data;
 226:rtos/uC-USB-Device/Class/HID/usbd_hid_report.c ****     CPU_INT08U             tag;
 227:rtos/uC-USB-Device/Class/HID/usbd_hid_report.c ****     CPU_INT08U             report_type;
 228:rtos/uC-USB-Device/Class/HID/usbd_hid_report.c ****     LIB_ERR                err_lib;
 229:rtos/uC-USB-Device/Class/HID/usbd_hid_report.c **** 
 230:rtos/uC-USB-Device/Class/HID/usbd_hid_report.c **** 
 231:rtos/uC-USB-Device/Class/HID/usbd_hid_report.c ****     p_report_id   = (USBD_HID_REPORT_ID *)0;
 232:rtos/uC-USB-Device/Class/HID/usbd_hid_report.c ****     item_tbl_size =  0;
 233:rtos/uC-USB-Device/Class/HID/usbd_hid_report.c ****     col_nesting   =  0;
 234:rtos/uC-USB-Device/Class/HID/usbd_hid_report.c **** 
 235:rtos/uC-USB-Device/Class/HID/usbd_hid_report.c ****     p_item           = &item_tbl[0];
 236:rtos/uC-USB-Device/Class/HID/usbd_hid_report.c ****     p_item->ReportID =  0;
 237:rtos/uC-USB-Device/Class/HID/usbd_hid_report.c ****     p_item->Size     =  0;
 238:rtos/uC-USB-Device/Class/HID/usbd_hid_report.c ****     p_item->Cnt      =  0;
 239:rtos/uC-USB-Device/Class/HID/usbd_hid_report.c **** 
 240:rtos/uC-USB-Device/Class/HID/usbd_hid_report.c ****     USBD_HID_ReportClr(p_report);
 241:rtos/uC-USB-Device/Class/HID/usbd_hid_report.c **** 
 242:rtos/uC-USB-Device/Class/HID/usbd_hid_report.c ****     while (report_data_len > 0) {
 243:rtos/uC-USB-Device/Class/HID/usbd_hid_report.c ****         data = 0;
 244:rtos/uC-USB-Device/Class/HID/usbd_hid_report.c **** 
 245:rtos/uC-USB-Device/Class/HID/usbd_hid_report.c ****         tag = *p_report_data;
 246:rtos/uC-USB-Device/Class/HID/usbd_hid_report.c ****         p_report_data++;
 247:rtos/uC-USB-Device/Class/HID/usbd_hid_report.c ****           report_data_len--;
 248:rtos/uC-USB-Device/Class/HID/usbd_hid_report.c **** 
 249:rtos/uC-USB-Device/Class/HID/usbd_hid_report.c **** 
 250:rtos/uC-USB-Device/Class/HID/usbd_hid_report.c ****         switch (tag & USBD_HID_REPORT_ITEM_SIZE_MASK) {
 251:rtos/uC-USB-Device/Class/HID/usbd_hid_report.c ****             case 3:                                             /* Item size: 4 bytes.             
 252:rtos/uC-USB-Device/Class/HID/usbd_hid_report.c ****                  if (report_data_len < 4) {
 253:rtos/uC-USB-Device/Class/HID/usbd_hid_report.c ****                     *p_err = USBD_ERR_HID_REPORT_INVALID;
 254:rtos/uC-USB-Device/Class/HID/usbd_hid_report.c ****                      return;
 255:rtos/uC-USB-Device/Class/HID/usbd_hid_report.c ****                  }
 256:rtos/uC-USB-Device/Class/HID/usbd_hid_report.c **** 
 257:rtos/uC-USB-Device/Class/HID/usbd_hid_report.c ****                  data = MEM_VAL_GET_INT32U_LITTLE(p_report_data);
 258:rtos/uC-USB-Device/Class/HID/usbd_hid_report.c **** 
ARM GAS  /tmp/cciyuUhu.s 			page 6


 259:rtos/uC-USB-Device/Class/HID/usbd_hid_report.c ****                  p_report_data     += 4;
 260:rtos/uC-USB-Device/Class/HID/usbd_hid_report.c ****                    report_data_len -= 4;
 261:rtos/uC-USB-Device/Class/HID/usbd_hid_report.c ****                  break;
 262:rtos/uC-USB-Device/Class/HID/usbd_hid_report.c **** 
 263:rtos/uC-USB-Device/Class/HID/usbd_hid_report.c ****             case 2:                                             /* Item size: 2 bytes.             
 264:rtos/uC-USB-Device/Class/HID/usbd_hid_report.c ****                  if (report_data_len < 2) {
 265:rtos/uC-USB-Device/Class/HID/usbd_hid_report.c ****                     *p_err = USBD_ERR_HID_REPORT_INVALID;
 266:rtos/uC-USB-Device/Class/HID/usbd_hid_report.c ****                      return;
 267:rtos/uC-USB-Device/Class/HID/usbd_hid_report.c ****                  }
 268:rtos/uC-USB-Device/Class/HID/usbd_hid_report.c **** 
 269:rtos/uC-USB-Device/Class/HID/usbd_hid_report.c ****                  data = MEM_VAL_GET_INT16U_LITTLE(p_report_data);
 270:rtos/uC-USB-Device/Class/HID/usbd_hid_report.c **** 
 271:rtos/uC-USB-Device/Class/HID/usbd_hid_report.c ****                  p_report_data     += 2;
 272:rtos/uC-USB-Device/Class/HID/usbd_hid_report.c ****                    report_data_len -= 2;
 273:rtos/uC-USB-Device/Class/HID/usbd_hid_report.c ****                  break;
 274:rtos/uC-USB-Device/Class/HID/usbd_hid_report.c **** 
 275:rtos/uC-USB-Device/Class/HID/usbd_hid_report.c ****             case 1:                                             /* Item size: 1 byte.              
 276:rtos/uC-USB-Device/Class/HID/usbd_hid_report.c ****                  if (report_data_len < 1) {
 277:rtos/uC-USB-Device/Class/HID/usbd_hid_report.c ****                     *p_err = USBD_ERR_HID_REPORT_INVALID;
 278:rtos/uC-USB-Device/Class/HID/usbd_hid_report.c ****                      return;
 279:rtos/uC-USB-Device/Class/HID/usbd_hid_report.c ****                  }
 280:rtos/uC-USB-Device/Class/HID/usbd_hid_report.c **** 
 281:rtos/uC-USB-Device/Class/HID/usbd_hid_report.c ****                  data = *p_report_data;
 282:rtos/uC-USB-Device/Class/HID/usbd_hid_report.c **** 
 283:rtos/uC-USB-Device/Class/HID/usbd_hid_report.c ****                  p_report_data++;
 284:rtos/uC-USB-Device/Class/HID/usbd_hid_report.c ****                    report_data_len--;
 285:rtos/uC-USB-Device/Class/HID/usbd_hid_report.c ****                  break;
 286:rtos/uC-USB-Device/Class/HID/usbd_hid_report.c **** 
 287:rtos/uC-USB-Device/Class/HID/usbd_hid_report.c ****             case 0:                                             /* Item size: 0 bytes.             
 288:rtos/uC-USB-Device/Class/HID/usbd_hid_report.c ****             default:
 289:rtos/uC-USB-Device/Class/HID/usbd_hid_report.c ****                  break;
 290:rtos/uC-USB-Device/Class/HID/usbd_hid_report.c ****         }
 291:rtos/uC-USB-Device/Class/HID/usbd_hid_report.c **** 
 292:rtos/uC-USB-Device/Class/HID/usbd_hid_report.c ****         switch (tag & (USBD_HID_REPORT_ITEM_TYPE_MASK |
 293:rtos/uC-USB-Device/Class/HID/usbd_hid_report.c ****                        USBD_HID_REPORT_ITEM_TAG_MASK)) {
 294:rtos/uC-USB-Device/Class/HID/usbd_hid_report.c ****             case USBD_HID_MAIN_INPUT:
 295:rtos/uC-USB-Device/Class/HID/usbd_hid_report.c ****                  p_report_id = USBD_HID_ReportID_Get(p_report,
 296:rtos/uC-USB-Device/Class/HID/usbd_hid_report.c ****                                                      USBD_HID_REPORT_TYPE_INPUT,
 297:rtos/uC-USB-Device/Class/HID/usbd_hid_report.c ****                                                      p_item->ReportID);
 298:rtos/uC-USB-Device/Class/HID/usbd_hid_report.c ****                  if (p_report_id == (USBD_HID_REPORT_ID *)0) {
 299:rtos/uC-USB-Device/Class/HID/usbd_hid_report.c ****                     *p_err  = USBD_ERR_HID_REPORT_ALLOC;
 300:rtos/uC-USB-Device/Class/HID/usbd_hid_report.c ****                      return;
 301:rtos/uC-USB-Device/Class/HID/usbd_hid_report.c ****                  }
 302:rtos/uC-USB-Device/Class/HID/usbd_hid_report.c **** 
 303:rtos/uC-USB-Device/Class/HID/usbd_hid_report.c ****                  p_report_id->Size     += p_item->Cnt * p_item->Size;
 304:rtos/uC-USB-Device/Class/HID/usbd_hid_report.c ****                  p_report_id->ClassNbr  = class_nbr;
 305:rtos/uC-USB-Device/Class/HID/usbd_hid_report.c **** 
 306:rtos/uC-USB-Device/Class/HID/usbd_hid_report.c ****                  if (p_report->MaxInputReportSize < p_report_id->Size) {
 307:rtos/uC-USB-Device/Class/HID/usbd_hid_report.c ****                      p_report->MaxInputReportSize = p_report_id->Size;
 308:rtos/uC-USB-Device/Class/HID/usbd_hid_report.c ****                  }
 309:rtos/uC-USB-Device/Class/HID/usbd_hid_report.c ****                  break;
 310:rtos/uC-USB-Device/Class/HID/usbd_hid_report.c **** 
 311:rtos/uC-USB-Device/Class/HID/usbd_hid_report.c ****             case USBD_HID_MAIN_OUTPUT:
 312:rtos/uC-USB-Device/Class/HID/usbd_hid_report.c ****                  p_report_id = USBD_HID_ReportID_Get(p_report,
 313:rtos/uC-USB-Device/Class/HID/usbd_hid_report.c ****                                                      USBD_HID_REPORT_TYPE_OUTPUT,
 314:rtos/uC-USB-Device/Class/HID/usbd_hid_report.c ****                                                      p_item->ReportID);
 315:rtos/uC-USB-Device/Class/HID/usbd_hid_report.c ****                  if (p_report_id == (USBD_HID_REPORT_ID *)0) {
ARM GAS  /tmp/cciyuUhu.s 			page 7


 316:rtos/uC-USB-Device/Class/HID/usbd_hid_report.c ****                     *p_err  = USBD_ERR_HID_REPORT_ALLOC;
 317:rtos/uC-USB-Device/Class/HID/usbd_hid_report.c ****                      return;
 318:rtos/uC-USB-Device/Class/HID/usbd_hid_report.c ****                  }
 319:rtos/uC-USB-Device/Class/HID/usbd_hid_report.c **** 
 320:rtos/uC-USB-Device/Class/HID/usbd_hid_report.c ****                  p_report_id->Size     += p_item->Cnt * p_item->Size;
 321:rtos/uC-USB-Device/Class/HID/usbd_hid_report.c ****                  p_report_id->ClassNbr  = class_nbr;
 322:rtos/uC-USB-Device/Class/HID/usbd_hid_report.c **** 
 323:rtos/uC-USB-Device/Class/HID/usbd_hid_report.c ****                  if (p_report->MaxOutputReportSize < p_report_id->Size) {
 324:rtos/uC-USB-Device/Class/HID/usbd_hid_report.c ****                      p_report->MaxOutputReportSize = p_report_id->Size;
 325:rtos/uC-USB-Device/Class/HID/usbd_hid_report.c ****                  }
 326:rtos/uC-USB-Device/Class/HID/usbd_hid_report.c ****                  break;
 327:rtos/uC-USB-Device/Class/HID/usbd_hid_report.c **** 
 328:rtos/uC-USB-Device/Class/HID/usbd_hid_report.c ****             case USBD_HID_MAIN_FEATURE:
 329:rtos/uC-USB-Device/Class/HID/usbd_hid_report.c ****                  p_report_id = USBD_HID_ReportID_Get(p_report,
 330:rtos/uC-USB-Device/Class/HID/usbd_hid_report.c ****                                                      USBD_HID_REPORT_TYPE_FEATURE,
 331:rtos/uC-USB-Device/Class/HID/usbd_hid_report.c ****                                                      p_item->ReportID);
 332:rtos/uC-USB-Device/Class/HID/usbd_hid_report.c ****                  if (p_report_id == (USBD_HID_REPORT_ID *)0) {
 333:rtos/uC-USB-Device/Class/HID/usbd_hid_report.c ****                     *p_err  = USBD_ERR_HID_REPORT_ALLOC;
 334:rtos/uC-USB-Device/Class/HID/usbd_hid_report.c ****                      return;
 335:rtos/uC-USB-Device/Class/HID/usbd_hid_report.c ****                  }
 336:rtos/uC-USB-Device/Class/HID/usbd_hid_report.c **** 
 337:rtos/uC-USB-Device/Class/HID/usbd_hid_report.c ****                  p_report_id->Size     += p_item->Cnt * p_item->Size;
 338:rtos/uC-USB-Device/Class/HID/usbd_hid_report.c ****                  p_report_id->ClassNbr  = class_nbr;
 339:rtos/uC-USB-Device/Class/HID/usbd_hid_report.c **** 
 340:rtos/uC-USB-Device/Class/HID/usbd_hid_report.c ****                  if (p_report->MaxFeatureReportSize < p_report_id->Size) {
 341:rtos/uC-USB-Device/Class/HID/usbd_hid_report.c ****                      p_report->MaxFeatureReportSize = p_report_id->Size;
 342:rtos/uC-USB-Device/Class/HID/usbd_hid_report.c ****                  }
 343:rtos/uC-USB-Device/Class/HID/usbd_hid_report.c ****                  break;
 344:rtos/uC-USB-Device/Class/HID/usbd_hid_report.c **** 
 345:rtos/uC-USB-Device/Class/HID/usbd_hid_report.c **** 
 346:rtos/uC-USB-Device/Class/HID/usbd_hid_report.c ****             case USBD_HID_MAIN_COLLECTION:
 347:rtos/uC-USB-Device/Class/HID/usbd_hid_report.c ****                  col_nesting++;
 348:rtos/uC-USB-Device/Class/HID/usbd_hid_report.c ****                  break;
 349:rtos/uC-USB-Device/Class/HID/usbd_hid_report.c **** 
 350:rtos/uC-USB-Device/Class/HID/usbd_hid_report.c ****             case USBD_HID_MAIN_ENDCOLLECTION:
 351:rtos/uC-USB-Device/Class/HID/usbd_hid_report.c ****                  if (col_nesting == 0) {
 352:rtos/uC-USB-Device/Class/HID/usbd_hid_report.c ****                     *p_err = USBD_ERR_HID_REPORT_INVALID;
 353:rtos/uC-USB-Device/Class/HID/usbd_hid_report.c ****                      return;
 354:rtos/uC-USB-Device/Class/HID/usbd_hid_report.c ****                  }
 355:rtos/uC-USB-Device/Class/HID/usbd_hid_report.c **** 
 356:rtos/uC-USB-Device/Class/HID/usbd_hid_report.c ****                  col_nesting--;
 357:rtos/uC-USB-Device/Class/HID/usbd_hid_report.c ****                  break;
 358:rtos/uC-USB-Device/Class/HID/usbd_hid_report.c **** 
 359:rtos/uC-USB-Device/Class/HID/usbd_hid_report.c **** 
 360:rtos/uC-USB-Device/Class/HID/usbd_hid_report.c ****             case USBD_HID_GLOBAL_REPORT_SIZE:
 361:rtos/uC-USB-Device/Class/HID/usbd_hid_report.c ****                  p_item->Size = data & DEF_INT_16_MASK;
 362:rtos/uC-USB-Device/Class/HID/usbd_hid_report.c ****                  break;
 363:rtos/uC-USB-Device/Class/HID/usbd_hid_report.c **** 
 364:rtos/uC-USB-Device/Class/HID/usbd_hid_report.c ****             case USBD_HID_GLOBAL_REPORT_COUNT:
 365:rtos/uC-USB-Device/Class/HID/usbd_hid_report.c ****                  p_item->Cnt = data & DEF_INT_16_MASK;
 366:rtos/uC-USB-Device/Class/HID/usbd_hid_report.c ****                  break;
 367:rtos/uC-USB-Device/Class/HID/usbd_hid_report.c **** 
 368:rtos/uC-USB-Device/Class/HID/usbd_hid_report.c ****             case USBD_HID_GLOBAL_REPORT_ID:
 369:rtos/uC-USB-Device/Class/HID/usbd_hid_report.c ****                  p_item->ReportID     = data & DEF_INT_08_MASK;
 370:rtos/uC-USB-Device/Class/HID/usbd_hid_report.c ****                  p_report->HasReports = DEF_YES;
 371:rtos/uC-USB-Device/Class/HID/usbd_hid_report.c ****                  break;
 372:rtos/uC-USB-Device/Class/HID/usbd_hid_report.c **** 
ARM GAS  /tmp/cciyuUhu.s 			page 8


 373:rtos/uC-USB-Device/Class/HID/usbd_hid_report.c **** 
 374:rtos/uC-USB-Device/Class/HID/usbd_hid_report.c ****             case USBD_HID_GLOBAL_PUSH:
 375:rtos/uC-USB-Device/Class/HID/usbd_hid_report.c **** #if (USBD_HID_CFG_MAX_NBR_REPORT_PUSHPOP > 0)
 376:rtos/uC-USB-Device/Class/HID/usbd_hid_report.c ****                  if (item_tbl_size >= USBD_HID_CFG_MAX_NBR_REPORT_PUSHPOP) {
 377:rtos/uC-USB-Device/Class/HID/usbd_hid_report.c ****                     *p_err = USBD_ERR_HID_REPORT_PUSH_POP_ALLOC;
 378:rtos/uC-USB-Device/Class/HID/usbd_hid_report.c ****                      return;
 379:rtos/uC-USB-Device/Class/HID/usbd_hid_report.c ****                  }
 380:rtos/uC-USB-Device/Class/HID/usbd_hid_report.c **** 
 381:rtos/uC-USB-Device/Class/HID/usbd_hid_report.c ****                  p_item = &item_tbl[item_tbl_size + 1];
 382:rtos/uC-USB-Device/Class/HID/usbd_hid_report.c **** 
 383:rtos/uC-USB-Device/Class/HID/usbd_hid_report.c ****                  p_item->ReportID = item_tbl[item_tbl_size].ReportID;
 384:rtos/uC-USB-Device/Class/HID/usbd_hid_report.c ****                  p_item->Size     = item_tbl[item_tbl_size].Size;
 385:rtos/uC-USB-Device/Class/HID/usbd_hid_report.c ****                  p_item->Cnt      = item_tbl[item_tbl_size].Cnt;
 386:rtos/uC-USB-Device/Class/HID/usbd_hid_report.c **** 
 387:rtos/uC-USB-Device/Class/HID/usbd_hid_report.c ****                  item_tbl_size++;
 388:rtos/uC-USB-Device/Class/HID/usbd_hid_report.c ****                  break;
 389:rtos/uC-USB-Device/Class/HID/usbd_hid_report.c **** #else
 390:rtos/uC-USB-Device/Class/HID/usbd_hid_report.c ****                 *p_err = USBD_ERR_HID_REPORT_PUSH_POP_ALLOC;
 391:rtos/uC-USB-Device/Class/HID/usbd_hid_report.c ****                  return;
 392:rtos/uC-USB-Device/Class/HID/usbd_hid_report.c **** #endif
 393:rtos/uC-USB-Device/Class/HID/usbd_hid_report.c **** 
 394:rtos/uC-USB-Device/Class/HID/usbd_hid_report.c ****             case USBD_HID_GLOBAL_POP:
 395:rtos/uC-USB-Device/Class/HID/usbd_hid_report.c ****                  if (item_tbl_size == 0) {
 396:rtos/uC-USB-Device/Class/HID/usbd_hid_report.c ****                     *p_err = USBD_ERR_HID_REPORT_INVALID;
 397:rtos/uC-USB-Device/Class/HID/usbd_hid_report.c ****                      return;
 398:rtos/uC-USB-Device/Class/HID/usbd_hid_report.c ****                  }
 399:rtos/uC-USB-Device/Class/HID/usbd_hid_report.c **** 
 400:rtos/uC-USB-Device/Class/HID/usbd_hid_report.c ****                  item_tbl_size--;
 401:rtos/uC-USB-Device/Class/HID/usbd_hid_report.c ****                  p_item = &item_tbl[item_tbl_size];
 402:rtos/uC-USB-Device/Class/HID/usbd_hid_report.c ****                  break;
 403:rtos/uC-USB-Device/Class/HID/usbd_hid_report.c **** 
 404:rtos/uC-USB-Device/Class/HID/usbd_hid_report.c **** 
 405:rtos/uC-USB-Device/Class/HID/usbd_hid_report.c ****             case USBD_HID_LOCAL_USAGE:
 406:rtos/uC-USB-Device/Class/HID/usbd_hid_report.c ****             case USBD_HID_LOCAL_USAGE_MIN:
 407:rtos/uC-USB-Device/Class/HID/usbd_hid_report.c ****             case USBD_HID_LOCAL_USAGE_MAX:
 408:rtos/uC-USB-Device/Class/HID/usbd_hid_report.c ****             case USBD_HID_GLOBAL_USAGE_PAGE:
 409:rtos/uC-USB-Device/Class/HID/usbd_hid_report.c ****             case USBD_HID_GLOBAL_LOG_MIN:
 410:rtos/uC-USB-Device/Class/HID/usbd_hid_report.c ****             case USBD_HID_GLOBAL_LOG_MAX:
 411:rtos/uC-USB-Device/Class/HID/usbd_hid_report.c ****             case USBD_HID_GLOBAL_PHY_MIN:
 412:rtos/uC-USB-Device/Class/HID/usbd_hid_report.c ****             case USBD_HID_GLOBAL_PHY_MAX:
 413:rtos/uC-USB-Device/Class/HID/usbd_hid_report.c ****             case USBD_HID_GLOBAL_UNIT_EXPONENT:
 414:rtos/uC-USB-Device/Class/HID/usbd_hid_report.c ****             case USBD_HID_GLOBAL_UNIT:
 415:rtos/uC-USB-Device/Class/HID/usbd_hid_report.c ****             case USBD_HID_LOCAL_DESIGNATOR_INDEX:
 416:rtos/uC-USB-Device/Class/HID/usbd_hid_report.c ****             case USBD_HID_LOCAL_DESIGNATOR_MIN:
 417:rtos/uC-USB-Device/Class/HID/usbd_hid_report.c ****             case USBD_HID_LOCAL_DESIGNATOR_MAX:
 418:rtos/uC-USB-Device/Class/HID/usbd_hid_report.c ****             case USBD_HID_LOCAL_STRING_INDEX:
 419:rtos/uC-USB-Device/Class/HID/usbd_hid_report.c ****             case USBD_HID_LOCAL_STRING_MIN:
 420:rtos/uC-USB-Device/Class/HID/usbd_hid_report.c ****             case USBD_HID_LOCAL_STRING_MAX:
 421:rtos/uC-USB-Device/Class/HID/usbd_hid_report.c ****             case USBD_HID_LOCAL_DELIMITER:
 422:rtos/uC-USB-Device/Class/HID/usbd_hid_report.c ****                  break;
 423:rtos/uC-USB-Device/Class/HID/usbd_hid_report.c **** 
 424:rtos/uC-USB-Device/Class/HID/usbd_hid_report.c ****             default:
 425:rtos/uC-USB-Device/Class/HID/usbd_hid_report.c ****                 *p_err = USBD_ERR_HID_REPORT_INVALID;
 426:rtos/uC-USB-Device/Class/HID/usbd_hid_report.c ****                  return;
 427:rtos/uC-USB-Device/Class/HID/usbd_hid_report.c ****         }
 428:rtos/uC-USB-Device/Class/HID/usbd_hid_report.c ****     }
 429:rtos/uC-USB-Device/Class/HID/usbd_hid_report.c **** 
ARM GAS  /tmp/cciyuUhu.s 			page 9


 430:rtos/uC-USB-Device/Class/HID/usbd_hid_report.c ****     if (col_nesting > 0) {
 431:rtos/uC-USB-Device/Class/HID/usbd_hid_report.c ****        *p_err = USBD_ERR_HID_REPORT_INVALID;
 432:rtos/uC-USB-Device/Class/HID/usbd_hid_report.c ****         return;
 433:rtos/uC-USB-Device/Class/HID/usbd_hid_report.c ****     }
 434:rtos/uC-USB-Device/Class/HID/usbd_hid_report.c **** 
 435:rtos/uC-USB-Device/Class/HID/usbd_hid_report.c ****                                                                 /* ----------- CONVERT REPORT SIZE 
 436:rtos/uC-USB-Device/Class/HID/usbd_hid_report.c ****     p_report->MaxInputReportSize += 7;
 437:rtos/uC-USB-Device/Class/HID/usbd_hid_report.c ****     p_report->MaxInputReportSize /= 8;
 438:rtos/uC-USB-Device/Class/HID/usbd_hid_report.c **** 
 439:rtos/uC-USB-Device/Class/HID/usbd_hid_report.c ****     p_report->MaxOutputReportSize += 7;
 440:rtos/uC-USB-Device/Class/HID/usbd_hid_report.c ****     p_report->MaxOutputReportSize /= 8;
 441:rtos/uC-USB-Device/Class/HID/usbd_hid_report.c **** 
 442:rtos/uC-USB-Device/Class/HID/usbd_hid_report.c ****     p_report->MaxFeatureReportSize += 7;
 443:rtos/uC-USB-Device/Class/HID/usbd_hid_report.c ****     p_report->MaxFeatureReportSize /= 8;
 444:rtos/uC-USB-Device/Class/HID/usbd_hid_report.c **** 
 445:rtos/uC-USB-Device/Class/HID/usbd_hid_report.c ****     if (p_report->HasReports == DEF_YES) {                      /* Reserve space for Report ID.    
 446:rtos/uC-USB-Device/Class/HID/usbd_hid_report.c ****         if (p_report->MaxInputReportSize > 0) {
 447:rtos/uC-USB-Device/Class/HID/usbd_hid_report.c ****             p_report->MaxInputReportSize++;
 448:rtos/uC-USB-Device/Class/HID/usbd_hid_report.c ****         }
 449:rtos/uC-USB-Device/Class/HID/usbd_hid_report.c ****         if (p_report->MaxOutputReportSize > 0) {
 450:rtos/uC-USB-Device/Class/HID/usbd_hid_report.c ****             p_report->MaxOutputReportSize++;
 451:rtos/uC-USB-Device/Class/HID/usbd_hid_report.c ****         }
 452:rtos/uC-USB-Device/Class/HID/usbd_hid_report.c ****         if (p_report->MaxFeatureReportSize > 0) {
 453:rtos/uC-USB-Device/Class/HID/usbd_hid_report.c ****             p_report->MaxFeatureReportSize++;
 454:rtos/uC-USB-Device/Class/HID/usbd_hid_report.c ****         }
 455:rtos/uC-USB-Device/Class/HID/usbd_hid_report.c ****     }
 456:rtos/uC-USB-Device/Class/HID/usbd_hid_report.c **** 
 457:rtos/uC-USB-Device/Class/HID/usbd_hid_report.c ****     if (p_report->MaxOutputReportSize > 0) {
 458:rtos/uC-USB-Device/Class/HID/usbd_hid_report.c ****         p_report->MaxOutputReportPtr = (CPU_INT08U *)Mem_HeapAlloc(              p_report->MaxOutpu
 459:rtos/uC-USB-Device/Class/HID/usbd_hid_report.c ****                                                                                  USBD_CFG_BUF_ALIGN
 460:rtos/uC-USB-Device/Class/HID/usbd_hid_report.c ****                                                                    (CPU_SIZE_T *)DEF_NULL,
 461:rtos/uC-USB-Device/Class/HID/usbd_hid_report.c ****                                                                                 &err_lib);
 462:rtos/uC-USB-Device/Class/HID/usbd_hid_report.c ****         if (err_lib != LIB_MEM_ERR_NONE) {
 463:rtos/uC-USB-Device/Class/HID/usbd_hid_report.c ****            *p_err = USBD_ERR_ALLOC;
 464:rtos/uC-USB-Device/Class/HID/usbd_hid_report.c ****             return;
 465:rtos/uC-USB-Device/Class/HID/usbd_hid_report.c ****         }
 466:rtos/uC-USB-Device/Class/HID/usbd_hid_report.c ****     }
 467:rtos/uC-USB-Device/Class/HID/usbd_hid_report.c **** 
 468:rtos/uC-USB-Device/Class/HID/usbd_hid_report.c ****     if (p_report->MaxFeatureReportSize > 0) {
 469:rtos/uC-USB-Device/Class/HID/usbd_hid_report.c ****         p_report->MaxFeatureReportPtr = (CPU_INT08U *)Mem_HeapAlloc(              p_report->MaxFeat
 470:rtos/uC-USB-Device/Class/HID/usbd_hid_report.c ****                                                                                   USBD_CFG_BUF_ALIG
 471:rtos/uC-USB-Device/Class/HID/usbd_hid_report.c ****                                                                     (CPU_SIZE_T *)DEF_NULL,
 472:rtos/uC-USB-Device/Class/HID/usbd_hid_report.c ****                                                                                  &err_lib);
 473:rtos/uC-USB-Device/Class/HID/usbd_hid_report.c ****         if (err_lib != LIB_MEM_ERR_NONE) {
 474:rtos/uC-USB-Device/Class/HID/usbd_hid_report.c ****            *p_err = USBD_ERR_ALLOC;
 475:rtos/uC-USB-Device/Class/HID/usbd_hid_report.c ****             return;
 476:rtos/uC-USB-Device/Class/HID/usbd_hid_report.c ****         }
 477:rtos/uC-USB-Device/Class/HID/usbd_hid_report.c ****     }
 478:rtos/uC-USB-Device/Class/HID/usbd_hid_report.c **** 
 479:rtos/uC-USB-Device/Class/HID/usbd_hid_report.c ****     for (report_type = 0; report_type < 3; report_type++) {
 480:rtos/uC-USB-Device/Class/HID/usbd_hid_report.c ****         p_report_id = p_report->Reports[report_type];
 481:rtos/uC-USB-Device/Class/HID/usbd_hid_report.c ****         while (p_report_id != (USBD_HID_REPORT_ID *)0) {
 482:rtos/uC-USB-Device/Class/HID/usbd_hid_report.c ****             p_report_id->Size += 7;
 483:rtos/uC-USB-Device/Class/HID/usbd_hid_report.c ****             p_report_id->Size /= 8;
 484:rtos/uC-USB-Device/Class/HID/usbd_hid_report.c **** 
 485:rtos/uC-USB-Device/Class/HID/usbd_hid_report.c ****             if (p_report_id->Size > 0) {
 486:rtos/uC-USB-Device/Class/HID/usbd_hid_report.c ****                 if (p_report->HasReports == DEF_YES) {
ARM GAS  /tmp/cciyuUhu.s 			page 10


 487:rtos/uC-USB-Device/Class/HID/usbd_hid_report.c ****                     p_report_id->Size++;                        /* Reserve space for report ID.    
 488:rtos/uC-USB-Device/Class/HID/usbd_hid_report.c ****                 }
 489:rtos/uC-USB-Device/Class/HID/usbd_hid_report.c **** 
 490:rtos/uC-USB-Device/Class/HID/usbd_hid_report.c ****                 if (report_type == 0) {                         /* Input reports use individual buf
 491:rtos/uC-USB-Device/Class/HID/usbd_hid_report.c ****                     p_report_id->DataPtr = (CPU_INT08U *)Mem_HeapAlloc(              p_report_id->S
 492:rtos/uC-USB-Device/Class/HID/usbd_hid_report.c ****                                                                                      USBD_CFG_BUF_A
 493:rtos/uC-USB-Device/Class/HID/usbd_hid_report.c ****                                                                        (CPU_SIZE_T *)DEF_NULL,
 494:rtos/uC-USB-Device/Class/HID/usbd_hid_report.c ****                                                                                     &err_lib);
 495:rtos/uC-USB-Device/Class/HID/usbd_hid_report.c ****                     if (err_lib != LIB_MEM_ERR_NONE) {
 496:rtos/uC-USB-Device/Class/HID/usbd_hid_report.c ****                        *p_err = USBD_ERR_ALLOC;
 497:rtos/uC-USB-Device/Class/HID/usbd_hid_report.c ****                         return;
 498:rtos/uC-USB-Device/Class/HID/usbd_hid_report.c ****                     }
 499:rtos/uC-USB-Device/Class/HID/usbd_hid_report.c ****                                                                  /* The first byte must be the repo
 500:rtos/uC-USB-Device/Class/HID/usbd_hid_report.c ****                     Mem_Clr(&p_report_id->DataPtr[0u], p_report_id->Size);
 501:rtos/uC-USB-Device/Class/HID/usbd_hid_report.c ****                     p_report_id->DataPtr[0u] = p_report_id->ID;
 502:rtos/uC-USB-Device/Class/HID/usbd_hid_report.c ****                 }
 503:rtos/uC-USB-Device/Class/HID/usbd_hid_report.c ****             }
 504:rtos/uC-USB-Device/Class/HID/usbd_hid_report.c **** 
 505:rtos/uC-USB-Device/Class/HID/usbd_hid_report.c ****             p_report_id = p_report_id->NextPtr;
 506:rtos/uC-USB-Device/Class/HID/usbd_hid_report.c ****         }
 507:rtos/uC-USB-Device/Class/HID/usbd_hid_report.c ****     }
 508:rtos/uC-USB-Device/Class/HID/usbd_hid_report.c **** 
 509:rtos/uC-USB-Device/Class/HID/usbd_hid_report.c ****    *p_err = USBD_ERR_NONE;
 510:rtos/uC-USB-Device/Class/HID/usbd_hid_report.c **** }
 511:rtos/uC-USB-Device/Class/HID/usbd_hid_report.c **** 
 512:rtos/uC-USB-Device/Class/HID/usbd_hid_report.c **** 
 513:rtos/uC-USB-Device/Class/HID/usbd_hid_report.c **** /*
 514:rtos/uC-USB-Device/Class/HID/usbd_hid_report.c **** ***************************************************************************************************
 515:rtos/uC-USB-Device/Class/HID/usbd_hid_report.c **** *                                     USBD_HID_ReportID_InfoGet()
 516:rtos/uC-USB-Device/Class/HID/usbd_hid_report.c **** *
 517:rtos/uC-USB-Device/Class/HID/usbd_hid_report.c **** * Description : Retrieve HID report length and pointer to its data area.
 518:rtos/uC-USB-Device/Class/HID/usbd_hid_report.c **** *
 519:rtos/uC-USB-Device/Class/HID/usbd_hid_report.c **** * Argument(s) : p_report        Pointer to HID report structure.
 520:rtos/uC-USB-Device/Class/HID/usbd_hid_report.c **** *
 521:rtos/uC-USB-Device/Class/HID/usbd_hid_report.c **** *               report_type     HID report type.
 522:rtos/uC-USB-Device/Class/HID/usbd_hid_report.c **** *
 523:rtos/uC-USB-Device/Class/HID/usbd_hid_report.c **** *               report_id       HID report ID.
 524:rtos/uC-USB-Device/Class/HID/usbd_hid_report.c **** *
 525:rtos/uC-USB-Device/Class/HID/usbd_hid_report.c **** *               p_buf           Pointer to variable that will receive the pointer to the HID report
 526:rtos/uC-USB-Device/Class/HID/usbd_hid_report.c **** *
 527:rtos/uC-USB-Device/Class/HID/usbd_hid_report.c **** *               p_is_largest    Pointer to variable that will receive the indication that the HID i
 528:rtos/uC-USB-Device/Class/HID/usbd_hid_report.c **** *                                   feature report is the largest report from the list of input or 
 529:rtos/uC-USB-Device/Class/HID/usbd_hid_report.c **** *                                   reports.
 530:rtos/uC-USB-Device/Class/HID/usbd_hid_report.c **** *
 531:rtos/uC-USB-Device/Class/HID/usbd_hid_report.c **** *               p_err       Pointer to variable that will receive the return error code from this f
 532:rtos/uC-USB-Device/Class/HID/usbd_hid_report.c **** *
 533:rtos/uC-USB-Device/Class/HID/usbd_hid_report.c **** *                               USBD_ERR_NONE           HID report size retrieved successfully.
 534:rtos/uC-USB-Device/Class/HID/usbd_hid_report.c **** *                               USBD_ERR_NULL_PTR       Argument 'p_report'/'p_is_largest' passed a
 535:rtos/uC-USB-Device/Class/HID/usbd_hid_report.c **** *                                                           pointer.
 536:rtos/uC-USB-Device/Class/HID/usbd_hid_report.c **** *                               USBD_ERR_INVALID_ARG    Invalid argument(s) passed to 'report_type'
 537:rtos/uC-USB-Device/Class/HID/usbd_hid_report.c **** *                                                           'report_id'.
 538:rtos/uC-USB-Device/Class/HID/usbd_hid_report.c **** *
 539:rtos/uC-USB-Device/Class/HID/usbd_hid_report.c **** * Return(s)   : Length of HID report, in octets.
 540:rtos/uC-USB-Device/Class/HID/usbd_hid_report.c **** *
 541:rtos/uC-USB-Device/Class/HID/usbd_hid_report.c **** * Note(s)     : none.
 542:rtos/uC-USB-Device/Class/HID/usbd_hid_report.c **** ***************************************************************************************************
 543:rtos/uC-USB-Device/Class/HID/usbd_hid_report.c **** */
ARM GAS  /tmp/cciyuUhu.s 			page 11


 544:rtos/uC-USB-Device/Class/HID/usbd_hid_report.c **** 
 545:rtos/uC-USB-Device/Class/HID/usbd_hid_report.c **** CPU_INT16U  USBD_HID_ReportID_InfoGet (const  USBD_HID_REPORT        *p_report,
 546:rtos/uC-USB-Device/Class/HID/usbd_hid_report.c ****                                               USBD_HID_REPORT_TYPE      report_type,
 547:rtos/uC-USB-Device/Class/HID/usbd_hid_report.c ****                                               CPU_INT08U                report_id,
 548:rtos/uC-USB-Device/Class/HID/usbd_hid_report.c ****                                               CPU_INT08U            **p_buf,
 549:rtos/uC-USB-Device/Class/HID/usbd_hid_report.c ****                                               CPU_BOOLEAN            *p_is_largest,
 550:rtos/uC-USB-Device/Class/HID/usbd_hid_report.c ****                                               USBD_ERR               *p_err)
 551:rtos/uC-USB-Device/Class/HID/usbd_hid_report.c **** {
 552:rtos/uC-USB-Device/Class/HID/usbd_hid_report.c ****     USBD_HID_REPORT_ID  *p_report_id;
 553:rtos/uC-USB-Device/Class/HID/usbd_hid_report.c **** 
 554:rtos/uC-USB-Device/Class/HID/usbd_hid_report.c **** 
 555:rtos/uC-USB-Device/Class/HID/usbd_hid_report.c ****     switch (report_type) {
 556:rtos/uC-USB-Device/Class/HID/usbd_hid_report.c ****         case USBD_HID_REPORT_TYPE_INPUT:
 557:rtos/uC-USB-Device/Class/HID/usbd_hid_report.c ****              p_report_id = p_report->Reports[0];
 558:rtos/uC-USB-Device/Class/HID/usbd_hid_report.c ****              break;
 559:rtos/uC-USB-Device/Class/HID/usbd_hid_report.c **** 
 560:rtos/uC-USB-Device/Class/HID/usbd_hid_report.c ****         case USBD_HID_REPORT_TYPE_OUTPUT:
 561:rtos/uC-USB-Device/Class/HID/usbd_hid_report.c ****              p_report_id = p_report->Reports[1];
 562:rtos/uC-USB-Device/Class/HID/usbd_hid_report.c ****              break;
 563:rtos/uC-USB-Device/Class/HID/usbd_hid_report.c **** 
 564:rtos/uC-USB-Device/Class/HID/usbd_hid_report.c ****         case USBD_HID_REPORT_TYPE_FEATURE:
 565:rtos/uC-USB-Device/Class/HID/usbd_hid_report.c ****              p_report_id = p_report->Reports[2];
 566:rtos/uC-USB-Device/Class/HID/usbd_hid_report.c ****              break;
 567:rtos/uC-USB-Device/Class/HID/usbd_hid_report.c **** 
 568:rtos/uC-USB-Device/Class/HID/usbd_hid_report.c ****         case USBD_HID_REPORT_TYPE_NONE:
 569:rtos/uC-USB-Device/Class/HID/usbd_hid_report.c ****         default:
 570:rtos/uC-USB-Device/Class/HID/usbd_hid_report.c ****             *p_err = USBD_ERR_INVALID_ARG;
 571:rtos/uC-USB-Device/Class/HID/usbd_hid_report.c ****              return (0);
 572:rtos/uC-USB-Device/Class/HID/usbd_hid_report.c ****     }
 573:rtos/uC-USB-Device/Class/HID/usbd_hid_report.c **** 
 574:rtos/uC-USB-Device/Class/HID/usbd_hid_report.c ****     while (p_report_id != (USBD_HID_REPORT_ID *)0) {
 575:rtos/uC-USB-Device/Class/HID/usbd_hid_report.c ****         if (p_report_id->ID == report_id) {
 576:rtos/uC-USB-Device/Class/HID/usbd_hid_report.c ****             switch (report_type) {
 577:rtos/uC-USB-Device/Class/HID/usbd_hid_report.c ****                 case USBD_HID_REPORT_TYPE_INPUT:
 578:rtos/uC-USB-Device/Class/HID/usbd_hid_report.c ****                     if (p_buf != (CPU_INT08U **)0) {
 579:rtos/uC-USB-Device/Class/HID/usbd_hid_report.c ****                        *p_buf  =  p_report_id->DataPtr;
 580:rtos/uC-USB-Device/Class/HID/usbd_hid_report.c ****                     }
 581:rtos/uC-USB-Device/Class/HID/usbd_hid_report.c ****                     *p_is_largest = (p_report_id->Size == p_report->MaxInputReportSize) ? DEF_YES :
 582:rtos/uC-USB-Device/Class/HID/usbd_hid_report.c ****                      break;
 583:rtos/uC-USB-Device/Class/HID/usbd_hid_report.c **** 
 584:rtos/uC-USB-Device/Class/HID/usbd_hid_report.c ****                 case USBD_HID_REPORT_TYPE_OUTPUT:
 585:rtos/uC-USB-Device/Class/HID/usbd_hid_report.c ****                     if (p_buf != (CPU_INT08U **)0) {
 586:rtos/uC-USB-Device/Class/HID/usbd_hid_report.c ****                        *p_buf  = p_report->MaxOutputReportPtr;
 587:rtos/uC-USB-Device/Class/HID/usbd_hid_report.c ****                     }
 588:rtos/uC-USB-Device/Class/HID/usbd_hid_report.c ****                     *p_is_largest = DEF_NO;
 589:rtos/uC-USB-Device/Class/HID/usbd_hid_report.c ****                      break;
 590:rtos/uC-USB-Device/Class/HID/usbd_hid_report.c **** 
 591:rtos/uC-USB-Device/Class/HID/usbd_hid_report.c ****                 case USBD_HID_REPORT_TYPE_FEATURE:
 592:rtos/uC-USB-Device/Class/HID/usbd_hid_report.c ****                 default:
 593:rtos/uC-USB-Device/Class/HID/usbd_hid_report.c ****                     if (p_buf != (CPU_INT08U **)0) {
 594:rtos/uC-USB-Device/Class/HID/usbd_hid_report.c ****                        *p_buf  =  p_report->MaxFeatureReportPtr;
 595:rtos/uC-USB-Device/Class/HID/usbd_hid_report.c ****                     }
 596:rtos/uC-USB-Device/Class/HID/usbd_hid_report.c ****                     *p_is_largest = (p_report_id->Size == p_report->MaxFeatureReportSize) ? DEF_YES
 597:rtos/uC-USB-Device/Class/HID/usbd_hid_report.c ****                      break;
 598:rtos/uC-USB-Device/Class/HID/usbd_hid_report.c ****             }
 599:rtos/uC-USB-Device/Class/HID/usbd_hid_report.c ****            *p_err = USBD_ERR_NONE;
 600:rtos/uC-USB-Device/Class/HID/usbd_hid_report.c ****             return (p_report_id->Size);
ARM GAS  /tmp/cciyuUhu.s 			page 12


 601:rtos/uC-USB-Device/Class/HID/usbd_hid_report.c ****         }
 602:rtos/uC-USB-Device/Class/HID/usbd_hid_report.c **** 
 603:rtos/uC-USB-Device/Class/HID/usbd_hid_report.c ****         p_report_id = p_report_id->NextPtr;
 604:rtos/uC-USB-Device/Class/HID/usbd_hid_report.c ****     }
 605:rtos/uC-USB-Device/Class/HID/usbd_hid_report.c **** 
 606:rtos/uC-USB-Device/Class/HID/usbd_hid_report.c ****    *p_err = USBD_ERR_INVALID_ARG;
 607:rtos/uC-USB-Device/Class/HID/usbd_hid_report.c ****     return (0);
 608:rtos/uC-USB-Device/Class/HID/usbd_hid_report.c **** }
 609:rtos/uC-USB-Device/Class/HID/usbd_hid_report.c **** 
 610:rtos/uC-USB-Device/Class/HID/usbd_hid_report.c **** 
 611:rtos/uC-USB-Device/Class/HID/usbd_hid_report.c **** /*
 612:rtos/uC-USB-Device/Class/HID/usbd_hid_report.c **** ***************************************************************************************************
 613:rtos/uC-USB-Device/Class/HID/usbd_hid_report.c **** *                                  USBD_HID_Report_TmrTaskHandler()
 614:rtos/uC-USB-Device/Class/HID/usbd_hid_report.c **** *
 615:rtos/uC-USB-Device/Class/HID/usbd_hid_report.c **** * Description : Process all periodic HID input reports.
 616:rtos/uC-USB-Device/Class/HID/usbd_hid_report.c **** *
 617:rtos/uC-USB-Device/Class/HID/usbd_hid_report.c **** * Argument(s) : none.
 618:rtos/uC-USB-Device/Class/HID/usbd_hid_report.c **** *
 619:rtos/uC-USB-Device/Class/HID/usbd_hid_report.c **** * Return(s)   : none.
 620:rtos/uC-USB-Device/Class/HID/usbd_hid_report.c **** *
 621:rtos/uC-USB-Device/Class/HID/usbd_hid_report.c **** * Note(s)     : none.
 622:rtos/uC-USB-Device/Class/HID/usbd_hid_report.c **** ***************************************************************************************************
 623:rtos/uC-USB-Device/Class/HID/usbd_hid_report.c **** */
 624:rtos/uC-USB-Device/Class/HID/usbd_hid_report.c **** 
 625:rtos/uC-USB-Device/Class/HID/usbd_hid_report.c **** void  USBD_HID_Report_TmrTaskHandler (void)
 626:rtos/uC-USB-Device/Class/HID/usbd_hid_report.c **** {
 627:rtos/uC-USB-Device/Class/HID/usbd_hid_report.c ****     USBD_HID_REPORT_ID  *p_report_id;
 628:rtos/uC-USB-Device/Class/HID/usbd_hid_report.c ****     USBD_HID_REPORT_ID  *p_report_id_prev;
 629:rtos/uC-USB-Device/Class/HID/usbd_hid_report.c ****     CPU_BOOLEAN          service;
 630:rtos/uC-USB-Device/Class/HID/usbd_hid_report.c ****     USBD_ERR             err;
 631:rtos/uC-USB-Device/Class/HID/usbd_hid_report.c ****     CPU_SR_ALLOC();
 632:rtos/uC-USB-Device/Class/HID/usbd_hid_report.c **** 
 633:rtos/uC-USB-Device/Class/HID/usbd_hid_report.c **** 
 634:rtos/uC-USB-Device/Class/HID/usbd_hid_report.c ****     p_report_id_prev = (USBD_HID_REPORT_ID *)0;
 635:rtos/uC-USB-Device/Class/HID/usbd_hid_report.c ****     CPU_CRITICAL_ENTER();
 636:rtos/uC-USB-Device/Class/HID/usbd_hid_report.c ****     p_report_id      =  USBD_HID_ReportID_TmrList;
 637:rtos/uC-USB-Device/Class/HID/usbd_hid_report.c ****     CPU_CRITICAL_EXIT();
 638:rtos/uC-USB-Device/Class/HID/usbd_hid_report.c **** 
 639:rtos/uC-USB-Device/Class/HID/usbd_hid_report.c ****     while (p_report_id != (USBD_HID_REPORT_ID *)0) {
 640:rtos/uC-USB-Device/Class/HID/usbd_hid_report.c ****         service = DEF_NO;
 641:rtos/uC-USB-Device/Class/HID/usbd_hid_report.c **** 
 642:rtos/uC-USB-Device/Class/HID/usbd_hid_report.c ****         CPU_CRITICAL_ENTER();
 643:rtos/uC-USB-Device/Class/HID/usbd_hid_report.c ****         if (p_report_id->IdleRate == USBD_HID_IDLE_INFINITE) {
 644:rtos/uC-USB-Device/Class/HID/usbd_hid_report.c ****             p_report_id->IdleCnt  = 0u;
 645:rtos/uC-USB-Device/Class/HID/usbd_hid_report.c ****             p_report_id->Update   = DEF_NO;
 646:rtos/uC-USB-Device/Class/HID/usbd_hid_report.c **** 
 647:rtos/uC-USB-Device/Class/HID/usbd_hid_report.c ****             if (p_report_id_prev == (USBD_HID_REPORT_ID *)0) {
 648:rtos/uC-USB-Device/Class/HID/usbd_hid_report.c ****                 USBD_HID_ReportID_TmrList    = p_report_id->TmrNextPtr;
 649:rtos/uC-USB-Device/Class/HID/usbd_hid_report.c ****             } else {
 650:rtos/uC-USB-Device/Class/HID/usbd_hid_report.c ****                 p_report_id_prev->TmrNextPtr = p_report_id->TmrNextPtr;
 651:rtos/uC-USB-Device/Class/HID/usbd_hid_report.c ****             }
 652:rtos/uC-USB-Device/Class/HID/usbd_hid_report.c **** 
 653:rtos/uC-USB-Device/Class/HID/usbd_hid_report.c ****             p_report_id->TmrNextPtr = (USBD_HID_REPORT_ID *)0;
 654:rtos/uC-USB-Device/Class/HID/usbd_hid_report.c **** 
 655:rtos/uC-USB-Device/Class/HID/usbd_hid_report.c ****         } else {
 656:rtos/uC-USB-Device/Class/HID/usbd_hid_report.c ****             if (p_report_id->Update == DEF_YES) {
 657:rtos/uC-USB-Device/Class/HID/usbd_hid_report.c ****                 p_report_id->Update  = DEF_NO;
ARM GAS  /tmp/cciyuUhu.s 			page 13


 658:rtos/uC-USB-Device/Class/HID/usbd_hid_report.c **** 
 659:rtos/uC-USB-Device/Class/HID/usbd_hid_report.c ****                 if (p_report_id->IdleCnt > 1) {
 660:rtos/uC-USB-Device/Class/HID/usbd_hid_report.c ****                     p_report_id->IdleCnt = p_report_id->IdleRate;
 661:rtos/uC-USB-Device/Class/HID/usbd_hid_report.c ****                 }
 662:rtos/uC-USB-Device/Class/HID/usbd_hid_report.c ****             }
 663:rtos/uC-USB-Device/Class/HID/usbd_hid_report.c **** 
 664:rtos/uC-USB-Device/Class/HID/usbd_hid_report.c ****             if (p_report_id->IdleCnt > 1) {
 665:rtos/uC-USB-Device/Class/HID/usbd_hid_report.c ****                 p_report_id->IdleCnt--;
 666:rtos/uC-USB-Device/Class/HID/usbd_hid_report.c ****             } else {
 667:rtos/uC-USB-Device/Class/HID/usbd_hid_report.c ****                 p_report_id->IdleCnt = p_report_id->IdleRate;
 668:rtos/uC-USB-Device/Class/HID/usbd_hid_report.c ****                 service = DEF_YES;
 669:rtos/uC-USB-Device/Class/HID/usbd_hid_report.c ****             }
 670:rtos/uC-USB-Device/Class/HID/usbd_hid_report.c ****         }
 671:rtos/uC-USB-Device/Class/HID/usbd_hid_report.c ****         CPU_CRITICAL_EXIT();
 672:rtos/uC-USB-Device/Class/HID/usbd_hid_report.c **** 
 673:rtos/uC-USB-Device/Class/HID/usbd_hid_report.c ****         if (service == DEF_YES) {
 674:rtos/uC-USB-Device/Class/HID/usbd_hid_report.c ****             USBD_HID_Wr(p_report_id->ClassNbr,
 675:rtos/uC-USB-Device/Class/HID/usbd_hid_report.c ****                         p_report_id->DataPtr,
 676:rtos/uC-USB-Device/Class/HID/usbd_hid_report.c ****                         p_report_id->Size,
 677:rtos/uC-USB-Device/Class/HID/usbd_hid_report.c ****                         100,
 678:rtos/uC-USB-Device/Class/HID/usbd_hid_report.c ****                        &err);
 679:rtos/uC-USB-Device/Class/HID/usbd_hid_report.c ****         }
 680:rtos/uC-USB-Device/Class/HID/usbd_hid_report.c **** 
 681:rtos/uC-USB-Device/Class/HID/usbd_hid_report.c ****         p_report_id_prev = p_report_id;
 682:rtos/uC-USB-Device/Class/HID/usbd_hid_report.c ****         p_report_id      = p_report_id->TmrNextPtr;
 683:rtos/uC-USB-Device/Class/HID/usbd_hid_report.c ****     }
 684:rtos/uC-USB-Device/Class/HID/usbd_hid_report.c **** }
 685:rtos/uC-USB-Device/Class/HID/usbd_hid_report.c **** 
 686:rtos/uC-USB-Device/Class/HID/usbd_hid_report.c **** 
 687:rtos/uC-USB-Device/Class/HID/usbd_hid_report.c **** /*
 688:rtos/uC-USB-Device/Class/HID/usbd_hid_report.c **** ***************************************************************************************************
 689:rtos/uC-USB-Device/Class/HID/usbd_hid_report.c **** *                                     USBD_HID_ReportID_IdleGet()
 690:rtos/uC-USB-Device/Class/HID/usbd_hid_report.c **** *
 691:rtos/uC-USB-Device/Class/HID/usbd_hid_report.c **** * Description : Retrieve HID input report idle rate.
 692:rtos/uC-USB-Device/Class/HID/usbd_hid_report.c **** *
 693:rtos/uC-USB-Device/Class/HID/usbd_hid_report.c **** * Argument(s) : p_report    Pointer to HID report structure.
 694:rtos/uC-USB-Device/Class/HID/usbd_hid_report.c **** *
 695:rtos/uC-USB-Device/Class/HID/usbd_hid_report.c **** *               report_id   HID report ID.
 696:rtos/uC-USB-Device/Class/HID/usbd_hid_report.c **** *
 697:rtos/uC-USB-Device/Class/HID/usbd_hid_report.c **** *               p_err       Pointer to variable that will receive the return error code from this f
 698:rtos/uC-USB-Device/Class/HID/usbd_hid_report.c **** *
 699:rtos/uC-USB-Device/Class/HID/usbd_hid_report.c **** *                               USBD_ERR_NONE           HID input report idle rate retrieved succes
 700:rtos/uC-USB-Device/Class/HID/usbd_hid_report.c **** *                               USBD_ERR_NULL_PTR       Argument 'p_report' passed a NULL pointer.
 701:rtos/uC-USB-Device/Class/HID/usbd_hid_report.c **** *                               USBD_ERR_INVALID_ARG    Invalid argument(s) passed to 'report_id'.
 702:rtos/uC-USB-Device/Class/HID/usbd_hid_report.c **** *
 703:rtos/uC-USB-Device/Class/HID/usbd_hid_report.c **** * Return(s)   : Idle rate.
 704:rtos/uC-USB-Device/Class/HID/usbd_hid_report.c **** *
 705:rtos/uC-USB-Device/Class/HID/usbd_hid_report.c **** * Note(s)     : (1) Idle rate is in 4 millisecond units.
 706:rtos/uC-USB-Device/Class/HID/usbd_hid_report.c **** ***************************************************************************************************
 707:rtos/uC-USB-Device/Class/HID/usbd_hid_report.c **** */
 708:rtos/uC-USB-Device/Class/HID/usbd_hid_report.c **** 
 709:rtos/uC-USB-Device/Class/HID/usbd_hid_report.c **** CPU_INT08U  USBD_HID_ReportID_IdleGet (const  USBD_HID_REPORT  *p_report,
 710:rtos/uC-USB-Device/Class/HID/usbd_hid_report.c ****                                               CPU_INT08U          report_id,
 711:rtos/uC-USB-Device/Class/HID/usbd_hid_report.c ****                                               USBD_ERR         *p_err)
 712:rtos/uC-USB-Device/Class/HID/usbd_hid_report.c **** {
 713:rtos/uC-USB-Device/Class/HID/usbd_hid_report.c ****     USBD_HID_REPORT_ID  *p_report_id;
 714:rtos/uC-USB-Device/Class/HID/usbd_hid_report.c **** 
ARM GAS  /tmp/cciyuUhu.s 			page 14


 715:rtos/uC-USB-Device/Class/HID/usbd_hid_report.c **** 
 716:rtos/uC-USB-Device/Class/HID/usbd_hid_report.c ****     p_report_id = p_report->Reports[0];
 717:rtos/uC-USB-Device/Class/HID/usbd_hid_report.c **** 
 718:rtos/uC-USB-Device/Class/HID/usbd_hid_report.c ****     while (p_report_id != (USBD_HID_REPORT_ID *)0) {
 719:rtos/uC-USB-Device/Class/HID/usbd_hid_report.c ****         if (p_report_id->ID == report_id) {
 720:rtos/uC-USB-Device/Class/HID/usbd_hid_report.c ****            *p_err = USBD_ERR_NONE;
 721:rtos/uC-USB-Device/Class/HID/usbd_hid_report.c ****             return (p_report_id->IdleRate);
 722:rtos/uC-USB-Device/Class/HID/usbd_hid_report.c ****         }
 723:rtos/uC-USB-Device/Class/HID/usbd_hid_report.c **** 
 724:rtos/uC-USB-Device/Class/HID/usbd_hid_report.c ****         p_report_id = p_report_id->NextPtr;
 725:rtos/uC-USB-Device/Class/HID/usbd_hid_report.c ****     }
 726:rtos/uC-USB-Device/Class/HID/usbd_hid_report.c **** 
 727:rtos/uC-USB-Device/Class/HID/usbd_hid_report.c ****    *p_err = USBD_ERR_INVALID_ARG;
 728:rtos/uC-USB-Device/Class/HID/usbd_hid_report.c ****     return (0);
 729:rtos/uC-USB-Device/Class/HID/usbd_hid_report.c **** }
 730:rtos/uC-USB-Device/Class/HID/usbd_hid_report.c **** 
 731:rtos/uC-USB-Device/Class/HID/usbd_hid_report.c **** 
 732:rtos/uC-USB-Device/Class/HID/usbd_hid_report.c **** /*
 733:rtos/uC-USB-Device/Class/HID/usbd_hid_report.c **** ***************************************************************************************************
 734:rtos/uC-USB-Device/Class/HID/usbd_hid_report.c **** *                                     USBD_HID_ReportID_IdleSet()
 735:rtos/uC-USB-Device/Class/HID/usbd_hid_report.c **** *
 736:rtos/uC-USB-Device/Class/HID/usbd_hid_report.c **** * Description : Set HID input report idle rate.
 737:rtos/uC-USB-Device/Class/HID/usbd_hid_report.c **** *
 738:rtos/uC-USB-Device/Class/HID/usbd_hid_report.c **** * Argument(s) : p_report    Pointer to HID report structure.
 739:rtos/uC-USB-Device/Class/HID/usbd_hid_report.c **** *
 740:rtos/uC-USB-Device/Class/HID/usbd_hid_report.c **** *               report_id   HID report ID.
 741:rtos/uC-USB-Device/Class/HID/usbd_hid_report.c **** *
 742:rtos/uC-USB-Device/Class/HID/usbd_hid_report.c **** *               idle_rate   Report idle rate.
 743:rtos/uC-USB-Device/Class/HID/usbd_hid_report.c **** *
 744:rtos/uC-USB-Device/Class/HID/usbd_hid_report.c **** *               p_err       Pointer to variable that will receive the return error code from this f
 745:rtos/uC-USB-Device/Class/HID/usbd_hid_report.c **** *
 746:rtos/uC-USB-Device/Class/HID/usbd_hid_report.c **** *                               USBD_ERR_NONE           HID input report idle rate retrieved succes
 747:rtos/uC-USB-Device/Class/HID/usbd_hid_report.c **** *                               USBD_ERR_NULL_PTR       Argument 'p_report' passed a NULL pointer.
 748:rtos/uC-USB-Device/Class/HID/usbd_hid_report.c **** *                               USBD_ERR_INVALID_ARG    Invalid argument(s) passed to 'report_id'.
 749:rtos/uC-USB-Device/Class/HID/usbd_hid_report.c **** *
 750:rtos/uC-USB-Device/Class/HID/usbd_hid_report.c **** * Return(s)   : none.
 751:rtos/uC-USB-Device/Class/HID/usbd_hid_report.c **** *
 752:rtos/uC-USB-Device/Class/HID/usbd_hid_report.c **** * Note(s)     : (1) Idle rate is in 4 millisecond units.
 753:rtos/uC-USB-Device/Class/HID/usbd_hid_report.c **** ***************************************************************************************************
 754:rtos/uC-USB-Device/Class/HID/usbd_hid_report.c **** */
 755:rtos/uC-USB-Device/Class/HID/usbd_hid_report.c **** 
 756:rtos/uC-USB-Device/Class/HID/usbd_hid_report.c **** void  USBD_HID_ReportID_IdleSet (const  USBD_HID_REPORT  *p_report,
 757:rtos/uC-USB-Device/Class/HID/usbd_hid_report.c ****                                         CPU_INT08U          report_id,
 758:rtos/uC-USB-Device/Class/HID/usbd_hid_report.c ****                                         CPU_INT08U        idle_rate,
 759:rtos/uC-USB-Device/Class/HID/usbd_hid_report.c ****                                         USBD_ERR         *p_err)
 760:rtos/uC-USB-Device/Class/HID/usbd_hid_report.c **** {
 761:rtos/uC-USB-Device/Class/HID/usbd_hid_report.c ****     USBD_HID_REPORT_ID  *p_report_id;
 762:rtos/uC-USB-Device/Class/HID/usbd_hid_report.c ****     CPU_SR_ALLOC();
 763:rtos/uC-USB-Device/Class/HID/usbd_hid_report.c **** 
 764:rtos/uC-USB-Device/Class/HID/usbd_hid_report.c **** 
 765:rtos/uC-USB-Device/Class/HID/usbd_hid_report.c ****     p_report_id = p_report->Reports[0];
 766:rtos/uC-USB-Device/Class/HID/usbd_hid_report.c **** 
 767:rtos/uC-USB-Device/Class/HID/usbd_hid_report.c ****    *p_err = USBD_ERR_INVALID_ARG;
 768:rtos/uC-USB-Device/Class/HID/usbd_hid_report.c **** 
 769:rtos/uC-USB-Device/Class/HID/usbd_hid_report.c ****     while (p_report_id != (USBD_HID_REPORT_ID *)0) {
 770:rtos/uC-USB-Device/Class/HID/usbd_hid_report.c ****          if ((p_report_id->ID == report_id) ||
 771:rtos/uC-USB-Device/Class/HID/usbd_hid_report.c ****              (  report_id     == USBD_HID_IDLE_ALL_REPORT)) {
ARM GAS  /tmp/cciyuUhu.s 			page 15


 772:rtos/uC-USB-Device/Class/HID/usbd_hid_report.c ****              if (idle_rate != USBD_HID_IDLE_INFINITE) {
 773:rtos/uC-USB-Device/Class/HID/usbd_hid_report.c ****                  CPU_CRITICAL_ENTER();
 774:rtos/uC-USB-Device/Class/HID/usbd_hid_report.c ****                                                          /* Add report ID into timer list.         
 775:rtos/uC-USB-Device/Class/HID/usbd_hid_report.c ****                  if (p_report_id->IdleRate == USBD_HID_IDLE_INFINITE) {
 776:rtos/uC-USB-Device/Class/HID/usbd_hid_report.c ****                      p_report_id->TmrNextPtr   = USBD_HID_ReportID_TmrList;
 777:rtos/uC-USB-Device/Class/HID/usbd_hid_report.c ****                      USBD_HID_ReportID_TmrList = p_report_id;
 778:rtos/uC-USB-Device/Class/HID/usbd_hid_report.c ****                  }
 779:rtos/uC-USB-Device/Class/HID/usbd_hid_report.c **** 
 780:rtos/uC-USB-Device/Class/HID/usbd_hid_report.c ****                  p_report_id->IdleRate = idle_rate;
 781:rtos/uC-USB-Device/Class/HID/usbd_hid_report.c ****                  p_report_id->Update   = DEF_YES;
 782:rtos/uC-USB-Device/Class/HID/usbd_hid_report.c **** 
 783:rtos/uC-USB-Device/Class/HID/usbd_hid_report.c ****                  CPU_CRITICAL_EXIT();
 784:rtos/uC-USB-Device/Class/HID/usbd_hid_report.c ****              } else {
 785:rtos/uC-USB-Device/Class/HID/usbd_hid_report.c ****                  CPU_CRITICAL_ENTER();
 786:rtos/uC-USB-Device/Class/HID/usbd_hid_report.c ****                  p_report_id->IdleRate = USBD_HID_IDLE_INFINITE;
 787:rtos/uC-USB-Device/Class/HID/usbd_hid_report.c ****                  CPU_CRITICAL_EXIT();
 788:rtos/uC-USB-Device/Class/HID/usbd_hid_report.c ****              }
 789:rtos/uC-USB-Device/Class/HID/usbd_hid_report.c **** 
 790:rtos/uC-USB-Device/Class/HID/usbd_hid_report.c ****             *p_err = USBD_ERR_NONE;
 791:rtos/uC-USB-Device/Class/HID/usbd_hid_report.c **** 
 792:rtos/uC-USB-Device/Class/HID/usbd_hid_report.c ****              if (report_id != USBD_HID_IDLE_ALL_REPORT) {
 793:rtos/uC-USB-Device/Class/HID/usbd_hid_report.c ****                  return;
 794:rtos/uC-USB-Device/Class/HID/usbd_hid_report.c ****              }
 795:rtos/uC-USB-Device/Class/HID/usbd_hid_report.c ****          }
 796:rtos/uC-USB-Device/Class/HID/usbd_hid_report.c **** 
 797:rtos/uC-USB-Device/Class/HID/usbd_hid_report.c ****          p_report_id = p_report_id->NextPtr;
 798:rtos/uC-USB-Device/Class/HID/usbd_hid_report.c ****      }
 799:rtos/uC-USB-Device/Class/HID/usbd_hid_report.c **** }
 800:rtos/uC-USB-Device/Class/HID/usbd_hid_report.c **** 
 801:rtos/uC-USB-Device/Class/HID/usbd_hid_report.c **** 
 802:rtos/uC-USB-Device/Class/HID/usbd_hid_report.c **** /*
 803:rtos/uC-USB-Device/Class/HID/usbd_hid_report.c **** ***************************************************************************************************
 804:rtos/uC-USB-Device/Class/HID/usbd_hid_report.c **** *                                   USBD_HID_Report_RemoveAllIdle()
 805:rtos/uC-USB-Device/Class/HID/usbd_hid_report.c **** *
 806:rtos/uC-USB-Device/Class/HID/usbd_hid_report.c **** * Description : Remove all HID input report from periodic service list.
 807:rtos/uC-USB-Device/Class/HID/usbd_hid_report.c **** *
 808:rtos/uC-USB-Device/Class/HID/usbd_hid_report.c **** * Argument(s) : p_report    Pointer to HID report structure.
 809:rtos/uC-USB-Device/Class/HID/usbd_hid_report.c **** *
 810:rtos/uC-USB-Device/Class/HID/usbd_hid_report.c **** *               p_err       Pointer to variable that will receive the return error code from this f
 811:rtos/uC-USB-Device/Class/HID/usbd_hid_report.c **** *
 812:rtos/uC-USB-Device/Class/HID/usbd_hid_report.c **** *                               USBD_ERR_NONE           HID input report idle rate retrieved succes
 813:rtos/uC-USB-Device/Class/HID/usbd_hid_report.c **** *                               USBD_ERR_NULL_PTR       Argument 'p_report' passed a NULL pointer.
 814:rtos/uC-USB-Device/Class/HID/usbd_hid_report.c **** *                               USBD_ERR_INVALID_ARG    Invalid argument(s) passed to 'report_id'.
 815:rtos/uC-USB-Device/Class/HID/usbd_hid_report.c **** *
 816:rtos/uC-USB-Device/Class/HID/usbd_hid_report.c **** * Return(s)   : none.
 817:rtos/uC-USB-Device/Class/HID/usbd_hid_report.c **** *
 818:rtos/uC-USB-Device/Class/HID/usbd_hid_report.c **** * Note(s)     : none.
 819:rtos/uC-USB-Device/Class/HID/usbd_hid_report.c **** ***************************************************************************************************
 820:rtos/uC-USB-Device/Class/HID/usbd_hid_report.c **** */
 821:rtos/uC-USB-Device/Class/HID/usbd_hid_report.c **** 
 822:rtos/uC-USB-Device/Class/HID/usbd_hid_report.c **** void  USBD_HID_Report_RemoveAllIdle (const  USBD_HID_REPORT  *p_report)
 823:rtos/uC-USB-Device/Class/HID/usbd_hid_report.c **** {
 824:rtos/uC-USB-Device/Class/HID/usbd_hid_report.c ****     USBD_HID_REPORT_ID  *p_report_id;
 825:rtos/uC-USB-Device/Class/HID/usbd_hid_report.c ****     CPU_SR_ALLOC();
 826:rtos/uC-USB-Device/Class/HID/usbd_hid_report.c **** 
 827:rtos/uC-USB-Device/Class/HID/usbd_hid_report.c **** 
 828:rtos/uC-USB-Device/Class/HID/usbd_hid_report.c ****     p_report_id = p_report->Reports[0];
ARM GAS  /tmp/cciyuUhu.s 			page 16


 829:rtos/uC-USB-Device/Class/HID/usbd_hid_report.c **** 
 830:rtos/uC-USB-Device/Class/HID/usbd_hid_report.c ****     while (p_report_id != (USBD_HID_REPORT_ID *)0) {
 831:rtos/uC-USB-Device/Class/HID/usbd_hid_report.c ****         CPU_CRITICAL_ENTER();                                   /* Remove only reports present on t
 832:rtos/uC-USB-Device/Class/HID/usbd_hid_report.c ****         if (p_report_id->TmrNextPtr != (USBD_HID_REPORT_ID *)0) {
 833:rtos/uC-USB-Device/Class/HID/usbd_hid_report.c ****             p_report_id->IdleRate = USBD_HID_IDLE_INFINITE;
 834:rtos/uC-USB-Device/Class/HID/usbd_hid_report.c ****         }
 835:rtos/uC-USB-Device/Class/HID/usbd_hid_report.c ****         CPU_CRITICAL_EXIT();
 836:rtos/uC-USB-Device/Class/HID/usbd_hid_report.c **** 
 837:rtos/uC-USB-Device/Class/HID/usbd_hid_report.c ****         p_report_id = p_report_id->NextPtr;
 838:rtos/uC-USB-Device/Class/HID/usbd_hid_report.c ****     }
 839:rtos/uC-USB-Device/Class/HID/usbd_hid_report.c **** }
 840:rtos/uC-USB-Device/Class/HID/usbd_hid_report.c **** 
 841:rtos/uC-USB-Device/Class/HID/usbd_hid_report.c **** 
 842:rtos/uC-USB-Device/Class/HID/usbd_hid_report.c **** /*
 843:rtos/uC-USB-Device/Class/HID/usbd_hid_report.c **** ***************************************************************************************************
 844:rtos/uC-USB-Device/Class/HID/usbd_hid_report.c **** ***************************************************************************************************
 845:rtos/uC-USB-Device/Class/HID/usbd_hid_report.c **** *                                           LOCAL FUNCTIONS
 846:rtos/uC-USB-Device/Class/HID/usbd_hid_report.c **** ***************************************************************************************************
 847:rtos/uC-USB-Device/Class/HID/usbd_hid_report.c **** ***************************************************************************************************
 848:rtos/uC-USB-Device/Class/HID/usbd_hid_report.c **** */
 849:rtos/uC-USB-Device/Class/HID/usbd_hid_report.c **** 
 850:rtos/uC-USB-Device/Class/HID/usbd_hid_report.c **** /*
 851:rtos/uC-USB-Device/Class/HID/usbd_hid_report.c **** ***************************************************************************************************
 852:rtos/uC-USB-Device/Class/HID/usbd_hid_report.c **** *                                        USBD_HID_ReportClr()
 853:rtos/uC-USB-Device/Class/HID/usbd_hid_report.c **** *
 854:rtos/uC-USB-Device/Class/HID/usbd_hid_report.c **** * Description : Initialize HID report structure.
 855:rtos/uC-USB-Device/Class/HID/usbd_hid_report.c **** *
 856:rtos/uC-USB-Device/Class/HID/usbd_hid_report.c **** * Argument(s) : p_report        Pointer to HID report structure.
 857:rtos/uC-USB-Device/Class/HID/usbd_hid_report.c **** *
 858:rtos/uC-USB-Device/Class/HID/usbd_hid_report.c **** * Return(s)   : none.
 859:rtos/uC-USB-Device/Class/HID/usbd_hid_report.c **** *
 860:rtos/uC-USB-Device/Class/HID/usbd_hid_report.c **** * Note(s)     : none.
 861:rtos/uC-USB-Device/Class/HID/usbd_hid_report.c **** ***************************************************************************************************
 862:rtos/uC-USB-Device/Class/HID/usbd_hid_report.c **** */
 863:rtos/uC-USB-Device/Class/HID/usbd_hid_report.c **** 
 864:rtos/uC-USB-Device/Class/HID/usbd_hid_report.c **** static  void  USBD_HID_ReportClr (USBD_HID_REPORT  *p_report)
 865:rtos/uC-USB-Device/Class/HID/usbd_hid_report.c **** {
  29              		.loc 1 865 1 view -0
  30              		.cfi_startproc
  31              		@ args = 0, pretend = 0, frame = 0
  32              		@ frame_needed = 0, uses_anonymous_args = 0
  33              		@ link register save eliminated.
 866:rtos/uC-USB-Device/Class/HID/usbd_hid_report.c ****     p_report->HasReports           = 0;
  34              		.loc 1 866 5 view .LVU1
  35              		.loc 1 866 36 is_stmt 0 view .LVU2
  36 0000 0023     		movs	r3, #0
  37 0002 0370     		strb	r3, [r0]
 867:rtos/uC-USB-Device/Class/HID/usbd_hid_report.c ****     p_report->MaxInputReportSize   = 0;
  38              		.loc 1 867 5 is_stmt 1 view .LVU3
  39              		.loc 1 867 36 is_stmt 0 view .LVU4
  40 0004 4380     		strh	r3, [r0, #2]	@ movhi
 868:rtos/uC-USB-Device/Class/HID/usbd_hid_report.c ****     p_report->MaxOutputReportSize  = 0;
  41              		.loc 1 868 5 is_stmt 1 view .LVU5
  42              		.loc 1 868 36 is_stmt 0 view .LVU6
  43 0006 8381     		strh	r3, [r0, #12]	@ movhi
 869:rtos/uC-USB-Device/Class/HID/usbd_hid_report.c ****     p_report->MaxFeatureReportSize = 0;
  44              		.loc 1 869 5 is_stmt 1 view .LVU7
ARM GAS  /tmp/cciyuUhu.s 			page 17


  45              		.loc 1 869 36 is_stmt 0 view .LVU8
  46 0008 8380     		strh	r3, [r0, #4]	@ movhi
 870:rtos/uC-USB-Device/Class/HID/usbd_hid_report.c **** 
 871:rtos/uC-USB-Device/Class/HID/usbd_hid_report.c ****     p_report->MaxOutputReportPtr  = (CPU_INT08U *)0;
  47              		.loc 1 871 5 is_stmt 1 view .LVU9
  48              		.loc 1 871 35 is_stmt 0 view .LVU10
  49 000a 0361     		str	r3, [r0, #16]
 872:rtos/uC-USB-Device/Class/HID/usbd_hid_report.c ****     p_report->MaxFeatureReportPtr = (CPU_INT08U *)0;
  50              		.loc 1 872 5 is_stmt 1 view .LVU11
  51              		.loc 1 872 35 is_stmt 0 view .LVU12
  52 000c 8360     		str	r3, [r0, #8]
 873:rtos/uC-USB-Device/Class/HID/usbd_hid_report.c **** 
 874:rtos/uC-USB-Device/Class/HID/usbd_hid_report.c ****     p_report->Reports[0] = (USBD_HID_REPORT_ID  *)0;
  53              		.loc 1 874 5 is_stmt 1 view .LVU13
  54              		.loc 1 874 26 is_stmt 0 view .LVU14
  55 000e 4361     		str	r3, [r0, #20]
 875:rtos/uC-USB-Device/Class/HID/usbd_hid_report.c ****     p_report->Reports[1] = (USBD_HID_REPORT_ID  *)0;
  56              		.loc 1 875 5 is_stmt 1 view .LVU15
  57              		.loc 1 875 26 is_stmt 0 view .LVU16
  58 0010 8361     		str	r3, [r0, #24]
 876:rtos/uC-USB-Device/Class/HID/usbd_hid_report.c ****     p_report->Reports[2] = (USBD_HID_REPORT_ID  *)0;
  59              		.loc 1 876 5 is_stmt 1 view .LVU17
  60              		.loc 1 876 26 is_stmt 0 view .LVU18
  61 0012 C361     		str	r3, [r0, #28]
 877:rtos/uC-USB-Device/Class/HID/usbd_hid_report.c **** }
  62              		.loc 1 877 1 view .LVU19
  63 0014 7047     		bx	lr
  64              		.cfi_endproc
  65              	.LFE7:
  67              		.section	.text.USBD_HID_ReportID_Alloc,"ax",%progbits
  68              		.align	1
  69              		.syntax unified
  70              		.thumb
  71              		.thumb_func
  72              		.fpu fpv4-sp-d16
  74              	USBD_HID_ReportID_Alloc:
  75              	.LFB8:
 878:rtos/uC-USB-Device/Class/HID/usbd_hid_report.c **** 
 879:rtos/uC-USB-Device/Class/HID/usbd_hid_report.c **** 
 880:rtos/uC-USB-Device/Class/HID/usbd_hid_report.c **** /*
 881:rtos/uC-USB-Device/Class/HID/usbd_hid_report.c **** ***************************************************************************************************
 882:rtos/uC-USB-Device/Class/HID/usbd_hid_report.c **** *                                      USBD_HID_ReportID_Alloc()
 883:rtos/uC-USB-Device/Class/HID/usbd_hid_report.c **** *
 884:rtos/uC-USB-Device/Class/HID/usbd_hid_report.c **** * Description : Allocate an instance of HID report ID structure.
 885:rtos/uC-USB-Device/Class/HID/usbd_hid_report.c **** *
 886:rtos/uC-USB-Device/Class/HID/usbd_hid_report.c **** * Argument(s) : none.
 887:rtos/uC-USB-Device/Class/HID/usbd_hid_report.c **** *
 888:rtos/uC-USB-Device/Class/HID/usbd_hid_report.c **** * Return(s)   : Pointer to HID report ID structure, if NO error(s).
 889:rtos/uC-USB-Device/Class/HID/usbd_hid_report.c **** *
 890:rtos/uC-USB-Device/Class/HID/usbd_hid_report.c **** *               Pointer to NULL,                    otherwise.
 891:rtos/uC-USB-Device/Class/HID/usbd_hid_report.c **** *
 892:rtos/uC-USB-Device/Class/HID/usbd_hid_report.c **** * Note(s)     : none.
 893:rtos/uC-USB-Device/Class/HID/usbd_hid_report.c **** ***************************************************************************************************
 894:rtos/uC-USB-Device/Class/HID/usbd_hid_report.c **** */
 895:rtos/uC-USB-Device/Class/HID/usbd_hid_report.c **** 
 896:rtos/uC-USB-Device/Class/HID/usbd_hid_report.c **** static  USBD_HID_REPORT_ID  *USBD_HID_ReportID_Alloc (void)
 897:rtos/uC-USB-Device/Class/HID/usbd_hid_report.c **** {
ARM GAS  /tmp/cciyuUhu.s 			page 18


  76              		.loc 1 897 1 is_stmt 1 view -0
  77              		.cfi_startproc
  78              		@ args = 0, pretend = 0, frame = 0
  79              		@ frame_needed = 0, uses_anonymous_args = 0
  80 0000 10B5     		push	{r4, lr}
  81              	.LCFI0:
  82              		.cfi_def_cfa_offset 8
  83              		.cfi_offset 4, -8
  84              		.cfi_offset 14, -4
 898:rtos/uC-USB-Device/Class/HID/usbd_hid_report.c ****     USBD_HID_REPORT_ID  *p_report_id;
  85              		.loc 1 898 5 view .LVU21
 899:rtos/uC-USB-Device/Class/HID/usbd_hid_report.c ****     CPU_SR_ALLOC();
  86              		.loc 1 899 5 view .LVU22
  87              	.LVL1:
 900:rtos/uC-USB-Device/Class/HID/usbd_hid_report.c **** 
 901:rtos/uC-USB-Device/Class/HID/usbd_hid_report.c **** 
 902:rtos/uC-USB-Device/Class/HID/usbd_hid_report.c ****     CPU_CRITICAL_ENTER();
  88              		.loc 1 902 5 view .LVU23
  89              		.loc 1 902 5 view .LVU24
  90              		.loc 1 902 5 view .LVU25
  91 0002 4020     		movs	r0, #64
  92 0004 FFF7FEFF 		bl	CPU_SR_Save
  93              	.LVL2:
  94              		.loc 1 902 5 view .LVU26
  95              		.loc 1 902 5 view .LVU27
 903:rtos/uC-USB-Device/Class/HID/usbd_hid_report.c ****     if (USBD_HID_ReportID_Tbl_Ix >= USBD_HID_CFG_MAX_NBR_REPORT_ID) {
  96              		.loc 1 903 5 view .LVU28
  97              		.loc 1 903 34 is_stmt 0 view .LVU29
  98 0008 094B     		ldr	r3, .L7
  99 000a 1B88     		ldrh	r3, [r3]
 100              		.loc 1 903 8 view .LVU30
 101 000c 5BB9     		cbnz	r3, .L6
 904:rtos/uC-USB-Device/Class/HID/usbd_hid_report.c ****         CPU_CRITICAL_EXIT();
 905:rtos/uC-USB-Device/Class/HID/usbd_hid_report.c ****         return ((USBD_HID_REPORT_ID *)0);
 906:rtos/uC-USB-Device/Class/HID/usbd_hid_report.c ****     }
 907:rtos/uC-USB-Device/Class/HID/usbd_hid_report.c **** 
 908:rtos/uC-USB-Device/Class/HID/usbd_hid_report.c ****     p_report_id = &USBD_HID_ReportID_Tbl[USBD_HID_ReportID_Tbl_Ix];
 102              		.loc 1 908 5 is_stmt 1 view .LVU31
 103              		.loc 1 908 17 is_stmt 0 view .LVU32
 104 000e 03EB8302 		add	r2, r3, r3, lsl #2
 105 0012 084C     		ldr	r4, .L7+4
 106 0014 04EB8204 		add	r4, r4, r2, lsl #2
 107              	.LVL3:
 909:rtos/uC-USB-Device/Class/HID/usbd_hid_report.c **** 
 910:rtos/uC-USB-Device/Class/HID/usbd_hid_report.c ****     USBD_HID_ReportID_Tbl_Ix++;
 108              		.loc 1 910 5 is_stmt 1 view .LVU33
 109              		.loc 1 910 29 is_stmt 0 view .LVU34
 110 0018 0133     		adds	r3, r3, #1
 111 001a 054A     		ldr	r2, .L7
 112 001c 1380     		strh	r3, [r2]	@ movhi
 911:rtos/uC-USB-Device/Class/HID/usbd_hid_report.c ****     CPU_CRITICAL_EXIT();
 113              		.loc 1 911 5 is_stmt 1 view .LVU35
 114              		.loc 1 911 5 view .LVU36
 115              		.loc 1 911 5 view .LVU37
 116 001e FFF7FEFF 		bl	CPU_SR_Restore
 117              	.LVL4:
 118              		.loc 1 911 5 view .LVU38
ARM GAS  /tmp/cciyuUhu.s 			page 19


 119              		.loc 1 911 5 view .LVU39
 912:rtos/uC-USB-Device/Class/HID/usbd_hid_report.c **** 
 913:rtos/uC-USB-Device/Class/HID/usbd_hid_report.c ****     return (p_report_id);
 120              		.loc 1 913 5 view .LVU40
 121              	.L2:
 914:rtos/uC-USB-Device/Class/HID/usbd_hid_report.c **** }
 122              		.loc 1 914 1 is_stmt 0 view .LVU41
 123 0022 2046     		mov	r0, r4
 124 0024 10BD     		pop	{r4, pc}
 125              	.LVL5:
 126              	.L6:
 904:rtos/uC-USB-Device/Class/HID/usbd_hid_report.c ****         return ((USBD_HID_REPORT_ID *)0);
 127              		.loc 1 904 9 is_stmt 1 view .LVU42
 904:rtos/uC-USB-Device/Class/HID/usbd_hid_report.c ****         return ((USBD_HID_REPORT_ID *)0);
 128              		.loc 1 904 9 view .LVU43
 904:rtos/uC-USB-Device/Class/HID/usbd_hid_report.c ****         return ((USBD_HID_REPORT_ID *)0);
 129              		.loc 1 904 9 view .LVU44
 130 0026 FFF7FEFF 		bl	CPU_SR_Restore
 131              	.LVL6:
 904:rtos/uC-USB-Device/Class/HID/usbd_hid_report.c ****         return ((USBD_HID_REPORT_ID *)0);
 132              		.loc 1 904 9 view .LVU45
 904:rtos/uC-USB-Device/Class/HID/usbd_hid_report.c ****         return ((USBD_HID_REPORT_ID *)0);
 133              		.loc 1 904 9 view .LVU46
 905:rtos/uC-USB-Device/Class/HID/usbd_hid_report.c ****     }
 134              		.loc 1 905 9 view .LVU47
 905:rtos/uC-USB-Device/Class/HID/usbd_hid_report.c ****     }
 135              		.loc 1 905 16 is_stmt 0 view .LVU48
 136 002a 0024     		movs	r4, #0
 137 002c F9E7     		b	.L2
 138              	.L8:
 139 002e 00BF     		.align	2
 140              	.L7:
 141 0030 00000000 		.word	.LANCHOR0
 142 0034 00000000 		.word	.LANCHOR1
 143              		.cfi_endproc
 144              	.LFE8:
 146              		.section	.text.USBD_HID_ReportID_Get,"ax",%progbits
 147              		.align	1
 148              		.syntax unified
 149              		.thumb
 150              		.thumb_func
 151              		.fpu fpv4-sp-d16
 153              	USBD_HID_ReportID_Get:
 154              	.LVL7:
 155              	.LFB9:
 915:rtos/uC-USB-Device/Class/HID/usbd_hid_report.c **** 
 916:rtos/uC-USB-Device/Class/HID/usbd_hid_report.c **** 
 917:rtos/uC-USB-Device/Class/HID/usbd_hid_report.c **** /*
 918:rtos/uC-USB-Device/Class/HID/usbd_hid_report.c **** ***************************************************************************************************
 919:rtos/uC-USB-Device/Class/HID/usbd_hid_report.c **** *                                        USBD_HID_ReportID_Get()
 920:rtos/uC-USB-Device/Class/HID/usbd_hid_report.c **** *
 921:rtos/uC-USB-Device/Class/HID/usbd_hid_report.c **** * Description : Retrieve HID report ID structure.
 922:rtos/uC-USB-Device/Class/HID/usbd_hid_report.c **** *
 923:rtos/uC-USB-Device/Class/HID/usbd_hid_report.c **** * Argument(s) : p_report        Pointer to HID report structure.
 924:rtos/uC-USB-Device/Class/HID/usbd_hid_report.c **** *
 925:rtos/uC-USB-Device/Class/HID/usbd_hid_report.c **** *               report_type     HID report type.
 926:rtos/uC-USB-Device/Class/HID/usbd_hid_report.c **** *
ARM GAS  /tmp/cciyuUhu.s 			page 20


 927:rtos/uC-USB-Device/Class/HID/usbd_hid_report.c **** *               report_id       HID report ID.
 928:rtos/uC-USB-Device/Class/HID/usbd_hid_report.c **** *
 929:rtos/uC-USB-Device/Class/HID/usbd_hid_report.c **** * Return(s)   : Pointer to HID report ID structure, if NO error(s).
 930:rtos/uC-USB-Device/Class/HID/usbd_hid_report.c **** *
 931:rtos/uC-USB-Device/Class/HID/usbd_hid_report.c **** *               Pointer to NULL,                    otherwise.
 932:rtos/uC-USB-Device/Class/HID/usbd_hid_report.c **** *
 933:rtos/uC-USB-Device/Class/HID/usbd_hid_report.c **** * Note(s)     : (1) If HID report ID structure is not available for the specific report type and ID
 934:rtos/uC-USB-Device/Class/HID/usbd_hid_report.c **** *                   instance of HID report ID structure is allocated and linked into the HID report
 935:rtos/uC-USB-Device/Class/HID/usbd_hid_report.c **** *                   structure.
 936:rtos/uC-USB-Device/Class/HID/usbd_hid_report.c **** ***************************************************************************************************
 937:rtos/uC-USB-Device/Class/HID/usbd_hid_report.c **** */
 938:rtos/uC-USB-Device/Class/HID/usbd_hid_report.c **** 
 939:rtos/uC-USB-Device/Class/HID/usbd_hid_report.c **** static  USBD_HID_REPORT_ID  *USBD_HID_ReportID_Get (USBD_HID_REPORT       *p_report,
 940:rtos/uC-USB-Device/Class/HID/usbd_hid_report.c ****                                                     USBD_HID_REPORT_TYPE     report_type,
 941:rtos/uC-USB-Device/Class/HID/usbd_hid_report.c ****                                                     CPU_INT08U               report_id)
 942:rtos/uC-USB-Device/Class/HID/usbd_hid_report.c **** {
 156              		.loc 1 942 1 is_stmt 1 view -0
 157              		.cfi_startproc
 158              		@ args = 0, pretend = 0, frame = 0
 159              		@ frame_needed = 0, uses_anonymous_args = 0
 160              		.loc 1 942 1 is_stmt 0 view .LVU50
 161 0000 F8B5     		push	{r3, r4, r5, r6, r7, lr}
 162              	.LCFI1:
 163              		.cfi_def_cfa_offset 24
 164              		.cfi_offset 3, -24
 165              		.cfi_offset 4, -20
 166              		.cfi_offset 5, -16
 167              		.cfi_offset 6, -12
 168              		.cfi_offset 7, -8
 169              		.cfi_offset 14, -4
 170 0002 0546     		mov	r5, r0
 171 0004 1446     		mov	r4, r2
 943:rtos/uC-USB-Device/Class/HID/usbd_hid_report.c ****     USBD_HID_REPORT_ID  *p_report_id;
 172              		.loc 1 943 5 is_stmt 1 view .LVU51
 944:rtos/uC-USB-Device/Class/HID/usbd_hid_report.c ****     USBD_HID_REPORT_ID  *p_report_id_prev;
 173              		.loc 1 944 5 view .LVU52
 945:rtos/uC-USB-Device/Class/HID/usbd_hid_report.c ****     CPU_INT08U           type;
 174              		.loc 1 945 5 view .LVU53
 946:rtos/uC-USB-Device/Class/HID/usbd_hid_report.c **** 
 947:rtos/uC-USB-Device/Class/HID/usbd_hid_report.c **** 
 948:rtos/uC-USB-Device/Class/HID/usbd_hid_report.c ****     switch (report_type) {
 175              		.loc 1 948 5 view .LVU54
 176 0006 0229     		cmp	r1, #2
 177 0008 15D0     		beq	.L17
 178 000a 0329     		cmp	r1, #3
 179 000c 15D0     		beq	.L18
 180 000e 0129     		cmp	r1, #1
 181 0010 01D0     		beq	.L22
 182 0012 0020     		movs	r0, #0
 183              	.LVL8:
 184              	.L9:
 949:rtos/uC-USB-Device/Class/HID/usbd_hid_report.c ****         case USBD_HID_REPORT_TYPE_INPUT:
 950:rtos/uC-USB-Device/Class/HID/usbd_hid_report.c ****              type = 0;
 951:rtos/uC-USB-Device/Class/HID/usbd_hid_report.c ****              break;
 952:rtos/uC-USB-Device/Class/HID/usbd_hid_report.c **** 
 953:rtos/uC-USB-Device/Class/HID/usbd_hid_report.c ****         case USBD_HID_REPORT_TYPE_OUTPUT:
 954:rtos/uC-USB-Device/Class/HID/usbd_hid_report.c ****              type = 1;
ARM GAS  /tmp/cciyuUhu.s 			page 21


 955:rtos/uC-USB-Device/Class/HID/usbd_hid_report.c ****              break;
 956:rtos/uC-USB-Device/Class/HID/usbd_hid_report.c **** 
 957:rtos/uC-USB-Device/Class/HID/usbd_hid_report.c ****         case USBD_HID_REPORT_TYPE_FEATURE:
 958:rtos/uC-USB-Device/Class/HID/usbd_hid_report.c ****              type = 2;
 959:rtos/uC-USB-Device/Class/HID/usbd_hid_report.c ****              break;
 960:rtos/uC-USB-Device/Class/HID/usbd_hid_report.c **** 
 961:rtos/uC-USB-Device/Class/HID/usbd_hid_report.c ****         case USBD_HID_REPORT_TYPE_NONE:
 962:rtos/uC-USB-Device/Class/HID/usbd_hid_report.c ****         default:
 963:rtos/uC-USB-Device/Class/HID/usbd_hid_report.c ****              return ((USBD_HID_REPORT_ID *)0);
 964:rtos/uC-USB-Device/Class/HID/usbd_hid_report.c ****     }
 965:rtos/uC-USB-Device/Class/HID/usbd_hid_report.c **** 
 966:rtos/uC-USB-Device/Class/HID/usbd_hid_report.c **** 
 967:rtos/uC-USB-Device/Class/HID/usbd_hid_report.c ****     if (p_report->HasReports == DEF_NO) {
 968:rtos/uC-USB-Device/Class/HID/usbd_hid_report.c ****         if (report_id > 0) {
 969:rtos/uC-USB-Device/Class/HID/usbd_hid_report.c ****             return ((USBD_HID_REPORT_ID *)0);
 970:rtos/uC-USB-Device/Class/HID/usbd_hid_report.c ****         }
 971:rtos/uC-USB-Device/Class/HID/usbd_hid_report.c **** 
 972:rtos/uC-USB-Device/Class/HID/usbd_hid_report.c ****         if (p_report->Reports[type] == (USBD_HID_REPORT_ID *)0) {
 973:rtos/uC-USB-Device/Class/HID/usbd_hid_report.c ****             p_report->Reports[type] = USBD_HID_ReportID_Alloc();
 974:rtos/uC-USB-Device/Class/HID/usbd_hid_report.c ****             if (p_report->Reports[type] == (USBD_HID_REPORT_ID *)0) {
 975:rtos/uC-USB-Device/Class/HID/usbd_hid_report.c ****                 return ((USBD_HID_REPORT_ID *)0);
 976:rtos/uC-USB-Device/Class/HID/usbd_hid_report.c ****             }
 977:rtos/uC-USB-Device/Class/HID/usbd_hid_report.c ****         }
 978:rtos/uC-USB-Device/Class/HID/usbd_hid_report.c **** 
 979:rtos/uC-USB-Device/Class/HID/usbd_hid_report.c ****         p_report_id = p_report->Reports[type];
 980:rtos/uC-USB-Device/Class/HID/usbd_hid_report.c **** 
 981:rtos/uC-USB-Device/Class/HID/usbd_hid_report.c ****         return (p_report_id);
 982:rtos/uC-USB-Device/Class/HID/usbd_hid_report.c ****     }
 983:rtos/uC-USB-Device/Class/HID/usbd_hid_report.c **** 
 984:rtos/uC-USB-Device/Class/HID/usbd_hid_report.c **** 
 985:rtos/uC-USB-Device/Class/HID/usbd_hid_report.c ****     p_report_id      = p_report->Reports[type];
 986:rtos/uC-USB-Device/Class/HID/usbd_hid_report.c ****     p_report_id_prev = (USBD_HID_REPORT_ID *)0;
 987:rtos/uC-USB-Device/Class/HID/usbd_hid_report.c ****     while (p_report_id != (USBD_HID_REPORT_ID *)0) {
 988:rtos/uC-USB-Device/Class/HID/usbd_hid_report.c ****         if (p_report_id->ID == report_id) {
 989:rtos/uC-USB-Device/Class/HID/usbd_hid_report.c ****             return (p_report_id);
 990:rtos/uC-USB-Device/Class/HID/usbd_hid_report.c ****         }
 991:rtos/uC-USB-Device/Class/HID/usbd_hid_report.c **** 
 992:rtos/uC-USB-Device/Class/HID/usbd_hid_report.c ****         p_report_id_prev = p_report_id;
 993:rtos/uC-USB-Device/Class/HID/usbd_hid_report.c ****         p_report_id      = p_report_id->NextPtr;
 994:rtos/uC-USB-Device/Class/HID/usbd_hid_report.c ****     }
 995:rtos/uC-USB-Device/Class/HID/usbd_hid_report.c **** 
 996:rtos/uC-USB-Device/Class/HID/usbd_hid_report.c ****     p_report_id = USBD_HID_ReportID_Alloc();
 997:rtos/uC-USB-Device/Class/HID/usbd_hid_report.c ****     if (p_report_id == (USBD_HID_REPORT_ID *)0) {
 998:rtos/uC-USB-Device/Class/HID/usbd_hid_report.c ****         return ((USBD_HID_REPORT_ID *)0);
 999:rtos/uC-USB-Device/Class/HID/usbd_hid_report.c ****     }
1000:rtos/uC-USB-Device/Class/HID/usbd_hid_report.c **** 
1001:rtos/uC-USB-Device/Class/HID/usbd_hid_report.c ****     p_report_id->ID = report_id;
1002:rtos/uC-USB-Device/Class/HID/usbd_hid_report.c **** 
1003:rtos/uC-USB-Device/Class/HID/usbd_hid_report.c ****     if (p_report->Reports[type] == (USBD_HID_REPORT_ID *)0) {
1004:rtos/uC-USB-Device/Class/HID/usbd_hid_report.c ****         p_report->Reports[type]  =  p_report_id;
1005:rtos/uC-USB-Device/Class/HID/usbd_hid_report.c ****     } else {
1006:rtos/uC-USB-Device/Class/HID/usbd_hid_report.c ****         p_report_id_prev->NextPtr = p_report_id;
1007:rtos/uC-USB-Device/Class/HID/usbd_hid_report.c ****     }
1008:rtos/uC-USB-Device/Class/HID/usbd_hid_report.c **** 
1009:rtos/uC-USB-Device/Class/HID/usbd_hid_report.c ****     return (p_report_id);
1010:rtos/uC-USB-Device/Class/HID/usbd_hid_report.c **** }
 185              		.loc 1 1010 1 is_stmt 0 view .LVU55
ARM GAS  /tmp/cciyuUhu.s 			page 22


 186 0014 F8BD     		pop	{r3, r4, r5, r6, r7, pc}
 187              	.LVL9:
 188              	.L22:
 948:rtos/uC-USB-Device/Class/HID/usbd_hid_report.c ****         case USBD_HID_REPORT_TYPE_INPUT:
 189              		.loc 1 948 5 view .LVU56
 190 0016 0026     		movs	r6, #0
 191              	.L10:
 192              	.LVL10:
 967:rtos/uC-USB-Device/Class/HID/usbd_hid_report.c ****         if (report_id > 0) {
 193              		.loc 1 967 5 is_stmt 1 view .LVU57
 967:rtos/uC-USB-Device/Class/HID/usbd_hid_report.c ****         if (report_id > 0) {
 194              		.loc 1 967 17 is_stmt 0 view .LVU58
 195 0018 2B78     		ldrb	r3, [r5]	@ zero_extendqisi2
 967:rtos/uC-USB-Device/Class/HID/usbd_hid_report.c ****         if (report_id > 0) {
 196              		.loc 1 967 8 view .LVU59
 197 001a CBB9     		cbnz	r3, .L12
 968:rtos/uC-USB-Device/Class/HID/usbd_hid_report.c ****             return ((USBD_HID_REPORT_ID *)0);
 198              		.loc 1 968 9 is_stmt 1 view .LVU60
 968:rtos/uC-USB-Device/Class/HID/usbd_hid_report.c ****             return ((USBD_HID_REPORT_ID *)0);
 199              		.loc 1 968 12 is_stmt 0 view .LVU61
 200 001c 002C     		cmp	r4, #0
 201 001e 35D1     		bne	.L20
 972:rtos/uC-USB-Device/Class/HID/usbd_hid_report.c ****             p_report->Reports[type] = USBD_HID_ReportID_Alloc();
 202              		.loc 1 972 9 is_stmt 1 view .LVU62
 972:rtos/uC-USB-Device/Class/HID/usbd_hid_report.c ****             p_report->Reports[type] = USBD_HID_ReportID_Alloc();
 203              		.loc 1 972 30 is_stmt 0 view .LVU63
 204 0020 3446     		mov	r4, r6
 205 0022 331D     		adds	r3, r6, #4
 206 0024 05EB8303 		add	r3, r5, r3, lsl #2
 207 0028 5B68     		ldr	r3, [r3, #4]
 972:rtos/uC-USB-Device/Class/HID/usbd_hid_report.c ****             p_report->Reports[type] = USBD_HID_ReportID_Alloc();
 208              		.loc 1 972 12 view .LVU64
 209 002a 43B1     		cbz	r3, .L23
 210              	.LVL11:
 211              	.L13:
 979:rtos/uC-USB-Device/Class/HID/usbd_hid_report.c **** 
 212              		.loc 1 979 9 is_stmt 1 view .LVU65
 979:rtos/uC-USB-Device/Class/HID/usbd_hid_report.c **** 
 213              		.loc 1 979 21 is_stmt 0 view .LVU66
 214 002c 0434     		adds	r4, r4, #4
 215 002e 05EB8405 		add	r5, r5, r4, lsl #2
 216              	.LVL12:
 979:rtos/uC-USB-Device/Class/HID/usbd_hid_report.c **** 
 217              		.loc 1 979 21 view .LVU67
 218 0032 6868     		ldr	r0, [r5, #4]
 219              	.LVL13:
 981:rtos/uC-USB-Device/Class/HID/usbd_hid_report.c ****     }
 220              		.loc 1 981 9 is_stmt 1 view .LVU68
 981:rtos/uC-USB-Device/Class/HID/usbd_hid_report.c ****     }
 221              		.loc 1 981 16 is_stmt 0 view .LVU69
 222 0034 EEE7     		b	.L9
 223              	.LVL14:
 224              	.L17:
 954:rtos/uC-USB-Device/Class/HID/usbd_hid_report.c ****              break;
 225              		.loc 1 954 19 view .LVU70
 226 0036 0126     		movs	r6, #1
 227 0038 EEE7     		b	.L10
ARM GAS  /tmp/cciyuUhu.s 			page 23


 228              	.L18:
 958:rtos/uC-USB-Device/Class/HID/usbd_hid_report.c ****              break;
 229              		.loc 1 958 19 view .LVU71
 230 003a 0226     		movs	r6, #2
 231 003c ECE7     		b	.L10
 232              	.LVL15:
 233              	.L23:
 973:rtos/uC-USB-Device/Class/HID/usbd_hid_report.c ****             if (p_report->Reports[type] == (USBD_HID_REPORT_ID *)0) {
 234              		.loc 1 973 13 is_stmt 1 view .LVU72
 973:rtos/uC-USB-Device/Class/HID/usbd_hid_report.c ****             if (p_report->Reports[type] == (USBD_HID_REPORT_ID *)0) {
 235              		.loc 1 973 39 is_stmt 0 view .LVU73
 236 003e FFF7FEFF 		bl	USBD_HID_ReportID_Alloc
 237              	.LVL16:
 973:rtos/uC-USB-Device/Class/HID/usbd_hid_report.c ****             if (p_report->Reports[type] == (USBD_HID_REPORT_ID *)0) {
 238              		.loc 1 973 37 view .LVU74
 239 0042 0436     		adds	r6, r6, #4
 240              	.LVL17:
 973:rtos/uC-USB-Device/Class/HID/usbd_hid_report.c ****             if (p_report->Reports[type] == (USBD_HID_REPORT_ID *)0) {
 241              		.loc 1 973 37 view .LVU75
 242 0044 05EB8606 		add	r6, r5, r6, lsl #2
 243 0048 7060     		str	r0, [r6, #4]
 974:rtos/uC-USB-Device/Class/HID/usbd_hid_report.c ****                 return ((USBD_HID_REPORT_ID *)0);
 244              		.loc 1 974 13 is_stmt 1 view .LVU76
 974:rtos/uC-USB-Device/Class/HID/usbd_hid_report.c ****                 return ((USBD_HID_REPORT_ID *)0);
 245              		.loc 1 974 16 is_stmt 0 view .LVU77
 246 004a 0028     		cmp	r0, #0
 247 004c EED1     		bne	.L13
 248 004e E1E7     		b	.L9
 249              	.LVL18:
 250              	.L12:
 985:rtos/uC-USB-Device/Class/HID/usbd_hid_report.c ****     p_report_id_prev = (USBD_HID_REPORT_ID *)0;
 251              		.loc 1 985 5 is_stmt 1 view .LVU78
 985:rtos/uC-USB-Device/Class/HID/usbd_hid_report.c ****     p_report_id_prev = (USBD_HID_REPORT_ID *)0;
 252              		.loc 1 985 41 is_stmt 0 view .LVU79
 253 0050 3746     		mov	r7, r6
 985:rtos/uC-USB-Device/Class/HID/usbd_hid_report.c ****     p_report_id_prev = (USBD_HID_REPORT_ID *)0;
 254              		.loc 1 985 22 view .LVU80
 255 0052 0436     		adds	r6, r6, #4
 256              	.LVL19:
 985:rtos/uC-USB-Device/Class/HID/usbd_hid_report.c ****     p_report_id_prev = (USBD_HID_REPORT_ID *)0;
 257              		.loc 1 985 22 view .LVU81
 258 0054 05EB8606 		add	r6, r5, r6, lsl #2
 259 0058 7068     		ldr	r0, [r6, #4]
 260              	.LVL20:
 986:rtos/uC-USB-Device/Class/HID/usbd_hid_report.c ****     while (p_report_id != (USBD_HID_REPORT_ID *)0) {
 261              		.loc 1 986 5 is_stmt 1 view .LVU82
 987:rtos/uC-USB-Device/Class/HID/usbd_hid_report.c ****         if (p_report_id->ID == report_id) {
 262              		.loc 1 987 5 view .LVU83
 986:rtos/uC-USB-Device/Class/HID/usbd_hid_report.c ****     while (p_report_id != (USBD_HID_REPORT_ID *)0) {
 263              		.loc 1 986 22 is_stmt 0 view .LVU84
 264 005a 0026     		movs	r6, #0
 265              	.LVL21:
 266              	.L14:
 987:rtos/uC-USB-Device/Class/HID/usbd_hid_report.c ****         if (p_report_id->ID == report_id) {
 267              		.loc 1 987 11 is_stmt 1 view .LVU85
 268 005c 28B1     		cbz	r0, .L24
 988:rtos/uC-USB-Device/Class/HID/usbd_hid_report.c ****             return (p_report_id);
ARM GAS  /tmp/cciyuUhu.s 			page 24


 269              		.loc 1 988 9 view .LVU86
 988:rtos/uC-USB-Device/Class/HID/usbd_hid_report.c ****             return (p_report_id);
 270              		.loc 1 988 24 is_stmt 0 view .LVU87
 271 005e 0378     		ldrb	r3, [r0]	@ zero_extendqisi2
 988:rtos/uC-USB-Device/Class/HID/usbd_hid_report.c ****             return (p_report_id);
 272              		.loc 1 988 12 view .LVU88
 273 0060 A342     		cmp	r3, r4
 274 0062 D7D0     		beq	.L9
 992:rtos/uC-USB-Device/Class/HID/usbd_hid_report.c ****         p_report_id      = p_report_id->NextPtr;
 275              		.loc 1 992 9 is_stmt 1 view .LVU89
 276              	.LVL22:
 993:rtos/uC-USB-Device/Class/HID/usbd_hid_report.c ****     }
 277              		.loc 1 993 9 view .LVU90
 992:rtos/uC-USB-Device/Class/HID/usbd_hid_report.c ****         p_report_id      = p_report_id->NextPtr;
 278              		.loc 1 992 26 is_stmt 0 view .LVU91
 279 0064 0646     		mov	r6, r0
 993:rtos/uC-USB-Device/Class/HID/usbd_hid_report.c ****     }
 280              		.loc 1 993 26 view .LVU92
 281 0066 8068     		ldr	r0, [r0, #8]
 282              	.LVL23:
 993:rtos/uC-USB-Device/Class/HID/usbd_hid_report.c ****     }
 283              		.loc 1 993 26 view .LVU93
 284 0068 F8E7     		b	.L14
 285              	.L24:
 996:rtos/uC-USB-Device/Class/HID/usbd_hid_report.c ****     if (p_report_id == (USBD_HID_REPORT_ID *)0) {
 286              		.loc 1 996 5 is_stmt 1 view .LVU94
 996:rtos/uC-USB-Device/Class/HID/usbd_hid_report.c ****     if (p_report_id == (USBD_HID_REPORT_ID *)0) {
 287              		.loc 1 996 19 is_stmt 0 view .LVU95
 288 006a FFF7FEFF 		bl	USBD_HID_ReportID_Alloc
 289              	.LVL24:
 997:rtos/uC-USB-Device/Class/HID/usbd_hid_report.c ****         return ((USBD_HID_REPORT_ID *)0);
 290              		.loc 1 997 5 is_stmt 1 view .LVU96
 997:rtos/uC-USB-Device/Class/HID/usbd_hid_report.c ****         return ((USBD_HID_REPORT_ID *)0);
 291              		.loc 1 997 8 is_stmt 0 view .LVU97
 292 006e 0028     		cmp	r0, #0
 293 0070 D0D0     		beq	.L9
1001:rtos/uC-USB-Device/Class/HID/usbd_hid_report.c **** 
 294              		.loc 1 1001 5 is_stmt 1 view .LVU98
1001:rtos/uC-USB-Device/Class/HID/usbd_hid_report.c **** 
 295              		.loc 1 1001 21 is_stmt 0 view .LVU99
 296 0072 0470     		strb	r4, [r0]
1003:rtos/uC-USB-Device/Class/HID/usbd_hid_report.c ****         p_report->Reports[type]  =  p_report_id;
 297              		.loc 1 1003 5 is_stmt 1 view .LVU100
1003:rtos/uC-USB-Device/Class/HID/usbd_hid_report.c ****         p_report->Reports[type]  =  p_report_id;
 298              		.loc 1 1003 26 is_stmt 0 view .LVU101
 299 0074 3B1D     		adds	r3, r7, #4
 300 0076 05EB8303 		add	r3, r5, r3, lsl #2
 301 007a 5B68     		ldr	r3, [r3, #4]
1003:rtos/uC-USB-Device/Class/HID/usbd_hid_report.c ****         p_report->Reports[type]  =  p_report_id;
 302              		.loc 1 1003 8 view .LVU102
 303 007c 0BB1     		cbz	r3, .L25
1006:rtos/uC-USB-Device/Class/HID/usbd_hid_report.c ****     }
 304              		.loc 1 1006 9 is_stmt 1 view .LVU103
1006:rtos/uC-USB-Device/Class/HID/usbd_hid_report.c ****     }
 305              		.loc 1 1006 35 is_stmt 0 view .LVU104
 306 007e B060     		str	r0, [r6, #8]
 307 0080 C8E7     		b	.L9
ARM GAS  /tmp/cciyuUhu.s 			page 25


 308              	.L25:
1004:rtos/uC-USB-Device/Class/HID/usbd_hid_report.c ****     } else {
 309              		.loc 1 1004 9 is_stmt 1 view .LVU105
1004:rtos/uC-USB-Device/Class/HID/usbd_hid_report.c ****     } else {
 310              		.loc 1 1004 34 is_stmt 0 view .LVU106
 311 0082 0437     		adds	r7, r7, #4
 312 0084 05EB8705 		add	r5, r5, r7, lsl #2
 313              	.LVL25:
1004:rtos/uC-USB-Device/Class/HID/usbd_hid_report.c ****     } else {
 314              		.loc 1 1004 34 view .LVU107
 315 0088 6860     		str	r0, [r5, #4]
 316 008a C3E7     		b	.L9
 317              	.LVL26:
 318              	.L20:
 969:rtos/uC-USB-Device/Class/HID/usbd_hid_report.c ****         }
 319              		.loc 1 969 20 view .LVU108
 320 008c 0020     		movs	r0, #0
 321              	.LVL27:
 969:rtos/uC-USB-Device/Class/HID/usbd_hid_report.c ****         }
 322              		.loc 1 969 20 view .LVU109
 323 008e C1E7     		b	.L9
 324              		.cfi_endproc
 325              	.LFE9:
 327              		.section	.text.USBD_HID_Report_Init,"ax",%progbits
 328              		.align	1
 329              		.global	USBD_HID_Report_Init
 330              		.syntax unified
 331              		.thumb
 332              		.thumb_func
 333              		.fpu fpv4-sp-d16
 335              	USBD_HID_Report_Init:
 336              	.LVL28:
 337              	.LFB0:
 155:rtos/uC-USB-Device/Class/HID/usbd_hid_report.c ****     USBD_HID_REPORT_ID  *p_report_id;
 338              		.loc 1 155 1 is_stmt 1 view -0
 339              		.cfi_startproc
 340              		@ args = 0, pretend = 0, frame = 0
 341              		@ frame_needed = 0, uses_anonymous_args = 0
 342              		@ link register save eliminated.
 155:rtos/uC-USB-Device/Class/HID/usbd_hid_report.c ****     USBD_HID_REPORT_ID  *p_report_id;
 343              		.loc 1 155 1 is_stmt 0 view .LVU111
 344 0000 30B4     		push	{r4, r5}
 345              	.LCFI2:
 346              		.cfi_def_cfa_offset 8
 347              		.cfi_offset 4, -8
 348              		.cfi_offset 5, -4
 156:rtos/uC-USB-Device/Class/HID/usbd_hid_report.c ****     CPU_INT16U           ix;
 349              		.loc 1 156 5 is_stmt 1 view .LVU112
 157:rtos/uC-USB-Device/Class/HID/usbd_hid_report.c **** 
 350              		.loc 1 157 5 view .LVU113
 160:rtos/uC-USB-Device/Class/HID/usbd_hid_report.c ****         p_report_id = &USBD_HID_ReportID_Tbl[ix];
 351              		.loc 1 160 5 view .LVU114
 352              	.LVL29:
 160:rtos/uC-USB-Device/Class/HID/usbd_hid_report.c ****         p_report_id = &USBD_HID_ReportID_Tbl[ix];
 353              		.loc 1 160 13 is_stmt 0 view .LVU115
 354 0002 0023     		movs	r3, #0
 355              	.LVL30:
ARM GAS  /tmp/cciyuUhu.s 			page 26


 356              	.L27:
 160:rtos/uC-USB-Device/Class/HID/usbd_hid_report.c ****         p_report_id = &USBD_HID_ReportID_Tbl[ix];
 357              		.loc 1 160 18 is_stmt 1 discriminator 1 view .LVU116
 160:rtos/uC-USB-Device/Class/HID/usbd_hid_report.c ****         p_report_id = &USBD_HID_ReportID_Tbl[ix];
 358              		.loc 1 160 5 is_stmt 0 discriminator 1 view .LVU117
 359 0004 3BB1     		cbz	r3, .L28
 175:rtos/uC-USB-Device/Class/HID/usbd_hid_report.c ****     USBD_HID_ReportID_TmrList = (USBD_HID_REPORT_ID *)0;
 360              		.loc 1 175 5 is_stmt 1 view .LVU118
 175:rtos/uC-USB-Device/Class/HID/usbd_hid_report.c ****     USBD_HID_ReportID_TmrList = (USBD_HID_REPORT_ID *)0;
 361              		.loc 1 175 31 is_stmt 0 view .LVU119
 362 0006 0023     		movs	r3, #0
 363              	.LVL31:
 175:rtos/uC-USB-Device/Class/HID/usbd_hid_report.c ****     USBD_HID_ReportID_TmrList = (USBD_HID_REPORT_ID *)0;
 364              		.loc 1 175 31 view .LVU120
 365 0008 0F4A     		ldr	r2, .L30
 366 000a 1380     		strh	r3, [r2]	@ movhi
 176:rtos/uC-USB-Device/Class/HID/usbd_hid_report.c **** 
 367              		.loc 1 176 5 is_stmt 1 view .LVU121
 176:rtos/uC-USB-Device/Class/HID/usbd_hid_report.c **** 
 368              		.loc 1 176 31 is_stmt 0 view .LVU122
 369 000c 0F4A     		ldr	r2, .L30+4
 370 000e 1360     		str	r3, [r2]
 178:rtos/uC-USB-Device/Class/HID/usbd_hid_report.c **** }
 371              		.loc 1 178 4 is_stmt 1 view .LVU123
 178:rtos/uC-USB-Device/Class/HID/usbd_hid_report.c **** }
 372              		.loc 1 178 11 is_stmt 0 view .LVU124
 373 0010 0380     		strh	r3, [r0]	@ movhi
 179:rtos/uC-USB-Device/Class/HID/usbd_hid_report.c **** 
 374              		.loc 1 179 1 view .LVU125
 375 0012 30BC     		pop	{r4, r5}
 376              	.LCFI3:
 377              		.cfi_remember_state
 378              		.cfi_restore 5
 379              		.cfi_restore 4
 380              		.cfi_def_cfa_offset 0
 381 0014 7047     		bx	lr
 382              	.LVL32:
 383              	.L28:
 384              	.LCFI4:
 385              		.cfi_restore_state
 161:rtos/uC-USB-Device/Class/HID/usbd_hid_report.c **** 
 386              		.loc 1 161 9 is_stmt 1 discriminator 3 view .LVU126
 163:rtos/uC-USB-Device/Class/HID/usbd_hid_report.c ****         p_report_id->Size    =  0;
 387              		.loc 1 163 9 discriminator 3 view .LVU127
 163:rtos/uC-USB-Device/Class/HID/usbd_hid_report.c ****         p_report_id->Size    =  0;
 388              		.loc 1 163 30 is_stmt 0 discriminator 3 view .LVU128
 389 0016 0E4C     		ldr	r4, .L30+8
 390 0018 03EB8302 		add	r2, r3, r3, lsl #2
 391 001c 9500     		lsls	r5, r2, #2
 392 001e 04EB8202 		add	r2, r4, r2, lsl #2
 393 0022 0021     		movs	r1, #0
 394 0024 6155     		strb	r1, [r4, r5]
 164:rtos/uC-USB-Device/Class/HID/usbd_hid_report.c ****         p_report_id->DataPtr = (CPU_INT08U         *)0;
 395              		.loc 1 164 9 is_stmt 1 discriminator 3 view .LVU129
 164:rtos/uC-USB-Device/Class/HID/usbd_hid_report.c ****         p_report_id->DataPtr = (CPU_INT08U         *)0;
 396              		.loc 1 164 30 is_stmt 0 discriminator 3 view .LVU130
 397 0026 5180     		strh	r1, [r2, #2]	@ movhi
ARM GAS  /tmp/cciyuUhu.s 			page 27


 165:rtos/uC-USB-Device/Class/HID/usbd_hid_report.c ****         p_report_id->NextPtr = (USBD_HID_REPORT_ID *)0;
 398              		.loc 1 165 9 is_stmt 1 discriminator 3 view .LVU131
 165:rtos/uC-USB-Device/Class/HID/usbd_hid_report.c ****         p_report_id->NextPtr = (USBD_HID_REPORT_ID *)0;
 399              		.loc 1 165 30 is_stmt 0 discriminator 3 view .LVU132
 400 0028 5160     		str	r1, [r2, #4]
 166:rtos/uC-USB-Device/Class/HID/usbd_hid_report.c **** 
 401              		.loc 1 166 9 is_stmt 1 discriminator 3 view .LVU133
 166:rtos/uC-USB-Device/Class/HID/usbd_hid_report.c **** 
 402              		.loc 1 166 30 is_stmt 0 discriminator 3 view .LVU134
 403 002a 9160     		str	r1, [r2, #8]
 168:rtos/uC-USB-Device/Class/HID/usbd_hid_report.c ****         p_report_id->IdleCnt    =  0;
 404              		.loc 1 168 9 is_stmt 1 discriminator 3 view .LVU135
 168:rtos/uC-USB-Device/Class/HID/usbd_hid_report.c ****         p_report_id->IdleCnt    =  0;
 405              		.loc 1 168 33 is_stmt 0 discriminator 3 view .LVU136
 406 002c FF25     		movs	r5, #255
 407 002e 1573     		strb	r5, [r2, #12]
 169:rtos/uC-USB-Device/Class/HID/usbd_hid_report.c ****         p_report_id->IdleRate   =  USBD_HID_IDLE_INFINITE;
 408              		.loc 1 169 9 is_stmt 1 discriminator 3 view .LVU137
 169:rtos/uC-USB-Device/Class/HID/usbd_hid_report.c ****         p_report_id->IdleRate   =  USBD_HID_IDLE_INFINITE;
 409              		.loc 1 169 33 is_stmt 0 discriminator 3 view .LVU138
 410 0030 5173     		strb	r1, [r2, #13]
 170:rtos/uC-USB-Device/Class/HID/usbd_hid_report.c ****         p_report_id->Update     =  DEF_NO;
 411              		.loc 1 170 9 is_stmt 1 discriminator 3 view .LVU139
 170:rtos/uC-USB-Device/Class/HID/usbd_hid_report.c ****         p_report_id->Update     =  DEF_NO;
 412              		.loc 1 170 33 is_stmt 0 discriminator 3 view .LVU140
 413 0032 9173     		strb	r1, [r2, #14]
 171:rtos/uC-USB-Device/Class/HID/usbd_hid_report.c ****         p_report_id->TmrNextPtr = (USBD_HID_REPORT_ID *)0;
 414              		.loc 1 171 9 is_stmt 1 discriminator 3 view .LVU141
 171:rtos/uC-USB-Device/Class/HID/usbd_hid_report.c ****         p_report_id->TmrNextPtr = (USBD_HID_REPORT_ID *)0;
 415              		.loc 1 171 33 is_stmt 0 discriminator 3 view .LVU142
 416 0034 D173     		strb	r1, [r2, #15]
 172:rtos/uC-USB-Device/Class/HID/usbd_hid_report.c ****     }
 417              		.loc 1 172 9 is_stmt 1 discriminator 3 view .LVU143
 172:rtos/uC-USB-Device/Class/HID/usbd_hid_report.c ****     }
 418              		.loc 1 172 33 is_stmt 0 discriminator 3 view .LVU144
 419 0036 03EB8302 		add	r2, r3, r3, lsl #2
 420 003a 04EB8204 		add	r4, r4, r2, lsl #2
 421 003e 2161     		str	r1, [r4, #16]
 160:rtos/uC-USB-Device/Class/HID/usbd_hid_report.c ****         p_report_id = &USBD_HID_ReportID_Tbl[ix];
 422              		.loc 1 160 55 is_stmt 1 discriminator 3 view .LVU145
 160:rtos/uC-USB-Device/Class/HID/usbd_hid_report.c ****         p_report_id = &USBD_HID_ReportID_Tbl[ix];
 423              		.loc 1 160 57 is_stmt 0 discriminator 3 view .LVU146
 424 0040 0133     		adds	r3, r3, #1
 425              	.LVL33:
 160:rtos/uC-USB-Device/Class/HID/usbd_hid_report.c ****         p_report_id = &USBD_HID_ReportID_Tbl[ix];
 426              		.loc 1 160 57 discriminator 3 view .LVU147
 427 0042 9BB2     		uxth	r3, r3
 428              	.LVL34:
 160:rtos/uC-USB-Device/Class/HID/usbd_hid_report.c ****         p_report_id = &USBD_HID_ReportID_Tbl[ix];
 429              		.loc 1 160 57 discriminator 3 view .LVU148
 430 0044 DEE7     		b	.L27
 431              	.L31:
 432 0046 00BF     		.align	2
 433              	.L30:
 434 0048 00000000 		.word	.LANCHOR0
 435 004c 00000000 		.word	.LANCHOR2
 436 0050 00000000 		.word	.LANCHOR1
ARM GAS  /tmp/cciyuUhu.s 			page 28


 437              		.cfi_endproc
 438              	.LFE0:
 440              		.section	.text.USBD_HID_Report_Parse,"ax",%progbits
 441              		.align	1
 442              		.global	USBD_HID_Report_Parse
 443              		.syntax unified
 444              		.thumb
 445              		.thumb_func
 446              		.fpu fpv4-sp-d16
 448              	USBD_HID_Report_Parse:
 449              	.LVL35:
 450              	.LFB1:
 219:rtos/uC-USB-Device/Class/HID/usbd_hid_report.c ****     USBD_HID_REPORT_ID    *p_report_id;
 451              		.loc 1 219 1 is_stmt 1 view -0
 452              		.cfi_startproc
 453              		@ args = 4, pretend = 0, frame = 16
 454              		@ frame_needed = 0, uses_anonymous_args = 0
 219:rtos/uC-USB-Device/Class/HID/usbd_hid_report.c ****     USBD_HID_REPORT_ID    *p_report_id;
 455              		.loc 1 219 1 is_stmt 0 view .LVU150
 456 0000 2DE9F04F 		push	{r4, r5, r6, r7, r8, r9, r10, fp, lr}
 457              	.LCFI5:
 458              		.cfi_def_cfa_offset 36
 459              		.cfi_offset 4, -36
 460              		.cfi_offset 5, -32
 461              		.cfi_offset 6, -28
 462              		.cfi_offset 7, -24
 463              		.cfi_offset 8, -20
 464              		.cfi_offset 9, -16
 465              		.cfi_offset 10, -12
 466              		.cfi_offset 11, -8
 467              		.cfi_offset 14, -4
 468 0004 85B0     		sub	sp, sp, #20
 469              	.LCFI6:
 470              		.cfi_def_cfa_offset 56
 471 0006 8146     		mov	r9, r0
 472 0008 8B46     		mov	fp, r1
 473 000a 9246     		mov	r10, r2
 474 000c 9846     		mov	r8, r3
 220:rtos/uC-USB-Device/Class/HID/usbd_hid_report.c ****     USBD_HID_REPORT_ITEM  *p_item;
 475              		.loc 1 220 5 is_stmt 1 view .LVU151
 221:rtos/uC-USB-Device/Class/HID/usbd_hid_report.c ****     USBD_HID_REPORT_ITEM   item_tbl[USBD_HID_CFG_MAX_NBR_REPORT_PUSHPOP + 1];
 476              		.loc 1 221 5 view .LVU152
 222:rtos/uC-USB-Device/Class/HID/usbd_hid_report.c ****     CPU_INT08U             item_tbl_size;
 477              		.loc 1 222 5 view .LVU153
 223:rtos/uC-USB-Device/Class/HID/usbd_hid_report.c ****     CPU_INT08U             col_nesting;
 478              		.loc 1 223 5 view .LVU154
 224:rtos/uC-USB-Device/Class/HID/usbd_hid_report.c ****     CPU_INT32U             data;
 479              		.loc 1 224 5 view .LVU155
 225:rtos/uC-USB-Device/Class/HID/usbd_hid_report.c ****     CPU_INT08U             tag;
 480              		.loc 1 225 5 view .LVU156
 226:rtos/uC-USB-Device/Class/HID/usbd_hid_report.c ****     CPU_INT08U             report_type;
 481              		.loc 1 226 5 view .LVU157
 227:rtos/uC-USB-Device/Class/HID/usbd_hid_report.c ****     LIB_ERR                err_lib;
 482              		.loc 1 227 5 view .LVU158
 228:rtos/uC-USB-Device/Class/HID/usbd_hid_report.c **** 
 483              		.loc 1 228 5 view .LVU159
 231:rtos/uC-USB-Device/Class/HID/usbd_hid_report.c ****     item_tbl_size =  0;
ARM GAS  /tmp/cciyuUhu.s 			page 29


 484              		.loc 1 231 5 view .LVU160
 485              	.LVL36:
 232:rtos/uC-USB-Device/Class/HID/usbd_hid_report.c ****     col_nesting   =  0;
 486              		.loc 1 232 5 view .LVU161
 233:rtos/uC-USB-Device/Class/HID/usbd_hid_report.c **** 
 487              		.loc 1 233 5 view .LVU162
 235:rtos/uC-USB-Device/Class/HID/usbd_hid_report.c ****     p_item->ReportID =  0;
 488              		.loc 1 235 5 view .LVU163
 236:rtos/uC-USB-Device/Class/HID/usbd_hid_report.c ****     p_item->Size     =  0;
 489              		.loc 1 236 5 view .LVU164
 236:rtos/uC-USB-Device/Class/HID/usbd_hid_report.c ****     p_item->Size     =  0;
 490              		.loc 1 236 22 is_stmt 0 view .LVU165
 491 000e 0027     		movs	r7, #0
 492 0010 8DF80870 		strb	r7, [sp, #8]
 237:rtos/uC-USB-Device/Class/HID/usbd_hid_report.c ****     p_item->Cnt      =  0;
 493              		.loc 1 237 5 is_stmt 1 view .LVU166
 237:rtos/uC-USB-Device/Class/HID/usbd_hid_report.c ****     p_item->Cnt      =  0;
 494              		.loc 1 237 22 is_stmt 0 view .LVU167
 495 0014 ADF80A70 		strh	r7, [sp, #10]	@ movhi
 238:rtos/uC-USB-Device/Class/HID/usbd_hid_report.c **** 
 496              		.loc 1 238 5 is_stmt 1 view .LVU168
 238:rtos/uC-USB-Device/Class/HID/usbd_hid_report.c **** 
 497              		.loc 1 238 22 is_stmt 0 view .LVU169
 498 0018 ADF80C70 		strh	r7, [sp, #12]	@ movhi
 240:rtos/uC-USB-Device/Class/HID/usbd_hid_report.c **** 
 499              		.loc 1 240 5 is_stmt 1 view .LVU170
 500 001c 1846     		mov	r0, r3
 501              	.LVL37:
 240:rtos/uC-USB-Device/Class/HID/usbd_hid_report.c **** 
 502              		.loc 1 240 5 is_stmt 0 view .LVU171
 503 001e FFF7FEFF 		bl	USBD_HID_ReportClr
 504              	.LVL38:
 242:rtos/uC-USB-Device/Class/HID/usbd_hid_report.c ****         data = 0;
 505              		.loc 1 242 5 is_stmt 1 view .LVU172
 242:rtos/uC-USB-Device/Class/HID/usbd_hid_report.c ****         data = 0;
 506              		.loc 1 242 11 is_stmt 0 view .LVU173
 507 0022 A0E0     		b	.L33
 508              	.LVL39:
 509              	.L35:
 252:rtos/uC-USB-Device/Class/HID/usbd_hid_report.c ****                     *p_err = USBD_ERR_HID_REPORT_INVALID;
 510              		.loc 1 252 18 is_stmt 1 view .LVU174
 252:rtos/uC-USB-Device/Class/HID/usbd_hid_report.c ****                     *p_err = USBD_ERR_HID_REPORT_INVALID;
 511              		.loc 1 252 21 is_stmt 0 view .LVU175
 512 0024 032D     		cmp	r5, #3
 513 0026 13D9     		bls	.L75
 257:rtos/uC-USB-Device/Class/HID/usbd_hid_report.c **** 
 514              		.loc 1 257 18 is_stmt 1 view .LVU176
 257:rtos/uC-USB-Device/Class/HID/usbd_hid_report.c **** 
 515              		.loc 1 257 25 is_stmt 0 view .LVU177
 516 0028 9BF80130 		ldrb	r3, [fp, #1]	@ zero_extendqisi2
 517 002c 9BF80220 		ldrb	r2, [fp, #2]	@ zero_extendqisi2
 518 0030 03EB0223 		add	r3, r3, r2, lsl #8
 519 0034 9BF80320 		ldrb	r2, [fp, #3]	@ zero_extendqisi2
 520 0038 03EB0243 		add	r3, r3, r2, lsl #16
 521 003c 9BF80420 		ldrb	r2, [fp, #4]	@ zero_extendqisi2
 257:rtos/uC-USB-Device/Class/HID/usbd_hid_report.c **** 
 522              		.loc 1 257 23 view .LVU178
ARM GAS  /tmp/cciyuUhu.s 			page 30


 523 0040 03EB0263 		add	r3, r3, r2, lsl #24
 524              	.LVL40:
 259:rtos/uC-USB-Device/Class/HID/usbd_hid_report.c ****                    report_data_len -= 4;
 525              		.loc 1 259 18 is_stmt 1 view .LVU179
 259:rtos/uC-USB-Device/Class/HID/usbd_hid_report.c ****                    report_data_len -= 4;
 526              		.loc 1 259 36 is_stmt 0 view .LVU180
 527 0044 0BF10506 		add	r6, fp, #5
 528              	.LVL41:
 260:rtos/uC-USB-Device/Class/HID/usbd_hid_report.c ****                  break;
 529              		.loc 1 260 20 is_stmt 1 view .LVU181
 260:rtos/uC-USB-Device/Class/HID/usbd_hid_report.c ****                  break;
 530              		.loc 1 260 36 is_stmt 0 view .LVU182
 531 0048 AAF10505 		sub	r5, r10, #5
 532              	.LVL42:
 260:rtos/uC-USB-Device/Class/HID/usbd_hid_report.c ****                  break;
 533              		.loc 1 260 36 view .LVU183
 534 004c ADB2     		uxth	r5, r5
 535              	.LVL43:
 261:rtos/uC-USB-Device/Class/HID/usbd_hid_report.c **** 
 536              		.loc 1 261 18 is_stmt 1 view .LVU184
 537 004e A0E0     		b	.L37
 538              	.LVL44:
 539              	.L75:
 253:rtos/uC-USB-Device/Class/HID/usbd_hid_report.c ****                      return;
 540              		.loc 1 253 21 view .LVU185
 253:rtos/uC-USB-Device/Class/HID/usbd_hid_report.c ****                      return;
 541              		.loc 1 253 28 is_stmt 0 view .LVU186
 542 0050 40F21753 		movw	r3, #1303
 543 0054 0E9A     		ldr	r2, [sp, #56]
 544 0056 1380     		strh	r3, [r2]	@ movhi
 254:rtos/uC-USB-Device/Class/HID/usbd_hid_report.c ****                  }
 545              		.loc 1 254 22 is_stmt 1 view .LVU187
 546 0058 37E2     		b	.L32
 547              	.L34:
 264:rtos/uC-USB-Device/Class/HID/usbd_hid_report.c ****                     *p_err = USBD_ERR_HID_REPORT_INVALID;
 548              		.loc 1 264 18 view .LVU188
 264:rtos/uC-USB-Device/Class/HID/usbd_hid_report.c ****                     *p_err = USBD_ERR_HID_REPORT_INVALID;
 549              		.loc 1 264 21 is_stmt 0 view .LVU189
 550 005a 012D     		cmp	r5, #1
 551 005c 0CD9     		bls	.L76
 269:rtos/uC-USB-Device/Class/HID/usbd_hid_report.c **** 
 552              		.loc 1 269 18 is_stmt 1 view .LVU190
 269:rtos/uC-USB-Device/Class/HID/usbd_hid_report.c **** 
 553              		.loc 1 269 25 is_stmt 0 view .LVU191
 554 005e 9BF80130 		ldrb	r3, [fp, #1]	@ zero_extendqisi2
 555 0062 9BF80220 		ldrb	r2, [fp, #2]	@ zero_extendqisi2
 556 0066 03EB0223 		add	r3, r3, r2, lsl #8
 557 006a 9BB2     		uxth	r3, r3
 558              	.LVL45:
 271:rtos/uC-USB-Device/Class/HID/usbd_hid_report.c ****                    report_data_len -= 2;
 559              		.loc 1 271 18 is_stmt 1 view .LVU192
 271:rtos/uC-USB-Device/Class/HID/usbd_hid_report.c ****                    report_data_len -= 2;
 560              		.loc 1 271 36 is_stmt 0 view .LVU193
 561 006c 0BF10306 		add	r6, fp, #3
 562              	.LVL46:
 272:rtos/uC-USB-Device/Class/HID/usbd_hid_report.c ****                  break;
 563              		.loc 1 272 20 is_stmt 1 view .LVU194
ARM GAS  /tmp/cciyuUhu.s 			page 31


 272:rtos/uC-USB-Device/Class/HID/usbd_hid_report.c ****                  break;
 564              		.loc 1 272 36 is_stmt 0 view .LVU195
 565 0070 AAF10305 		sub	r5, r10, #3
 566              	.LVL47:
 272:rtos/uC-USB-Device/Class/HID/usbd_hid_report.c ****                  break;
 567              		.loc 1 272 36 view .LVU196
 568 0074 ADB2     		uxth	r5, r5
 569              	.LVL48:
 273:rtos/uC-USB-Device/Class/HID/usbd_hid_report.c **** 
 570              		.loc 1 273 18 is_stmt 1 view .LVU197
 571 0076 8CE0     		b	.L37
 572              	.LVL49:
 573              	.L76:
 265:rtos/uC-USB-Device/Class/HID/usbd_hid_report.c ****                      return;
 574              		.loc 1 265 21 view .LVU198
 265:rtos/uC-USB-Device/Class/HID/usbd_hid_report.c ****                      return;
 575              		.loc 1 265 28 is_stmt 0 view .LVU199
 576 0078 40F21753 		movw	r3, #1303
 577 007c 0E9A     		ldr	r2, [sp, #56]
 578 007e 1380     		strh	r3, [r2]	@ movhi
 266:rtos/uC-USB-Device/Class/HID/usbd_hid_report.c ****                  }
 579              		.loc 1 266 22 is_stmt 1 view .LVU200
 580 0080 23E2     		b	.L32
 581              	.L36:
 276:rtos/uC-USB-Device/Class/HID/usbd_hid_report.c ****                     *p_err = USBD_ERR_HID_REPORT_INVALID;
 582              		.loc 1 276 18 view .LVU201
 276:rtos/uC-USB-Device/Class/HID/usbd_hid_report.c ****                     *p_err = USBD_ERR_HID_REPORT_INVALID;
 583              		.loc 1 276 21 is_stmt 0 view .LVU202
 584 0082 3DB1     		cbz	r5, .L77
 281:rtos/uC-USB-Device/Class/HID/usbd_hid_report.c **** 
 585              		.loc 1 281 18 is_stmt 1 view .LVU203
 281:rtos/uC-USB-Device/Class/HID/usbd_hid_report.c **** 
 586              		.loc 1 281 25 is_stmt 0 view .LVU204
 587 0084 9BF80130 		ldrb	r3, [fp, #1]	@ zero_extendqisi2
 588              	.LVL50:
 283:rtos/uC-USB-Device/Class/HID/usbd_hid_report.c ****                    report_data_len--;
 589              		.loc 1 283 18 is_stmt 1 view .LVU205
 283:rtos/uC-USB-Device/Class/HID/usbd_hid_report.c ****                    report_data_len--;
 590              		.loc 1 283 31 is_stmt 0 view .LVU206
 591 0088 0BF10206 		add	r6, fp, #2
 592              	.LVL51:
 284:rtos/uC-USB-Device/Class/HID/usbd_hid_report.c ****                  break;
 593              		.loc 1 284 20 is_stmt 1 view .LVU207
 284:rtos/uC-USB-Device/Class/HID/usbd_hid_report.c ****                  break;
 594              		.loc 1 284 35 is_stmt 0 view .LVU208
 595 008c AAF10205 		sub	r5, r10, #2
 596              	.LVL52:
 284:rtos/uC-USB-Device/Class/HID/usbd_hid_report.c ****                  break;
 597              		.loc 1 284 35 view .LVU209
 598 0090 ADB2     		uxth	r5, r5
 599              	.LVL53:
 285:rtos/uC-USB-Device/Class/HID/usbd_hid_report.c **** 
 600              		.loc 1 285 18 is_stmt 1 view .LVU210
 601 0092 7EE0     		b	.L37
 602              	.LVL54:
 603              	.L77:
 277:rtos/uC-USB-Device/Class/HID/usbd_hid_report.c ****                      return;
ARM GAS  /tmp/cciyuUhu.s 			page 32


 604              		.loc 1 277 21 view .LVU211
 277:rtos/uC-USB-Device/Class/HID/usbd_hid_report.c ****                      return;
 605              		.loc 1 277 28 is_stmt 0 view .LVU212
 606 0094 40F21753 		movw	r3, #1303
 607 0098 0E9A     		ldr	r2, [sp, #56]
 608 009a 1380     		strh	r3, [r2]	@ movhi
 278:rtos/uC-USB-Device/Class/HID/usbd_hid_report.c ****                  }
 609              		.loc 1 278 22 is_stmt 1 view .LVU213
 610 009c 15E2     		b	.L32
 611              	.LVL55:
 612              	.L53:
 295:rtos/uC-USB-Device/Class/HID/usbd_hid_report.c ****                                                      USBD_HID_REPORT_TYPE_INPUT,
 613              		.loc 1 295 18 view .LVU214
 295:rtos/uC-USB-Device/Class/HID/usbd_hid_report.c ****                                                      USBD_HID_REPORT_TYPE_INPUT,
 614              		.loc 1 295 32 is_stmt 0 view .LVU215
 615 009e 9DF80820 		ldrb	r2, [sp, #8]	@ zero_extendqisi2
 616 00a2 0121     		movs	r1, #1
 617 00a4 4046     		mov	r0, r8
 618 00a6 FFF7FEFF 		bl	USBD_HID_ReportID_Get
 619              	.LVL56:
 298:rtos/uC-USB-Device/Class/HID/usbd_hid_report.c ****                     *p_err  = USBD_ERR_HID_REPORT_ALLOC;
 620              		.loc 1 298 18 is_stmt 1 view .LVU216
 298:rtos/uC-USB-Device/Class/HID/usbd_hid_report.c ****                     *p_err  = USBD_ERR_HID_REPORT_ALLOC;
 621              		.loc 1 298 21 is_stmt 0 view .LVU217
 622 00aa 98B1     		cbz	r0, .L78
 303:rtos/uC-USB-Device/Class/HID/usbd_hid_report.c ****                  p_report_id->ClassNbr  = class_nbr;
 623              		.loc 1 303 18 is_stmt 1 view .LVU218
 303:rtos/uC-USB-Device/Class/HID/usbd_hid_report.c ****                  p_report_id->ClassNbr  = class_nbr;
 624              		.loc 1 303 49 is_stmt 0 view .LVU219
 625 00ac BDF80C30 		ldrh	r3, [sp, #12]
 303:rtos/uC-USB-Device/Class/HID/usbd_hid_report.c ****                  p_report_id->ClassNbr  = class_nbr;
 626              		.loc 1 303 63 view .LVU220
 627 00b0 BDF80A10 		ldrh	r1, [sp, #10]
 303:rtos/uC-USB-Device/Class/HID/usbd_hid_report.c ****                  p_report_id->ClassNbr  = class_nbr;
 628              		.loc 1 303 55 view .LVU221
 629 00b4 13FB01F3 		smulbb	r3, r3, r1
 303:rtos/uC-USB-Device/Class/HID/usbd_hid_report.c ****                  p_report_id->ClassNbr  = class_nbr;
 630              		.loc 1 303 40 view .LVU222
 631 00b8 4188     		ldrh	r1, [r0, #2]
 632 00ba 11FA83F3 		uxtah	r3, r1, r3
 633 00be 9BB2     		uxth	r3, r3
 634 00c0 4380     		strh	r3, [r0, #2]	@ movhi
 304:rtos/uC-USB-Device/Class/HID/usbd_hid_report.c **** 
 635              		.loc 1 304 18 is_stmt 1 view .LVU223
 304:rtos/uC-USB-Device/Class/HID/usbd_hid_report.c **** 
 636              		.loc 1 304 41 is_stmt 0 view .LVU224
 637 00c2 80F80C90 		strb	r9, [r0, #12]
 306:rtos/uC-USB-Device/Class/HID/usbd_hid_report.c ****                      p_report->MaxInputReportSize = p_report_id->Size;
 638              		.loc 1 306 18 is_stmt 1 view .LVU225
 306:rtos/uC-USB-Device/Class/HID/usbd_hid_report.c ****                      p_report->MaxInputReportSize = p_report_id->Size;
 639              		.loc 1 306 30 is_stmt 0 view .LVU226
 640 00c6 B8F80220 		ldrh	r2, [r8, #2]
 306:rtos/uC-USB-Device/Class/HID/usbd_hid_report.c ****                      p_report->MaxInputReportSize = p_report_id->Size;
 641              		.loc 1 306 21 view .LVU227
 642 00ca 9342     		cmp	r3, r2
 643 00cc 49D9     		bls	.L47
 307:rtos/uC-USB-Device/Class/HID/usbd_hid_report.c ****                  }
ARM GAS  /tmp/cciyuUhu.s 			page 33


 644              		.loc 1 307 22 is_stmt 1 view .LVU228
 307:rtos/uC-USB-Device/Class/HID/usbd_hid_report.c ****                  }
 645              		.loc 1 307 51 is_stmt 0 view .LVU229
 646 00ce A8F80230 		strh	r3, [r8, #2]	@ movhi
 647 00d2 46E0     		b	.L47
 648              	.L78:
 299:rtos/uC-USB-Device/Class/HID/usbd_hid_report.c ****                      return;
 649              		.loc 1 299 21 is_stmt 1 view .LVU230
 299:rtos/uC-USB-Device/Class/HID/usbd_hid_report.c ****                      return;
 650              		.loc 1 299 29 is_stmt 0 view .LVU231
 651 00d4 4FF4A363 		mov	r3, #1304
 652 00d8 0E9A     		ldr	r2, [sp, #56]
 653 00da 1380     		strh	r3, [r2]	@ movhi
 300:rtos/uC-USB-Device/Class/HID/usbd_hid_report.c ****                  }
 654              		.loc 1 300 22 is_stmt 1 view .LVU232
 655 00dc F5E1     		b	.L32
 656              	.LVL57:
 657              	.L51:
 312:rtos/uC-USB-Device/Class/HID/usbd_hid_report.c ****                                                      USBD_HID_REPORT_TYPE_OUTPUT,
 658              		.loc 1 312 18 view .LVU233
 312:rtos/uC-USB-Device/Class/HID/usbd_hid_report.c ****                                                      USBD_HID_REPORT_TYPE_OUTPUT,
 659              		.loc 1 312 32 is_stmt 0 view .LVU234
 660 00de 9DF80820 		ldrb	r2, [sp, #8]	@ zero_extendqisi2
 661 00e2 0221     		movs	r1, #2
 662 00e4 4046     		mov	r0, r8
 663 00e6 FFF7FEFF 		bl	USBD_HID_ReportID_Get
 664              	.LVL58:
 315:rtos/uC-USB-Device/Class/HID/usbd_hid_report.c ****                     *p_err  = USBD_ERR_HID_REPORT_ALLOC;
 665              		.loc 1 315 18 is_stmt 1 view .LVU235
 315:rtos/uC-USB-Device/Class/HID/usbd_hid_report.c ****                     *p_err  = USBD_ERR_HID_REPORT_ALLOC;
 666              		.loc 1 315 21 is_stmt 0 view .LVU236
 667 00ea 98B1     		cbz	r0, .L79
 320:rtos/uC-USB-Device/Class/HID/usbd_hid_report.c ****                  p_report_id->ClassNbr  = class_nbr;
 668              		.loc 1 320 18 is_stmt 1 view .LVU237
 320:rtos/uC-USB-Device/Class/HID/usbd_hid_report.c ****                  p_report_id->ClassNbr  = class_nbr;
 669              		.loc 1 320 49 is_stmt 0 view .LVU238
 670 00ec BDF80C30 		ldrh	r3, [sp, #12]
 320:rtos/uC-USB-Device/Class/HID/usbd_hid_report.c ****                  p_report_id->ClassNbr  = class_nbr;
 671              		.loc 1 320 63 view .LVU239
 672 00f0 BDF80A10 		ldrh	r1, [sp, #10]
 320:rtos/uC-USB-Device/Class/HID/usbd_hid_report.c ****                  p_report_id->ClassNbr  = class_nbr;
 673              		.loc 1 320 55 view .LVU240
 674 00f4 13FB01F3 		smulbb	r3, r3, r1
 320:rtos/uC-USB-Device/Class/HID/usbd_hid_report.c ****                  p_report_id->ClassNbr  = class_nbr;
 675              		.loc 1 320 40 view .LVU241
 676 00f8 4188     		ldrh	r1, [r0, #2]
 677 00fa 11FA83F3 		uxtah	r3, r1, r3
 678 00fe 9BB2     		uxth	r3, r3
 679 0100 4380     		strh	r3, [r0, #2]	@ movhi
 321:rtos/uC-USB-Device/Class/HID/usbd_hid_report.c **** 
 680              		.loc 1 321 18 is_stmt 1 view .LVU242
 321:rtos/uC-USB-Device/Class/HID/usbd_hid_report.c **** 
 681              		.loc 1 321 41 is_stmt 0 view .LVU243
 682 0102 80F80C90 		strb	r9, [r0, #12]
 323:rtos/uC-USB-Device/Class/HID/usbd_hid_report.c ****                      p_report->MaxOutputReportSize = p_report_id->Size;
 683              		.loc 1 323 18 is_stmt 1 view .LVU244
 323:rtos/uC-USB-Device/Class/HID/usbd_hid_report.c ****                      p_report->MaxOutputReportSize = p_report_id->Size;
ARM GAS  /tmp/cciyuUhu.s 			page 34


 684              		.loc 1 323 30 is_stmt 0 view .LVU245
 685 0106 B8F80C20 		ldrh	r2, [r8, #12]
 323:rtos/uC-USB-Device/Class/HID/usbd_hid_report.c ****                      p_report->MaxOutputReportSize = p_report_id->Size;
 686              		.loc 1 323 21 view .LVU246
 687 010a 9342     		cmp	r3, r2
 688 010c 29D9     		bls	.L47
 324:rtos/uC-USB-Device/Class/HID/usbd_hid_report.c ****                  }
 689              		.loc 1 324 22 is_stmt 1 view .LVU247
 324:rtos/uC-USB-Device/Class/HID/usbd_hid_report.c ****                  }
 690              		.loc 1 324 52 is_stmt 0 view .LVU248
 691 010e A8F80C30 		strh	r3, [r8, #12]	@ movhi
 692 0112 26E0     		b	.L47
 693              	.L79:
 316:rtos/uC-USB-Device/Class/HID/usbd_hid_report.c ****                      return;
 694              		.loc 1 316 21 is_stmt 1 view .LVU249
 316:rtos/uC-USB-Device/Class/HID/usbd_hid_report.c ****                      return;
 695              		.loc 1 316 29 is_stmt 0 view .LVU250
 696 0114 4FF4A363 		mov	r3, #1304
 697 0118 0E9A     		ldr	r2, [sp, #56]
 698 011a 1380     		strh	r3, [r2]	@ movhi
 317:rtos/uC-USB-Device/Class/HID/usbd_hid_report.c ****                  }
 699              		.loc 1 317 22 is_stmt 1 view .LVU251
 700 011c D5E1     		b	.L32
 701              	.LVL59:
 702              	.L46:
 329:rtos/uC-USB-Device/Class/HID/usbd_hid_report.c ****                                                      USBD_HID_REPORT_TYPE_FEATURE,
 703              		.loc 1 329 18 view .LVU252
 329:rtos/uC-USB-Device/Class/HID/usbd_hid_report.c ****                                                      USBD_HID_REPORT_TYPE_FEATURE,
 704              		.loc 1 329 32 is_stmt 0 view .LVU253
 705 011e 9DF80820 		ldrb	r2, [sp, #8]	@ zero_extendqisi2
 706 0122 0321     		movs	r1, #3
 707 0124 4046     		mov	r0, r8
 708 0126 FFF7FEFF 		bl	USBD_HID_ReportID_Get
 709              	.LVL60:
 332:rtos/uC-USB-Device/Class/HID/usbd_hid_report.c ****                     *p_err  = USBD_ERR_HID_REPORT_ALLOC;
 710              		.loc 1 332 18 is_stmt 1 view .LVU254
 332:rtos/uC-USB-Device/Class/HID/usbd_hid_report.c ****                     *p_err  = USBD_ERR_HID_REPORT_ALLOC;
 711              		.loc 1 332 21 is_stmt 0 view .LVU255
 712 012a 98B1     		cbz	r0, .L80
 337:rtos/uC-USB-Device/Class/HID/usbd_hid_report.c ****                  p_report_id->ClassNbr  = class_nbr;
 713              		.loc 1 337 18 is_stmt 1 view .LVU256
 337:rtos/uC-USB-Device/Class/HID/usbd_hid_report.c ****                  p_report_id->ClassNbr  = class_nbr;
 714              		.loc 1 337 49 is_stmt 0 view .LVU257
 715 012c BDF80C30 		ldrh	r3, [sp, #12]
 337:rtos/uC-USB-Device/Class/HID/usbd_hid_report.c ****                  p_report_id->ClassNbr  = class_nbr;
 716              		.loc 1 337 63 view .LVU258
 717 0130 BDF80A10 		ldrh	r1, [sp, #10]
 337:rtos/uC-USB-Device/Class/HID/usbd_hid_report.c ****                  p_report_id->ClassNbr  = class_nbr;
 718              		.loc 1 337 55 view .LVU259
 719 0134 13FB01F3 		smulbb	r3, r3, r1
 337:rtos/uC-USB-Device/Class/HID/usbd_hid_report.c ****                  p_report_id->ClassNbr  = class_nbr;
 720              		.loc 1 337 40 view .LVU260
 721 0138 4188     		ldrh	r1, [r0, #2]
 722 013a 11FA83F3 		uxtah	r3, r1, r3
 723 013e 9BB2     		uxth	r3, r3
 724 0140 4380     		strh	r3, [r0, #2]	@ movhi
 338:rtos/uC-USB-Device/Class/HID/usbd_hid_report.c **** 
ARM GAS  /tmp/cciyuUhu.s 			page 35


 725              		.loc 1 338 18 is_stmt 1 view .LVU261
 338:rtos/uC-USB-Device/Class/HID/usbd_hid_report.c **** 
 726              		.loc 1 338 41 is_stmt 0 view .LVU262
 727 0142 80F80C90 		strb	r9, [r0, #12]
 340:rtos/uC-USB-Device/Class/HID/usbd_hid_report.c ****                      p_report->MaxFeatureReportSize = p_report_id->Size;
 728              		.loc 1 340 18 is_stmt 1 view .LVU263
 340:rtos/uC-USB-Device/Class/HID/usbd_hid_report.c ****                      p_report->MaxFeatureReportSize = p_report_id->Size;
 729              		.loc 1 340 30 is_stmt 0 view .LVU264
 730 0146 B8F80420 		ldrh	r2, [r8, #4]
 340:rtos/uC-USB-Device/Class/HID/usbd_hid_report.c ****                      p_report->MaxFeatureReportSize = p_report_id->Size;
 731              		.loc 1 340 21 view .LVU265
 732 014a 9342     		cmp	r3, r2
 733 014c 09D9     		bls	.L47
 341:rtos/uC-USB-Device/Class/HID/usbd_hid_report.c ****                  }
 734              		.loc 1 341 22 is_stmt 1 view .LVU266
 341:rtos/uC-USB-Device/Class/HID/usbd_hid_report.c ****                  }
 735              		.loc 1 341 53 is_stmt 0 view .LVU267
 736 014e A8F80430 		strh	r3, [r8, #4]	@ movhi
 737 0152 06E0     		b	.L47
 738              	.L80:
 333:rtos/uC-USB-Device/Class/HID/usbd_hid_report.c ****                      return;
 739              		.loc 1 333 21 is_stmt 1 view .LVU268
 333:rtos/uC-USB-Device/Class/HID/usbd_hid_report.c ****                      return;
 740              		.loc 1 333 29 is_stmt 0 view .LVU269
 741 0154 4FF4A363 		mov	r3, #1304
 742 0158 0E9A     		ldr	r2, [sp, #56]
 743 015a 1380     		strh	r3, [r2]	@ movhi
 334:rtos/uC-USB-Device/Class/HID/usbd_hid_report.c ****                  }
 744              		.loc 1 334 22 is_stmt 1 view .LVU270
 745 015c B5E1     		b	.L32
 746              	.LVL61:
 747              	.L49:
 347:rtos/uC-USB-Device/Class/HID/usbd_hid_report.c ****                  break;
 748              		.loc 1 347 18 view .LVU271
 347:rtos/uC-USB-Device/Class/HID/usbd_hid_report.c ****                  break;
 749              		.loc 1 347 29 is_stmt 0 view .LVU272
 750 015e 0137     		adds	r7, r7, #1
 751              	.LVL62:
 347:rtos/uC-USB-Device/Class/HID/usbd_hid_report.c ****                  break;
 752              		.loc 1 347 29 view .LVU273
 753 0160 FFB2     		uxtb	r7, r7
 754              	.LVL63:
 348:rtos/uC-USB-Device/Class/HID/usbd_hid_report.c **** 
 755              		.loc 1 348 18 is_stmt 1 view .LVU274
 756              	.L47:
 250:rtos/uC-USB-Device/Class/HID/usbd_hid_report.c ****             case 3:                                             /* Item size: 4 bytes.             
 757              		.loc 1 250 9 is_stmt 0 view .LVU275
 758 0162 AA46     		mov	r10, r5
 759 0164 B346     		mov	fp, r6
 760              	.LVL64:
 761              	.L33:
 242:rtos/uC-USB-Device/Class/HID/usbd_hid_report.c ****         data = 0;
 762              		.loc 1 242 11 is_stmt 1 view .LVU276
 763 0166 BAF1000F 		cmp	r10, #0
 764 016a 00F0BB81 		beq	.L81
 243:rtos/uC-USB-Device/Class/HID/usbd_hid_report.c **** 
 765              		.loc 1 243 9 view .LVU277
ARM GAS  /tmp/cciyuUhu.s 			page 36


 766              	.LVL65:
 245:rtos/uC-USB-Device/Class/HID/usbd_hid_report.c ****         p_report_data++;
 767              		.loc 1 245 9 view .LVU278
 245:rtos/uC-USB-Device/Class/HID/usbd_hid_report.c ****         p_report_data++;
 768              		.loc 1 245 13 is_stmt 0 view .LVU279
 769 016e 5E46     		mov	r6, fp
 770 0170 16F8014B 		ldrb	r4, [r6], #1	@ zero_extendqisi2
 771              	.LVL66:
 246:rtos/uC-USB-Device/Class/HID/usbd_hid_report.c ****           report_data_len--;
 772              		.loc 1 246 9 is_stmt 1 view .LVU280
 247:rtos/uC-USB-Device/Class/HID/usbd_hid_report.c **** 
 773              		.loc 1 247 11 view .LVU281
 247:rtos/uC-USB-Device/Class/HID/usbd_hid_report.c **** 
 774              		.loc 1 247 26 is_stmt 0 view .LVU282
 775 0174 0AF1FF35 		add	r5, r10, #-1
 776 0178 ADB2     		uxth	r5, r5
 777              	.LVL67:
 250:rtos/uC-USB-Device/Class/HID/usbd_hid_report.c ****             case 3:                                             /* Item size: 4 bytes.             
 778              		.loc 1 250 9 is_stmt 1 view .LVU283
 779 017a 04F00303 		and	r3, r4, #3
 780 017e 022B     		cmp	r3, #2
 781 0180 3FF46BAF 		beq	.L34
 782 0184 032B     		cmp	r3, #3
 783 0186 3FF44DAF 		beq	.L35
 784 018a 012B     		cmp	r3, #1
 785 018c 3FF479AF 		beq	.L36
 786 0190 0023     		movs	r3, #0
 787              	.LVL68:
 788              	.L37:
 292:rtos/uC-USB-Device/Class/HID/usbd_hid_report.c ****                        USBD_HID_REPORT_ITEM_TAG_MASK)) {
 789              		.loc 1 292 9 view .LVU284
 790 0192 04F0FC04 		and	r4, r4, #252
 791              	.LVL69:
 292:rtos/uC-USB-Device/Class/HID/usbd_hid_report.c ****                        USBD_HID_REPORT_ITEM_TAG_MASK)) {
 792              		.loc 1 292 9 is_stmt 0 view .LVU285
 793 0196 043C     		subs	r4, r4, #4
 794 0198 BC2C     		cmp	r4, #188
 795 019a 00F29E81 		bhi	.L42
 796 019e 01A2     		adr	r2, .L44
 797 01a0 52F824F0 		ldr	pc, [r2, r4, lsl #2]
 798              		.p2align 2
 799              	.L44:
 800 01a4 63010000 		.word	.L47+1
 801 01a8 DB040000 		.word	.L42+1
 802 01ac DB040000 		.word	.L42+1
 803 01b0 DB040000 		.word	.L42+1
 804 01b4 63010000 		.word	.L47+1
 805 01b8 DB040000 		.word	.L42+1
 806 01bc DB040000 		.word	.L42+1
 807 01c0 DB040000 		.word	.L42+1
 808 01c4 DB040000 		.word	.L42+1
 809 01c8 DB040000 		.word	.L42+1
 810 01cc DB040000 		.word	.L42+1
 811 01d0 DB040000 		.word	.L42+1
 812 01d4 DB040000 		.word	.L42+1
 813 01d8 DB040000 		.word	.L42+1
 814 01dc DB040000 		.word	.L42+1
ARM GAS  /tmp/cciyuUhu.s 			page 37


 815 01e0 DB040000 		.word	.L42+1
 816 01e4 63010000 		.word	.L47+1
 817 01e8 DB040000 		.word	.L42+1
 818 01ec DB040000 		.word	.L42+1
 819 01f0 DB040000 		.word	.L42+1
 820 01f4 63010000 		.word	.L47+1
 821 01f8 DB040000 		.word	.L42+1
 822 01fc DB040000 		.word	.L42+1
 823 0200 DB040000 		.word	.L42+1
 824 0204 DB040000 		.word	.L42+1
 825 0208 DB040000 		.word	.L42+1
 826 020c DB040000 		.word	.L42+1
 827 0210 DB040000 		.word	.L42+1
 828 0214 DB040000 		.word	.L42+1
 829 0218 DB040000 		.word	.L42+1
 830 021c DB040000 		.word	.L42+1
 831 0220 DB040000 		.word	.L42+1
 832 0224 63010000 		.word	.L47+1
 833 0228 DB040000 		.word	.L42+1
 834 022c DB040000 		.word	.L42+1
 835 0230 DB040000 		.word	.L42+1
 836 0234 63010000 		.word	.L47+1
 837 0238 DB040000 		.word	.L42+1
 838 023c DB040000 		.word	.L42+1
 839 0240 DB040000 		.word	.L42+1
 840 0244 DB040000 		.word	.L42+1
 841 0248 DB040000 		.word	.L42+1
 842 024c DB040000 		.word	.L42+1
 843 0250 DB040000 		.word	.L42+1
 844 0254 DB040000 		.word	.L42+1
 845 0258 DB040000 		.word	.L42+1
 846 025c DB040000 		.word	.L42+1
 847 0260 DB040000 		.word	.L42+1
 848 0264 63010000 		.word	.L47+1
 849 0268 DB040000 		.word	.L42+1
 850 026c DB040000 		.word	.L42+1
 851 0270 DB040000 		.word	.L42+1
 852 0274 63010000 		.word	.L47+1
 853 0278 DB040000 		.word	.L42+1
 854 027c DB040000 		.word	.L42+1
 855 0280 DB040000 		.word	.L42+1
 856 0284 DB040000 		.word	.L42+1
 857 0288 DB040000 		.word	.L42+1
 858 028c DB040000 		.word	.L42+1
 859 0290 DB040000 		.word	.L42+1
 860 0294 DB040000 		.word	.L42+1
 861 0298 DB040000 		.word	.L42+1
 862 029c DB040000 		.word	.L42+1
 863 02a0 DB040000 		.word	.L42+1
 864 02a4 63010000 		.word	.L47+1
 865 02a8 DB040000 		.word	.L42+1
 866 02ac DB040000 		.word	.L42+1
 867 02b0 DB040000 		.word	.L42+1
 868 02b4 63010000 		.word	.L47+1
 869 02b8 DB040000 		.word	.L42+1
 870 02bc DB040000 		.word	.L42+1
 871 02c0 DB040000 		.word	.L42+1
ARM GAS  /tmp/cciyuUhu.s 			page 38


 872 02c4 DB040000 		.word	.L42+1
 873 02c8 DB040000 		.word	.L42+1
 874 02cc DB040000 		.word	.L42+1
 875 02d0 DB040000 		.word	.L42+1
 876 02d4 DB040000 		.word	.L42+1
 877 02d8 DB040000 		.word	.L42+1
 878 02dc DB040000 		.word	.L42+1
 879 02e0 DB040000 		.word	.L42+1
 880 02e4 63010000 		.word	.L47+1
 881 02e8 DB040000 		.word	.L42+1
 882 02ec DB040000 		.word	.L42+1
 883 02f0 DB040000 		.word	.L42+1
 884 02f4 63010000 		.word	.L47+1
 885 02f8 DB040000 		.word	.L42+1
 886 02fc DB040000 		.word	.L42+1
 887 0300 DB040000 		.word	.L42+1
 888 0304 DB040000 		.word	.L42+1
 889 0308 DB040000 		.word	.L42+1
 890 030c DB040000 		.word	.L42+1
 891 0310 DB040000 		.word	.L42+1
 892 0314 DB040000 		.word	.L42+1
 893 0318 DB040000 		.word	.L42+1
 894 031c DB040000 		.word	.L42+1
 895 0320 DB040000 		.word	.L42+1
 896 0324 63010000 		.word	.L47+1
 897 0328 DB040000 		.word	.L42+1
 898 032c DB040000 		.word	.L42+1
 899 0330 DB040000 		.word	.L42+1
 900 0334 DB040000 		.word	.L42+1
 901 0338 DB040000 		.word	.L42+1
 902 033c DB040000 		.word	.L42+1
 903 0340 DB040000 		.word	.L42+1
 904 0344 DB040000 		.word	.L42+1
 905 0348 DB040000 		.word	.L42+1
 906 034c DB040000 		.word	.L42+1
 907 0350 DB040000 		.word	.L42+1
 908 0354 DB040000 		.word	.L42+1
 909 0358 DB040000 		.word	.L42+1
 910 035c DB040000 		.word	.L42+1
 911 0360 DB040000 		.word	.L42+1
 912 0364 AB040000 		.word	.L54+1
 913 0368 DB040000 		.word	.L42+1
 914 036c DB040000 		.word	.L42+1
 915 0370 DB040000 		.word	.L42+1
 916 0374 63010000 		.word	.L47+1
 917 0378 DB040000 		.word	.L42+1
 918 037c DB040000 		.word	.L42+1
 919 0380 DB040000 		.word	.L42+1
 920 0384 DB040000 		.word	.L42+1
 921 0388 DB040000 		.word	.L42+1
 922 038c DB040000 		.word	.L42+1
 923 0390 DB040000 		.word	.L42+1
 924 0394 9F000000 		.word	.L53+1
 925 0398 DB040000 		.word	.L42+1
 926 039c DB040000 		.word	.L42+1
 927 03a0 DB040000 		.word	.L42+1
 928 03a4 B7040000 		.word	.L52+1
ARM GAS  /tmp/cciyuUhu.s 			page 39


 929 03a8 DB040000 		.word	.L42+1
 930 03ac DB040000 		.word	.L42+1
 931 03b0 DB040000 		.word	.L42+1
 932 03b4 63010000 		.word	.L47+1
 933 03b8 DB040000 		.word	.L42+1
 934 03bc DB040000 		.word	.L42+1
 935 03c0 DB040000 		.word	.L42+1
 936 03c4 DB040000 		.word	.L42+1
 937 03c8 DB040000 		.word	.L42+1
 938 03cc DB040000 		.word	.L42+1
 939 03d0 DB040000 		.word	.L42+1
 940 03d4 DF000000 		.word	.L51+1
 941 03d8 DB040000 		.word	.L42+1
 942 03dc DB040000 		.word	.L42+1
 943 03e0 DB040000 		.word	.L42+1
 944 03e4 B1040000 		.word	.L50+1
 945 03e8 DB040000 		.word	.L42+1
 946 03ec DB040000 		.word	.L42+1
 947 03f0 DB040000 		.word	.L42+1
 948 03f4 63010000 		.word	.L47+1
 949 03f8 DB040000 		.word	.L42+1
 950 03fc DB040000 		.word	.L42+1
 951 0400 DB040000 		.word	.L42+1
 952 0404 DB040000 		.word	.L42+1
 953 0408 DB040000 		.word	.L42+1
 954 040c DB040000 		.word	.L42+1
 955 0410 DB040000 		.word	.L42+1
 956 0414 5F010000 		.word	.L49+1
 957 0418 DB040000 		.word	.L42+1
 958 041c DB040000 		.word	.L42+1
 959 0420 DB040000 		.word	.L42+1
 960 0424 C3040000 		.word	.L48+1
 961 0428 DB040000 		.word	.L42+1
 962 042c DB040000 		.word	.L42+1
 963 0430 DB040000 		.word	.L42+1
 964 0434 63010000 		.word	.L47+1
 965 0438 DB040000 		.word	.L42+1
 966 043c DB040000 		.word	.L42+1
 967 0440 DB040000 		.word	.L42+1
 968 0444 DB040000 		.word	.L42+1
 969 0448 DB040000 		.word	.L42+1
 970 044c DB040000 		.word	.L42+1
 971 0450 DB040000 		.word	.L42+1
 972 0454 1F010000 		.word	.L46+1
 973 0458 DB040000 		.word	.L42+1
 974 045c DB040000 		.word	.L42+1
 975 0460 DB040000 		.word	.L42+1
 976 0464 D1040000 		.word	.L45+1
 977 0468 DB040000 		.word	.L42+1
 978 046c DB040000 		.word	.L42+1
 979 0470 DB040000 		.word	.L42+1
 980 0474 DB040000 		.word	.L42+1
 981 0478 DB040000 		.word	.L42+1
 982 047c DB040000 		.word	.L42+1
 983 0480 DB040000 		.word	.L42+1
 984 0484 DB040000 		.word	.L42+1
 985 0488 DB040000 		.word	.L42+1
ARM GAS  /tmp/cciyuUhu.s 			page 40


 986 048c DB040000 		.word	.L42+1
 987 0490 DB040000 		.word	.L42+1
 988 0494 99040000 		.word	.L43+1
 989              		.p2align 1
 990              	.L43:
 351:rtos/uC-USB-Device/Class/HID/usbd_hid_report.c ****                     *p_err = USBD_ERR_HID_REPORT_INVALID;
 991              		.loc 1 351 18 is_stmt 1 view .LVU286
 351:rtos/uC-USB-Device/Class/HID/usbd_hid_report.c ****                     *p_err = USBD_ERR_HID_REPORT_INVALID;
 992              		.loc 1 351 21 is_stmt 0 view .LVU287
 993 0498 17B1     		cbz	r7, .L82
 356:rtos/uC-USB-Device/Class/HID/usbd_hid_report.c ****                  break;
 994              		.loc 1 356 18 is_stmt 1 view .LVU288
 356:rtos/uC-USB-Device/Class/HID/usbd_hid_report.c ****                  break;
 995              		.loc 1 356 29 is_stmt 0 view .LVU289
 996 049a 013F     		subs	r7, r7, #1
 997              	.LVL70:
 356:rtos/uC-USB-Device/Class/HID/usbd_hid_report.c ****                  break;
 998              		.loc 1 356 29 view .LVU290
 999 049c FFB2     		uxtb	r7, r7
 1000              	.LVL71:
 357:rtos/uC-USB-Device/Class/HID/usbd_hid_report.c **** 
 1001              		.loc 1 357 18 is_stmt 1 view .LVU291
 1002 049e 60E6     		b	.L47
 1003              	.L82:
 352:rtos/uC-USB-Device/Class/HID/usbd_hid_report.c ****                      return;
 1004              		.loc 1 352 21 view .LVU292
 352:rtos/uC-USB-Device/Class/HID/usbd_hid_report.c ****                      return;
 1005              		.loc 1 352 28 is_stmt 0 view .LVU293
 1006 04a0 40F21753 		movw	r3, #1303
 1007              	.LVL72:
 352:rtos/uC-USB-Device/Class/HID/usbd_hid_report.c ****                      return;
 1008              		.loc 1 352 28 view .LVU294
 1009 04a4 0E9A     		ldr	r2, [sp, #56]
 1010 04a6 1380     		strh	r3, [r2]	@ movhi
 1011              	.LVL73:
 353:rtos/uC-USB-Device/Class/HID/usbd_hid_report.c ****                  }
 1012              		.loc 1 353 22 is_stmt 1 view .LVU295
 1013 04a8 0FE0     		b	.L32
 1014              	.LVL74:
 1015              	.L54:
 361:rtos/uC-USB-Device/Class/HID/usbd_hid_report.c ****                  break;
 1016              		.loc 1 361 18 view .LVU296
 361:rtos/uC-USB-Device/Class/HID/usbd_hid_report.c ****                  break;
 1017              		.loc 1 361 31 is_stmt 0 view .LVU297
 1018 04aa ADF80A30 		strh	r3, [sp, #10]	@ movhi
 362:rtos/uC-USB-Device/Class/HID/usbd_hid_report.c **** 
 1019              		.loc 1 362 18 is_stmt 1 view .LVU298
 1020 04ae 58E6     		b	.L47
 1021              	.L50:
 365:rtos/uC-USB-Device/Class/HID/usbd_hid_report.c ****                  break;
 1022              		.loc 1 365 18 view .LVU299
 365:rtos/uC-USB-Device/Class/HID/usbd_hid_report.c ****                  break;
 1023              		.loc 1 365 30 is_stmt 0 view .LVU300
 1024 04b0 ADF80C30 		strh	r3, [sp, #12]	@ movhi
 366:rtos/uC-USB-Device/Class/HID/usbd_hid_report.c **** 
 1025              		.loc 1 366 18 is_stmt 1 view .LVU301
 1026 04b4 55E6     		b	.L47
ARM GAS  /tmp/cciyuUhu.s 			page 41


 1027              	.L52:
 369:rtos/uC-USB-Device/Class/HID/usbd_hid_report.c ****                  p_report->HasReports = DEF_YES;
 1028              		.loc 1 369 18 view .LVU302
 369:rtos/uC-USB-Device/Class/HID/usbd_hid_report.c ****                  p_report->HasReports = DEF_YES;
 1029              		.loc 1 369 39 is_stmt 0 view .LVU303
 1030 04b6 8DF80830 		strb	r3, [sp, #8]
 370:rtos/uC-USB-Device/Class/HID/usbd_hid_report.c ****                  break;
 1031              		.loc 1 370 18 is_stmt 1 view .LVU304
 370:rtos/uC-USB-Device/Class/HID/usbd_hid_report.c ****                  break;
 1032              		.loc 1 370 39 is_stmt 0 view .LVU305
 1033 04ba 0123     		movs	r3, #1
 1034              	.LVL75:
 370:rtos/uC-USB-Device/Class/HID/usbd_hid_report.c ****                  break;
 1035              		.loc 1 370 39 view .LVU306
 1036 04bc 88F80030 		strb	r3, [r8]
 1037              	.LVL76:
 371:rtos/uC-USB-Device/Class/HID/usbd_hid_report.c **** 
 1038              		.loc 1 371 18 is_stmt 1 view .LVU307
 1039 04c0 4FE6     		b	.L47
 1040              	.LVL77:
 1041              	.L48:
 390:rtos/uC-USB-Device/Class/HID/usbd_hid_report.c ****                  return;
 1042              		.loc 1 390 17 view .LVU308
 390:rtos/uC-USB-Device/Class/HID/usbd_hid_report.c ****                  return;
 1043              		.loc 1 390 24 is_stmt 0 view .LVU309
 1044 04c2 40F21953 		movw	r3, #1305
 1045              	.LVL78:
 390:rtos/uC-USB-Device/Class/HID/usbd_hid_report.c ****                  return;
 1046              		.loc 1 390 24 view .LVU310
 1047 04c6 0E9A     		ldr	r2, [sp, #56]
 1048 04c8 1380     		strh	r3, [r2]	@ movhi
 1049              	.LVL79:
 391:rtos/uC-USB-Device/Class/HID/usbd_hid_report.c **** #endif
 1050              		.loc 1 391 18 is_stmt 1 view .LVU311
 1051              	.L32:
 510:rtos/uC-USB-Device/Class/HID/usbd_hid_report.c **** 
 1052              		.loc 1 510 1 is_stmt 0 view .LVU312
 1053 04ca 05B0     		add	sp, sp, #20
 1054              	.LCFI7:
 1055              		.cfi_remember_state
 1056              		.cfi_def_cfa_offset 36
 1057              		@ sp needed
 1058 04cc BDE8F08F 		pop	{r4, r5, r6, r7, r8, r9, r10, fp, pc}
 1059              	.LVL80:
 1060              	.L45:
 1061              	.LCFI8:
 1062              		.cfi_restore_state
 395:rtos/uC-USB-Device/Class/HID/usbd_hid_report.c ****                     *p_err = USBD_ERR_HID_REPORT_INVALID;
 1063              		.loc 1 395 18 is_stmt 1 view .LVU313
 396:rtos/uC-USB-Device/Class/HID/usbd_hid_report.c ****                      return;
 1064              		.loc 1 396 21 view .LVU314
 396:rtos/uC-USB-Device/Class/HID/usbd_hid_report.c ****                      return;
 1065              		.loc 1 396 28 is_stmt 0 view .LVU315
 1066 04d0 40F21753 		movw	r3, #1303
 1067              	.LVL81:
 396:rtos/uC-USB-Device/Class/HID/usbd_hid_report.c ****                      return;
 1068              		.loc 1 396 28 view .LVU316
ARM GAS  /tmp/cciyuUhu.s 			page 42


 1069 04d4 0E9A     		ldr	r2, [sp, #56]
 1070 04d6 1380     		strh	r3, [r2]	@ movhi
 1071              	.LVL82:
 397:rtos/uC-USB-Device/Class/HID/usbd_hid_report.c ****                  }
 1072              		.loc 1 397 22 is_stmt 1 view .LVU317
 1073 04d8 F7E7     		b	.L32
 1074              	.LVL83:
 1075              	.L42:
 425:rtos/uC-USB-Device/Class/HID/usbd_hid_report.c ****                  return;
 1076              		.loc 1 425 17 view .LVU318
 425:rtos/uC-USB-Device/Class/HID/usbd_hid_report.c ****                  return;
 1077              		.loc 1 425 24 is_stmt 0 view .LVU319
 1078 04da 40F21753 		movw	r3, #1303
 1079              	.LVL84:
 425:rtos/uC-USB-Device/Class/HID/usbd_hid_report.c ****                  return;
 1080              		.loc 1 425 24 view .LVU320
 1081 04de 0E9A     		ldr	r2, [sp, #56]
 1082 04e0 1380     		strh	r3, [r2]	@ movhi
 1083              	.LVL85:
 426:rtos/uC-USB-Device/Class/HID/usbd_hid_report.c ****         }
 1084              		.loc 1 426 18 is_stmt 1 view .LVU321
 1085 04e2 F2E7     		b	.L32
 1086              	.LVL86:
 1087              	.L81:
 430:rtos/uC-USB-Device/Class/HID/usbd_hid_report.c ****        *p_err = USBD_ERR_HID_REPORT_INVALID;
 1088              		.loc 1 430 5 view .LVU322
 430:rtos/uC-USB-Device/Class/HID/usbd_hid_report.c ****        *p_err = USBD_ERR_HID_REPORT_INVALID;
 1089              		.loc 1 430 8 is_stmt 0 view .LVU323
 1090 04e4 8FBB     		cbnz	r7, .L83
 436:rtos/uC-USB-Device/Class/HID/usbd_hid_report.c ****     p_report->MaxInputReportSize /= 8;
 1091              		.loc 1 436 5 is_stmt 1 view .LVU324
 436:rtos/uC-USB-Device/Class/HID/usbd_hid_report.c ****     p_report->MaxInputReportSize /= 8;
 1092              		.loc 1 436 34 is_stmt 0 view .LVU325
 1093 04e6 B8F80210 		ldrh	r1, [r8, #2]
 1094 04ea 0731     		adds	r1, r1, #7
 437:rtos/uC-USB-Device/Class/HID/usbd_hid_report.c **** 
 1095              		.loc 1 437 5 is_stmt 1 view .LVU326
 437:rtos/uC-USB-Device/Class/HID/usbd_hid_report.c **** 
 1096              		.loc 1 437 34 is_stmt 0 view .LVU327
 1097 04ec C1F3CC01 		ubfx	r1, r1, #3, #13
 1098 04f0 A8F80210 		strh	r1, [r8, #2]	@ movhi
 439:rtos/uC-USB-Device/Class/HID/usbd_hid_report.c ****     p_report->MaxOutputReportSize /= 8;
 1099              		.loc 1 439 5 is_stmt 1 view .LVU328
 439:rtos/uC-USB-Device/Class/HID/usbd_hid_report.c ****     p_report->MaxOutputReportSize /= 8;
 1100              		.loc 1 439 35 is_stmt 0 view .LVU329
 1101 04f4 B8F80C20 		ldrh	r2, [r8, #12]
 1102 04f8 0732     		adds	r2, r2, #7
 440:rtos/uC-USB-Device/Class/HID/usbd_hid_report.c **** 
 1103              		.loc 1 440 5 is_stmt 1 view .LVU330
 440:rtos/uC-USB-Device/Class/HID/usbd_hid_report.c **** 
 1104              		.loc 1 440 35 is_stmt 0 view .LVU331
 1105 04fa C2F3CC02 		ubfx	r2, r2, #3, #13
 1106 04fe A8F80C20 		strh	r2, [r8, #12]	@ movhi
 442:rtos/uC-USB-Device/Class/HID/usbd_hid_report.c ****     p_report->MaxFeatureReportSize /= 8;
 1107              		.loc 1 442 5 is_stmt 1 view .LVU332
 442:rtos/uC-USB-Device/Class/HID/usbd_hid_report.c ****     p_report->MaxFeatureReportSize /= 8;
 1108              		.loc 1 442 36 is_stmt 0 view .LVU333
ARM GAS  /tmp/cciyuUhu.s 			page 43


 1109 0502 B8F80430 		ldrh	r3, [r8, #4]
 1110 0506 0733     		adds	r3, r3, #7
 443:rtos/uC-USB-Device/Class/HID/usbd_hid_report.c **** 
 1111              		.loc 1 443 5 is_stmt 1 view .LVU334
 443:rtos/uC-USB-Device/Class/HID/usbd_hid_report.c **** 
 1112              		.loc 1 443 36 is_stmt 0 view .LVU335
 1113 0508 C3F3CC03 		ubfx	r3, r3, #3, #13
 1114 050c A8F80430 		strh	r3, [r8, #4]	@ movhi
 445:rtos/uC-USB-Device/Class/HID/usbd_hid_report.c ****         if (p_report->MaxInputReportSize > 0) {
 1115              		.loc 1 445 5 is_stmt 1 view .LVU336
 445:rtos/uC-USB-Device/Class/HID/usbd_hid_report.c ****         if (p_report->MaxInputReportSize > 0) {
 1116              		.loc 1 445 17 is_stmt 0 view .LVU337
 1117 0510 98F80000 		ldrb	r0, [r8]	@ zero_extendqisi2
 445:rtos/uC-USB-Device/Class/HID/usbd_hid_report.c ****         if (p_report->MaxInputReportSize > 0) {
 1118              		.loc 1 445 8 view .LVU338
 1119 0514 0128     		cmp	r0, #1
 1120 0516 1DD0     		beq	.L84
 1121              	.L61:
 457:rtos/uC-USB-Device/Class/HID/usbd_hid_report.c ****         p_report->MaxOutputReportPtr = (CPU_INT08U *)Mem_HeapAlloc(              p_report->MaxOutpu
 1122              		.loc 1 457 5 is_stmt 1 view .LVU339
 457:rtos/uC-USB-Device/Class/HID/usbd_hid_report.c ****         p_report->MaxOutputReportPtr = (CPU_INT08U *)Mem_HeapAlloc(              p_report->MaxOutpu
 1123              		.loc 1 457 17 is_stmt 0 view .LVU340
 1124 0518 B8F80C00 		ldrh	r0, [r8, #12]
 457:rtos/uC-USB-Device/Class/HID/usbd_hid_report.c ****         p_report->MaxOutputReportPtr = (CPU_INT08U *)Mem_HeapAlloc(              p_report->MaxOutpu
 1125              		.loc 1 457 8 view .LVU341
 1126 051c 40BB     		cbnz	r0, .L85
 1127              	.L64:
 468:rtos/uC-USB-Device/Class/HID/usbd_hid_report.c ****         p_report->MaxFeatureReportPtr = (CPU_INT08U *)Mem_HeapAlloc(              p_report->MaxFeat
 1128              		.loc 1 468 5 is_stmt 1 view .LVU342
 468:rtos/uC-USB-Device/Class/HID/usbd_hid_report.c ****         p_report->MaxFeatureReportPtr = (CPU_INT08U *)Mem_HeapAlloc(              p_report->MaxFeat
 1129              		.loc 1 468 17 is_stmt 0 view .LVU343
 1130 051e B8F80400 		ldrh	r0, [r8, #4]
 468:rtos/uC-USB-Device/Class/HID/usbd_hid_report.c ****         p_report->MaxFeatureReportPtr = (CPU_INT08U *)Mem_HeapAlloc(              p_report->MaxFeat
 1131              		.loc 1 468 8 view .LVU344
 1132 0522 0028     		cmp	r0, #0
 1133 0524 62D0     		beq	.L71
 469:rtos/uC-USB-Device/Class/HID/usbd_hid_report.c ****                                                                                   USBD_CFG_BUF_ALIG
 1134              		.loc 1 469 9 is_stmt 1 view .LVU345
 469:rtos/uC-USB-Device/Class/HID/usbd_hid_report.c ****                                                                                   USBD_CFG_BUF_ALIG
 1135              		.loc 1 469 55 is_stmt 0 view .LVU346
 1136 0526 0DF10603 		add	r3, sp, #6
 1137 052a 0022     		movs	r2, #0
 1138 052c 0421     		movs	r1, #4
 1139 052e FFF7FEFF 		bl	Mem_HeapAlloc
 1140              	.LVL87:
 469:rtos/uC-USB-Device/Class/HID/usbd_hid_report.c ****                                                                                   USBD_CFG_BUF_ALIG
 1141              		.loc 1 469 39 view .LVU347
 1142 0532 C8F80800 		str	r0, [r8, #8]
 473:rtos/uC-USB-Device/Class/HID/usbd_hid_report.c ****            *p_err = USBD_ERR_ALLOC;
 1143              		.loc 1 473 9 is_stmt 1 view .LVU348
 473:rtos/uC-USB-Device/Class/HID/usbd_hid_report.c ****            *p_err = USBD_ERR_ALLOC;
 1144              		.loc 1 473 21 is_stmt 0 view .LVU349
 1145 0536 BDF80620 		ldrh	r2, [sp, #6]
 473:rtos/uC-USB-Device/Class/HID/usbd_hid_report.c ****            *p_err = USBD_ERR_ALLOC;
 1146              		.loc 1 473 12 view .LVU350
 1147 053a 42F21073 		movw	r3, #10000
 1148 053e 9A42     		cmp	r2, r3
ARM GAS  /tmp/cciyuUhu.s 			page 44


 1149 0540 54D0     		beq	.L71
 474:rtos/uC-USB-Device/Class/HID/usbd_hid_report.c ****             return;
 1150              		.loc 1 474 12 is_stmt 1 view .LVU351
 474:rtos/uC-USB-Device/Class/HID/usbd_hid_report.c ****             return;
 1151              		.loc 1 474 19 is_stmt 0 view .LVU352
 1152 0542 0423     		movs	r3, #4
 1153 0544 0E9A     		ldr	r2, [sp, #56]
 1154 0546 1380     		strh	r3, [r2]	@ movhi
 475:rtos/uC-USB-Device/Class/HID/usbd_hid_report.c ****         }
 1155              		.loc 1 475 13 is_stmt 1 view .LVU353
 1156 0548 BFE7     		b	.L32
 1157              	.L83:
 431:rtos/uC-USB-Device/Class/HID/usbd_hid_report.c ****         return;
 1158              		.loc 1 431 8 view .LVU354
 431:rtos/uC-USB-Device/Class/HID/usbd_hid_report.c ****         return;
 1159              		.loc 1 431 15 is_stmt 0 view .LVU355
 1160 054a 40F21753 		movw	r3, #1303
 1161 054e 0E9A     		ldr	r2, [sp, #56]
 1162 0550 1380     		strh	r3, [r2]	@ movhi
 432:rtos/uC-USB-Device/Class/HID/usbd_hid_report.c ****     }
 1163              		.loc 1 432 9 is_stmt 1 view .LVU356
 1164 0552 BAE7     		b	.L32
 1165              	.L84:
 446:rtos/uC-USB-Device/Class/HID/usbd_hid_report.c ****             p_report->MaxInputReportSize++;
 1166              		.loc 1 446 9 view .LVU357
 446:rtos/uC-USB-Device/Class/HID/usbd_hid_report.c ****             p_report->MaxInputReportSize++;
 1167              		.loc 1 446 12 is_stmt 0 view .LVU358
 1168 0554 11B1     		cbz	r1, .L62
 447:rtos/uC-USB-Device/Class/HID/usbd_hid_report.c ****         }
 1169              		.loc 1 447 13 is_stmt 1 view .LVU359
 447:rtos/uC-USB-Device/Class/HID/usbd_hid_report.c ****         }
 1170              		.loc 1 447 41 is_stmt 0 view .LVU360
 1171 0556 0131     		adds	r1, r1, #1
 1172 0558 A8F80210 		strh	r1, [r8, #2]	@ movhi
 1173              	.L62:
 449:rtos/uC-USB-Device/Class/HID/usbd_hid_report.c ****             p_report->MaxOutputReportSize++;
 1174              		.loc 1 449 9 is_stmt 1 view .LVU361
 449:rtos/uC-USB-Device/Class/HID/usbd_hid_report.c ****             p_report->MaxOutputReportSize++;
 1175              		.loc 1 449 12 is_stmt 0 view .LVU362
 1176 055c 12B1     		cbz	r2, .L63
 450:rtos/uC-USB-Device/Class/HID/usbd_hid_report.c ****         }
 1177              		.loc 1 450 13 is_stmt 1 view .LVU363
 450:rtos/uC-USB-Device/Class/HID/usbd_hid_report.c ****         }
 1178              		.loc 1 450 42 is_stmt 0 view .LVU364
 1179 055e 0132     		adds	r2, r2, #1
 1180 0560 A8F80C20 		strh	r2, [r8, #12]	@ movhi
 1181              	.L63:
 452:rtos/uC-USB-Device/Class/HID/usbd_hid_report.c ****             p_report->MaxFeatureReportSize++;
 1182              		.loc 1 452 9 is_stmt 1 view .LVU365
 452:rtos/uC-USB-Device/Class/HID/usbd_hid_report.c ****             p_report->MaxFeatureReportSize++;
 1183              		.loc 1 452 12 is_stmt 0 view .LVU366
 1184 0564 002B     		cmp	r3, #0
 1185 0566 D7D0     		beq	.L61
 453:rtos/uC-USB-Device/Class/HID/usbd_hid_report.c ****         }
 1186              		.loc 1 453 13 is_stmt 1 view .LVU367
 453:rtos/uC-USB-Device/Class/HID/usbd_hid_report.c ****         }
 1187              		.loc 1 453 43 is_stmt 0 view .LVU368
ARM GAS  /tmp/cciyuUhu.s 			page 45


 1188 0568 0133     		adds	r3, r3, #1
 1189 056a A8F80430 		strh	r3, [r8, #4]	@ movhi
 1190 056e D3E7     		b	.L61
 1191              	.L85:
 458:rtos/uC-USB-Device/Class/HID/usbd_hid_report.c ****                                                                                  USBD_CFG_BUF_ALIGN
 1192              		.loc 1 458 9 is_stmt 1 view .LVU369
 458:rtos/uC-USB-Device/Class/HID/usbd_hid_report.c ****                                                                                  USBD_CFG_BUF_ALIGN
 1193              		.loc 1 458 54 is_stmt 0 view .LVU370
 1194 0570 0DF10603 		add	r3, sp, #6
 1195 0574 0022     		movs	r2, #0
 1196 0576 0421     		movs	r1, #4
 1197 0578 FFF7FEFF 		bl	Mem_HeapAlloc
 1198              	.LVL88:
 458:rtos/uC-USB-Device/Class/HID/usbd_hid_report.c ****                                                                                  USBD_CFG_BUF_ALIGN
 1199              		.loc 1 458 38 view .LVU371
 1200 057c C8F81000 		str	r0, [r8, #16]
 462:rtos/uC-USB-Device/Class/HID/usbd_hid_report.c ****            *p_err = USBD_ERR_ALLOC;
 1201              		.loc 1 462 9 is_stmt 1 view .LVU372
 462:rtos/uC-USB-Device/Class/HID/usbd_hid_report.c ****            *p_err = USBD_ERR_ALLOC;
 1202              		.loc 1 462 21 is_stmt 0 view .LVU373
 1203 0580 BDF80620 		ldrh	r2, [sp, #6]
 462:rtos/uC-USB-Device/Class/HID/usbd_hid_report.c ****            *p_err = USBD_ERR_ALLOC;
 1204              		.loc 1 462 12 view .LVU374
 1205 0584 42F21073 		movw	r3, #10000
 1206 0588 9A42     		cmp	r2, r3
 1207 058a C8D0     		beq	.L64
 463:rtos/uC-USB-Device/Class/HID/usbd_hid_report.c ****             return;
 1208              		.loc 1 463 12 is_stmt 1 view .LVU375
 463:rtos/uC-USB-Device/Class/HID/usbd_hid_report.c ****             return;
 1209              		.loc 1 463 19 is_stmt 0 view .LVU376
 1210 058c 0423     		movs	r3, #4
 1211 058e 0E9A     		ldr	r2, [sp, #56]
 1212 0590 1380     		strh	r3, [r2]	@ movhi
 464:rtos/uC-USB-Device/Class/HID/usbd_hid_report.c ****         }
 1213              		.loc 1 464 13 is_stmt 1 view .LVU377
 1214 0592 9AE7     		b	.L32
 1215              	.LVL89:
 1216              	.L68:
 490:rtos/uC-USB-Device/Class/HID/usbd_hid_report.c ****                     p_report_id->DataPtr = (CPU_INT08U *)Mem_HeapAlloc(              p_report_id->S
 1217              		.loc 1 490 17 view .LVU378
 490:rtos/uC-USB-Device/Class/HID/usbd_hid_report.c ****                     p_report_id->DataPtr = (CPU_INT08U *)Mem_HeapAlloc(              p_report_id->S
 1218              		.loc 1 490 20 is_stmt 0 view .LVU379
 1219 0594 7FB1     		cbz	r7, .L86
 1220              	.L67:
 505:rtos/uC-USB-Device/Class/HID/usbd_hid_report.c ****         }
 1221              		.loc 1 505 13 is_stmt 1 view .LVU380
 505:rtos/uC-USB-Device/Class/HID/usbd_hid_report.c ****         }
 1222              		.loc 1 505 25 is_stmt 0 view .LVU381
 1223 0596 A468     		ldr	r4, [r4, #8]
 1224              	.LVL90:
 1225              	.L66:
 481:rtos/uC-USB-Device/Class/HID/usbd_hid_report.c ****             p_report_id->Size += 7;
 1226              		.loc 1 481 15 is_stmt 1 view .LVU382
 1227 0598 34B3     		cbz	r4, .L87
 482:rtos/uC-USB-Device/Class/HID/usbd_hid_report.c ****             p_report_id->Size /= 8;
 1228              		.loc 1 482 13 view .LVU383
 482:rtos/uC-USB-Device/Class/HID/usbd_hid_report.c ****             p_report_id->Size /= 8;
ARM GAS  /tmp/cciyuUhu.s 			page 46


 1229              		.loc 1 482 31 is_stmt 0 view .LVU384
 1230 059a 6388     		ldrh	r3, [r4, #2]
 1231 059c 0733     		adds	r3, r3, #7
 483:rtos/uC-USB-Device/Class/HID/usbd_hid_report.c **** 
 1232              		.loc 1 483 13 is_stmt 1 view .LVU385
 483:rtos/uC-USB-Device/Class/HID/usbd_hid_report.c **** 
 1233              		.loc 1 483 31 is_stmt 0 view .LVU386
 1234 059e C3F3CC03 		ubfx	r3, r3, #3, #13
 1235 05a2 6380     		strh	r3, [r4, #2]	@ movhi
 485:rtos/uC-USB-Device/Class/HID/usbd_hid_report.c ****                 if (p_report->HasReports == DEF_YES) {
 1236              		.loc 1 485 13 is_stmt 1 view .LVU387
 485:rtos/uC-USB-Device/Class/HID/usbd_hid_report.c ****                 if (p_report->HasReports == DEF_YES) {
 1237              		.loc 1 485 16 is_stmt 0 view .LVU388
 1238 05a4 002B     		cmp	r3, #0
 1239 05a6 F6D0     		beq	.L67
 486:rtos/uC-USB-Device/Class/HID/usbd_hid_report.c ****                     p_report_id->Size++;                        /* Reserve space for report ID.    
 1240              		.loc 1 486 17 is_stmt 1 view .LVU389
 486:rtos/uC-USB-Device/Class/HID/usbd_hid_report.c ****                     p_report_id->Size++;                        /* Reserve space for report ID.    
 1241              		.loc 1 486 29 is_stmt 0 view .LVU390
 1242 05a8 98F80020 		ldrb	r2, [r8]	@ zero_extendqisi2
 486:rtos/uC-USB-Device/Class/HID/usbd_hid_report.c ****                     p_report_id->Size++;                        /* Reserve space for report ID.    
 1243              		.loc 1 486 20 view .LVU391
 1244 05ac 012A     		cmp	r2, #1
 1245 05ae F1D1     		bne	.L68
 487:rtos/uC-USB-Device/Class/HID/usbd_hid_report.c ****                 }
 1246              		.loc 1 487 21 is_stmt 1 view .LVU392
 487:rtos/uC-USB-Device/Class/HID/usbd_hid_report.c ****                 }
 1247              		.loc 1 487 38 is_stmt 0 view .LVU393
 1248 05b0 0133     		adds	r3, r3, #1
 1249 05b2 6380     		strh	r3, [r4, #2]	@ movhi
 1250 05b4 EEE7     		b	.L68
 1251              	.L86:
 491:rtos/uC-USB-Device/Class/HID/usbd_hid_report.c ****                                                                                      USBD_CFG_BUF_A
 1252              		.loc 1 491 21 is_stmt 1 view .LVU394
 491:rtos/uC-USB-Device/Class/HID/usbd_hid_report.c ****                                                                                      USBD_CFG_BUF_A
 1253              		.loc 1 491 58 is_stmt 0 view .LVU395
 1254 05b6 0DF10603 		add	r3, sp, #6
 1255 05ba 0022     		movs	r2, #0
 1256 05bc 0421     		movs	r1, #4
 1257 05be 6088     		ldrh	r0, [r4, #2]
 1258 05c0 FFF7FEFF 		bl	Mem_HeapAlloc
 1259              	.LVL91:
 491:rtos/uC-USB-Device/Class/HID/usbd_hid_report.c ****                                                                                      USBD_CFG_BUF_A
 1260              		.loc 1 491 42 view .LVU396
 1261 05c4 6060     		str	r0, [r4, #4]
 495:rtos/uC-USB-Device/Class/HID/usbd_hid_report.c ****                        *p_err = USBD_ERR_ALLOC;
 1262              		.loc 1 495 21 is_stmt 1 view .LVU397
 495:rtos/uC-USB-Device/Class/HID/usbd_hid_report.c ****                        *p_err = USBD_ERR_ALLOC;
 1263              		.loc 1 495 33 is_stmt 0 view .LVU398
 1264 05c6 BDF80620 		ldrh	r2, [sp, #6]
 495:rtos/uC-USB-Device/Class/HID/usbd_hid_report.c ****                        *p_err = USBD_ERR_ALLOC;
 1265              		.loc 1 495 24 view .LVU399
 1266 05ca 42F21073 		movw	r3, #10000
 1267 05ce 9A42     		cmp	r2, r3
 1268 05d0 06D1     		bne	.L88
 500:rtos/uC-USB-Device/Class/HID/usbd_hid_report.c ****                     p_report_id->DataPtr[0u] = p_report_id->ID;
 1269              		.loc 1 500 21 is_stmt 1 view .LVU400
ARM GAS  /tmp/cciyuUhu.s 			page 47


 1270 05d2 6188     		ldrh	r1, [r4, #2]
 1271 05d4 FFF7FEFF 		bl	Mem_Clr
 1272              	.LVL92:
 501:rtos/uC-USB-Device/Class/HID/usbd_hid_report.c ****                 }
 1273              		.loc 1 501 21 view .LVU401
 501:rtos/uC-USB-Device/Class/HID/usbd_hid_report.c ****                 }
 1274              		.loc 1 501 32 is_stmt 0 view .LVU402
 1275 05d8 6368     		ldr	r3, [r4, #4]
 501:rtos/uC-USB-Device/Class/HID/usbd_hid_report.c ****                 }
 1276              		.loc 1 501 59 view .LVU403
 1277 05da 2278     		ldrb	r2, [r4]	@ zero_extendqisi2
 501:rtos/uC-USB-Device/Class/HID/usbd_hid_report.c ****                 }
 1278              		.loc 1 501 46 view .LVU404
 1279 05dc 1A70     		strb	r2, [r3]
 1280 05de DAE7     		b	.L67
 1281              	.L88:
 496:rtos/uC-USB-Device/Class/HID/usbd_hid_report.c ****                         return;
 1282              		.loc 1 496 24 is_stmt 1 view .LVU405
 496:rtos/uC-USB-Device/Class/HID/usbd_hid_report.c ****                         return;
 1283              		.loc 1 496 31 is_stmt 0 view .LVU406
 1284 05e0 0423     		movs	r3, #4
 1285 05e2 0E9A     		ldr	r2, [sp, #56]
 1286 05e4 1380     		strh	r3, [r2]	@ movhi
 497:rtos/uC-USB-Device/Class/HID/usbd_hid_report.c ****                     }
 1287              		.loc 1 497 25 is_stmt 1 view .LVU407
 1288 05e6 70E7     		b	.L32
 1289              	.L87:
 479:rtos/uC-USB-Device/Class/HID/usbd_hid_report.c ****         p_report_id = p_report->Reports[report_type];
 1290              		.loc 1 479 44 discriminator 2 view .LVU408
 479:rtos/uC-USB-Device/Class/HID/usbd_hid_report.c ****         p_report_id = p_report->Reports[report_type];
 1291              		.loc 1 479 55 is_stmt 0 discriminator 2 view .LVU409
 1292 05e8 0137     		adds	r7, r7, #1
 1293              	.LVL93:
 479:rtos/uC-USB-Device/Class/HID/usbd_hid_report.c ****         p_report_id = p_report->Reports[report_type];
 1294              		.loc 1 479 55 discriminator 2 view .LVU410
 1295 05ea FFB2     		uxtb	r7, r7
 1296              	.LVL94:
 1297              	.L71:
 479:rtos/uC-USB-Device/Class/HID/usbd_hid_report.c ****         p_report_id = p_report->Reports[report_type];
 1298              		.loc 1 479 27 is_stmt 1 discriminator 1 view .LVU411
 479:rtos/uC-USB-Device/Class/HID/usbd_hid_report.c ****         p_report_id = p_report->Reports[report_type];
 1299              		.loc 1 479 5 is_stmt 0 discriminator 1 view .LVU412
 1300 05ec 022F     		cmp	r7, #2
 1301 05ee 04D8     		bhi	.L89
 480:rtos/uC-USB-Device/Class/HID/usbd_hid_report.c ****         while (p_report_id != (USBD_HID_REPORT_ID *)0) {
 1302              		.loc 1 480 9 is_stmt 1 view .LVU413
 480:rtos/uC-USB-Device/Class/HID/usbd_hid_report.c ****         while (p_report_id != (USBD_HID_REPORT_ID *)0) {
 1303              		.loc 1 480 21 is_stmt 0 view .LVU414
 1304 05f0 3B1D     		adds	r3, r7, #4
 1305 05f2 08EB8303 		add	r3, r8, r3, lsl #2
 1306 05f6 5C68     		ldr	r4, [r3, #4]
 1307              	.LVL95:
 481:rtos/uC-USB-Device/Class/HID/usbd_hid_report.c ****             p_report_id->Size += 7;
 1308              		.loc 1 481 9 is_stmt 1 view .LVU415
 481:rtos/uC-USB-Device/Class/HID/usbd_hid_report.c ****             p_report_id->Size += 7;
 1309              		.loc 1 481 15 is_stmt 0 view .LVU416
 1310 05f8 CEE7     		b	.L66
ARM GAS  /tmp/cciyuUhu.s 			page 48


 1311              	.LVL96:
 1312              	.L89:
 509:rtos/uC-USB-Device/Class/HID/usbd_hid_report.c **** }
 1313              		.loc 1 509 4 is_stmt 1 view .LVU417
 509:rtos/uC-USB-Device/Class/HID/usbd_hid_report.c **** }
 1314              		.loc 1 509 11 is_stmt 0 view .LVU418
 1315 05fa 0023     		movs	r3, #0
 1316 05fc 0E9A     		ldr	r2, [sp, #56]
 1317 05fe 1380     		strh	r3, [r2]	@ movhi
 1318 0600 63E7     		b	.L32
 1319              		.cfi_endproc
 1320              	.LFE1:
 1322 0602 00BF     		.section	.text.USBD_HID_ReportID_InfoGet,"ax",%progbits
 1323              		.align	1
 1324              		.global	USBD_HID_ReportID_InfoGet
 1325              		.syntax unified
 1326              		.thumb
 1327              		.thumb_func
 1328              		.fpu fpv4-sp-d16
 1330              	USBD_HID_ReportID_InfoGet:
 1331              	.LVL97:
 1332              	.LFB2:
 551:rtos/uC-USB-Device/Class/HID/usbd_hid_report.c ****     USBD_HID_REPORT_ID  *p_report_id;
 1333              		.loc 1 551 1 is_stmt 1 view -0
 1334              		.cfi_startproc
 1335              		@ args = 8, pretend = 0, frame = 0
 1336              		@ frame_needed = 0, uses_anonymous_args = 0
 1337              		@ link register save eliminated.
 551:rtos/uC-USB-Device/Class/HID/usbd_hid_report.c ****     USBD_HID_REPORT_ID  *p_report_id;
 1338              		.loc 1 551 1 is_stmt 0 view .LVU420
 1339 0000 70B4     		push	{r4, r5, r6}
 1340              	.LCFI9:
 1341              		.cfi_def_cfa_offset 12
 1342              		.cfi_offset 4, -12
 1343              		.cfi_offset 5, -8
 1344              		.cfi_offset 6, -4
 1345 0002 049E     		ldr	r6, [sp, #16]
 552:rtos/uC-USB-Device/Class/HID/usbd_hid_report.c **** 
 1346              		.loc 1 552 5 is_stmt 1 view .LVU421
 555:rtos/uC-USB-Device/Class/HID/usbd_hid_report.c ****         case USBD_HID_REPORT_TYPE_INPUT:
 1347              		.loc 1 555 5 view .LVU422
 1348 0004 0229     		cmp	r1, #2
 1349 0006 0FD0     		beq	.L91
 1350 0008 0329     		cmp	r1, #3
 1351 000a 0FD0     		beq	.L92
 1352 000c 0129     		cmp	r1, #1
 1353 000e 03D0     		beq	.L112
 570:rtos/uC-USB-Device/Class/HID/usbd_hid_report.c ****              return (0);
 1354              		.loc 1 570 13 view .LVU423
 570:rtos/uC-USB-Device/Class/HID/usbd_hid_report.c ****              return (0);
 1355              		.loc 1 570 20 is_stmt 0 view .LVU424
 1356 0010 0623     		movs	r3, #6
 1357              	.LVL98:
 570:rtos/uC-USB-Device/Class/HID/usbd_hid_report.c ****              return (0);
 1358              		.loc 1 570 20 view .LVU425
 1359 0012 3380     		strh	r3, [r6]	@ movhi
 571:rtos/uC-USB-Device/Class/HID/usbd_hid_report.c ****     }
ARM GAS  /tmp/cciyuUhu.s 			page 49


 1360              		.loc 1 571 14 is_stmt 1 view .LVU426
 571:rtos/uC-USB-Device/Class/HID/usbd_hid_report.c ****     }
 1361              		.loc 1 571 21 is_stmt 0 view .LVU427
 1362 0014 0020     		movs	r0, #0
 1363              	.LVL99:
 571:rtos/uC-USB-Device/Class/HID/usbd_hid_report.c ****     }
 1364              		.loc 1 571 21 view .LVU428
 1365 0016 34E0     		b	.L95
 1366              	.LVL100:
 1367              	.L112:
 557:rtos/uC-USB-Device/Class/HID/usbd_hid_report.c ****              break;
 1368              		.loc 1 557 14 is_stmt 1 view .LVU429
 557:rtos/uC-USB-Device/Class/HID/usbd_hid_report.c ****              break;
 1369              		.loc 1 557 26 is_stmt 0 view .LVU430
 1370 0018 4469     		ldr	r4, [r0, #20]
 1371              	.LVL101:
 558:rtos/uC-USB-Device/Class/HID/usbd_hid_report.c **** 
 1372              		.loc 1 558 14 is_stmt 1 view .LVU431
 1373              	.L106:
 574:rtos/uC-USB-Device/Class/HID/usbd_hid_report.c ****         if (p_report_id->ID == report_id) {
 1374              		.loc 1 574 11 discriminator 1 view .LVU432
 1375 001a 002C     		cmp	r4, #0
 1376 001c 2ED0     		beq	.L113
 575:rtos/uC-USB-Device/Class/HID/usbd_hid_report.c ****             switch (report_type) {
 1377              		.loc 1 575 9 view .LVU433
 575:rtos/uC-USB-Device/Class/HID/usbd_hid_report.c ****             switch (report_type) {
 1378              		.loc 1 575 24 is_stmt 0 view .LVU434
 1379 001e 2578     		ldrb	r5, [r4]	@ zero_extendqisi2
 575:rtos/uC-USB-Device/Class/HID/usbd_hid_report.c ****             switch (report_type) {
 1380              		.loc 1 575 12 view .LVU435
 1381 0020 9542     		cmp	r5, r2
 1382 0022 05D0     		beq	.L114
 603:rtos/uC-USB-Device/Class/HID/usbd_hid_report.c ****     }
 1383              		.loc 1 603 9 is_stmt 1 view .LVU436
 603:rtos/uC-USB-Device/Class/HID/usbd_hid_report.c ****     }
 1384              		.loc 1 603 21 is_stmt 0 view .LVU437
 1385 0024 A468     		ldr	r4, [r4, #8]
 1386              	.LVL102:
 603:rtos/uC-USB-Device/Class/HID/usbd_hid_report.c ****     }
 1387              		.loc 1 603 21 view .LVU438
 1388 0026 F8E7     		b	.L106
 1389              	.LVL103:
 1390              	.L91:
 561:rtos/uC-USB-Device/Class/HID/usbd_hid_report.c ****              break;
 1391              		.loc 1 561 14 is_stmt 1 view .LVU439
 561:rtos/uC-USB-Device/Class/HID/usbd_hid_report.c ****              break;
 1392              		.loc 1 561 26 is_stmt 0 view .LVU440
 1393 0028 8469     		ldr	r4, [r0, #24]
 1394              	.LVL104:
 562:rtos/uC-USB-Device/Class/HID/usbd_hid_report.c **** 
 1395              		.loc 1 562 14 is_stmt 1 view .LVU441
 1396 002a F6E7     		b	.L106
 1397              	.LVL105:
 1398              	.L92:
 565:rtos/uC-USB-Device/Class/HID/usbd_hid_report.c ****              break;
 1399              		.loc 1 565 14 view .LVU442
 565:rtos/uC-USB-Device/Class/HID/usbd_hid_report.c ****              break;
ARM GAS  /tmp/cciyuUhu.s 			page 50


 1400              		.loc 1 565 26 is_stmt 0 view .LVU443
 1401 002c C469     		ldr	r4, [r0, #28]
 1402              	.LVL106:
 566:rtos/uC-USB-Device/Class/HID/usbd_hid_report.c **** 
 1403              		.loc 1 566 14 is_stmt 1 view .LVU444
 1404 002e F4E7     		b	.L106
 1405              	.L114:
 576:rtos/uC-USB-Device/Class/HID/usbd_hid_report.c ****                 case USBD_HID_REPORT_TYPE_INPUT:
 1406              		.loc 1 576 13 view .LVU445
 1407 0030 0129     		cmp	r1, #1
 1408 0032 0CD0     		beq	.L97
 1409 0034 0229     		cmp	r1, #2
 1410 0036 18D0     		beq	.L98
 593:rtos/uC-USB-Device/Class/HID/usbd_hid_report.c ****                        *p_buf  =  p_report->MaxFeatureReportPtr;
 1411              		.loc 1 593 21 view .LVU446
 593:rtos/uC-USB-Device/Class/HID/usbd_hid_report.c ****                        *p_buf  =  p_report->MaxFeatureReportPtr;
 1412              		.loc 1 593 24 is_stmt 0 view .LVU447
 1413 0038 0BB1     		cbz	r3, .L104
 594:rtos/uC-USB-Device/Class/HID/usbd_hid_report.c ****                     }
 1414              		.loc 1 594 24 is_stmt 1 view .LVU448
 594:rtos/uC-USB-Device/Class/HID/usbd_hid_report.c ****                     }
 1415              		.loc 1 594 43 is_stmt 0 view .LVU449
 1416 003a 8268     		ldr	r2, [r0, #8]
 1417              	.LVL107:
 594:rtos/uC-USB-Device/Class/HID/usbd_hid_report.c ****                     }
 1418              		.loc 1 594 32 view .LVU450
 1419 003c 1A60     		str	r2, [r3]
 1420              	.L104:
 596:rtos/uC-USB-Device/Class/HID/usbd_hid_report.c ****                      break;
 1421              		.loc 1 596 21 is_stmt 1 view .LVU451
 596:rtos/uC-USB-Device/Class/HID/usbd_hid_report.c ****                      break;
 1422              		.loc 1 596 49 is_stmt 0 view .LVU452
 1423 003e 6288     		ldrh	r2, [r4, #2]
 596:rtos/uC-USB-Device/Class/HID/usbd_hid_report.c ****                      break;
 1424              		.loc 1 596 67 view .LVU453
 1425 0040 8388     		ldrh	r3, [r0, #4]
 1426              	.LVL108:
 596:rtos/uC-USB-Device/Class/HID/usbd_hid_report.c ****                      break;
 1427              		.loc 1 596 35 view .LVU454
 1428 0042 9A42     		cmp	r2, r3
 1429 0044 18D0     		beq	.L115
 1430 0046 0023     		movs	r3, #0
 1431              	.L105:
 596:rtos/uC-USB-Device/Class/HID/usbd_hid_report.c ****                      break;
 1432              		.loc 1 596 35 discriminator 4 view .LVU455
 1433 0048 039A     		ldr	r2, [sp, #12]
 1434 004a 1370     		strb	r3, [r2]
 597:rtos/uC-USB-Device/Class/HID/usbd_hid_report.c ****             }
 1435              		.loc 1 597 22 is_stmt 1 discriminator 4 view .LVU456
 1436 004c 09E0     		b	.L102
 1437              	.LVL109:
 1438              	.L97:
 578:rtos/uC-USB-Device/Class/HID/usbd_hid_report.c ****                        *p_buf  =  p_report_id->DataPtr;
 1439              		.loc 1 578 21 view .LVU457
 578:rtos/uC-USB-Device/Class/HID/usbd_hid_report.c ****                        *p_buf  =  p_report_id->DataPtr;
 1440              		.loc 1 578 24 is_stmt 0 view .LVU458
 1441 004e 0BB1     		cbz	r3, .L100
ARM GAS  /tmp/cciyuUhu.s 			page 51


 579:rtos/uC-USB-Device/Class/HID/usbd_hid_report.c ****                     }
 1442              		.loc 1 579 24 is_stmt 1 view .LVU459
 579:rtos/uC-USB-Device/Class/HID/usbd_hid_report.c ****                     }
 1443              		.loc 1 579 46 is_stmt 0 view .LVU460
 1444 0050 6268     		ldr	r2, [r4, #4]
 1445              	.LVL110:
 579:rtos/uC-USB-Device/Class/HID/usbd_hid_report.c ****                     }
 1446              		.loc 1 579 32 view .LVU461
 1447 0052 1A60     		str	r2, [r3]
 1448              	.L100:
 581:rtos/uC-USB-Device/Class/HID/usbd_hid_report.c ****                      break;
 1449              		.loc 1 581 21 is_stmt 1 view .LVU462
 581:rtos/uC-USB-Device/Class/HID/usbd_hid_report.c ****                      break;
 1450              		.loc 1 581 49 is_stmt 0 view .LVU463
 1451 0054 6288     		ldrh	r2, [r4, #2]
 581:rtos/uC-USB-Device/Class/HID/usbd_hid_report.c ****                      break;
 1452              		.loc 1 581 67 view .LVU464
 1453 0056 4388     		ldrh	r3, [r0, #2]
 1454              	.LVL111:
 581:rtos/uC-USB-Device/Class/HID/usbd_hid_report.c ****                      break;
 1455              		.loc 1 581 35 view .LVU465
 1456 0058 9A42     		cmp	r2, r3
 1457 005a 00D0     		beq	.L101
 1458 005c 0021     		movs	r1, #0
 1459              	.LVL112:
 1460              	.L101:
 581:rtos/uC-USB-Device/Class/HID/usbd_hid_report.c ****                      break;
 1461              		.loc 1 581 35 discriminator 4 view .LVU466
 1462 005e 039B     		ldr	r3, [sp, #12]
 1463 0060 1970     		strb	r1, [r3]
 582:rtos/uC-USB-Device/Class/HID/usbd_hid_report.c **** 
 1464              		.loc 1 582 22 is_stmt 1 discriminator 4 view .LVU467
 1465              	.L102:
 599:rtos/uC-USB-Device/Class/HID/usbd_hid_report.c ****             return (p_report_id->Size);
 1466              		.loc 1 599 12 view .LVU468
 599:rtos/uC-USB-Device/Class/HID/usbd_hid_report.c ****             return (p_report_id->Size);
 1467              		.loc 1 599 19 is_stmt 0 view .LVU469
 1468 0062 0023     		movs	r3, #0
 1469 0064 3380     		strh	r3, [r6]	@ movhi
 600:rtos/uC-USB-Device/Class/HID/usbd_hid_report.c ****         }
 1470              		.loc 1 600 13 is_stmt 1 view .LVU470
 600:rtos/uC-USB-Device/Class/HID/usbd_hid_report.c ****         }
 1471              		.loc 1 600 32 is_stmt 0 view .LVU471
 1472 0066 6088     		ldrh	r0, [r4, #2]
 1473              	.LVL113:
 600:rtos/uC-USB-Device/Class/HID/usbd_hid_report.c ****         }
 1474              		.loc 1 600 32 view .LVU472
 1475 0068 0BE0     		b	.L95
 1476              	.LVL114:
 1477              	.L98:
 585:rtos/uC-USB-Device/Class/HID/usbd_hid_report.c ****                        *p_buf  = p_report->MaxOutputReportPtr;
 1478              		.loc 1 585 21 is_stmt 1 view .LVU473
 585:rtos/uC-USB-Device/Class/HID/usbd_hid_report.c ****                        *p_buf  = p_report->MaxOutputReportPtr;
 1479              		.loc 1 585 24 is_stmt 0 view .LVU474
 1480 006a 0BB1     		cbz	r3, .L103
 586:rtos/uC-USB-Device/Class/HID/usbd_hid_report.c ****                     }
 1481              		.loc 1 586 24 is_stmt 1 view .LVU475
ARM GAS  /tmp/cciyuUhu.s 			page 52


 586:rtos/uC-USB-Device/Class/HID/usbd_hid_report.c ****                     }
 1482              		.loc 1 586 42 is_stmt 0 view .LVU476
 1483 006c 0269     		ldr	r2, [r0, #16]
 1484              	.LVL115:
 586:rtos/uC-USB-Device/Class/HID/usbd_hid_report.c ****                     }
 1485              		.loc 1 586 32 view .LVU477
 1486 006e 1A60     		str	r2, [r3]
 1487              	.L103:
 588:rtos/uC-USB-Device/Class/HID/usbd_hid_report.c ****                      break;
 1488              		.loc 1 588 21 is_stmt 1 view .LVU478
 588:rtos/uC-USB-Device/Class/HID/usbd_hid_report.c ****                      break;
 1489              		.loc 1 588 35 is_stmt 0 view .LVU479
 1490 0070 0023     		movs	r3, #0
 1491              	.LVL116:
 588:rtos/uC-USB-Device/Class/HID/usbd_hid_report.c ****                      break;
 1492              		.loc 1 588 35 view .LVU480
 1493 0072 039A     		ldr	r2, [sp, #12]
 1494 0074 1370     		strb	r3, [r2]
 589:rtos/uC-USB-Device/Class/HID/usbd_hid_report.c **** 
 1495              		.loc 1 589 22 is_stmt 1 view .LVU481
 1496 0076 F4E7     		b	.L102
 1497              	.L115:
 596:rtos/uC-USB-Device/Class/HID/usbd_hid_report.c ****                      break;
 1498              		.loc 1 596 35 is_stmt 0 view .LVU482
 1499 0078 0123     		movs	r3, #1
 1500 007a E5E7     		b	.L105
 1501              	.LVL117:
 1502              	.L113:
 606:rtos/uC-USB-Device/Class/HID/usbd_hid_report.c ****     return (0);
 1503              		.loc 1 606 4 is_stmt 1 view .LVU483
 606:rtos/uC-USB-Device/Class/HID/usbd_hid_report.c ****     return (0);
 1504              		.loc 1 606 11 is_stmt 0 view .LVU484
 1505 007c 0623     		movs	r3, #6
 1506              	.LVL118:
 606:rtos/uC-USB-Device/Class/HID/usbd_hid_report.c ****     return (0);
 1507              		.loc 1 606 11 view .LVU485
 1508 007e 3380     		strh	r3, [r6]	@ movhi
 607:rtos/uC-USB-Device/Class/HID/usbd_hid_report.c **** }
 1509              		.loc 1 607 5 is_stmt 1 view .LVU486
 607:rtos/uC-USB-Device/Class/HID/usbd_hid_report.c **** }
 1510              		.loc 1 607 12 is_stmt 0 view .LVU487
 1511 0080 0020     		movs	r0, #0
 1512              	.LVL119:
 1513              	.L95:
 608:rtos/uC-USB-Device/Class/HID/usbd_hid_report.c **** 
 1514              		.loc 1 608 1 view .LVU488
 1515 0082 70BC     		pop	{r4, r5, r6}
 1516              	.LCFI10:
 1517              		.cfi_restore 6
 1518              		.cfi_restore 5
 1519              		.cfi_restore 4
 1520              		.cfi_def_cfa_offset 0
 1521              	.LVL120:
 608:rtos/uC-USB-Device/Class/HID/usbd_hid_report.c **** 
 1522              		.loc 1 608 1 view .LVU489
 1523 0084 7047     		bx	lr
 1524              		.cfi_endproc
ARM GAS  /tmp/cciyuUhu.s 			page 53


 1525              	.LFE2:
 1527              		.section	.text.USBD_HID_Report_TmrTaskHandler,"ax",%progbits
 1528              		.align	1
 1529              		.global	USBD_HID_Report_TmrTaskHandler
 1530              		.syntax unified
 1531              		.thumb
 1532              		.thumb_func
 1533              		.fpu fpv4-sp-d16
 1535              	USBD_HID_Report_TmrTaskHandler:
 1536              	.LFB3:
 626:rtos/uC-USB-Device/Class/HID/usbd_hid_report.c ****     USBD_HID_REPORT_ID  *p_report_id;
 1537              		.loc 1 626 1 is_stmt 1 view -0
 1538              		.cfi_startproc
 1539              		@ args = 0, pretend = 0, frame = 8
 1540              		@ frame_needed = 0, uses_anonymous_args = 0
 1541 0000 70B5     		push	{r4, r5, r6, lr}
 1542              	.LCFI11:
 1543              		.cfi_def_cfa_offset 16
 1544              		.cfi_offset 4, -16
 1545              		.cfi_offset 5, -12
 1546              		.cfi_offset 6, -8
 1547              		.cfi_offset 14, -4
 1548 0002 84B0     		sub	sp, sp, #16
 1549              	.LCFI12:
 1550              		.cfi_def_cfa_offset 32
 627:rtos/uC-USB-Device/Class/HID/usbd_hid_report.c ****     USBD_HID_REPORT_ID  *p_report_id_prev;
 1551              		.loc 1 627 5 view .LVU491
 628:rtos/uC-USB-Device/Class/HID/usbd_hid_report.c ****     CPU_BOOLEAN          service;
 1552              		.loc 1 628 5 view .LVU492
 629:rtos/uC-USB-Device/Class/HID/usbd_hid_report.c ****     USBD_ERR             err;
 1553              		.loc 1 629 5 view .LVU493
 630:rtos/uC-USB-Device/Class/HID/usbd_hid_report.c ****     CPU_SR_ALLOC();
 1554              		.loc 1 630 5 view .LVU494
 631:rtos/uC-USB-Device/Class/HID/usbd_hid_report.c **** 
 1555              		.loc 1 631 5 view .LVU495
 1556              	.LVL121:
 634:rtos/uC-USB-Device/Class/HID/usbd_hid_report.c ****     CPU_CRITICAL_ENTER();
 1557              		.loc 1 634 5 view .LVU496
 635:rtos/uC-USB-Device/Class/HID/usbd_hid_report.c ****     p_report_id      =  USBD_HID_ReportID_TmrList;
 1558              		.loc 1 635 5 view .LVU497
 635:rtos/uC-USB-Device/Class/HID/usbd_hid_report.c ****     p_report_id      =  USBD_HID_ReportID_TmrList;
 1559              		.loc 1 635 5 view .LVU498
 635:rtos/uC-USB-Device/Class/HID/usbd_hid_report.c ****     p_report_id      =  USBD_HID_ReportID_TmrList;
 1560              		.loc 1 635 5 view .LVU499
 1561 0004 4020     		movs	r0, #64
 1562 0006 FFF7FEFF 		bl	CPU_SR_Save
 1563              	.LVL122:
 635:rtos/uC-USB-Device/Class/HID/usbd_hid_report.c ****     p_report_id      =  USBD_HID_ReportID_TmrList;
 1564              		.loc 1 635 5 view .LVU500
 635:rtos/uC-USB-Device/Class/HID/usbd_hid_report.c ****     p_report_id      =  USBD_HID_ReportID_TmrList;
 1565              		.loc 1 635 5 view .LVU501
 636:rtos/uC-USB-Device/Class/HID/usbd_hid_report.c ****     CPU_CRITICAL_EXIT();
 1566              		.loc 1 636 5 view .LVU502
 636:rtos/uC-USB-Device/Class/HID/usbd_hid_report.c ****     CPU_CRITICAL_EXIT();
 1567              		.loc 1 636 22 is_stmt 0 view .LVU503
 1568 000a 1F4B     		ldr	r3, .L131
 1569 000c 1C68     		ldr	r4, [r3]
ARM GAS  /tmp/cciyuUhu.s 			page 54


 1570              	.LVL123:
 637:rtos/uC-USB-Device/Class/HID/usbd_hid_report.c **** 
 1571              		.loc 1 637 5 is_stmt 1 view .LVU504
 637:rtos/uC-USB-Device/Class/HID/usbd_hid_report.c **** 
 1572              		.loc 1 637 5 view .LVU505
 637:rtos/uC-USB-Device/Class/HID/usbd_hid_report.c **** 
 1573              		.loc 1 637 5 view .LVU506
 1574 000e FFF7FEFF 		bl	CPU_SR_Restore
 1575              	.LVL124:
 637:rtos/uC-USB-Device/Class/HID/usbd_hid_report.c **** 
 1576              		.loc 1 637 5 view .LVU507
 637:rtos/uC-USB-Device/Class/HID/usbd_hid_report.c **** 
 1577              		.loc 1 637 5 view .LVU508
 639:rtos/uC-USB-Device/Class/HID/usbd_hid_report.c ****         service = DEF_NO;
 1578              		.loc 1 639 5 view .LVU509
 634:rtos/uC-USB-Device/Class/HID/usbd_hid_report.c ****     CPU_CRITICAL_ENTER();
 1579              		.loc 1 634 22 is_stmt 0 view .LVU510
 1580 0012 0026     		movs	r6, #0
 639:rtos/uC-USB-Device/Class/HID/usbd_hid_report.c ****         service = DEF_NO;
 1581              		.loc 1 639 11 view .LVU511
 1582 0014 0AE0     		b	.L117
 1583              	.LVL125:
 1584              	.L129:
 648:rtos/uC-USB-Device/Class/HID/usbd_hid_report.c ****             } else {
 1585              		.loc 1 648 17 is_stmt 1 view .LVU512
 648:rtos/uC-USB-Device/Class/HID/usbd_hid_report.c ****             } else {
 1586              		.loc 1 648 59 is_stmt 0 view .LVU513
 1587 0016 2269     		ldr	r2, [r4, #16]
 648:rtos/uC-USB-Device/Class/HID/usbd_hid_report.c ****             } else {
 1588              		.loc 1 648 46 view .LVU514
 1589 0018 1B4B     		ldr	r3, .L131
 1590 001a 1A60     		str	r2, [r3]
 1591              	.L120:
 653:rtos/uC-USB-Device/Class/HID/usbd_hid_report.c **** 
 1592              		.loc 1 653 13 is_stmt 1 view .LVU515
 653:rtos/uC-USB-Device/Class/HID/usbd_hid_report.c **** 
 1593              		.loc 1 653 37 is_stmt 0 view .LVU516
 1594 001c 0023     		movs	r3, #0
 1595 001e 2361     		str	r3, [r4, #16]
 1596              	.LVL126:
 1597              	.L121:
 671:rtos/uC-USB-Device/Class/HID/usbd_hid_report.c **** 
 1598              		.loc 1 671 9 is_stmt 1 view .LVU517
 671:rtos/uC-USB-Device/Class/HID/usbd_hid_report.c **** 
 1599              		.loc 1 671 9 view .LVU518
 671:rtos/uC-USB-Device/Class/HID/usbd_hid_report.c **** 
 1600              		.loc 1 671 9 view .LVU519
 1601 0020 FFF7FEFF 		bl	CPU_SR_Restore
 1602              	.LVL127:
 671:rtos/uC-USB-Device/Class/HID/usbd_hid_report.c **** 
 1603              		.loc 1 671 9 view .LVU520
 671:rtos/uC-USB-Device/Class/HID/usbd_hid_report.c **** 
 1604              		.loc 1 671 9 view .LVU521
 673:rtos/uC-USB-Device/Class/HID/usbd_hid_report.c ****             USBD_HID_Wr(p_report_id->ClassNbr,
 1605              		.loc 1 673 9 view .LVU522
 673:rtos/uC-USB-Device/Class/HID/usbd_hid_report.c ****             USBD_HID_Wr(p_report_id->ClassNbr,
 1606              		.loc 1 673 12 is_stmt 0 view .LVU523
ARM GAS  /tmp/cciyuUhu.s 			page 55


 1607 0024 012D     		cmp	r5, #1
 1608 0026 23D0     		beq	.L127
 1609              	.L124:
 681:rtos/uC-USB-Device/Class/HID/usbd_hid_report.c ****         p_report_id      = p_report_id->TmrNextPtr;
 1610              		.loc 1 681 9 is_stmt 1 view .LVU524
 1611              	.LVL128:
 682:rtos/uC-USB-Device/Class/HID/usbd_hid_report.c ****     }
 1612              		.loc 1 682 9 view .LVU525
 681:rtos/uC-USB-Device/Class/HID/usbd_hid_report.c ****         p_report_id      = p_report_id->TmrNextPtr;
 1613              		.loc 1 681 26 is_stmt 0 view .LVU526
 1614 0028 2646     		mov	r6, r4
 682:rtos/uC-USB-Device/Class/HID/usbd_hid_report.c ****     }
 1615              		.loc 1 682 26 view .LVU527
 1616 002a 2469     		ldr	r4, [r4, #16]
 1617              	.LVL129:
 1618              	.L117:
 639:rtos/uC-USB-Device/Class/HID/usbd_hid_report.c ****         service = DEF_NO;
 1619              		.loc 1 639 11 is_stmt 1 view .LVU528
 1620 002c 54B3     		cbz	r4, .L128
 640:rtos/uC-USB-Device/Class/HID/usbd_hid_report.c **** 
 1621              		.loc 1 640 9 view .LVU529
 1622              	.LVL130:
 642:rtos/uC-USB-Device/Class/HID/usbd_hid_report.c ****         if (p_report_id->IdleRate == USBD_HID_IDLE_INFINITE) {
 1623              		.loc 1 642 9 view .LVU530
 642:rtos/uC-USB-Device/Class/HID/usbd_hid_report.c ****         if (p_report_id->IdleRate == USBD_HID_IDLE_INFINITE) {
 1624              		.loc 1 642 9 view .LVU531
 642:rtos/uC-USB-Device/Class/HID/usbd_hid_report.c ****         if (p_report_id->IdleRate == USBD_HID_IDLE_INFINITE) {
 1625              		.loc 1 642 9 view .LVU532
 1626 002e 4020     		movs	r0, #64
 1627 0030 FFF7FEFF 		bl	CPU_SR_Save
 1628              	.LVL131:
 642:rtos/uC-USB-Device/Class/HID/usbd_hid_report.c ****         if (p_report_id->IdleRate == USBD_HID_IDLE_INFINITE) {
 1629              		.loc 1 642 9 view .LVU533
 642:rtos/uC-USB-Device/Class/HID/usbd_hid_report.c ****         if (p_report_id->IdleRate == USBD_HID_IDLE_INFINITE) {
 1630              		.loc 1 642 9 view .LVU534
 643:rtos/uC-USB-Device/Class/HID/usbd_hid_report.c ****             p_report_id->IdleCnt  = 0u;
 1631              		.loc 1 643 9 view .LVU535
 643:rtos/uC-USB-Device/Class/HID/usbd_hid_report.c ****             p_report_id->IdleCnt  = 0u;
 1632              		.loc 1 643 24 is_stmt 0 view .LVU536
 1633 0034 A57B     		ldrb	r5, [r4, #14]	@ zero_extendqisi2
 643:rtos/uC-USB-Device/Class/HID/usbd_hid_report.c ****             p_report_id->IdleCnt  = 0u;
 1634              		.loc 1 643 12 view .LVU537
 1635 0036 3DB9     		cbnz	r5, .L118
 644:rtos/uC-USB-Device/Class/HID/usbd_hid_report.c ****             p_report_id->Update   = DEF_NO;
 1636              		.loc 1 644 13 is_stmt 1 view .LVU538
 644:rtos/uC-USB-Device/Class/HID/usbd_hid_report.c ****             p_report_id->Update   = DEF_NO;
 1637              		.loc 1 644 35 is_stmt 0 view .LVU539
 1638 0038 0023     		movs	r3, #0
 1639 003a 6373     		strb	r3, [r4, #13]
 645:rtos/uC-USB-Device/Class/HID/usbd_hid_report.c **** 
 1640              		.loc 1 645 13 is_stmt 1 view .LVU540
 645:rtos/uC-USB-Device/Class/HID/usbd_hid_report.c **** 
 1641              		.loc 1 645 35 is_stmt 0 view .LVU541
 1642 003c E373     		strb	r3, [r4, #15]
 647:rtos/uC-USB-Device/Class/HID/usbd_hid_report.c ****                 USBD_HID_ReportID_TmrList    = p_report_id->TmrNextPtr;
 1643              		.loc 1 647 13 is_stmt 1 view .LVU542
 647:rtos/uC-USB-Device/Class/HID/usbd_hid_report.c ****                 USBD_HID_ReportID_TmrList    = p_report_id->TmrNextPtr;
ARM GAS  /tmp/cciyuUhu.s 			page 56


 1644              		.loc 1 647 16 is_stmt 0 view .LVU543
 1645 003e 002E     		cmp	r6, #0
 1646 0040 E9D0     		beq	.L129
 650:rtos/uC-USB-Device/Class/HID/usbd_hid_report.c ****             }
 1647              		.loc 1 650 17 is_stmt 1 view .LVU544
 650:rtos/uC-USB-Device/Class/HID/usbd_hid_report.c ****             }
 1648              		.loc 1 650 59 is_stmt 0 view .LVU545
 1649 0042 2369     		ldr	r3, [r4, #16]
 650:rtos/uC-USB-Device/Class/HID/usbd_hid_report.c ****             }
 1650              		.loc 1 650 46 view .LVU546
 1651 0044 3361     		str	r3, [r6, #16]
 1652 0046 E9E7     		b	.L120
 1653              	.L118:
 656:rtos/uC-USB-Device/Class/HID/usbd_hid_report.c ****                 p_report_id->Update  = DEF_NO;
 1654              		.loc 1 656 13 is_stmt 1 view .LVU547
 656:rtos/uC-USB-Device/Class/HID/usbd_hid_report.c ****                 p_report_id->Update  = DEF_NO;
 1655              		.loc 1 656 28 is_stmt 0 view .LVU548
 1656 0048 E37B     		ldrb	r3, [r4, #15]	@ zero_extendqisi2
 656:rtos/uC-USB-Device/Class/HID/usbd_hid_report.c ****                 p_report_id->Update  = DEF_NO;
 1657              		.loc 1 656 16 view .LVU549
 1658 004a 012B     		cmp	r3, #1
 1659 004c 06D0     		beq	.L130
 1660              	.L122:
 664:rtos/uC-USB-Device/Class/HID/usbd_hid_report.c ****                 p_report_id->IdleCnt--;
 1661              		.loc 1 664 13 is_stmt 1 view .LVU550
 664:rtos/uC-USB-Device/Class/HID/usbd_hid_report.c ****                 p_report_id->IdleCnt--;
 1662              		.loc 1 664 28 is_stmt 0 view .LVU551
 1663 004e 637B     		ldrb	r3, [r4, #13]	@ zero_extendqisi2
 664:rtos/uC-USB-Device/Class/HID/usbd_hid_report.c ****                 p_report_id->IdleCnt--;
 1664              		.loc 1 664 16 view .LVU552
 1665 0050 012B     		cmp	r3, #1
 1666 0052 0AD9     		bls	.L123
 665:rtos/uC-USB-Device/Class/HID/usbd_hid_report.c ****             } else {
 1667              		.loc 1 665 17 is_stmt 1 view .LVU553
 665:rtos/uC-USB-Device/Class/HID/usbd_hid_report.c ****             } else {
 1668              		.loc 1 665 37 is_stmt 0 view .LVU554
 1669 0054 013B     		subs	r3, r3, #1
 1670 0056 6373     		strb	r3, [r4, #13]
 640:rtos/uC-USB-Device/Class/HID/usbd_hid_report.c **** 
 1671              		.loc 1 640 17 view .LVU555
 1672 0058 0025     		movs	r5, #0
 1673 005a E1E7     		b	.L121
 1674              	.L130:
 657:rtos/uC-USB-Device/Class/HID/usbd_hid_report.c **** 
 1675              		.loc 1 657 17 is_stmt 1 view .LVU556
 657:rtos/uC-USB-Device/Class/HID/usbd_hid_report.c **** 
 1676              		.loc 1 657 38 is_stmt 0 view .LVU557
 1677 005c 0023     		movs	r3, #0
 1678 005e E373     		strb	r3, [r4, #15]
 659:rtos/uC-USB-Device/Class/HID/usbd_hid_report.c ****                     p_report_id->IdleCnt = p_report_id->IdleRate;
 1679              		.loc 1 659 17 is_stmt 1 view .LVU558
 659:rtos/uC-USB-Device/Class/HID/usbd_hid_report.c ****                     p_report_id->IdleCnt = p_report_id->IdleRate;
 1680              		.loc 1 659 32 is_stmt 0 view .LVU559
 1681 0060 637B     		ldrb	r3, [r4, #13]	@ zero_extendqisi2
 659:rtos/uC-USB-Device/Class/HID/usbd_hid_report.c ****                     p_report_id->IdleCnt = p_report_id->IdleRate;
 1682              		.loc 1 659 20 view .LVU560
 1683 0062 012B     		cmp	r3, #1
ARM GAS  /tmp/cciyuUhu.s 			page 57


 1684 0064 F3D9     		bls	.L122
 660:rtos/uC-USB-Device/Class/HID/usbd_hid_report.c ****                 }
 1685              		.loc 1 660 21 is_stmt 1 view .LVU561
 660:rtos/uC-USB-Device/Class/HID/usbd_hid_report.c ****                 }
 1686              		.loc 1 660 42 is_stmt 0 view .LVU562
 1687 0066 6573     		strb	r5, [r4, #13]
 1688 0068 F1E7     		b	.L122
 1689              	.L123:
 667:rtos/uC-USB-Device/Class/HID/usbd_hid_report.c ****                 service = DEF_YES;
 1690              		.loc 1 667 17 is_stmt 1 view .LVU563
 667:rtos/uC-USB-Device/Class/HID/usbd_hid_report.c ****                 service = DEF_YES;
 1691              		.loc 1 667 38 is_stmt 0 view .LVU564
 1692 006a 6573     		strb	r5, [r4, #13]
 668:rtos/uC-USB-Device/Class/HID/usbd_hid_report.c ****             }
 1693              		.loc 1 668 17 is_stmt 1 view .LVU565
 1694              	.LVL132:
 668:rtos/uC-USB-Device/Class/HID/usbd_hid_report.c ****             }
 1695              		.loc 1 668 25 is_stmt 0 view .LVU566
 1696 006c 0125     		movs	r5, #1
 1697 006e D7E7     		b	.L121
 1698              	.LVL133:
 1699              	.L127:
 674:rtos/uC-USB-Device/Class/HID/usbd_hid_report.c ****                         p_report_id->DataPtr,
 1700              		.loc 1 674 13 is_stmt 1 view .LVU567
 675:rtos/uC-USB-Device/Class/HID/usbd_hid_report.c ****                         p_report_id->Size,
 1701              		.loc 1 675 36 is_stmt 0 view .LVU568
 1702 0070 6168     		ldr	r1, [r4, #4]
 676:rtos/uC-USB-Device/Class/HID/usbd_hid_report.c ****                         100,
 1703              		.loc 1 676 36 view .LVU569
 1704 0072 6288     		ldrh	r2, [r4, #2]
 674:rtos/uC-USB-Device/Class/HID/usbd_hid_report.c ****                         p_report_id->DataPtr,
 1705              		.loc 1 674 13 view .LVU570
 1706 0074 207B     		ldrb	r0, [r4, #12]	@ zero_extendqisi2
 1707 0076 0DF10E03 		add	r3, sp, #14
 1708 007a 0093     		str	r3, [sp]
 1709 007c 6423     		movs	r3, #100
 1710 007e FFF7FEFF 		bl	USBD_HID_Wr
 1711              	.LVL134:
 1712 0082 D1E7     		b	.L124
 1713              	.LVL135:
 1714              	.L128:
 684:rtos/uC-USB-Device/Class/HID/usbd_hid_report.c **** 
 1715              		.loc 1 684 1 view .LVU571
 1716 0084 04B0     		add	sp, sp, #16
 1717              	.LCFI13:
 1718              		.cfi_def_cfa_offset 16
 1719              		@ sp needed
 1720 0086 70BD     		pop	{r4, r5, r6, pc}
 1721              	.LVL136:
 1722              	.L132:
 684:rtos/uC-USB-Device/Class/HID/usbd_hid_report.c **** 
 1723              		.loc 1 684 1 view .LVU572
 1724              		.align	2
 1725              	.L131:
 1726 0088 00000000 		.word	.LANCHOR2
 1727              		.cfi_endproc
 1728              	.LFE3:
ARM GAS  /tmp/cciyuUhu.s 			page 58


 1730              		.section	.text.USBD_HID_ReportID_IdleGet,"ax",%progbits
 1731              		.align	1
 1732              		.global	USBD_HID_ReportID_IdleGet
 1733              		.syntax unified
 1734              		.thumb
 1735              		.thumb_func
 1736              		.fpu fpv4-sp-d16
 1738              	USBD_HID_ReportID_IdleGet:
 1739              	.LVL137:
 1740              	.LFB4:
 712:rtos/uC-USB-Device/Class/HID/usbd_hid_report.c ****     USBD_HID_REPORT_ID  *p_report_id;
 1741              		.loc 1 712 1 is_stmt 1 view -0
 1742              		.cfi_startproc
 1743              		@ args = 0, pretend = 0, frame = 0
 1744              		@ frame_needed = 0, uses_anonymous_args = 0
 1745              		@ link register save eliminated.
 713:rtos/uC-USB-Device/Class/HID/usbd_hid_report.c **** 
 1746              		.loc 1 713 5 view .LVU574
 716:rtos/uC-USB-Device/Class/HID/usbd_hid_report.c **** 
 1747              		.loc 1 716 5 view .LVU575
 716:rtos/uC-USB-Device/Class/HID/usbd_hid_report.c **** 
 1748              		.loc 1 716 17 is_stmt 0 view .LVU576
 1749 0000 4369     		ldr	r3, [r0, #20]
 1750              	.LVL138:
 718:rtos/uC-USB-Device/Class/HID/usbd_hid_report.c ****         if (p_report_id->ID == report_id) {
 1751              		.loc 1 718 5 is_stmt 1 view .LVU577
 1752              	.L134:
 718:rtos/uC-USB-Device/Class/HID/usbd_hid_report.c ****         if (p_report_id->ID == report_id) {
 1753              		.loc 1 718 11 view .LVU578
 1754 0002 43B1     		cbz	r3, .L138
 719:rtos/uC-USB-Device/Class/HID/usbd_hid_report.c ****            *p_err = USBD_ERR_NONE;
 1755              		.loc 1 719 9 view .LVU579
 719:rtos/uC-USB-Device/Class/HID/usbd_hid_report.c ****            *p_err = USBD_ERR_NONE;
 1756              		.loc 1 719 24 is_stmt 0 view .LVU580
 1757 0004 1878     		ldrb	r0, [r3]	@ zero_extendqisi2
 719:rtos/uC-USB-Device/Class/HID/usbd_hid_report.c ****            *p_err = USBD_ERR_NONE;
 1758              		.loc 1 719 12 view .LVU581
 1759 0006 8842     		cmp	r0, r1
 1760 0008 01D0     		beq	.L139
 724:rtos/uC-USB-Device/Class/HID/usbd_hid_report.c ****     }
 1761              		.loc 1 724 9 is_stmt 1 view .LVU582
 724:rtos/uC-USB-Device/Class/HID/usbd_hid_report.c ****     }
 1762              		.loc 1 724 21 is_stmt 0 view .LVU583
 1763 000a 9B68     		ldr	r3, [r3, #8]
 1764              	.LVL139:
 724:rtos/uC-USB-Device/Class/HID/usbd_hid_report.c ****     }
 1765              		.loc 1 724 21 view .LVU584
 1766 000c F9E7     		b	.L134
 1767              	.L139:
 720:rtos/uC-USB-Device/Class/HID/usbd_hid_report.c ****             return (p_report_id->IdleRate);
 1768              		.loc 1 720 12 is_stmt 1 view .LVU585
 720:rtos/uC-USB-Device/Class/HID/usbd_hid_report.c ****             return (p_report_id->IdleRate);
 1769              		.loc 1 720 19 is_stmt 0 view .LVU586
 1770 000e 0021     		movs	r1, #0
 1771              	.LVL140:
 720:rtos/uC-USB-Device/Class/HID/usbd_hid_report.c ****             return (p_report_id->IdleRate);
 1772              		.loc 1 720 19 view .LVU587
ARM GAS  /tmp/cciyuUhu.s 			page 59


 1773 0010 1180     		strh	r1, [r2]	@ movhi
 721:rtos/uC-USB-Device/Class/HID/usbd_hid_report.c ****         }
 1774              		.loc 1 721 13 is_stmt 1 view .LVU588
 721:rtos/uC-USB-Device/Class/HID/usbd_hid_report.c ****         }
 1775              		.loc 1 721 32 is_stmt 0 view .LVU589
 1776 0012 987B     		ldrb	r0, [r3, #14]	@ zero_extendqisi2
 1777 0014 7047     		bx	lr
 1778              	.LVL141:
 1779              	.L138:
 727:rtos/uC-USB-Device/Class/HID/usbd_hid_report.c ****     return (0);
 1780              		.loc 1 727 4 is_stmt 1 view .LVU590
 727:rtos/uC-USB-Device/Class/HID/usbd_hid_report.c ****     return (0);
 1781              		.loc 1 727 11 is_stmt 0 view .LVU591
 1782 0016 0623     		movs	r3, #6
 1783              	.LVL142:
 727:rtos/uC-USB-Device/Class/HID/usbd_hid_report.c ****     return (0);
 1784              		.loc 1 727 11 view .LVU592
 1785 0018 1380     		strh	r3, [r2]	@ movhi
 728:rtos/uC-USB-Device/Class/HID/usbd_hid_report.c **** }
 1786              		.loc 1 728 5 is_stmt 1 view .LVU593
 728:rtos/uC-USB-Device/Class/HID/usbd_hid_report.c **** }
 1787              		.loc 1 728 12 is_stmt 0 view .LVU594
 1788 001a 0020     		movs	r0, #0
 729:rtos/uC-USB-Device/Class/HID/usbd_hid_report.c **** 
 1789              		.loc 1 729 1 view .LVU595
 1790 001c 7047     		bx	lr
 1791              		.cfi_endproc
 1792              	.LFE4:
 1794              		.section	.text.USBD_HID_ReportID_IdleSet,"ax",%progbits
 1795              		.align	1
 1796              		.global	USBD_HID_ReportID_IdleSet
 1797              		.syntax unified
 1798              		.thumb
 1799              		.thumb_func
 1800              		.fpu fpv4-sp-d16
 1802              	USBD_HID_ReportID_IdleSet:
 1803              	.LVL143:
 1804              	.LFB5:
 760:rtos/uC-USB-Device/Class/HID/usbd_hid_report.c ****     USBD_HID_REPORT_ID  *p_report_id;
 1805              		.loc 1 760 1 is_stmt 1 view -0
 1806              		.cfi_startproc
 1807              		@ args = 0, pretend = 0, frame = 0
 1808              		@ frame_needed = 0, uses_anonymous_args = 0
 760:rtos/uC-USB-Device/Class/HID/usbd_hid_report.c ****     USBD_HID_REPORT_ID  *p_report_id;
 1809              		.loc 1 760 1 is_stmt 0 view .LVU597
 1810 0000 F8B5     		push	{r3, r4, r5, r6, r7, lr}
 1811              	.LCFI14:
 1812              		.cfi_def_cfa_offset 24
 1813              		.cfi_offset 3, -24
 1814              		.cfi_offset 4, -20
 1815              		.cfi_offset 5, -16
 1816              		.cfi_offset 6, -12
 1817              		.cfi_offset 7, -8
 1818              		.cfi_offset 14, -4
 1819 0002 0D46     		mov	r5, r1
 1820 0004 1646     		mov	r6, r2
 1821 0006 1F46     		mov	r7, r3
ARM GAS  /tmp/cciyuUhu.s 			page 60


 761:rtos/uC-USB-Device/Class/HID/usbd_hid_report.c ****     CPU_SR_ALLOC();
 1822              		.loc 1 761 5 is_stmt 1 view .LVU598
 762:rtos/uC-USB-Device/Class/HID/usbd_hid_report.c **** 
 1823              		.loc 1 762 5 view .LVU599
 1824              	.LVL144:
 765:rtos/uC-USB-Device/Class/HID/usbd_hid_report.c **** 
 1825              		.loc 1 765 5 view .LVU600
 765:rtos/uC-USB-Device/Class/HID/usbd_hid_report.c **** 
 1826              		.loc 1 765 17 is_stmt 0 view .LVU601
 1827 0008 4469     		ldr	r4, [r0, #20]
 1828              	.LVL145:
 767:rtos/uC-USB-Device/Class/HID/usbd_hid_report.c **** 
 1829              		.loc 1 767 4 is_stmt 1 view .LVU602
 767:rtos/uC-USB-Device/Class/HID/usbd_hid_report.c **** 
 1830              		.loc 1 767 11 is_stmt 0 view .LVU603
 1831 000a 0623     		movs	r3, #6
 1832              	.LVL146:
 767:rtos/uC-USB-Device/Class/HID/usbd_hid_report.c **** 
 1833              		.loc 1 767 11 view .LVU604
 1834 000c 3B80     		strh	r3, [r7]	@ movhi
 769:rtos/uC-USB-Device/Class/HID/usbd_hid_report.c ****          if ((p_report_id->ID == report_id) ||
 1835              		.loc 1 769 5 is_stmt 1 view .LVU605
 769:rtos/uC-USB-Device/Class/HID/usbd_hid_report.c ****          if ((p_report_id->ID == report_id) ||
 1836              		.loc 1 769 11 is_stmt 0 view .LVU606
 1837 000e 08E0     		b	.L141
 1838              	.LVL147:
 1839              	.L145:
 780:rtos/uC-USB-Device/Class/HID/usbd_hid_report.c ****                  p_report_id->Update   = DEF_YES;
 1840              		.loc 1 780 18 is_stmt 1 view .LVU607
 780:rtos/uC-USB-Device/Class/HID/usbd_hid_report.c ****                  p_report_id->Update   = DEF_YES;
 1841              		.loc 1 780 40 is_stmt 0 view .LVU608
 1842 0010 A673     		strb	r6, [r4, #14]
 781:rtos/uC-USB-Device/Class/HID/usbd_hid_report.c **** 
 1843              		.loc 1 781 18 is_stmt 1 view .LVU609
 781:rtos/uC-USB-Device/Class/HID/usbd_hid_report.c **** 
 1844              		.loc 1 781 40 is_stmt 0 view .LVU610
 1845 0012 0123     		movs	r3, #1
 1846 0014 E373     		strb	r3, [r4, #15]
 783:rtos/uC-USB-Device/Class/HID/usbd_hid_report.c ****              } else {
 1847              		.loc 1 783 18 is_stmt 1 view .LVU611
 783:rtos/uC-USB-Device/Class/HID/usbd_hid_report.c ****              } else {
 1848              		.loc 1 783 18 view .LVU612
 783:rtos/uC-USB-Device/Class/HID/usbd_hid_report.c ****              } else {
 1849              		.loc 1 783 18 view .LVU613
 1850 0016 FFF7FEFF 		bl	CPU_SR_Restore
 1851              	.LVL148:
 783:rtos/uC-USB-Device/Class/HID/usbd_hid_report.c ****              } else {
 1852              		.loc 1 783 18 view .LVU614
 783:rtos/uC-USB-Device/Class/HID/usbd_hid_report.c ****              } else {
 1853              		.loc 1 783 18 view .LVU615
 1854              	.L146:
 787:rtos/uC-USB-Device/Class/HID/usbd_hid_report.c ****              }
 1855              		.loc 1 787 18 discriminator 1 view .LVU616
 787:rtos/uC-USB-Device/Class/HID/usbd_hid_report.c ****              }
 1856              		.loc 1 787 18 discriminator 1 view .LVU617
 790:rtos/uC-USB-Device/Class/HID/usbd_hid_report.c **** 
 1857              		.loc 1 790 13 discriminator 1 view .LVU618
ARM GAS  /tmp/cciyuUhu.s 			page 61


 790:rtos/uC-USB-Device/Class/HID/usbd_hid_report.c **** 
 1858              		.loc 1 790 20 is_stmt 0 discriminator 1 view .LVU619
 1859 001a 0021     		movs	r1, #0
 1860 001c 3980     		strh	r1, [r7]	@ movhi
 792:rtos/uC-USB-Device/Class/HID/usbd_hid_report.c ****                  return;
 1861              		.loc 1 792 14 is_stmt 1 discriminator 1 view .LVU620
 792:rtos/uC-USB-Device/Class/HID/usbd_hid_report.c ****                  return;
 1862              		.loc 1 792 17 is_stmt 0 discriminator 1 view .LVU621
 1863 001e D5B9     		cbnz	r5, .L140
 1864              	.L143:
 797:rtos/uC-USB-Device/Class/HID/usbd_hid_report.c ****      }
 1865              		.loc 1 797 10 is_stmt 1 view .LVU622
 797:rtos/uC-USB-Device/Class/HID/usbd_hid_report.c ****      }
 1866              		.loc 1 797 22 is_stmt 0 view .LVU623
 1867 0020 A468     		ldr	r4, [r4, #8]
 1868              	.LVL149:
 1869              	.L141:
 769:rtos/uC-USB-Device/Class/HID/usbd_hid_report.c ****          if ((p_report_id->ID == report_id) ||
 1870              		.loc 1 769 11 is_stmt 1 view .LVU624
 1871 0022 C4B1     		cbz	r4, .L140
 770:rtos/uC-USB-Device/Class/HID/usbd_hid_report.c ****              (  report_id     == USBD_HID_IDLE_ALL_REPORT)) {
 1872              		.loc 1 770 10 view .LVU625
 770:rtos/uC-USB-Device/Class/HID/usbd_hid_report.c ****              (  report_id     == USBD_HID_IDLE_ALL_REPORT)) {
 1873              		.loc 1 770 26 is_stmt 0 view .LVU626
 1874 0024 2178     		ldrb	r1, [r4]	@ zero_extendqisi2
 770:rtos/uC-USB-Device/Class/HID/usbd_hid_report.c ****              (  report_id     == USBD_HID_IDLE_ALL_REPORT)) {
 1875              		.loc 1 770 13 view .LVU627
 1876 0026 A942     		cmp	r1, r5
 1877 0028 01D0     		beq	.L142
 770:rtos/uC-USB-Device/Class/HID/usbd_hid_report.c ****              (  report_id     == USBD_HID_IDLE_ALL_REPORT)) {
 1878              		.loc 1 770 45 discriminator 1 view .LVU628
 1879 002a 002D     		cmp	r5, #0
 1880 002c F8D1     		bne	.L143
 1881              	.L142:
 772:rtos/uC-USB-Device/Class/HID/usbd_hid_report.c ****                  CPU_CRITICAL_ENTER();
 1882              		.loc 1 772 14 is_stmt 1 view .LVU629
 772:rtos/uC-USB-Device/Class/HID/usbd_hid_report.c ****                  CPU_CRITICAL_ENTER();
 1883              		.loc 1 772 17 is_stmt 0 view .LVU630
 1884 002e 56B1     		cbz	r6, .L144
 773:rtos/uC-USB-Device/Class/HID/usbd_hid_report.c ****                                                          /* Add report ID into timer list.         
 1885              		.loc 1 773 18 is_stmt 1 view .LVU631
 773:rtos/uC-USB-Device/Class/HID/usbd_hid_report.c ****                                                          /* Add report ID into timer list.         
 1886              		.loc 1 773 18 view .LVU632
 773:rtos/uC-USB-Device/Class/HID/usbd_hid_report.c ****                                                          /* Add report ID into timer list.         
 1887              		.loc 1 773 18 view .LVU633
 1888 0030 4020     		movs	r0, #64
 1889 0032 FFF7FEFF 		bl	CPU_SR_Save
 1890              	.LVL150:
 773:rtos/uC-USB-Device/Class/HID/usbd_hid_report.c ****                                                          /* Add report ID into timer list.         
 1891              		.loc 1 773 18 view .LVU634
 773:rtos/uC-USB-Device/Class/HID/usbd_hid_report.c ****                                                          /* Add report ID into timer list.         
 1892              		.loc 1 773 18 view .LVU635
 775:rtos/uC-USB-Device/Class/HID/usbd_hid_report.c ****                      p_report_id->TmrNextPtr   = USBD_HID_ReportID_TmrList;
 1893              		.loc 1 775 18 view .LVU636
 775:rtos/uC-USB-Device/Class/HID/usbd_hid_report.c ****                      p_report_id->TmrNextPtr   = USBD_HID_ReportID_TmrList;
 1894              		.loc 1 775 33 is_stmt 0 view .LVU637
 1895 0036 A37B     		ldrb	r3, [r4, #14]	@ zero_extendqisi2
ARM GAS  /tmp/cciyuUhu.s 			page 62


 775:rtos/uC-USB-Device/Class/HID/usbd_hid_report.c ****                      p_report_id->TmrNextPtr   = USBD_HID_ReportID_TmrList;
 1896              		.loc 1 775 21 view .LVU638
 1897 0038 002B     		cmp	r3, #0
 1898 003a E9D1     		bne	.L145
 776:rtos/uC-USB-Device/Class/HID/usbd_hid_report.c ****                      USBD_HID_ReportID_TmrList = p_report_id;
 1899              		.loc 1 776 22 is_stmt 1 view .LVU639
 776:rtos/uC-USB-Device/Class/HID/usbd_hid_report.c ****                      USBD_HID_ReportID_TmrList = p_report_id;
 1900              		.loc 1 776 48 is_stmt 0 view .LVU640
 1901 003c 064B     		ldr	r3, .L150
 1902 003e 1A68     		ldr	r2, [r3]
 1903 0040 2261     		str	r2, [r4, #16]
 777:rtos/uC-USB-Device/Class/HID/usbd_hid_report.c ****                  }
 1904              		.loc 1 777 22 is_stmt 1 view .LVU641
 777:rtos/uC-USB-Device/Class/HID/usbd_hid_report.c ****                  }
 1905              		.loc 1 777 48 is_stmt 0 view .LVU642
 1906 0042 1C60     		str	r4, [r3]
 1907 0044 E4E7     		b	.L145
 1908              	.LVL151:
 1909              	.L144:
 785:rtos/uC-USB-Device/Class/HID/usbd_hid_report.c ****                  p_report_id->IdleRate = USBD_HID_IDLE_INFINITE;
 1910              		.loc 1 785 18 is_stmt 1 view .LVU643
 785:rtos/uC-USB-Device/Class/HID/usbd_hid_report.c ****                  p_report_id->IdleRate = USBD_HID_IDLE_INFINITE;
 1911              		.loc 1 785 18 view .LVU644
 785:rtos/uC-USB-Device/Class/HID/usbd_hid_report.c ****                  p_report_id->IdleRate = USBD_HID_IDLE_INFINITE;
 1912              		.loc 1 785 18 view .LVU645
 1913 0046 4020     		movs	r0, #64
 1914 0048 FFF7FEFF 		bl	CPU_SR_Save
 1915              	.LVL152:
 785:rtos/uC-USB-Device/Class/HID/usbd_hid_report.c ****                  p_report_id->IdleRate = USBD_HID_IDLE_INFINITE;
 1916              		.loc 1 785 18 view .LVU646
 785:rtos/uC-USB-Device/Class/HID/usbd_hid_report.c ****                  p_report_id->IdleRate = USBD_HID_IDLE_INFINITE;
 1917              		.loc 1 785 18 view .LVU647
 786:rtos/uC-USB-Device/Class/HID/usbd_hid_report.c ****                  CPU_CRITICAL_EXIT();
 1918              		.loc 1 786 18 view .LVU648
 786:rtos/uC-USB-Device/Class/HID/usbd_hid_report.c ****                  CPU_CRITICAL_EXIT();
 1919              		.loc 1 786 40 is_stmt 0 view .LVU649
 1920 004c 0023     		movs	r3, #0
 1921 004e A373     		strb	r3, [r4, #14]
 787:rtos/uC-USB-Device/Class/HID/usbd_hid_report.c ****              }
 1922              		.loc 1 787 18 is_stmt 1 view .LVU650
 787:rtos/uC-USB-Device/Class/HID/usbd_hid_report.c ****              }
 1923              		.loc 1 787 18 view .LVU651
 787:rtos/uC-USB-Device/Class/HID/usbd_hid_report.c ****              }
 1924              		.loc 1 787 18 view .LVU652
 1925 0050 FFF7FEFF 		bl	CPU_SR_Restore
 1926              	.LVL153:
 787:rtos/uC-USB-Device/Class/HID/usbd_hid_report.c ****              }
 1927              		.loc 1 787 18 is_stmt 0 view .LVU653
 1928 0054 E1E7     		b	.L146
 1929              	.L140:
 799:rtos/uC-USB-Device/Class/HID/usbd_hid_report.c **** 
 1930              		.loc 1 799 1 view .LVU654
 1931 0056 F8BD     		pop	{r3, r4, r5, r6, r7, pc}
 1932              	.LVL154:
 1933              	.L151:
 799:rtos/uC-USB-Device/Class/HID/usbd_hid_report.c **** 
 1934              		.loc 1 799 1 view .LVU655
ARM GAS  /tmp/cciyuUhu.s 			page 63


 1935              		.align	2
 1936              	.L150:
 1937 0058 00000000 		.word	.LANCHOR2
 1938              		.cfi_endproc
 1939              	.LFE5:
 1941              		.section	.text.USBD_HID_Report_RemoveAllIdle,"ax",%progbits
 1942              		.align	1
 1943              		.global	USBD_HID_Report_RemoveAllIdle
 1944              		.syntax unified
 1945              		.thumb
 1946              		.thumb_func
 1947              		.fpu fpv4-sp-d16
 1949              	USBD_HID_Report_RemoveAllIdle:
 1950              	.LVL155:
 1951              	.LFB6:
 823:rtos/uC-USB-Device/Class/HID/usbd_hid_report.c ****     USBD_HID_REPORT_ID  *p_report_id;
 1952              		.loc 1 823 1 is_stmt 1 view -0
 1953              		.cfi_startproc
 1954              		@ args = 0, pretend = 0, frame = 0
 1955              		@ frame_needed = 0, uses_anonymous_args = 0
 823:rtos/uC-USB-Device/Class/HID/usbd_hid_report.c ****     USBD_HID_REPORT_ID  *p_report_id;
 1956              		.loc 1 823 1 is_stmt 0 view .LVU657
 1957 0000 10B5     		push	{r4, lr}
 1958              	.LCFI15:
 1959              		.cfi_def_cfa_offset 8
 1960              		.cfi_offset 4, -8
 1961              		.cfi_offset 14, -4
 824:rtos/uC-USB-Device/Class/HID/usbd_hid_report.c ****     CPU_SR_ALLOC();
 1962              		.loc 1 824 5 is_stmt 1 view .LVU658
 825:rtos/uC-USB-Device/Class/HID/usbd_hid_report.c **** 
 1963              		.loc 1 825 5 view .LVU659
 1964              	.LVL156:
 828:rtos/uC-USB-Device/Class/HID/usbd_hid_report.c **** 
 1965              		.loc 1 828 5 view .LVU660
 828:rtos/uC-USB-Device/Class/HID/usbd_hid_report.c **** 
 1966              		.loc 1 828 17 is_stmt 0 view .LVU661
 1967 0002 4469     		ldr	r4, [r0, #20]
 1968              	.LVL157:
 830:rtos/uC-USB-Device/Class/HID/usbd_hid_report.c ****         CPU_CRITICAL_ENTER();                                   /* Remove only reports present on t
 1969              		.loc 1 830 5 is_stmt 1 view .LVU662
 830:rtos/uC-USB-Device/Class/HID/usbd_hid_report.c ****         CPU_CRITICAL_ENTER();                                   /* Remove only reports present on t
 1970              		.loc 1 830 11 is_stmt 0 view .LVU663
 1971 0004 02E0     		b	.L153
 1972              	.LVL158:
 1973              	.L154:
 835:rtos/uC-USB-Device/Class/HID/usbd_hid_report.c **** 
 1974              		.loc 1 835 9 is_stmt 1 view .LVU664
 835:rtos/uC-USB-Device/Class/HID/usbd_hid_report.c **** 
 1975              		.loc 1 835 9 view .LVU665
 835:rtos/uC-USB-Device/Class/HID/usbd_hid_report.c **** 
 1976              		.loc 1 835 9 view .LVU666
 1977 0006 FFF7FEFF 		bl	CPU_SR_Restore
 1978              	.LVL159:
 835:rtos/uC-USB-Device/Class/HID/usbd_hid_report.c **** 
 1979              		.loc 1 835 9 view .LVU667
 835:rtos/uC-USB-Device/Class/HID/usbd_hid_report.c **** 
 1980              		.loc 1 835 9 view .LVU668
ARM GAS  /tmp/cciyuUhu.s 			page 64


 837:rtos/uC-USB-Device/Class/HID/usbd_hid_report.c ****     }
 1981              		.loc 1 837 9 view .LVU669
 837:rtos/uC-USB-Device/Class/HID/usbd_hid_report.c ****     }
 1982              		.loc 1 837 21 is_stmt 0 view .LVU670
 1983 000a A468     		ldr	r4, [r4, #8]
 1984              	.LVL160:
 1985              	.L153:
 830:rtos/uC-USB-Device/Class/HID/usbd_hid_report.c ****         CPU_CRITICAL_ENTER();                                   /* Remove only reports present on t
 1986              		.loc 1 830 11 is_stmt 1 view .LVU671
 1987 000c 44B1     		cbz	r4, .L157
 831:rtos/uC-USB-Device/Class/HID/usbd_hid_report.c ****         if (p_report_id->TmrNextPtr != (USBD_HID_REPORT_ID *)0) {
 1988              		.loc 1 831 9 view .LVU672
 831:rtos/uC-USB-Device/Class/HID/usbd_hid_report.c ****         if (p_report_id->TmrNextPtr != (USBD_HID_REPORT_ID *)0) {
 1989              		.loc 1 831 9 view .LVU673
 831:rtos/uC-USB-Device/Class/HID/usbd_hid_report.c ****         if (p_report_id->TmrNextPtr != (USBD_HID_REPORT_ID *)0) {
 1990              		.loc 1 831 9 view .LVU674
 1991 000e 4020     		movs	r0, #64
 1992 0010 FFF7FEFF 		bl	CPU_SR_Save
 1993              	.LVL161:
 831:rtos/uC-USB-Device/Class/HID/usbd_hid_report.c ****         if (p_report_id->TmrNextPtr != (USBD_HID_REPORT_ID *)0) {
 1994              		.loc 1 831 9 view .LVU675
 831:rtos/uC-USB-Device/Class/HID/usbd_hid_report.c ****         if (p_report_id->TmrNextPtr != (USBD_HID_REPORT_ID *)0) {
 1995              		.loc 1 831 9 view .LVU676
 832:rtos/uC-USB-Device/Class/HID/usbd_hid_report.c ****             p_report_id->IdleRate = USBD_HID_IDLE_INFINITE;
 1996              		.loc 1 832 9 view .LVU677
 832:rtos/uC-USB-Device/Class/HID/usbd_hid_report.c ****             p_report_id->IdleRate = USBD_HID_IDLE_INFINITE;
 1997              		.loc 1 832 24 is_stmt 0 view .LVU678
 1998 0014 2369     		ldr	r3, [r4, #16]
 832:rtos/uC-USB-Device/Class/HID/usbd_hid_report.c ****             p_report_id->IdleRate = USBD_HID_IDLE_INFINITE;
 1999              		.loc 1 832 12 view .LVU679
 2000 0016 002B     		cmp	r3, #0
 2001 0018 F5D0     		beq	.L154
 833:rtos/uC-USB-Device/Class/HID/usbd_hid_report.c ****         }
 2002              		.loc 1 833 13 is_stmt 1 view .LVU680
 833:rtos/uC-USB-Device/Class/HID/usbd_hid_report.c ****         }
 2003              		.loc 1 833 35 is_stmt 0 view .LVU681
 2004 001a 0023     		movs	r3, #0
 2005 001c A373     		strb	r3, [r4, #14]
 2006 001e F2E7     		b	.L154
 2007              	.LVL162:
 2008              	.L157:
 839:rtos/uC-USB-Device/Class/HID/usbd_hid_report.c **** 
 2009              		.loc 1 839 1 view .LVU682
 2010 0020 10BD     		pop	{r4, pc}
 839:rtos/uC-USB-Device/Class/HID/usbd_hid_report.c **** 
 2011              		.loc 1 839 1 view .LVU683
 2012              		.cfi_endproc
 2013              	.LFE6:
 2015              		.section	.bss.USBD_HID_ReportID_Tbl,"aw",%nobits
 2016              		.align	2
 2017              		.set	.LANCHOR1,. + 0
 2020              	USBD_HID_ReportID_Tbl:
 2021 0000 00000000 		.space	20
 2021      00000000 
 2021      00000000 
 2021      00000000 
 2021      00000000 
ARM GAS  /tmp/cciyuUhu.s 			page 65


 2022              		.section	.bss.USBD_HID_ReportID_Tbl_Ix,"aw",%nobits
 2023              		.align	1
 2024              		.set	.LANCHOR0,. + 0
 2027              	USBD_HID_ReportID_Tbl_Ix:
 2028 0000 0000     		.space	2
 2029              		.section	.bss.USBD_HID_ReportID_TmrList,"aw",%nobits
 2030              		.align	2
 2031              		.set	.LANCHOR2,. + 0
 2034              	USBD_HID_ReportID_TmrList:
 2035 0000 00000000 		.space	4
 2036              		.text
 2037              	.Letext0:
 2038              		.file 2 "rtos/uC-CPU/ARM-Cortex-M/ARMv7-M/GNU/cpu.h"
 2039              		.file 3 "rtos/uC-LIB/lib_def.h"
 2040              		.file 4 "rtos/uC-USB-Device/Class/HID/../../Source/usbd_core.h"
 2041              		.file 5 "rtos/uC-USB-Device/Class/HID/usbd_hid_report.h"
 2042              		.file 6 "rtos/uC-USB-Device/Class/HID/usbd_hid.h"
 2043              		.file 7 "rtos/uC-LIB/lib_mem.h"
ARM GAS  /tmp/cciyuUhu.s 			page 66

