ARM GAS  /tmp/ccTY94oP.s 			page 1


   1              		.cpu cortex-m4
   2              		.eabi_attribute 27, 1
   3              		.eabi_attribute 28, 1
   4              		.eabi_attribute 20, 1
   5              		.eabi_attribute 21, 1
   6              		.eabi_attribute 23, 3
   7              		.eabi_attribute 24, 1
   8              		.eabi_attribute 25, 1
   9              		.eabi_attribute 26, 1
  10              		.eabi_attribute 30, 1
  11              		.eabi_attribute 34, 1
  12              		.eabi_attribute 18, 4
  13              		.file	"usbd_drv_lib.c"
  14              		.text
  15              	.Ltext0:
  16              		.cfi_sections	.debug_frame
  17              		.section	.text.USBD_DrvLib_SetupPktQSend,"ax",%progbits
  18              		.align	1
  19              		.arch armv7e-m
  20              		.syntax unified
  21              		.thumb
  22              		.thumb_func
  23              		.fpu fpv4-sp-d16
  25              	USBD_DrvLib_SetupPktQSend:
  26              	.LVL0:
  27              	.LFB4:
  28              		.file 1 "rtos/uC-USB-Device/Drivers/drv_lib/usbd_drv_lib.c"
   1:rtos/uC-USB-Device/Drivers/drv_lib/usbd_drv_lib.c **** /*
   2:rtos/uC-USB-Device/Drivers/drv_lib/usbd_drv_lib.c **** ***************************************************************************************************
   3:rtos/uC-USB-Device/Drivers/drv_lib/usbd_drv_lib.c **** *                                            uC/USB-Device
   4:rtos/uC-USB-Device/Drivers/drv_lib/usbd_drv_lib.c **** *                                    The Embedded USB Device Stack
   5:rtos/uC-USB-Device/Drivers/drv_lib/usbd_drv_lib.c **** *
   6:rtos/uC-USB-Device/Drivers/drv_lib/usbd_drv_lib.c **** *                         (c) Copyright 2004-2019; Silicon Laboratories Inc.,
   7:rtos/uC-USB-Device/Drivers/drv_lib/usbd_drv_lib.c **** *                                400 W. Cesar Chavez, Austin, TX 78701
   8:rtos/uC-USB-Device/Drivers/drv_lib/usbd_drv_lib.c **** *
   9:rtos/uC-USB-Device/Drivers/drv_lib/usbd_drv_lib.c **** *                   All rights reserved. Protected by international copyright laws.
  10:rtos/uC-USB-Device/Drivers/drv_lib/usbd_drv_lib.c **** *
  11:rtos/uC-USB-Device/Drivers/drv_lib/usbd_drv_lib.c **** *                  Your use of this software is subject to your acceptance of the terms
  12:rtos/uC-USB-Device/Drivers/drv_lib/usbd_drv_lib.c **** *                  of a Silicon Labs Micrium software license, which can be obtained by
  13:rtos/uC-USB-Device/Drivers/drv_lib/usbd_drv_lib.c **** *                  contacting info@micrium.com. If you do not agree to the terms of this
  14:rtos/uC-USB-Device/Drivers/drv_lib/usbd_drv_lib.c **** *                  license, you may not use this software.
  15:rtos/uC-USB-Device/Drivers/drv_lib/usbd_drv_lib.c **** *
  16:rtos/uC-USB-Device/Drivers/drv_lib/usbd_drv_lib.c **** *                  Please help us continue to provide the Embedded community with the finest
  17:rtos/uC-USB-Device/Drivers/drv_lib/usbd_drv_lib.c **** *                  software available. Your honesty is greatly appreciated.
  18:rtos/uC-USB-Device/Drivers/drv_lib/usbd_drv_lib.c **** *
  19:rtos/uC-USB-Device/Drivers/drv_lib/usbd_drv_lib.c **** *                    You can find our product's documentation at: doc.micrium.com
  20:rtos/uC-USB-Device/Drivers/drv_lib/usbd_drv_lib.c **** *
  21:rtos/uC-USB-Device/Drivers/drv_lib/usbd_drv_lib.c **** *                          For more information visit us at: www.micrium.com
  22:rtos/uC-USB-Device/Drivers/drv_lib/usbd_drv_lib.c **** ***************************************************************************************************
  23:rtos/uC-USB-Device/Drivers/drv_lib/usbd_drv_lib.c **** */
  24:rtos/uC-USB-Device/Drivers/drv_lib/usbd_drv_lib.c **** 
  25:rtos/uC-USB-Device/Drivers/drv_lib/usbd_drv_lib.c **** /*
  26:rtos/uC-USB-Device/Drivers/drv_lib/usbd_drv_lib.c **** ***************************************************************************************************
  27:rtos/uC-USB-Device/Drivers/drv_lib/usbd_drv_lib.c **** *
  28:rtos/uC-USB-Device/Drivers/drv_lib/usbd_drv_lib.c **** *                                           USB DEVICE DRIVER
  29:rtos/uC-USB-Device/Drivers/drv_lib/usbd_drv_lib.c **** *
  30:rtos/uC-USB-Device/Drivers/drv_lib/usbd_drv_lib.c **** *                                            Common library
ARM GAS  /tmp/ccTY94oP.s 			page 2


  31:rtos/uC-USB-Device/Drivers/drv_lib/usbd_drv_lib.c **** *
  32:rtos/uC-USB-Device/Drivers/drv_lib/usbd_drv_lib.c **** * Filename : usbd_drv_lib.c
  33:rtos/uC-USB-Device/Drivers/drv_lib/usbd_drv_lib.c **** * Version  : V4.05.06
  34:rtos/uC-USB-Device/Drivers/drv_lib/usbd_drv_lib.c **** ***************************************************************************************************
  35:rtos/uC-USB-Device/Drivers/drv_lib/usbd_drv_lib.c **** * Note(s)  : (1) This library offers some functions useful to some drivers.
  36:rtos/uC-USB-Device/Drivers/drv_lib/usbd_drv_lib.c **** ***************************************************************************************************
  37:rtos/uC-USB-Device/Drivers/drv_lib/usbd_drv_lib.c **** */
  38:rtos/uC-USB-Device/Drivers/drv_lib/usbd_drv_lib.c **** 
  39:rtos/uC-USB-Device/Drivers/drv_lib/usbd_drv_lib.c **** /*
  40:rtos/uC-USB-Device/Drivers/drv_lib/usbd_drv_lib.c **** ***************************************************************************************************
  41:rtos/uC-USB-Device/Drivers/drv_lib/usbd_drv_lib.c **** *                                             INCLUDE FILES
  42:rtos/uC-USB-Device/Drivers/drv_lib/usbd_drv_lib.c **** ***************************************************************************************************
  43:rtos/uC-USB-Device/Drivers/drv_lib/usbd_drv_lib.c **** */
  44:rtos/uC-USB-Device/Drivers/drv_lib/usbd_drv_lib.c **** 
  45:rtos/uC-USB-Device/Drivers/drv_lib/usbd_drv_lib.c **** #include  "../../Source/usbd_core.h"
  46:rtos/uC-USB-Device/Drivers/drv_lib/usbd_drv_lib.c **** #include  "usbd_drv_lib.h"
  47:rtos/uC-USB-Device/Drivers/drv_lib/usbd_drv_lib.c **** 
  48:rtos/uC-USB-Device/Drivers/drv_lib/usbd_drv_lib.c **** 
  49:rtos/uC-USB-Device/Drivers/drv_lib/usbd_drv_lib.c **** /*
  50:rtos/uC-USB-Device/Drivers/drv_lib/usbd_drv_lib.c **** ***************************************************************************************************
  51:rtos/uC-USB-Device/Drivers/drv_lib/usbd_drv_lib.c **** *                                             LOCAL MACROS
  52:rtos/uC-USB-Device/Drivers/drv_lib/usbd_drv_lib.c **** ***************************************************************************************************
  53:rtos/uC-USB-Device/Drivers/drv_lib/usbd_drv_lib.c **** */
  54:rtos/uC-USB-Device/Drivers/drv_lib/usbd_drv_lib.c **** 
  55:rtos/uC-USB-Device/Drivers/drv_lib/usbd_drv_lib.c **** 
  56:rtos/uC-USB-Device/Drivers/drv_lib/usbd_drv_lib.c **** /*
  57:rtos/uC-USB-Device/Drivers/drv_lib/usbd_drv_lib.c **** ***************************************************************************************************
  58:rtos/uC-USB-Device/Drivers/drv_lib/usbd_drv_lib.c **** *                                           LOCAL DATA TYPES
  59:rtos/uC-USB-Device/Drivers/drv_lib/usbd_drv_lib.c **** ***************************************************************************************************
  60:rtos/uC-USB-Device/Drivers/drv_lib/usbd_drv_lib.c **** */
  61:rtos/uC-USB-Device/Drivers/drv_lib/usbd_drv_lib.c **** 
  62:rtos/uC-USB-Device/Drivers/drv_lib/usbd_drv_lib.c **** 
  63:rtos/uC-USB-Device/Drivers/drv_lib/usbd_drv_lib.c **** /*
  64:rtos/uC-USB-Device/Drivers/drv_lib/usbd_drv_lib.c **** ***************************************************************************************************
  65:rtos/uC-USB-Device/Drivers/drv_lib/usbd_drv_lib.c **** *                                           GLOBAL VARIABLES
  66:rtos/uC-USB-Device/Drivers/drv_lib/usbd_drv_lib.c **** ***************************************************************************************************
  67:rtos/uC-USB-Device/Drivers/drv_lib/usbd_drv_lib.c **** */
  68:rtos/uC-USB-Device/Drivers/drv_lib/usbd_drv_lib.c **** 
  69:rtos/uC-USB-Device/Drivers/drv_lib/usbd_drv_lib.c **** 
  70:rtos/uC-USB-Device/Drivers/drv_lib/usbd_drv_lib.c **** /*
  71:rtos/uC-USB-Device/Drivers/drv_lib/usbd_drv_lib.c **** ***************************************************************************************************
  72:rtos/uC-USB-Device/Drivers/drv_lib/usbd_drv_lib.c **** *                                       LOCAL FUNCTION PROTOTYPES
  73:rtos/uC-USB-Device/Drivers/drv_lib/usbd_drv_lib.c **** ***************************************************************************************************
  74:rtos/uC-USB-Device/Drivers/drv_lib/usbd_drv_lib.c **** */
  75:rtos/uC-USB-Device/Drivers/drv_lib/usbd_drv_lib.c **** 
  76:rtos/uC-USB-Device/Drivers/drv_lib/usbd_drv_lib.c **** static  void  USBD_DrvLib_SetupPktQSend (USBD_DRV_LIB_SETUP_PKT_Q  *p_setup_pkt_q,
  77:rtos/uC-USB-Device/Drivers/drv_lib/usbd_drv_lib.c ****                                          USBD_DRV                  *p_drv);
  78:rtos/uC-USB-Device/Drivers/drv_lib/usbd_drv_lib.c **** 
  79:rtos/uC-USB-Device/Drivers/drv_lib/usbd_drv_lib.c **** 
  80:rtos/uC-USB-Device/Drivers/drv_lib/usbd_drv_lib.c **** /*
  81:rtos/uC-USB-Device/Drivers/drv_lib/usbd_drv_lib.c **** ***************************************************************************************************
  82:rtos/uC-USB-Device/Drivers/drv_lib/usbd_drv_lib.c **** *                                     LOCAL CONFIGURATION ERRORS
  83:rtos/uC-USB-Device/Drivers/drv_lib/usbd_drv_lib.c **** ***************************************************************************************************
  84:rtos/uC-USB-Device/Drivers/drv_lib/usbd_drv_lib.c **** */
  85:rtos/uC-USB-Device/Drivers/drv_lib/usbd_drv_lib.c **** 
  86:rtos/uC-USB-Device/Drivers/drv_lib/usbd_drv_lib.c **** 
  87:rtos/uC-USB-Device/Drivers/drv_lib/usbd_drv_lib.c **** /*
ARM GAS  /tmp/ccTY94oP.s 			page 3


  88:rtos/uC-USB-Device/Drivers/drv_lib/usbd_drv_lib.c **** ***************************************************************************************************
  89:rtos/uC-USB-Device/Drivers/drv_lib/usbd_drv_lib.c **** ***************************************************************************************************
  90:rtos/uC-USB-Device/Drivers/drv_lib/usbd_drv_lib.c **** *                                          GLOBAL FUNCTIONS
  91:rtos/uC-USB-Device/Drivers/drv_lib/usbd_drv_lib.c **** ***************************************************************************************************
  92:rtos/uC-USB-Device/Drivers/drv_lib/usbd_drv_lib.c **** ***************************************************************************************************
  93:rtos/uC-USB-Device/Drivers/drv_lib/usbd_drv_lib.c **** */
  94:rtos/uC-USB-Device/Drivers/drv_lib/usbd_drv_lib.c **** 
  95:rtos/uC-USB-Device/Drivers/drv_lib/usbd_drv_lib.c **** 
  96:rtos/uC-USB-Device/Drivers/drv_lib/usbd_drv_lib.c **** /*
  97:rtos/uC-USB-Device/Drivers/drv_lib/usbd_drv_lib.c **** ***************************************************************************************************
  98:rtos/uC-USB-Device/Drivers/drv_lib/usbd_drv_lib.c **** *                                     USBD_DrvLib_SetupPktQInit()
  99:rtos/uC-USB-Device/Drivers/drv_lib/usbd_drv_lib.c **** *
 100:rtos/uC-USB-Device/Drivers/drv_lib/usbd_drv_lib.c **** * Description : Initializes structure used to handle the setup packet Q-ing.
 101:rtos/uC-USB-Device/Drivers/drv_lib/usbd_drv_lib.c **** *
 102:rtos/uC-USB-Device/Drivers/drv_lib/usbd_drv_lib.c **** * Argument(s) : p_setup_pkt_q       Pointer to setup packet queue structure.
 103:rtos/uC-USB-Device/Drivers/drv_lib/usbd_drv_lib.c **** *
 104:rtos/uC-USB-Device/Drivers/drv_lib/usbd_drv_lib.c **** *               q_size              Number of setup packet that the queue contains.
 105:rtos/uC-USB-Device/Drivers/drv_lib/usbd_drv_lib.c **** *
 106:rtos/uC-USB-Device/Drivers/drv_lib/usbd_drv_lib.c **** *               p_err           Pointer to variable that will receive the error code from this func
 107:rtos/uC-USB-Device/Drivers/drv_lib/usbd_drv_lib.c **** *
 108:rtos/uC-USB-Device/Drivers/drv_lib/usbd_drv_lib.c **** *                               USBD_ERR_NONE       Operation was successful.
 109:rtos/uC-USB-Device/Drivers/drv_lib/usbd_drv_lib.c **** *                               USBD_ERR_ALLOC      Cannot allocate setup packet queue.
 110:rtos/uC-USB-Device/Drivers/drv_lib/usbd_drv_lib.c **** *
 111:rtos/uC-USB-Device/Drivers/drv_lib/usbd_drv_lib.c **** * Return(s)   : None.
 112:rtos/uC-USB-Device/Drivers/drv_lib/usbd_drv_lib.c **** *
 113:rtos/uC-USB-Device/Drivers/drv_lib/usbd_drv_lib.c **** * Note(s)     : (1) This function must be called from the init() function of the driver to create a
 114:rtos/uC-USB-Device/Drivers/drv_lib/usbd_drv_lib.c **** *                   setup packet queue.
 115:rtos/uC-USB-Device/Drivers/drv_lib/usbd_drv_lib.c **** ***************************************************************************************************
 116:rtos/uC-USB-Device/Drivers/drv_lib/usbd_drv_lib.c **** */
 117:rtos/uC-USB-Device/Drivers/drv_lib/usbd_drv_lib.c **** 
 118:rtos/uC-USB-Device/Drivers/drv_lib/usbd_drv_lib.c **** void  USBD_DrvLib_SetupPktQInit (USBD_DRV_LIB_SETUP_PKT_Q  *p_setup_pkt_q,
 119:rtos/uC-USB-Device/Drivers/drv_lib/usbd_drv_lib.c ****                                  CPU_INT08U                 q_size,
 120:rtos/uC-USB-Device/Drivers/drv_lib/usbd_drv_lib.c ****                                  USBD_ERR                  *p_err)
 121:rtos/uC-USB-Device/Drivers/drv_lib/usbd_drv_lib.c **** {
 122:rtos/uC-USB-Device/Drivers/drv_lib/usbd_drv_lib.c ****     LIB_ERR  err_lib;
 123:rtos/uC-USB-Device/Drivers/drv_lib/usbd_drv_lib.c **** 
 124:rtos/uC-USB-Device/Drivers/drv_lib/usbd_drv_lib.c **** 
 125:rtos/uC-USB-Device/Drivers/drv_lib/usbd_drv_lib.c ****     p_setup_pkt_q->SetupPktTblPtr = (USBD_DRV_LIB_SETUP_PKT *)Mem_HeapAlloc(             (q_size * 
 126:rtos/uC-USB-Device/Drivers/drv_lib/usbd_drv_lib.c ****                                                                                           sizeof(CP
 127:rtos/uC-USB-Device/Drivers/drv_lib/usbd_drv_lib.c ****                                                                             (CPU_SIZE_T *)0,
 128:rtos/uC-USB-Device/Drivers/drv_lib/usbd_drv_lib.c ****                                                                                          &err_lib);
 129:rtos/uC-USB-Device/Drivers/drv_lib/usbd_drv_lib.c ****     if (err_lib != LIB_MEM_ERR_NONE) {
 130:rtos/uC-USB-Device/Drivers/drv_lib/usbd_drv_lib.c ****        *p_err = USBD_ERR_ALLOC;
 131:rtos/uC-USB-Device/Drivers/drv_lib/usbd_drv_lib.c ****         return;
 132:rtos/uC-USB-Device/Drivers/drv_lib/usbd_drv_lib.c ****     }
 133:rtos/uC-USB-Device/Drivers/drv_lib/usbd_drv_lib.c **** 
 134:rtos/uC-USB-Device/Drivers/drv_lib/usbd_drv_lib.c ****     p_setup_pkt_q->TblLen = q_size;
 135:rtos/uC-USB-Device/Drivers/drv_lib/usbd_drv_lib.c **** 
 136:rtos/uC-USB-Device/Drivers/drv_lib/usbd_drv_lib.c ****    *p_err = USBD_ERR_NONE;
 137:rtos/uC-USB-Device/Drivers/drv_lib/usbd_drv_lib.c **** }
 138:rtos/uC-USB-Device/Drivers/drv_lib/usbd_drv_lib.c **** 
 139:rtos/uC-USB-Device/Drivers/drv_lib/usbd_drv_lib.c **** /*
 140:rtos/uC-USB-Device/Drivers/drv_lib/usbd_drv_lib.c **** ***************************************************************************************************
 141:rtos/uC-USB-Device/Drivers/drv_lib/usbd_drv_lib.c **** *                                      USBD_DrvLib_SetupPktQClr()
 142:rtos/uC-USB-Device/Drivers/drv_lib/usbd_drv_lib.c **** *
 143:rtos/uC-USB-Device/Drivers/drv_lib/usbd_drv_lib.c **** * Description : Clears the setup packet queue control structure.
 144:rtos/uC-USB-Device/Drivers/drv_lib/usbd_drv_lib.c **** *
ARM GAS  /tmp/ccTY94oP.s 			page 4


 145:rtos/uC-USB-Device/Drivers/drv_lib/usbd_drv_lib.c **** * Argument(s) : p_setup_pkt_q       Pointer to setup packet queue structure.
 146:rtos/uC-USB-Device/Drivers/drv_lib/usbd_drv_lib.c **** *
 147:rtos/uC-USB-Device/Drivers/drv_lib/usbd_drv_lib.c **** * Return(s)   : none.
 148:rtos/uC-USB-Device/Drivers/drv_lib/usbd_drv_lib.c **** *
 149:rtos/uC-USB-Device/Drivers/drv_lib/usbd_drv_lib.c **** * Note(s)     : (1) This function must be called each time the USB device controller is reset (on r
 150:rtos/uC-USB-Device/Drivers/drv_lib/usbd_drv_lib.c **** *                   event coming from the bus).
 151:rtos/uC-USB-Device/Drivers/drv_lib/usbd_drv_lib.c **** ***************************************************************************************************
 152:rtos/uC-USB-Device/Drivers/drv_lib/usbd_drv_lib.c **** */
 153:rtos/uC-USB-Device/Drivers/drv_lib/usbd_drv_lib.c **** 
 154:rtos/uC-USB-Device/Drivers/drv_lib/usbd_drv_lib.c **** void  USBD_DrvLib_SetupPktQClr (USBD_DRV_LIB_SETUP_PKT_Q  *p_setup_pkt_q)
 155:rtos/uC-USB-Device/Drivers/drv_lib/usbd_drv_lib.c **** {
 156:rtos/uC-USB-Device/Drivers/drv_lib/usbd_drv_lib.c ****     p_setup_pkt_q->Nbr   = 0u;                                  /* Clr internal data and ix.       
 157:rtos/uC-USB-Device/Drivers/drv_lib/usbd_drv_lib.c ****     p_setup_pkt_q->IxIn  = 0u;
 158:rtos/uC-USB-Device/Drivers/drv_lib/usbd_drv_lib.c ****     p_setup_pkt_q->IxOut = 0u;
 159:rtos/uC-USB-Device/Drivers/drv_lib/usbd_drv_lib.c **** 
 160:rtos/uC-USB-Device/Drivers/drv_lib/usbd_drv_lib.c ****     Mem_Clr((void *)p_setup_pkt_q->SetupPktTblPtr,              /* Clr every buf's content.        
 161:rtos/uC-USB-Device/Drivers/drv_lib/usbd_drv_lib.c ****                    (p_setup_pkt_q->TblLen * sizeof(USBD_DRV_LIB_SETUP_PKT)));
 162:rtos/uC-USB-Device/Drivers/drv_lib/usbd_drv_lib.c **** }
 163:rtos/uC-USB-Device/Drivers/drv_lib/usbd_drv_lib.c **** 
 164:rtos/uC-USB-Device/Drivers/drv_lib/usbd_drv_lib.c **** 
 165:rtos/uC-USB-Device/Drivers/drv_lib/usbd_drv_lib.c **** /*
 166:rtos/uC-USB-Device/Drivers/drv_lib/usbd_drv_lib.c **** ***************************************************************************************************
 167:rtos/uC-USB-Device/Drivers/drv_lib/usbd_drv_lib.c **** *                                      USBD_DrvLib_SetupPktQAdd()
 168:rtos/uC-USB-Device/Drivers/drv_lib/usbd_drv_lib.c **** *
 169:rtos/uC-USB-Device/Drivers/drv_lib/usbd_drv_lib.c **** * Description : Enqueues a setup packet in the circular buffer.
 170:rtos/uC-USB-Device/Drivers/drv_lib/usbd_drv_lib.c **** *
 171:rtos/uC-USB-Device/Drivers/drv_lib/usbd_drv_lib.c **** * Argument(s) : p_setup_pkt_q       Pointer to setup packet queue structure.
 172:rtos/uC-USB-Device/Drivers/drv_lib/usbd_drv_lib.c **** *
 173:rtos/uC-USB-Device/Drivers/drv_lib/usbd_drv_lib.c **** *               p_drv               Pointer to device driver structure.
 174:rtos/uC-USB-Device/Drivers/drv_lib/usbd_drv_lib.c **** *
 175:rtos/uC-USB-Device/Drivers/drv_lib/usbd_drv_lib.c **** *               p_setup_pkt_buf     Pointer to buffer that contains the setup packet to add to the 
 176:rtos/uC-USB-Device/Drivers/drv_lib/usbd_drv_lib.c **** *                                   ---- Must be aligned on a 32 bit boundary. ----
 177:rtos/uC-USB-Device/Drivers/drv_lib/usbd_drv_lib.c **** *
 178:rtos/uC-USB-Device/Drivers/drv_lib/usbd_drv_lib.c **** * Return(s)   : None.
 179:rtos/uC-USB-Device/Drivers/drv_lib/usbd_drv_lib.c **** *
 180:rtos/uC-USB-Device/Drivers/drv_lib/usbd_drv_lib.c **** * Note(s)     : (1) This function must be called each time either a real or "dummy" setup packet mu
 181:rtos/uC-USB-Device/Drivers/drv_lib/usbd_drv_lib.c **** *                   submitted to the core.
 182:rtos/uC-USB-Device/Drivers/drv_lib/usbd_drv_lib.c **** ***************************************************************************************************
 183:rtos/uC-USB-Device/Drivers/drv_lib/usbd_drv_lib.c **** */
 184:rtos/uC-USB-Device/Drivers/drv_lib/usbd_drv_lib.c **** 
 185:rtos/uC-USB-Device/Drivers/drv_lib/usbd_drv_lib.c **** void  USBD_DrvLib_SetupPktQAdd (USBD_DRV_LIB_SETUP_PKT_Q  *p_setup_pkt_q,
 186:rtos/uC-USB-Device/Drivers/drv_lib/usbd_drv_lib.c ****                                 USBD_DRV                  *p_drv,
 187:rtos/uC-USB-Device/Drivers/drv_lib/usbd_drv_lib.c ****                                 CPU_INT32U                *p_setup_pkt_buf)
 188:rtos/uC-USB-Device/Drivers/drv_lib/usbd_drv_lib.c **** {
 189:rtos/uC-USB-Device/Drivers/drv_lib/usbd_drv_lib.c ****     CPU_INT32U  *p_dest_buf;
 190:rtos/uC-USB-Device/Drivers/drv_lib/usbd_drv_lib.c ****     CPU_SR_ALLOC();
 191:rtos/uC-USB-Device/Drivers/drv_lib/usbd_drv_lib.c **** 
 192:rtos/uC-USB-Device/Drivers/drv_lib/usbd_drv_lib.c **** 
 193:rtos/uC-USB-Device/Drivers/drv_lib/usbd_drv_lib.c ****     CPU_CRITICAL_ENTER();
 194:rtos/uC-USB-Device/Drivers/drv_lib/usbd_drv_lib.c ****     if (p_setup_pkt_q->Nbr >= p_setup_pkt_q->TblLen) {
 195:rtos/uC-USB-Device/Drivers/drv_lib/usbd_drv_lib.c ****         CPU_CRITICAL_EXIT();
 196:rtos/uC-USB-Device/Drivers/drv_lib/usbd_drv_lib.c ****         return;
 197:rtos/uC-USB-Device/Drivers/drv_lib/usbd_drv_lib.c ****     }
 198:rtos/uC-USB-Device/Drivers/drv_lib/usbd_drv_lib.c ****                                                                 /* Get next avail buf from circular
 199:rtos/uC-USB-Device/Drivers/drv_lib/usbd_drv_lib.c ****     p_dest_buf = p_setup_pkt_q->SetupPktTblPtr[p_setup_pkt_q->IxIn].SetupPkt;
 200:rtos/uC-USB-Device/Drivers/drv_lib/usbd_drv_lib.c **** 
 201:rtos/uC-USB-Device/Drivers/drv_lib/usbd_drv_lib.c ****                                                                 /* Store setup pkt in obtained buf.
ARM GAS  /tmp/ccTY94oP.s 			page 5


 202:rtos/uC-USB-Device/Drivers/drv_lib/usbd_drv_lib.c ****     p_dest_buf[0u] = p_setup_pkt_buf[0u];
 203:rtos/uC-USB-Device/Drivers/drv_lib/usbd_drv_lib.c ****     p_dest_buf[1u] = p_setup_pkt_buf[1u];
 204:rtos/uC-USB-Device/Drivers/drv_lib/usbd_drv_lib.c **** 
 205:rtos/uC-USB-Device/Drivers/drv_lib/usbd_drv_lib.c ****                                                                 /* Adjust ix and internal data.    
 206:rtos/uC-USB-Device/Drivers/drv_lib/usbd_drv_lib.c ****     p_setup_pkt_q->IxIn++;
 207:rtos/uC-USB-Device/Drivers/drv_lib/usbd_drv_lib.c ****     if (p_setup_pkt_q->IxIn >= p_setup_pkt_q->TblLen) {
 208:rtos/uC-USB-Device/Drivers/drv_lib/usbd_drv_lib.c ****         p_setup_pkt_q->IxIn  = 0u;
 209:rtos/uC-USB-Device/Drivers/drv_lib/usbd_drv_lib.c ****     }
 210:rtos/uC-USB-Device/Drivers/drv_lib/usbd_drv_lib.c ****     p_setup_pkt_q->Nbr++;
 211:rtos/uC-USB-Device/Drivers/drv_lib/usbd_drv_lib.c **** 
 212:rtos/uC-USB-Device/Drivers/drv_lib/usbd_drv_lib.c ****     if (p_setup_pkt_q->Nbr == 1u) {
 213:rtos/uC-USB-Device/Drivers/drv_lib/usbd_drv_lib.c ****         USBD_DrvLib_SetupPktQSend(p_setup_pkt_q, p_drv);
 214:rtos/uC-USB-Device/Drivers/drv_lib/usbd_drv_lib.c ****     }
 215:rtos/uC-USB-Device/Drivers/drv_lib/usbd_drv_lib.c ****     CPU_CRITICAL_EXIT();
 216:rtos/uC-USB-Device/Drivers/drv_lib/usbd_drv_lib.c **** }
 217:rtos/uC-USB-Device/Drivers/drv_lib/usbd_drv_lib.c **** 
 218:rtos/uC-USB-Device/Drivers/drv_lib/usbd_drv_lib.c **** 
 219:rtos/uC-USB-Device/Drivers/drv_lib/usbd_drv_lib.c **** /*
 220:rtos/uC-USB-Device/Drivers/drv_lib/usbd_drv_lib.c **** ***************************************************************************************************
 221:rtos/uC-USB-Device/Drivers/drv_lib/usbd_drv_lib.c **** *                                  USBD_DrvLib_SetupPktQSubmitNext()
 222:rtos/uC-USB-Device/Drivers/drv_lib/usbd_drv_lib.c **** *
 223:rtos/uC-USB-Device/Drivers/drv_lib/usbd_drv_lib.c **** * Description : Dequeues last setup packet buffer and submit a new one if any.
 224:rtos/uC-USB-Device/Drivers/drv_lib/usbd_drv_lib.c **** *
 225:rtos/uC-USB-Device/Drivers/drv_lib/usbd_drv_lib.c **** * Argument(s) : p_setup_pkt_q       Pointer to setup packet queue structure.
 226:rtos/uC-USB-Device/Drivers/drv_lib/usbd_drv_lib.c **** *
 227:rtos/uC-USB-Device/Drivers/drv_lib/usbd_drv_lib.c **** *               p_drv               Pointer to device driver structure.
 228:rtos/uC-USB-Device/Drivers/drv_lib/usbd_drv_lib.c **** *
 229:rtos/uC-USB-Device/Drivers/drv_lib/usbd_drv_lib.c **** * Return(s)   : None.
 230:rtos/uC-USB-Device/Drivers/drv_lib/usbd_drv_lib.c **** *
 231:rtos/uC-USB-Device/Drivers/drv_lib/usbd_drv_lib.c **** * Note(s)     : (1) This function must be called each time the core has completed a setup packet
 232:rtos/uC-USB-Device/Drivers/drv_lib/usbd_drv_lib.c **** *                   processing. This will occur when it stalls the control endpoint or when it requ
 233:rtos/uC-USB-Device/Drivers/drv_lib/usbd_drv_lib.c **** *                   to send or receive the status phase (ZLP).
 234:rtos/uC-USB-Device/Drivers/drv_lib/usbd_drv_lib.c **** ***************************************************************************************************
 235:rtos/uC-USB-Device/Drivers/drv_lib/usbd_drv_lib.c **** */
 236:rtos/uC-USB-Device/Drivers/drv_lib/usbd_drv_lib.c **** 
 237:rtos/uC-USB-Device/Drivers/drv_lib/usbd_drv_lib.c **** void  USBD_DrvLib_SetupPktQSubmitNext (USBD_DRV_LIB_SETUP_PKT_Q  *p_setup_pkt_q,
 238:rtos/uC-USB-Device/Drivers/drv_lib/usbd_drv_lib.c ****                                        USBD_DRV                  *p_drv)
 239:rtos/uC-USB-Device/Drivers/drv_lib/usbd_drv_lib.c **** {
 240:rtos/uC-USB-Device/Drivers/drv_lib/usbd_drv_lib.c ****     CPU_SR_ALLOC();
 241:rtos/uC-USB-Device/Drivers/drv_lib/usbd_drv_lib.c **** 
 242:rtos/uC-USB-Device/Drivers/drv_lib/usbd_drv_lib.c **** 
 243:rtos/uC-USB-Device/Drivers/drv_lib/usbd_drv_lib.c ****     CPU_CRITICAL_ENTER();                                       /* Dequeue prev setup pkt.         
 244:rtos/uC-USB-Device/Drivers/drv_lib/usbd_drv_lib.c ****     p_setup_pkt_q->IxOut++;
 245:rtos/uC-USB-Device/Drivers/drv_lib/usbd_drv_lib.c ****     if (p_setup_pkt_q->IxOut >= p_setup_pkt_q->TblLen) {
 246:rtos/uC-USB-Device/Drivers/drv_lib/usbd_drv_lib.c ****         p_setup_pkt_q->IxOut  = 0u;
 247:rtos/uC-USB-Device/Drivers/drv_lib/usbd_drv_lib.c ****     }
 248:rtos/uC-USB-Device/Drivers/drv_lib/usbd_drv_lib.c ****     p_setup_pkt_q->Nbr--;
 249:rtos/uC-USB-Device/Drivers/drv_lib/usbd_drv_lib.c **** 
 250:rtos/uC-USB-Device/Drivers/drv_lib/usbd_drv_lib.c ****     USBD_DrvLib_SetupPktQSend(p_setup_pkt_q, p_drv);            /* Submit next setup pkt if any.   
 251:rtos/uC-USB-Device/Drivers/drv_lib/usbd_drv_lib.c ****     CPU_CRITICAL_EXIT();
 252:rtos/uC-USB-Device/Drivers/drv_lib/usbd_drv_lib.c **** }
 253:rtos/uC-USB-Device/Drivers/drv_lib/usbd_drv_lib.c **** 
 254:rtos/uC-USB-Device/Drivers/drv_lib/usbd_drv_lib.c **** /*
 255:rtos/uC-USB-Device/Drivers/drv_lib/usbd_drv_lib.c **** ***************************************************************************************************
 256:rtos/uC-USB-Device/Drivers/drv_lib/usbd_drv_lib.c **** ***************************************************************************************************
 257:rtos/uC-USB-Device/Drivers/drv_lib/usbd_drv_lib.c **** *                                            LOCAL FUNCTIONS
 258:rtos/uC-USB-Device/Drivers/drv_lib/usbd_drv_lib.c **** ***************************************************************************************************
ARM GAS  /tmp/ccTY94oP.s 			page 6


 259:rtos/uC-USB-Device/Drivers/drv_lib/usbd_drv_lib.c **** ***************************************************************************************************
 260:rtos/uC-USB-Device/Drivers/drv_lib/usbd_drv_lib.c **** */
 261:rtos/uC-USB-Device/Drivers/drv_lib/usbd_drv_lib.c **** 
 262:rtos/uC-USB-Device/Drivers/drv_lib/usbd_drv_lib.c **** /*
 263:rtos/uC-USB-Device/Drivers/drv_lib/usbd_drv_lib.c **** ***************************************************************************************************
 264:rtos/uC-USB-Device/Drivers/drv_lib/usbd_drv_lib.c **** *                                      USBD_DrvLib_SetupPktQSend()
 265:rtos/uC-USB-Device/Drivers/drv_lib/usbd_drv_lib.c **** *
 266:rtos/uC-USB-Device/Drivers/drv_lib/usbd_drv_lib.c **** * Description : Submits a setup packet to the core if any available in the queue.
 267:rtos/uC-USB-Device/Drivers/drv_lib/usbd_drv_lib.c **** *
 268:rtos/uC-USB-Device/Drivers/drv_lib/usbd_drv_lib.c **** * Argument(s) : p_setup_pkt_q       Pointer to setup packet queue structure.
 269:rtos/uC-USB-Device/Drivers/drv_lib/usbd_drv_lib.c **** *
 270:rtos/uC-USB-Device/Drivers/drv_lib/usbd_drv_lib.c **** *               p_drv               Pointer to device driver structure.
 271:rtos/uC-USB-Device/Drivers/drv_lib/usbd_drv_lib.c **** *
 272:rtos/uC-USB-Device/Drivers/drv_lib/usbd_drv_lib.c **** * Return(s)   : None.
 273:rtos/uC-USB-Device/Drivers/drv_lib/usbd_drv_lib.c **** *
 274:rtos/uC-USB-Device/Drivers/drv_lib/usbd_drv_lib.c **** * Note(s)     : None.
 275:rtos/uC-USB-Device/Drivers/drv_lib/usbd_drv_lib.c **** ***************************************************************************************************
 276:rtos/uC-USB-Device/Drivers/drv_lib/usbd_drv_lib.c **** */
 277:rtos/uC-USB-Device/Drivers/drv_lib/usbd_drv_lib.c **** 
 278:rtos/uC-USB-Device/Drivers/drv_lib/usbd_drv_lib.c **** static  void  USBD_DrvLib_SetupPktQSend (USBD_DRV_LIB_SETUP_PKT_Q  *p_setup_pkt_q,
 279:rtos/uC-USB-Device/Drivers/drv_lib/usbd_drv_lib.c ****                                          USBD_DRV                  *p_drv)
 280:rtos/uC-USB-Device/Drivers/drv_lib/usbd_drv_lib.c **** {
  29              		.loc 1 280 1 view -0
  30              		.cfi_startproc
  31              		@ args = 0, pretend = 0, frame = 0
  32              		@ frame_needed = 0, uses_anonymous_args = 0
  33              		.loc 1 280 1 is_stmt 0 view .LVU1
  34 0000 08B5     		push	{r3, lr}
  35              	.LCFI0:
  36              		.cfi_def_cfa_offset 8
  37              		.cfi_offset 3, -8
  38              		.cfi_offset 14, -4
  39 0002 0346     		mov	r3, r0
 281:rtos/uC-USB-Device/Drivers/drv_lib/usbd_drv_lib.c ****     USBD_DRV_LIB_SETUP_PKT  *p_setup_pkt;
  40              		.loc 1 281 5 is_stmt 1 view .LVU2
 282:rtos/uC-USB-Device/Drivers/drv_lib/usbd_drv_lib.c **** 
 283:rtos/uC-USB-Device/Drivers/drv_lib/usbd_drv_lib.c **** 
 284:rtos/uC-USB-Device/Drivers/drv_lib/usbd_drv_lib.c ****     if (p_setup_pkt_q->Nbr == 0u) {
  41              		.loc 1 284 5 view .LVU3
  42              		.loc 1 284 22 is_stmt 0 view .LVU4
  43 0004 8279     		ldrb	r2, [r0, #6]	@ zero_extendqisi2
  44              		.loc 1 284 8 view .LVU5
  45 0006 02B9     		cbnz	r2, .L4
  46              	.LVL1:
  47              	.L1:
 285:rtos/uC-USB-Device/Drivers/drv_lib/usbd_drv_lib.c ****         return;
 286:rtos/uC-USB-Device/Drivers/drv_lib/usbd_drv_lib.c ****     }
 287:rtos/uC-USB-Device/Drivers/drv_lib/usbd_drv_lib.c **** 
 288:rtos/uC-USB-Device/Drivers/drv_lib/usbd_drv_lib.c ****     p_setup_pkt = &p_setup_pkt_q->SetupPktTblPtr[p_setup_pkt_q->IxOut];
 289:rtos/uC-USB-Device/Drivers/drv_lib/usbd_drv_lib.c **** 
 290:rtos/uC-USB-Device/Drivers/drv_lib/usbd_drv_lib.c ****     USBD_EventSetup(         p_drv,
 291:rtos/uC-USB-Device/Drivers/drv_lib/usbd_drv_lib.c ****                     (void *)&p_setup_pkt->SetupPkt[0u]);
 292:rtos/uC-USB-Device/Drivers/drv_lib/usbd_drv_lib.c **** }
  48              		.loc 1 292 1 view .LVU6
  49 0008 08BD     		pop	{r3, pc}
  50              	.LVL2:
  51              	.L4:
ARM GAS  /tmp/ccTY94oP.s 			page 7


  52              		.loc 1 292 1 view .LVU7
  53 000a 0846     		mov	r0, r1
  54              	.LVL3:
 288:rtos/uC-USB-Device/Drivers/drv_lib/usbd_drv_lib.c **** 
  55              		.loc 1 288 5 is_stmt 1 view .LVU8
 288:rtos/uC-USB-Device/Drivers/drv_lib/usbd_drv_lib.c **** 
  56              		.loc 1 288 33 is_stmt 0 view .LVU9
  57 000c 1A68     		ldr	r2, [r3]
 288:rtos/uC-USB-Device/Drivers/drv_lib/usbd_drv_lib.c **** 
  58              		.loc 1 288 63 view .LVU10
  59 000e 5979     		ldrb	r1, [r3, #5]	@ zero_extendqisi2
  60              	.LVL4:
 290:rtos/uC-USB-Device/Drivers/drv_lib/usbd_drv_lib.c ****                     (void *)&p_setup_pkt->SetupPkt[0u]);
  61              		.loc 1 290 5 is_stmt 1 view .LVU11
  62 0010 02EBC101 		add	r1, r2, r1, lsl #3
  63              	.LVL5:
 290:rtos/uC-USB-Device/Drivers/drv_lib/usbd_drv_lib.c ****                     (void *)&p_setup_pkt->SetupPkt[0u]);
  64              		.loc 1 290 5 is_stmt 0 view .LVU12
  65 0014 FFF7FEFF 		bl	USBD_EventSetup
  66              	.LVL6:
 290:rtos/uC-USB-Device/Drivers/drv_lib/usbd_drv_lib.c ****                     (void *)&p_setup_pkt->SetupPkt[0u]);
  67              		.loc 1 290 5 view .LVU13
  68 0018 F6E7     		b	.L1
  69              		.cfi_endproc
  70              	.LFE4:
  72              		.section	.text.USBD_DrvLib_SetupPktQInit,"ax",%progbits
  73              		.align	1
  74              		.global	USBD_DrvLib_SetupPktQInit
  75              		.syntax unified
  76              		.thumb
  77              		.thumb_func
  78              		.fpu fpv4-sp-d16
  80              	USBD_DrvLib_SetupPktQInit:
  81              	.LVL7:
  82              	.LFB0:
 121:rtos/uC-USB-Device/Drivers/drv_lib/usbd_drv_lib.c ****     LIB_ERR  err_lib;
  83              		.loc 1 121 1 is_stmt 1 view -0
  84              		.cfi_startproc
  85              		@ args = 0, pretend = 0, frame = 8
  86              		@ frame_needed = 0, uses_anonymous_args = 0
 121:rtos/uC-USB-Device/Drivers/drv_lib/usbd_drv_lib.c ****     LIB_ERR  err_lib;
  87              		.loc 1 121 1 is_stmt 0 view .LVU15
  88 0000 70B5     		push	{r4, r5, r6, lr}
  89              	.LCFI1:
  90              		.cfi_def_cfa_offset 16
  91              		.cfi_offset 4, -16
  92              		.cfi_offset 5, -12
  93              		.cfi_offset 6, -8
  94              		.cfi_offset 14, -4
  95 0002 82B0     		sub	sp, sp, #8
  96              	.LCFI2:
  97              		.cfi_def_cfa_offset 24
  98 0004 0446     		mov	r4, r0
  99 0006 0D46     		mov	r5, r1
 100 0008 1646     		mov	r6, r2
 122:rtos/uC-USB-Device/Drivers/drv_lib/usbd_drv_lib.c **** 
 101              		.loc 1 122 5 is_stmt 1 view .LVU16
ARM GAS  /tmp/ccTY94oP.s 			page 8


 125:rtos/uC-USB-Device/Drivers/drv_lib/usbd_drv_lib.c ****                                                                                           sizeof(CP
 102              		.loc 1 125 5 view .LVU17
 125:rtos/uC-USB-Device/Drivers/drv_lib/usbd_drv_lib.c ****                                                                                           sizeof(CP
 103              		.loc 1 125 63 is_stmt 0 view .LVU18
 104 000a 0DF10603 		add	r3, sp, #6
 105 000e 0022     		movs	r2, #0
 106              	.LVL8:
 125:rtos/uC-USB-Device/Drivers/drv_lib/usbd_drv_lib.c ****                                                                                           sizeof(CP
 107              		.loc 1 125 63 view .LVU19
 108 0010 0421     		movs	r1, #4
 109              	.LVL9:
 125:rtos/uC-USB-Device/Drivers/drv_lib/usbd_drv_lib.c ****                                                                                           sizeof(CP
 110              		.loc 1 125 63 view .LVU20
 111 0012 E800     		lsls	r0, r5, #3
 112              	.LVL10:
 125:rtos/uC-USB-Device/Drivers/drv_lib/usbd_drv_lib.c ****                                                                                           sizeof(CP
 113              		.loc 1 125 63 view .LVU21
 114 0014 FFF7FEFF 		bl	Mem_HeapAlloc
 115              	.LVL11:
 125:rtos/uC-USB-Device/Drivers/drv_lib/usbd_drv_lib.c ****                                                                                           sizeof(CP
 116              		.loc 1 125 35 view .LVU22
 117 0018 2060     		str	r0, [r4]
 129:rtos/uC-USB-Device/Drivers/drv_lib/usbd_drv_lib.c ****        *p_err = USBD_ERR_ALLOC;
 118              		.loc 1 129 5 is_stmt 1 view .LVU23
 129:rtos/uC-USB-Device/Drivers/drv_lib/usbd_drv_lib.c ****        *p_err = USBD_ERR_ALLOC;
 119              		.loc 1 129 17 is_stmt 0 view .LVU24
 120 001a BDF80620 		ldrh	r2, [sp, #6]
 129:rtos/uC-USB-Device/Drivers/drv_lib/usbd_drv_lib.c ****        *p_err = USBD_ERR_ALLOC;
 121              		.loc 1 129 8 view .LVU25
 122 001e 42F21073 		movw	r3, #10000
 123 0022 9A42     		cmp	r2, r3
 124 0024 03D0     		beq	.L6
 130:rtos/uC-USB-Device/Drivers/drv_lib/usbd_drv_lib.c ****         return;
 125              		.loc 1 130 8 is_stmt 1 view .LVU26
 130:rtos/uC-USB-Device/Drivers/drv_lib/usbd_drv_lib.c ****         return;
 126              		.loc 1 130 15 is_stmt 0 view .LVU27
 127 0026 0423     		movs	r3, #4
 128 0028 3380     		strh	r3, [r6]	@ movhi
 131:rtos/uC-USB-Device/Drivers/drv_lib/usbd_drv_lib.c ****     }
 129              		.loc 1 131 9 is_stmt 1 view .LVU28
 130              	.L5:
 137:rtos/uC-USB-Device/Drivers/drv_lib/usbd_drv_lib.c **** 
 131              		.loc 1 137 1 is_stmt 0 view .LVU29
 132 002a 02B0     		add	sp, sp, #8
 133              	.LCFI3:
 134              		.cfi_remember_state
 135              		.cfi_def_cfa_offset 16
 136              		@ sp needed
 137 002c 70BD     		pop	{r4, r5, r6, pc}
 138              	.LVL12:
 139              	.L6:
 140              	.LCFI4:
 141              		.cfi_restore_state
 134:rtos/uC-USB-Device/Drivers/drv_lib/usbd_drv_lib.c **** 
 142              		.loc 1 134 5 is_stmt 1 view .LVU30
 134:rtos/uC-USB-Device/Drivers/drv_lib/usbd_drv_lib.c **** 
 143              		.loc 1 134 27 is_stmt 0 view .LVU31
ARM GAS  /tmp/ccTY94oP.s 			page 9


 144 002e E571     		strb	r5, [r4, #7]
 136:rtos/uC-USB-Device/Drivers/drv_lib/usbd_drv_lib.c **** }
 145              		.loc 1 136 4 is_stmt 1 view .LVU32
 136:rtos/uC-USB-Device/Drivers/drv_lib/usbd_drv_lib.c **** }
 146              		.loc 1 136 11 is_stmt 0 view .LVU33
 147 0030 0023     		movs	r3, #0
 148 0032 3380     		strh	r3, [r6]	@ movhi
 149 0034 F9E7     		b	.L5
 150              		.cfi_endproc
 151              	.LFE0:
 153              		.section	.text.USBD_DrvLib_SetupPktQClr,"ax",%progbits
 154              		.align	1
 155              		.global	USBD_DrvLib_SetupPktQClr
 156              		.syntax unified
 157              		.thumb
 158              		.thumb_func
 159              		.fpu fpv4-sp-d16
 161              	USBD_DrvLib_SetupPktQClr:
 162              	.LVL13:
 163              	.LFB1:
 155:rtos/uC-USB-Device/Drivers/drv_lib/usbd_drv_lib.c ****     p_setup_pkt_q->Nbr   = 0u;                                  /* Clr internal data and ix.       
 164              		.loc 1 155 1 is_stmt 1 view -0
 165              		.cfi_startproc
 166              		@ args = 0, pretend = 0, frame = 0
 167              		@ frame_needed = 0, uses_anonymous_args = 0
 155:rtos/uC-USB-Device/Drivers/drv_lib/usbd_drv_lib.c ****     p_setup_pkt_q->Nbr   = 0u;                                  /* Clr internal data and ix.       
 168              		.loc 1 155 1 is_stmt 0 view .LVU35
 169 0000 08B5     		push	{r3, lr}
 170              	.LCFI5:
 171              		.cfi_def_cfa_offset 8
 172              		.cfi_offset 3, -8
 173              		.cfi_offset 14, -4
 156:rtos/uC-USB-Device/Drivers/drv_lib/usbd_drv_lib.c ****     p_setup_pkt_q->IxIn  = 0u;
 174              		.loc 1 156 5 is_stmt 1 view .LVU36
 156:rtos/uC-USB-Device/Drivers/drv_lib/usbd_drv_lib.c ****     p_setup_pkt_q->IxIn  = 0u;
 175              		.loc 1 156 26 is_stmt 0 view .LVU37
 176 0002 0023     		movs	r3, #0
 177 0004 8371     		strb	r3, [r0, #6]
 157:rtos/uC-USB-Device/Drivers/drv_lib/usbd_drv_lib.c ****     p_setup_pkt_q->IxOut = 0u;
 178              		.loc 1 157 5 is_stmt 1 view .LVU38
 157:rtos/uC-USB-Device/Drivers/drv_lib/usbd_drv_lib.c ****     p_setup_pkt_q->IxOut = 0u;
 179              		.loc 1 157 26 is_stmt 0 view .LVU39
 180 0006 0371     		strb	r3, [r0, #4]
 158:rtos/uC-USB-Device/Drivers/drv_lib/usbd_drv_lib.c **** 
 181              		.loc 1 158 5 is_stmt 1 view .LVU40
 158:rtos/uC-USB-Device/Drivers/drv_lib/usbd_drv_lib.c **** 
 182              		.loc 1 158 26 is_stmt 0 view .LVU41
 183 0008 4371     		strb	r3, [r0, #5]
 160:rtos/uC-USB-Device/Drivers/drv_lib/usbd_drv_lib.c ****                    (p_setup_pkt_q->TblLen * sizeof(USBD_DRV_LIB_SETUP_PKT)));
 184              		.loc 1 160 5 is_stmt 1 view .LVU42
 161:rtos/uC-USB-Device/Drivers/drv_lib/usbd_drv_lib.c **** }
 185              		.loc 1 161 34 is_stmt 0 view .LVU43
 186 000a C179     		ldrb	r1, [r0, #7]	@ zero_extendqisi2
 160:rtos/uC-USB-Device/Drivers/drv_lib/usbd_drv_lib.c ****                    (p_setup_pkt_q->TblLen * sizeof(USBD_DRV_LIB_SETUP_PKT)));
 187              		.loc 1 160 5 view .LVU44
 188 000c C900     		lsls	r1, r1, #3
 189 000e 0068     		ldr	r0, [r0]
ARM GAS  /tmp/ccTY94oP.s 			page 10


 190              	.LVL14:
 160:rtos/uC-USB-Device/Drivers/drv_lib/usbd_drv_lib.c ****                    (p_setup_pkt_q->TblLen * sizeof(USBD_DRV_LIB_SETUP_PKT)));
 191              		.loc 1 160 5 view .LVU45
 192 0010 FFF7FEFF 		bl	Mem_Clr
 193              	.LVL15:
 162:rtos/uC-USB-Device/Drivers/drv_lib/usbd_drv_lib.c **** 
 194              		.loc 1 162 1 view .LVU46
 195 0014 08BD     		pop	{r3, pc}
 196              		.cfi_endproc
 197              	.LFE1:
 199              		.section	.text.USBD_DrvLib_SetupPktQAdd,"ax",%progbits
 200              		.align	1
 201              		.global	USBD_DrvLib_SetupPktQAdd
 202              		.syntax unified
 203              		.thumb
 204              		.thumb_func
 205              		.fpu fpv4-sp-d16
 207              	USBD_DrvLib_SetupPktQAdd:
 208              	.LVL16:
 209              	.LFB2:
 188:rtos/uC-USB-Device/Drivers/drv_lib/usbd_drv_lib.c ****     CPU_INT32U  *p_dest_buf;
 210              		.loc 1 188 1 is_stmt 1 view -0
 211              		.cfi_startproc
 212              		@ args = 0, pretend = 0, frame = 0
 213              		@ frame_needed = 0, uses_anonymous_args = 0
 188:rtos/uC-USB-Device/Drivers/drv_lib/usbd_drv_lib.c ****     CPU_INT32U  *p_dest_buf;
 214              		.loc 1 188 1 is_stmt 0 view .LVU48
 215 0000 F8B5     		push	{r3, r4, r5, r6, r7, lr}
 216              	.LCFI6:
 217              		.cfi_def_cfa_offset 24
 218              		.cfi_offset 3, -24
 219              		.cfi_offset 4, -20
 220              		.cfi_offset 5, -16
 221              		.cfi_offset 6, -12
 222              		.cfi_offset 7, -8
 223              		.cfi_offset 14, -4
 224 0002 0446     		mov	r4, r0
 225 0004 0E46     		mov	r6, r1
 226 0006 1746     		mov	r7, r2
 189:rtos/uC-USB-Device/Drivers/drv_lib/usbd_drv_lib.c ****     CPU_SR_ALLOC();
 227              		.loc 1 189 5 is_stmt 1 view .LVU49
 190:rtos/uC-USB-Device/Drivers/drv_lib/usbd_drv_lib.c **** 
 228              		.loc 1 190 5 view .LVU50
 229              	.LVL17:
 193:rtos/uC-USB-Device/Drivers/drv_lib/usbd_drv_lib.c ****     if (p_setup_pkt_q->Nbr >= p_setup_pkt_q->TblLen) {
 230              		.loc 1 193 5 view .LVU51
 193:rtos/uC-USB-Device/Drivers/drv_lib/usbd_drv_lib.c ****     if (p_setup_pkt_q->Nbr >= p_setup_pkt_q->TblLen) {
 231              		.loc 1 193 5 view .LVU52
 193:rtos/uC-USB-Device/Drivers/drv_lib/usbd_drv_lib.c ****     if (p_setup_pkt_q->Nbr >= p_setup_pkt_q->TblLen) {
 232              		.loc 1 193 5 view .LVU53
 233 0008 4020     		movs	r0, #64
 234              	.LVL18:
 193:rtos/uC-USB-Device/Drivers/drv_lib/usbd_drv_lib.c ****     if (p_setup_pkt_q->Nbr >= p_setup_pkt_q->TblLen) {
 235              		.loc 1 193 5 is_stmt 0 view .LVU54
 236 000a FFF7FEFF 		bl	CPU_SR_Save
 237              	.LVL19:
 193:rtos/uC-USB-Device/Drivers/drv_lib/usbd_drv_lib.c ****     if (p_setup_pkt_q->Nbr >= p_setup_pkt_q->TblLen) {
ARM GAS  /tmp/ccTY94oP.s 			page 11


 238              		.loc 1 193 5 view .LVU55
 239 000e 0546     		mov	r5, r0
 240              	.LVL20:
 193:rtos/uC-USB-Device/Drivers/drv_lib/usbd_drv_lib.c ****     if (p_setup_pkt_q->Nbr >= p_setup_pkt_q->TblLen) {
 241              		.loc 1 193 5 is_stmt 1 view .LVU56
 193:rtos/uC-USB-Device/Drivers/drv_lib/usbd_drv_lib.c ****     if (p_setup_pkt_q->Nbr >= p_setup_pkt_q->TblLen) {
 242              		.loc 1 193 5 view .LVU57
 194:rtos/uC-USB-Device/Drivers/drv_lib/usbd_drv_lib.c ****         CPU_CRITICAL_EXIT();
 243              		.loc 1 194 5 view .LVU58
 194:rtos/uC-USB-Device/Drivers/drv_lib/usbd_drv_lib.c ****         CPU_CRITICAL_EXIT();
 244              		.loc 1 194 22 is_stmt 0 view .LVU59
 245 0010 A279     		ldrb	r2, [r4, #6]	@ zero_extendqisi2
 194:rtos/uC-USB-Device/Drivers/drv_lib/usbd_drv_lib.c ****         CPU_CRITICAL_EXIT();
 246              		.loc 1 194 44 view .LVU60
 247 0012 E379     		ldrb	r3, [r4, #7]	@ zero_extendqisi2
 194:rtos/uC-USB-Device/Drivers/drv_lib/usbd_drv_lib.c ****         CPU_CRITICAL_EXIT();
 248              		.loc 1 194 8 view .LVU61
 249 0014 9A42     		cmp	r2, r3
 250 0016 1BD2     		bcs	.L17
 199:rtos/uC-USB-Device/Drivers/drv_lib/usbd_drv_lib.c **** 
 251              		.loc 1 199 5 is_stmt 1 view .LVU62
 199:rtos/uC-USB-Device/Drivers/drv_lib/usbd_drv_lib.c **** 
 252              		.loc 1 199 31 is_stmt 0 view .LVU63
 253 0018 2368     		ldr	r3, [r4]
 199:rtos/uC-USB-Device/Drivers/drv_lib/usbd_drv_lib.c **** 
 254              		.loc 1 199 61 view .LVU64
 255 001a 2279     		ldrb	r2, [r4, #4]	@ zero_extendqisi2
 199:rtos/uC-USB-Device/Drivers/drv_lib/usbd_drv_lib.c **** 
 256              		.loc 1 199 47 view .LVU65
 257 001c 03EBC201 		add	r1, r3, r2, lsl #3
 258              	.LVL21:
 202:rtos/uC-USB-Device/Drivers/drv_lib/usbd_drv_lib.c ****     p_dest_buf[1u] = p_setup_pkt_buf[1u];
 259              		.loc 1 202 5 is_stmt 1 view .LVU66
 202:rtos/uC-USB-Device/Drivers/drv_lib/usbd_drv_lib.c ****     p_dest_buf[1u] = p_setup_pkt_buf[1u];
 260              		.loc 1 202 37 is_stmt 0 view .LVU67
 261 0020 3868     		ldr	r0, [r7]
 262              	.LVL22:
 202:rtos/uC-USB-Device/Drivers/drv_lib/usbd_drv_lib.c ****     p_dest_buf[1u] = p_setup_pkt_buf[1u];
 263              		.loc 1 202 20 view .LVU68
 264 0022 43F83200 		str	r0, [r3, r2, lsl #3]
 203:rtos/uC-USB-Device/Drivers/drv_lib/usbd_drv_lib.c **** 
 265              		.loc 1 203 5 is_stmt 1 view .LVU69
 203:rtos/uC-USB-Device/Drivers/drv_lib/usbd_drv_lib.c **** 
 266              		.loc 1 203 20 is_stmt 0 view .LVU70
 267 0026 7B68     		ldr	r3, [r7, #4]
 268 0028 4B60     		str	r3, [r1, #4]
 206:rtos/uC-USB-Device/Drivers/drv_lib/usbd_drv_lib.c ****     if (p_setup_pkt_q->IxIn >= p_setup_pkt_q->TblLen) {
 269              		.loc 1 206 5 is_stmt 1 view .LVU71
 206:rtos/uC-USB-Device/Drivers/drv_lib/usbd_drv_lib.c ****     if (p_setup_pkt_q->IxIn >= p_setup_pkt_q->TblLen) {
 270              		.loc 1 206 18 is_stmt 0 view .LVU72
 271 002a 2379     		ldrb	r3, [r4, #4]	@ zero_extendqisi2
 206:rtos/uC-USB-Device/Drivers/drv_lib/usbd_drv_lib.c ****     if (p_setup_pkt_q->IxIn >= p_setup_pkt_q->TblLen) {
 272              		.loc 1 206 24 view .LVU73
 273 002c 0133     		adds	r3, r3, #1
 274 002e DBB2     		uxtb	r3, r3
 275 0030 2371     		strb	r3, [r4, #4]
 207:rtos/uC-USB-Device/Drivers/drv_lib/usbd_drv_lib.c ****         p_setup_pkt_q->IxIn  = 0u;
ARM GAS  /tmp/ccTY94oP.s 			page 12


 276              		.loc 1 207 5 is_stmt 1 view .LVU74
 207:rtos/uC-USB-Device/Drivers/drv_lib/usbd_drv_lib.c ****         p_setup_pkt_q->IxIn  = 0u;
 277              		.loc 1 207 45 is_stmt 0 view .LVU75
 278 0032 E279     		ldrb	r2, [r4, #7]	@ zero_extendqisi2
 207:rtos/uC-USB-Device/Drivers/drv_lib/usbd_drv_lib.c ****         p_setup_pkt_q->IxIn  = 0u;
 279              		.loc 1 207 8 view .LVU76
 280 0034 9342     		cmp	r3, r2
 281 0036 01D3     		bcc	.L14
 208:rtos/uC-USB-Device/Drivers/drv_lib/usbd_drv_lib.c ****     }
 282              		.loc 1 208 9 is_stmt 1 view .LVU77
 208:rtos/uC-USB-Device/Drivers/drv_lib/usbd_drv_lib.c ****     }
 283              		.loc 1 208 30 is_stmt 0 view .LVU78
 284 0038 0023     		movs	r3, #0
 285 003a 2371     		strb	r3, [r4, #4]
 286              	.L14:
 210:rtos/uC-USB-Device/Drivers/drv_lib/usbd_drv_lib.c **** 
 287              		.loc 1 210 5 is_stmt 1 view .LVU79
 210:rtos/uC-USB-Device/Drivers/drv_lib/usbd_drv_lib.c **** 
 288              		.loc 1 210 18 is_stmt 0 view .LVU80
 289 003c A379     		ldrb	r3, [r4, #6]	@ zero_extendqisi2
 210:rtos/uC-USB-Device/Drivers/drv_lib/usbd_drv_lib.c **** 
 290              		.loc 1 210 23 view .LVU81
 291 003e 0133     		adds	r3, r3, #1
 292 0040 DBB2     		uxtb	r3, r3
 293 0042 A371     		strb	r3, [r4, #6]
 212:rtos/uC-USB-Device/Drivers/drv_lib/usbd_drv_lib.c ****         USBD_DrvLib_SetupPktQSend(p_setup_pkt_q, p_drv);
 294              		.loc 1 212 5 is_stmt 1 view .LVU82
 212:rtos/uC-USB-Device/Drivers/drv_lib/usbd_drv_lib.c ****         USBD_DrvLib_SetupPktQSend(p_setup_pkt_q, p_drv);
 295              		.loc 1 212 8 is_stmt 0 view .LVU83
 296 0044 012B     		cmp	r3, #1
 297 0046 06D0     		beq	.L18
 298              	.LVL23:
 299              	.L15:
 215:rtos/uC-USB-Device/Drivers/drv_lib/usbd_drv_lib.c **** }
 300              		.loc 1 215 5 is_stmt 1 view .LVU84
 215:rtos/uC-USB-Device/Drivers/drv_lib/usbd_drv_lib.c **** }
 301              		.loc 1 215 5 view .LVU85
 215:rtos/uC-USB-Device/Drivers/drv_lib/usbd_drv_lib.c **** }
 302              		.loc 1 215 5 view .LVU86
 303 0048 2846     		mov	r0, r5
 304 004a FFF7FEFF 		bl	CPU_SR_Restore
 305              	.LVL24:
 215:rtos/uC-USB-Device/Drivers/drv_lib/usbd_drv_lib.c **** }
 306              		.loc 1 215 5 view .LVU87
 215:rtos/uC-USB-Device/Drivers/drv_lib/usbd_drv_lib.c **** }
 307              		.loc 1 215 5 view .LVU88
 308              	.L11:
 216:rtos/uC-USB-Device/Drivers/drv_lib/usbd_drv_lib.c **** 
 309              		.loc 1 216 1 is_stmt 0 view .LVU89
 310 004e F8BD     		pop	{r3, r4, r5, r6, r7, pc}
 311              	.LVL25:
 312              	.L17:
 195:rtos/uC-USB-Device/Drivers/drv_lib/usbd_drv_lib.c ****         return;
 313              		.loc 1 195 9 is_stmt 1 view .LVU90
 195:rtos/uC-USB-Device/Drivers/drv_lib/usbd_drv_lib.c ****         return;
 314              		.loc 1 195 9 view .LVU91
 195:rtos/uC-USB-Device/Drivers/drv_lib/usbd_drv_lib.c ****         return;
ARM GAS  /tmp/ccTY94oP.s 			page 13


 315              		.loc 1 195 9 view .LVU92
 316 0050 FFF7FEFF 		bl	CPU_SR_Restore
 317              	.LVL26:
 195:rtos/uC-USB-Device/Drivers/drv_lib/usbd_drv_lib.c ****         return;
 318              		.loc 1 195 9 view .LVU93
 195:rtos/uC-USB-Device/Drivers/drv_lib/usbd_drv_lib.c ****         return;
 319              		.loc 1 195 9 view .LVU94
 196:rtos/uC-USB-Device/Drivers/drv_lib/usbd_drv_lib.c ****     }
 320              		.loc 1 196 9 view .LVU95
 321 0054 FBE7     		b	.L11
 322              	.LVL27:
 323              	.L18:
 213:rtos/uC-USB-Device/Drivers/drv_lib/usbd_drv_lib.c ****     }
 324              		.loc 1 213 9 view .LVU96
 325 0056 3146     		mov	r1, r6
 326              	.LVL28:
 213:rtos/uC-USB-Device/Drivers/drv_lib/usbd_drv_lib.c ****     }
 327              		.loc 1 213 9 is_stmt 0 view .LVU97
 328 0058 2046     		mov	r0, r4
 329 005a FFF7FEFF 		bl	USBD_DrvLib_SetupPktQSend
 330              	.LVL29:
 331 005e F3E7     		b	.L15
 332              		.cfi_endproc
 333              	.LFE2:
 335              		.section	.text.USBD_DrvLib_SetupPktQSubmitNext,"ax",%progbits
 336              		.align	1
 337              		.global	USBD_DrvLib_SetupPktQSubmitNext
 338              		.syntax unified
 339              		.thumb
 340              		.thumb_func
 341              		.fpu fpv4-sp-d16
 343              	USBD_DrvLib_SetupPktQSubmitNext:
 344              	.LVL30:
 345              	.LFB3:
 239:rtos/uC-USB-Device/Drivers/drv_lib/usbd_drv_lib.c ****     CPU_SR_ALLOC();
 346              		.loc 1 239 1 is_stmt 1 view -0
 347              		.cfi_startproc
 348              		@ args = 0, pretend = 0, frame = 0
 349              		@ frame_needed = 0, uses_anonymous_args = 0
 239:rtos/uC-USB-Device/Drivers/drv_lib/usbd_drv_lib.c ****     CPU_SR_ALLOC();
 350              		.loc 1 239 1 is_stmt 0 view .LVU99
 351 0000 70B5     		push	{r4, r5, r6, lr}
 352              	.LCFI7:
 353              		.cfi_def_cfa_offset 16
 354              		.cfi_offset 4, -16
 355              		.cfi_offset 5, -12
 356              		.cfi_offset 6, -8
 357              		.cfi_offset 14, -4
 358 0002 0446     		mov	r4, r0
 359 0004 0E46     		mov	r6, r1
 240:rtos/uC-USB-Device/Drivers/drv_lib/usbd_drv_lib.c **** 
 360              		.loc 1 240 5 is_stmt 1 view .LVU100
 361              	.LVL31:
 243:rtos/uC-USB-Device/Drivers/drv_lib/usbd_drv_lib.c ****     p_setup_pkt_q->IxOut++;
 362              		.loc 1 243 5 view .LVU101
 243:rtos/uC-USB-Device/Drivers/drv_lib/usbd_drv_lib.c ****     p_setup_pkt_q->IxOut++;
 363              		.loc 1 243 5 view .LVU102
ARM GAS  /tmp/ccTY94oP.s 			page 14


 243:rtos/uC-USB-Device/Drivers/drv_lib/usbd_drv_lib.c ****     p_setup_pkt_q->IxOut++;
 364              		.loc 1 243 5 view .LVU103
 365 0006 4020     		movs	r0, #64
 366              	.LVL32:
 243:rtos/uC-USB-Device/Drivers/drv_lib/usbd_drv_lib.c ****     p_setup_pkt_q->IxOut++;
 367              		.loc 1 243 5 is_stmt 0 view .LVU104
 368 0008 FFF7FEFF 		bl	CPU_SR_Save
 369              	.LVL33:
 243:rtos/uC-USB-Device/Drivers/drv_lib/usbd_drv_lib.c ****     p_setup_pkt_q->IxOut++;
 370              		.loc 1 243 5 view .LVU105
 371 000c 0546     		mov	r5, r0
 372              	.LVL34:
 243:rtos/uC-USB-Device/Drivers/drv_lib/usbd_drv_lib.c ****     p_setup_pkt_q->IxOut++;
 373              		.loc 1 243 5 is_stmt 1 view .LVU106
 243:rtos/uC-USB-Device/Drivers/drv_lib/usbd_drv_lib.c ****     p_setup_pkt_q->IxOut++;
 374              		.loc 1 243 5 view .LVU107
 244:rtos/uC-USB-Device/Drivers/drv_lib/usbd_drv_lib.c ****     if (p_setup_pkt_q->IxOut >= p_setup_pkt_q->TblLen) {
 375              		.loc 1 244 5 view .LVU108
 244:rtos/uC-USB-Device/Drivers/drv_lib/usbd_drv_lib.c ****     if (p_setup_pkt_q->IxOut >= p_setup_pkt_q->TblLen) {
 376              		.loc 1 244 18 is_stmt 0 view .LVU109
 377 000e 6379     		ldrb	r3, [r4, #5]	@ zero_extendqisi2
 244:rtos/uC-USB-Device/Drivers/drv_lib/usbd_drv_lib.c ****     if (p_setup_pkt_q->IxOut >= p_setup_pkt_q->TblLen) {
 378              		.loc 1 244 25 view .LVU110
 379 0010 0133     		adds	r3, r3, #1
 380 0012 DBB2     		uxtb	r3, r3
 381 0014 6371     		strb	r3, [r4, #5]
 245:rtos/uC-USB-Device/Drivers/drv_lib/usbd_drv_lib.c ****         p_setup_pkt_q->IxOut  = 0u;
 382              		.loc 1 245 5 is_stmt 1 view .LVU111
 245:rtos/uC-USB-Device/Drivers/drv_lib/usbd_drv_lib.c ****         p_setup_pkt_q->IxOut  = 0u;
 383              		.loc 1 245 46 is_stmt 0 view .LVU112
 384 0016 E279     		ldrb	r2, [r4, #7]	@ zero_extendqisi2
 245:rtos/uC-USB-Device/Drivers/drv_lib/usbd_drv_lib.c ****         p_setup_pkt_q->IxOut  = 0u;
 385              		.loc 1 245 8 view .LVU113
 386 0018 9342     		cmp	r3, r2
 387 001a 01D3     		bcc	.L20
 246:rtos/uC-USB-Device/Drivers/drv_lib/usbd_drv_lib.c ****     }
 388              		.loc 1 246 9 is_stmt 1 view .LVU114
 246:rtos/uC-USB-Device/Drivers/drv_lib/usbd_drv_lib.c ****     }
 389              		.loc 1 246 31 is_stmt 0 view .LVU115
 390 001c 0023     		movs	r3, #0
 391 001e 6371     		strb	r3, [r4, #5]
 392              	.L20:
 248:rtos/uC-USB-Device/Drivers/drv_lib/usbd_drv_lib.c **** 
 393              		.loc 1 248 5 is_stmt 1 view .LVU116
 248:rtos/uC-USB-Device/Drivers/drv_lib/usbd_drv_lib.c **** 
 394              		.loc 1 248 18 is_stmt 0 view .LVU117
 395 0020 A379     		ldrb	r3, [r4, #6]	@ zero_extendqisi2
 248:rtos/uC-USB-Device/Drivers/drv_lib/usbd_drv_lib.c **** 
 396              		.loc 1 248 23 view .LVU118
 397 0022 013B     		subs	r3, r3, #1
 398 0024 A371     		strb	r3, [r4, #6]
 250:rtos/uC-USB-Device/Drivers/drv_lib/usbd_drv_lib.c ****     CPU_CRITICAL_EXIT();
 399              		.loc 1 250 5 is_stmt 1 view .LVU119
 400 0026 3146     		mov	r1, r6
 401 0028 2046     		mov	r0, r4
 402              	.LVL35:
 250:rtos/uC-USB-Device/Drivers/drv_lib/usbd_drv_lib.c ****     CPU_CRITICAL_EXIT();
ARM GAS  /tmp/ccTY94oP.s 			page 15


 403              		.loc 1 250 5 is_stmt 0 view .LVU120
 404 002a FFF7FEFF 		bl	USBD_DrvLib_SetupPktQSend
 405              	.LVL36:
 251:rtos/uC-USB-Device/Drivers/drv_lib/usbd_drv_lib.c **** }
 406              		.loc 1 251 5 is_stmt 1 view .LVU121
 251:rtos/uC-USB-Device/Drivers/drv_lib/usbd_drv_lib.c **** }
 407              		.loc 1 251 5 view .LVU122
 251:rtos/uC-USB-Device/Drivers/drv_lib/usbd_drv_lib.c **** }
 408              		.loc 1 251 5 view .LVU123
 409 002e 2846     		mov	r0, r5
 410 0030 FFF7FEFF 		bl	CPU_SR_Restore
 411              	.LVL37:
 251:rtos/uC-USB-Device/Drivers/drv_lib/usbd_drv_lib.c **** }
 412              		.loc 1 251 5 view .LVU124
 251:rtos/uC-USB-Device/Drivers/drv_lib/usbd_drv_lib.c **** }
 413              		.loc 1 251 5 view .LVU125
 252:rtos/uC-USB-Device/Drivers/drv_lib/usbd_drv_lib.c **** 
 414              		.loc 1 252 1 is_stmt 0 view .LVU126
 415 0034 70BD     		pop	{r4, r5, r6, pc}
 252:rtos/uC-USB-Device/Drivers/drv_lib/usbd_drv_lib.c **** 
 416              		.loc 1 252 1 view .LVU127
 417              		.cfi_endproc
 418              	.LFE3:
 420              		.text
 421              	.Letext0:
 422              		.file 2 "rtos/uC-CPU/ARM-Cortex-M/ARMv7-M/GNU/cpu.h"
 423              		.file 3 "rtos/uC-LIB/lib_def.h"
 424              		.file 4 "rtos/uC-USB-Device/Drivers/drv_lib/../../Source/usbd_core.h"
 425              		.file 5 "rtos/uC-USB-Device/Drivers/drv_lib/usbd_drv_lib.h"
 426              		.file 6 "rtos/uC-LIB/lib_mem.h"
ARM GAS  /tmp/ccTY94oP.s 			page 16

